 8000  78        SEI  
 8001  D8        CLD  
 8002  A9 1C     LDA  #$1C
 8004  85 10     STA  $10
 8006  A9 F0     LDA  #$F0
 8008  85 11     STA  $11
 800A  A9 16     LDA  #$16
 800C  85 12     STA  $12
 800E  A9 F0     LDA  #$F0
 8010  85 13     STA  $13
 8012  A9 16     LDA  #$16
 8014  85 14     STA  $14
 8016  A9 F0     LDA  #$F0
 8018  85 15     STA  $15
 801A  A2 FF     LDX  #$FF
 801C  9A        TXS  
 801D  A2 78     LDX  #$78
 801F  A9 0A     LDA  #$0A
 8021  85 18     STA  $18
 8023  64 19     STZ  $19
 8025  A9 00     LDA  #$00
 8027  85 1A     STA  $1A
 8029  64 1B     STZ  $1B
 802B  A9 FF     LDA  #$FF
 802D  85 00     STA  $00
 802F  A9 02     LDA  #$02
 8031  85 01     STA  $01
 8033  A9 00     LDA  #$00
 8035  85 08     STA  $08
 8037  A9 02     LDA  #$02
 8039  85 09     STA  $09
 803B  64 0A     STZ  $0A
 803D  64 0B     STZ  $0B
 803F  64 06     STZ  $06
 8041  64 07     STZ  $07
 8043  64 16     STZ  $16
 8045  64 17     STZ  $17
 8047  A9 C2     LDA  #$C2
 8049  85 02     STA  $02
 804B  A9 9C     LDA  #$9C
 804D  85 03     STA  $03
 804F  20 6C 83  JSR  $836C
 8052  CA        DEX  
 8053  CA        DEX  
 8054  CA        DEX  
 8055  CA        DEX  
 8056  A9 77     LDA  #$77
 8058  95 02     STA  $02, X
 805A  A9 92     LDA  #$92
 805C  95 03     STA  $03, X
 805E  A9 D1     LDA  #$D1
 8060  38        SEC  
 8061  E9 77     SBC  #$77
 8063  95 00     STA  $00, X
 8065  A9 95     LDA  #$95
 8067  E9 92     SBC  #$92
 8069  95 01     STA  $01, X
 806B  20 A2 86  JSR  $86A2
 806E  A2 78     LDX  #$78
 8070  8A        TXA  
 8071  A2 FF     LDX  #$FF
 8073  9A        TXS  
 8074  AA        TAX  
 8075  64 0E     STZ  $0E
 8077  64 0F     STZ  $0F
 8079  64 06     STZ  $06
 807B  64 07     STZ  $07
 807D  64 16     STZ  $16
 807F  64 17     STZ  $17
 8081  A9 00     LDA  #$00
 8083  85 08     STA  $08
 8085  A9 02     LDA  #$02
 8087  85 09     STA  $09
 8089  64 0A     STZ  $0A
 808B  64 0B     STZ  $0B
 808D  20 CA 8C  JSR  $8CCA
 8090  B5 00     LDA  $00, X
 8092  D0 05     BNE  $8099
 8094  A9 08     LDA  #$08
 8096  4C 4F A2  JMP  $A24F
 8099  E8        INX  
 809A  E8        INX  
 809B  64 0C     STZ  $0C
 809D  64 0D     STZ  $0D
 809F  20 E2 A1  JSR  $A1E2
 80A2  E0 78     CPX  #$78
 80A4  F0 07     BEQ  $80AD
 80A6  90 05     BCC  $80AD
 80A8  A9 0B     LDA  #$0B
 80AA  4C 4F A2  JMP  $A24F
 80AD  A5 16     LDA  $16
 80AF  D0 04     BNE  $80B5
 80B1  A9 00     LDA  #$00
 80B3  80 02     BRA  $80B7
 80B5  A9 01     LDA  #$01
 80B7  20 62 A2  JSR  $A262
 80BA  80 C5     BRA  $8081
 80BC  EA        NOP  
 80BD  60        RTS  
 80BE  B5 01     LDA  $01, X
 80C0  10 0D     BPL  $80CF
 80C2  38        SEC  
 80C3  A9 00     LDA  #$00
 80C5  F5 00     SBC  $00, X
 80C7  95 00     STA  $00, X
 80C9  A9 00     LDA  #$00
 80CB  F5 01     SBC  $01, X
 80CD  95 01     STA  $01, X
 80CF  60        RTS  
 80D0  E0 75     CPX  #$75
 80D2  30 05     BMI  $80D9
 80D4  A9 0B     LDA  #$0B
 80D6  4C 4F A2  JMP  $A24F
 80D9  B5 00     LDA  $00, X
 80DB  15 01     ORA  $01, X
 80DD  D0 08     BNE  $80E7
 80DF  E8        INX  
 80E0  E8        INX  
 80E1  74 00     STZ  $00, X
 80E3  74 01     STZ  $01, X
 80E5  80 54     BRA  $813B
 80E7  B5 00     LDA  $00, X
 80E9  85 20     STA  $20
 80EB  64 21     STZ  $21
 80ED  B5 02     LDA  $02, X
 80EF  85 1E     STA  $1E
 80F1  B5 03     LDA  $03, X
 80F3  85 1F     STA  $1F
 80F5  E8        INX  
 80F6  E8        INX  
 80F7  A0 00     LDY  #$00
 80F9  20 8F 88  JSR  $888F
 80FC  C9 0A     CMP  #$0A
 80FE  F0 16     BEQ  $8116
 8100  C9 0D     CMP  #$0D
 8102  F0 12     BEQ  $8116
 8104  C9 08     CMP  #$08
 8106  F0 17     BEQ  $811F
 8108  C9 7F     CMP  #$7F
 810A  F0 13     BEQ  $811F
 810C  20 2E 86  JSR  $862E
 810F  91 1E     STA  ($1E), Y
 8111  C8        INY  
 8112  C4 20     CPY  $20
 8114  D0 E3     BNE  $80F9
 8116  94 00     STY  $00, X
 8118  74 01     STZ  $01, X
 811A  20 8C 8E  JSR  $8E8C
 811D  80 1C     BRA  $813B
 811F  C0 00     CPY  #$00
 8121  D0 06     BNE  $8129
 8123  A9 07     LDA  #$07
 8125  20 2E 86  JSR  $862E
 8128  C8        INY  
 8129  88        DEY  
 812A  A9 08     LDA  #$08
 812C  20 2E 86  JSR  $862E
 812F  A9 20     LDA  #$20
 8131  20 2E 86  JSR  $862E
 8134  A9 08     LDA  #$08
 8136  20 2E 86  JSR  $862E
 8139  80 BE     BRA  $80F9
 813B  60        RTS  
 813C  EA        NOP  
 813D  60        RTS  
 813E  EA        NOP  
 813F  60        RTS  
 8140  EA        NOP  
 8141  60        RTS  
 8142  B5 00     LDA  $00, X
 8144  15 01     ORA  $01, X
 8146  F0 49     BEQ  $8191
 8148  B5 01     LDA  $01, X
 814A  30 25     BMI  $8171
 814C  18        CLC  
 814D  B5 00     LDA  $00, X
 814F  65 00     ADC  $00
 8151  85 00     STA  $00
 8153  B5 01     LDA  $01, X
 8155  65 01     ADC  $01
 8157  85 01     STA  $01
 8159  38        SEC  
 815A  A9 FF     LDA  #$FF
 815C  E5 00     SBC  $00
 815E  A9 7F     LDA  #$7F
 8160  E5 01     SBC  $01
 8162  10 2D     BPL  $8191
 8164  A9 FF     LDA  #$FF
 8166  85 00     STA  $00
 8168  A9 7F     LDA  #$7F
 816A  85 01     STA  $01
 816C  A9 01     LDA  #$01
 816E  4C 4F A2  JMP  $A24F
 8171  18        CLC  
 8172  A5 00     LDA  $00
 8174  75 00     ADC  $00, X
 8176  85 00     STA  $00
 8178  A5 01     LDA  $01
 817A  75 01     ADC  $01, X
 817C  85 01     STA  $01
 817E  38        SEC  
 817F  A9 FF     LDA  #$FF
 8181  E5 00     SBC  $00
 8183  A9 02     LDA  #$02
 8185  E5 01     SBC  $01
 8187  30 08     BMI  $8191
 8189  A9 FF     LDA  #$FF
 818B  85 00     STA  $00
 818D  A9 02     LDA  #$02
 818F  85 01     STA  $01
 8191  E8        INX  
 8192  E8        INX  
 8193  60        RTS  
 8194  B5 00     LDA  $00, X
 8196  35 02     AND  $02, X
 8198  95 02     STA  $02, X
 819A  B5 01     LDA  $01, X
 819C  35 03     AND  $03, X
 819E  95 03     STA  $03, X
 81A0  E8        INX  
 81A1  E8        INX  
 81A2  60        RTS  
 81A3  A9 1B     LDA  #$1B
 81A5  20 2E 86  JSR  $862E
 81A8  A9 5B     LDA  #$5B
 81AA  20 2E 86  JSR  $862E
 81AD  B5 03     LDA  $03, X
 81AF  20 B0 A1  JSR  $A1B0
 81B2  A9 3B     LDA  #$3B
 81B4  20 2E 86  JSR  $862E
 81B7  B5 01     LDA  $01, X
 81B9  20 B0 A1  JSR  $A1B0
 81BC  A9 48     LDA  #$48
 81BE  20 2E 86  JSR  $862E
 81C1  E8        INX  
 81C2  E8        INX  
 81C3  E8        INX  
 81C4  E8        INX  
 81C5  60        RTS  
 81C6  A5 0A     LDA  $0A
 81C8  85 0C     STA  $0C
 81CA  A5 0B     LDA  $0B
 81CC  85 0D     STA  $0D
 81CE  60        RTS  
 81CF  CA        DEX  
 81D0  CA        DEX  
 81D1  A9 18     LDA  #$18
 81D3  95 00     STA  $00, X
 81D5  A9 00     LDA  #$00
 81D7  95 01     STA  $01, X
 81D9  60        RTS  
 81DA  EA        NOP  
 81DB  60        RTS  
 81DC  A9 07     LDA  #$07
 81DE  20 2E 86  JSR  $862E
 81E1  60        RTS  
 81E2  CA        DEX  
 81E3  CA        DEX  
 81E4  A9 20     LDA  #$20
 81E6  95 00     STA  $00, X
 81E8  74 01     STZ  $01, X
 81EA  60        RTS  
 81EB  B5 00     LDA  $00, X
 81ED  85 1E     STA  $1E
 81EF  B5 01     LDA  $01, X
 81F1  85 1F     STA  $1F
 81F3  B5 03     LDA  $03, X
 81F5  95 01     STA  $01, X
 81F7  B5 02     LDA  $02, X
 81F9  95 00     STA  $00, X
 81FB  18        CLC  
 81FC  65 1E     ADC  $1E
 81FE  95 02     STA  $02, X
 8200  B5 03     LDA  $03, X
 8202  65 1F     ADC  $1F
 8204  95 03     STA  $03, X
 8206  60        RTS  
 8207  20 44 82  JSR  $8244
 820A  20 D6 88  JSR  $88D6
 820D  60        RTS  
 820E  20 13 8F  JSR  $8F13
 8211  20 D6 88  JSR  $88D6
 8214  60        RTS  
 8215  EA        NOP  
 8216  60        RTS  
 8217  00        BRK  
 8218  60        RTS  
 8219  B5 00     LDA  $00, X
 821B  92 00     STA  ($00)
 821D  E6 00     INC  $00
 821F  D0 02     BNE  $8223
 8221  E6 01     INC  $01
 8223  E8        INX  
 8224  E8        INX  
 8225  60        RTS  
 8226  A1 00     LDA  ($00, X)
 8228  95 00     STA  $00, X
 822A  74 01     STZ  $01, X
 822C  60        RTS  
 822D  B5 02     LDA  $02, X
 822F  81 00     STA  ($00, X)
 8231  E8        INX  
 8232  E8        INX  
 8233  E8        INX  
 8234  E8        INX  
 8235  60        RTS  
 8236  B5 00     LDA  $00, X
 8238  18        CLC  
 8239  69 02     ADC  #$02
 823B  95 00     STA  $00, X
 823D  B5 01     LDA  $01, X
 823F  69 00     ADC  #$00
 8241  95 01     STA  $01, X
 8243  60        RTS  
 8244  20 52 8B  JSR  $8B52
 8247  B5 00     LDA  $00, X
 8249  15 01     ORA  $01, X
 824B  D0 05     BNE  $8252
 824D  A9 06     LDA  #$06
 824F  4C 4F A2  JMP  $A24F
 8252  E8        INX  
 8253  E8        INX  
 8254  A1 00     LDA  ($00, X)
 8256  95 00     STA  $00, X
 8258  74 01     STZ  $01, X
 825A  60        RTS  
 825B  EA        NOP  
 825C  60        RTS  
 825D  EA        NOP  
 825E  60        RTS  
 825F  EA        NOP  
 8260  60        RTS  
 8261  A5 16     LDA  $16
 8263  05 17     ORA  $17
 8265  F0 05     BEQ  $826C
 8267  A9 0A     LDA  #$0A
 8269  4C 4F A2  JMP  $A24F
 826C  C6 16     DEC  $16
 826E  C6 17     DEC  $17
 8270  A5 03     LDA  $03
 8272  48        PHA  
 8273  A5 02     LDA  $02
 8275  48        PHA  
 8276  20 72 83  JSR  $8372
 8279  A5 02     LDA  $02
 827B  85 04     STA  $04
 827D  A5 03     LDA  $03
 827F  85 05     STA  $05
 8281  68        PLA  
 8282  85 02     STA  $02
 8284  68        PLA  
 8285  85 03     STA  $03
 8287  A5 00     LDA  $00
 8289  38        SEC  
 828A  E9 03     SBC  #$03
 828C  85 00     STA  $00
 828E  B0 02     BCS  $8292
 8290  C6 01     DEC  $01
 8292  60        RTS  
 8293  B5 00     LDA  $00, X
 8295  92 00     STA  ($00)
 8297  E6 00     INC  $00
 8299  D0 02     BNE  $829D
 829B  E6 01     INC  $01
 829D  B5 01     LDA  $01, X
 829F  92 00     STA  ($00)
 82A1  E6 00     INC  $00
 82A3  D0 02     BNE  $82A7
 82A5  E6 01     INC  $01
 82A7  E8        INX  
 82A8  E8        INX  
 82A9  60        RTS  
 82AA  B5 01     LDA  $01, X
 82AC  48        PHA  
 82AD  B5 00     LDA  $00, X
 82AF  48        PHA  
 82B0  20 29 88  JSR  $8829
 82B3  B5 00     LDA  $00, X
 82B5  85 26     STA  $26
 82B7  B5 01     LDA  $01, X
 82B9  85 27     STA  $27
 82BB  F6 00     INC  $00, X
 82BD  D0 02     BNE  $82C1
 82BF  F6 01     INC  $01, X
 82C1  A1 00     LDA  ($00, X)
 82C3  85 1E     STA  $1E
 82C5  29 02     AND  #$02
 82C7  F0 05     BEQ  $82CE
 82C9  20 0B 92  JSR  $920B
 82CC  80 16     BRA  $82E4
 82CE  A5 1E     LDA  $1E
 82D0  29 08     AND  #$08
 82D2  D0 19     BNE  $82ED
 82D4  A5 26     LDA  $26
 82D6  95 00     STA  $00, X
 82D8  A5 27     LDA  $27
 82DA  95 01     STA  $01, X
 82DC  20 0B 92  JSR  $920B
 82DF  18        CLC  
 82E0  C5 1A     CMP  $1A
 82E2  B0 09     BCS  $82ED
 82E4  A9 63     LDA  #$63
 82E6  20 2E 86  JSR  $862E
 82E9  20 2E 86  JSR  $862E
 82EC  00        BRK  
 82ED  A9 20     LDA  #$20
 82EF  92 00     STA  ($00)
 82F1  A0 01     LDY  #$01
 82F3  68        PLA  
 82F4  91 00     STA  ($00), Y
 82F6  C8        INY  
 82F7  68        PLA  
 82F8  91 00     STA  ($00), Y
 82FA  A9 03     LDA  #$03
 82FC  18        CLC  
 82FD  65 00     ADC  $00
 82FF  85 00     STA  $00
 8301  90 02     BCC  $8305
 8303  E6 01     INC  $01
 8305  E8        INX  
 8306  E8        INX  
 8307  60        RTS  
 8308  A0 01     LDY  #$01
 830A  B1 02     LDA  ($02), Y
 830C  09 01     ORA  #$01
 830E  91 02     STA  ($02), Y
 8310  60        RTS  
 8311  20 72 83  JSR  $8372
 8314  A5 00     LDA  $00
 8316  E9 02     SBC  #$02
 8318  85 1E     STA  $1E
 831A  A5 01     LDA  $01
 831C  E9 00     SBC  #$00
 831E  85 1F     STA  $1F
 8320  A9 4D     LDA  #$4D
 8322  92 1E     STA  ($1E)
 8324  E6 1E     INC  $1E
 8326  D0 02     BNE  $832A
 8328  E6 1F     INC  $1F
 832A  A9 A1     LDA  #$A1
 832C  92 1E     STA  ($1E)
 832E  20 93 82  JSR  $8293
 8331  20 94 88  JSR  $8894
 8334  B5 00     LDA  $00, X
 8336  18        CLC  
 8337  69 06     ADC  #$06
 8339  85 1E     STA  $1E
 833B  B5 01     LDA  $01, X
 833D  69 00     ADC  #$00
 833F  85 1F     STA  $1F
 8341  B2 1E     LDA  ($1E)
 8343  18        CLC  
 8344  69 02     ADC  #$02
 8346  85 20     STA  $20
 8348  A0 01     LDY  #$01
 834A  B1 1E     LDA  ($1E), Y
 834C  69 00     ADC  #$00
 834E  A8        TAY  
 834F  E6 1E     INC  $1E
 8351  D0 02     BNE  $8355
 8353  E6 1E     INC  $1E
 8355  98        TYA  
 8356  92 1E     STA  ($1E)
 8358  E8        INX  
 8359  E8        INX  
 835A  60        RTS  
 835B  A1 00     LDA  ($00, X)
 835D  A8        TAY  
 835E  F6 00     INC  $00, X
 8360  D0 02     BNE  $8364
 8362  F6 01     INC  $01, X
 8364  98        TYA  
 8365  CA        DEX  
 8366  CA        DEX  
 8367  95 00     STA  $00, X
 8369  74 01     STZ  $01, X
 836B  60        RTS  
 836C  A9 0A     LDA  #$0A
 836E  20 2E 86  JSR  $862E
 8371  60        RTS  
 8372  20 52 8B  JSR  $8B52
 8375  B5 00     LDA  $00, X
 8377  15 01     ORA  $01, X
 8379  D0 05     BNE  $8380
 837B  A9 06     LDA  #$06
 837D  4C 4F A2  JMP  $A24F
 8380  74 01     STZ  $01, X
 8382  B5 00     LDA  $00, X
 8384  85 20     STA  $20
 8386  A5 00     LDA  $00
 8388  85 1E     STA  $1E
 838A  A5 01     LDA  $01
 838C  85 1F     STA  $1F
 838E  B5 00     LDA  $00, X
 8390  18        CLC  
 8391  69 08     ADC  #$08
 8393  85 22     STA  $22
 8395  18        CLC  
 8396  69 03     ADC  #$03
 8398  95 00     STA  $00, X
 839A  74 01     STZ  $01, X
 839C  20 42 81  JSR  $8142
 839F  A0 00     LDY  #$00
 83A1  A5 20     LDA  $20
 83A3  91 1E     STA  ($1E), Y
 83A5  98        TYA  
 83A6  C8        INY  
 83A7  91 1E     STA  ($1E), Y
 83A9  C8        INY  
 83AA  A5 02     LDA  $02
 83AC  91 1E     STA  ($1E), Y
 83AE  C8        INY  
 83AF  A5 03     LDA  $03
 83B1  91 1E     STA  ($1E), Y
 83B3  C8        INY  
 83B4  A5 1F     LDA  $1F
 83B6  85 03     STA  $03
 83B8  A5 1E     LDA  $1E
 83BA  85 02     STA  $02
 83BC  18        CLC  
 83BD  65 22     ADC  $22
 83BF  91 1E     STA  ($1E), Y
 83C1  48        PHA  
 83C2  C8        INY  
 83C3  A5 1F     LDA  $1F
 83C5  69 00     ADC  #$00
 83C7  91 1E     STA  ($1E), Y
 83C9  C8        INY  
 83CA  68        PLA  
 83CB  18        CLC  
 83CC  69 03     ADC  #$03
 83CE  91 1E     STA  ($1E), Y
 83D0  88        DEY  
 83D1  B1 1E     LDA  ($1E), Y
 83D3  69 00     ADC  #$00
 83D5  C8        INY  
 83D6  C8        INY  
 83D7  91 1E     STA  ($1E), Y
 83D9  C8        INY  
 83DA  B5 00     LDA  $00, X
 83DC  38        SEC  
 83DD  E9 08     SBC  #$08
 83DF  85 26     STA  $26
 83E1  B5 01     LDA  $01, X
 83E3  E9 00     SBC  #$00
 83E5  85 27     STA  $27
 83E7  B1 26     LDA  ($26), Y
 83E9  91 1E     STA  ($1E), Y
 83EB  C8        INY  
 83EC  C6 20     DEC  $20
 83EE  D0 F7     BNE  $83E7
 83F0  A9 20     LDA  #$20
 83F2  91 1E     STA  ($1E), Y
 83F4  C8        INY  
 83F5  A9 A2     LDA  #$A2
 83F7  91 1E     STA  ($1E), Y
 83F9  C8        INY  
 83FA  A9 A1     LDA  #$A1
 83FC  91 1E     STA  ($1E), Y
 83FE  E8        INX  
 83FF  E8        INX  
 8400  60        RTS  
 8401  E0 71     CPX  #$71
 8403  30 05     BMI  $840A
 8405  A9 0B     LDA  #$0B
 8407  4C 4F A2  JMP  $A24F
 840A  38        SEC  
 840B  B5 06     LDA  $06, X
 840D  F5 02     SBC  $02, X
 840F  95 06     STA  $06, X
 8411  B5 07     LDA  $07, X
 8413  F5 03     SBC  $03, X
 8415  95 07     STA  $07, X
 8417  B5 04     LDA  $04, X
 8419  F5 00     SBC  $00, X
 841B  95 04     STA  $04, X
 841D  B5 05     LDA  $05, X
 841F  F5 01     SBC  $01, X
 8421  95 05     STA  $05, X
 8423  E8        INX  
 8424  E8        INX  
 8425  E8        INX  
 8426  E8        INX  
 8427  60        RTS  
 8428  E0 71     CPX  #$71
 842A  30 05     BMI  $8431
 842C  A9 0B     LDA  #$0B
 842E  4C 4F A2  JMP  $A24F
 8431  18        CLC  
 8432  B5 02     LDA  $02, X
 8434  75 06     ADC  $06, X
 8436  95 06     STA  $06, X
 8438  B5 03     LDA  $03, X
 843A  75 07     ADC  $07, X
 843C  95 07     STA  $07, X
 843E  B5 00     LDA  $00, X
 8440  75 04     ADC  $04, X
 8442  95 04     STA  $04, X
 8444  B5 01     LDA  $01, X
 8446  75 05     ADC  $05, X
 8448  95 05     STA  $05, X
 844A  E8        INX  
 844B  E8        INX  
 844C  E8        INX  
 844D  E8        INX  
 844E  60        RTS  
 844F  E0 75     CPX  #$75
 8451  30 05     BMI  $8458
 8453  A9 0B     LDA  #$0B
 8455  4C 4F A2  JMP  $A24F
 8458  E8        INX  
 8459  E8        INX  
 845A  60        RTS  
 845B  B5 01     LDA  $01, X
 845D  10 17     BPL  $8476
 845F  A0 00     LDY  #$00
 8461  38        SEC  
 8462  98        TYA  
 8463  F5 02     SBC  $02, X
 8465  95 02     STA  $02, X
 8467  98        TYA  
 8468  F5 03     SBC  $03, X
 846A  95 03     STA  $03, X
 846C  98        TYA  
 846D  F5 00     SBC  $00, X
 846F  95 00     STA  $00, X
 8471  98        TYA  
 8472  F5 01     SBC  $01, X
 8474  95 01     STA  $01, X
 8476  60        RTS  
 8477  A9 0A     LDA  #$0A
 8479  85 18     STA  $18
 847B  64 19     STZ  $19
 847D  60        RTS  
 847E  20 72 83  JSR  $8372
 8481  A5 00     LDA  $00
 8483  38        SEC  
 8484  E9 02     SBC  #$02
 8486  85 00     STA  $00
 8488  A5 01     LDA  $01
 848A  E9 00     SBC  #$00
 848C  85 01     STA  $01
 848E  A9 A1     LDA  #$A1
 8490  48        PHA  
 8491  A9 61     LDA  #$61
 8493  48        PHA  
 8494  20 2C A1  JSR  $A12C
 8497  A9 83     LDA  #$83
 8499  92 00     STA  ($00)
 849B  E6 00     INC  $00
 849D  D0 02     BNE  $84A1
 849F  E6 01     INC  $01
 84A1  A9 A1     LDA  #$A1
 84A3  92 00     STA  ($00)
 84A5  E6 00     INC  $00
 84A7  D0 02     BNE  $84AB
 84A9  E6 01     INC  $01
 84AB  20 31 83  JSR  $8331
 84AE  60        RTS  
 84AF  A9 78     LDA  #$78
 84B1  86 24     STX  $24
 84B3  38        SEC  
 84B4  E5 24     SBC  $24
 84B6  4A        LSR  
 84B7  CA        DEX  
 84B8  CA        DEX  
 84B9  95 00     STA  $00, X
 84BB  74 01     STZ  $01, X
 84BD  60        RTS  
 84BE  CA        DEX  
 84BF  CA        DEX  
 84C0  74 00     STZ  $00, X
 84C2  74 01     STZ  $01, X
 84C4  74 03     STZ  $03, X
 84C6  B5 02     LDA  $02, X
 84C8  C9 30     CMP  #$30
 84CA  90 23     BCC  $84EF
 84CC  C9 3A     CMP  #$3A
 84CE  90 12     BCC  $84E2
 84D0  C9 40     CMP  #$40
 84D2  90 1B     BCC  $84EF
 84D4  C9 61     CMP  #$61
 84D6  90 07     BCC  $84DF
 84D8  C9 7B     CMP  #$7B
 84DA  B0 03     BCS  $84DF
 84DC  18        CLC  
 84DD  69 E0     ADC  #$E0
 84DF  38        SEC  
 84E0  E9 07     SBC  #$07
 84E2  38        SEC  
 84E3  E9 30     SBC  #$30
 84E5  C5 18     CMP  $18
 84E7  B0 06     BCS  $84EF
 84E9  95 02     STA  $02, X
 84EB  D6 00     DEC  $00, X
 84ED  D6 01     DEC  $01, X
 84EF  60        RTS  
 84F0  B5 02     LDA  $02, X
 84F2  49 FF     EOR  #$FF
 84F4  18        CLC  
 84F5  69 01     ADC  #$01
 84F7  95 02     STA  $02, X
 84F9  B5 03     LDA  $03, X
 84FB  49 FF     EOR  #$FF
 84FD  69 00     ADC  #$00
 84FF  95 03     STA  $03, X
 8501  B5 00     LDA  $00, X
 8503  49 FF     EOR  #$FF
 8505  69 00     ADC  #$00
 8507  95 00     STA  $00, X
 8509  B5 01     LDA  $01, X
 850B  49 FF     EOR  #$FF
 850D  69 00     ADC  #$00
 850F  95 01     STA  $01, X
 8511  60        RTS  
 8512  EA        NOP  
 8513  60        RTS  
 8514  A9 85     LDA  #$85
 8516  48        PHA  
 8517  A9 27     LDA  #$27
 8519  48        PHA  
 851A  20 1E A1  JSR  $A11E
 851D  A9 A1     LDA  #$A1
 851F  48        PHA  
 8520  A9 88     LDA  #$88
 8522  48        PHA  
 8523  20 1E A1  JSR  $A11E
 8526  60        RTS  
 8527  7A        PLY  
 8528  68        PLA  
 8529  C8        INY  
 852A  D0 01     BNE  $852D
 852C  1A        INC  
 852D  84 1E     STY  $1E
 852F  85 1F     STA  $1F
 8531  A5 02     LDA  $02
 8533  18        CLC  
 8534  69 04     ADC  #$04
 8536  85 20     STA  $20
 8538  A5 03     LDA  $03
 853A  69 00     ADC  #$00
 853C  85 21     STA  $21
 853E  B2 20     LDA  ($20)
 8540  18        CLC  
 8541  69 01     ADC  #$01
 8543  85 22     STA  $22
 8545  A0 01     LDY  #$01
 8547  B1 20     LDA  ($20), Y
 8549  69 00     ADC  #$00
 854B  85 23     STA  $23
 854D  A5 1E     LDA  $1E
 854F  92 22     STA  ($22)
 8551  A5 1F     LDA  $1F
 8553  91 22     STA  ($22), Y
 8555  60        RTS  
 8556  E0 77     CPX  #$77
 8558  30 05     BMI  $855F
 855A  A9 0B     LDA  #$0B
 855C  4C 4F A2  JMP  $A24F
 855F  20 0B 86  JSR  $860B
 8562  20 BE 80  JSR  $80BE
 8565  20 38 92  JSR  $9238
 8568  20 AD 88  JSR  $88AD
 856B  20 C9 8A  JSR  $8AC9
 856E  20 13 8D  JSR  $8D13
 8571  20 74 8D  JSR  $8D74
 8574  20 AA 8A  JSR  $8AAA
 8577  20 EA 90  JSR  $90EA
 857A  20 8C 8E  JSR  $8E8C
 857D  60        RTS  
 857E  EA        NOP  
 857F  60        RTS  
 8580  CA        DEX  
 8581  CA        DEX  
 8582  A9 22     LDA  #$22
 8584  95 00     STA  $00, X
 8586  74 01     STZ  $01, X
 8588  20 AE 8B  JSR  $8BAE
 858B  20 88 8D  JSR  $8D88
 858E  A9 90     LDA  #$90
 8590  48        PHA  
 8591  A9 EA     LDA  #$EA
 8593  48        PHA  
 8594  20 1E A1  JSR  $A11E
 8597  60        RTS  
 8598  20 AF 84  JSR  $84AF
 859B  A9 3C     LDA  #$3C
 859D  20 2E 86  JSR  $862E
 85A0  B5 00     LDA  $00, X
 85A2  A8        TAY  
 85A3  20 B0 A1  JSR  $A1B0
 85A6  A9 3E     LDA  #$3E
 85A8  20 2E 86  JSR  $862E
 85AB  A9 20     LDA  #$20
 85AD  20 2E 86  JSR  $862E
 85B0  E8        INX  
 85B1  E8        INX  
 85B2  E0 78     CPX  #$78
 85B4  F0 1D     BEQ  $85D3
 85B6  84 1E     STY  $1E
 85B8  A9 77     LDA  #$77
 85BA  85 20     STA  $20
 85BC  64 21     STZ  $21
 85BE  B2 20     LDA  ($20)
 85C0  20 B0 A1  JSR  $A1B0
 85C3  C6 20     DEC  $20
 85C5  B2 20     LDA  ($20)
 85C7  20 B0 A1  JSR  $A1B0
 85CA  C6 20     DEC  $20
 85CC  20 8C 8E  JSR  $8E8C
 85CF  C6 1E     DEC  $1E
 85D1  D0 EB     BNE  $85BE
 85D3  60        RTS  
 85D4  E0 77     CPX  #$77
 85D6  30 05     BMI  $85DD
 85D8  A9 0B     LDA  #$0B
 85DA  4C 4F A2  JMP  $A24F
 85DD  E8        INX  
 85DE  E8        INX  
 85DF  60        RTS  
 85E0  20 6C 83  JSR  $836C
 85E3  A0 10     LDY  #$10
 85E5  B5 00     LDA  $00, X
 85E7  15 01     ORA  $01, X
 85E9  F0 1B     BEQ  $8606
 85EB  A1 02     LDA  ($02, X)
 85ED  20 B0 A1  JSR  $A1B0
 85F0  20 8C 8E  JSR  $8E8C
 85F3  F6 02     INC  $02, X
 85F5  D0 02     BNE  $85F9
 85F7  F6 03     INC  $03, X
 85F9  B5 00     LDA  $00, X
 85FB  D0 02     BNE  $85FF
 85FD  D6 01     DEC  $01, X
 85FF  D6 00     DEC  $00, X
 8601  88        DEY  
 8602  D0 E1     BNE  $85E5
 8604  80 DA     BRA  $85E0
 8606  E8        INX  
 8607  E8        INX  
 8608  E8        INX  
 8609  E8        INX  
 860A  60        RTS  
 860B  E0 77     CPX  #$77
 860D  30 05     BMI  $8614
 860F  A9 0B     LDA  #$0B
 8611  4C 4F A2  JMP  $A24F
 8614  CA        DEX  
 8615  CA        DEX  
 8616  B5 02     LDA  $02, X
 8618  95 00     STA  $00, X
 861A  B5 03     LDA  $03, X
 861C  95 01     STA  $01, X
 861E  60        RTS  
 861F  EA        NOP  
 8620  60        RTS  
 8621  E0 77     CPX  #$77
 8623  30 05     BMI  $862A
 8625  A9 0B     LDA  #$0B
 8627  4C 4F A2  JMP  $A24F
 862A  B5 00     LDA  $00, X
 862C  E8        INX  
 862D  E8        INX  
 862E  6C 10 00  JMP  ($0010)
 8631  E0 75     CPX  #$75
 8633  30 05     BMI  $863A
 8635  A9 0B     LDA  #$0B
 8637  4C 4F A2  JMP  $A24F
 863A  B5 00     LDA  $00, X
 863C  D5 02     CMP  $02, X
 863E  D0 0A     BNE  $864A
 8640  B5 01     LDA  $01, X
 8642  D5 03     CMP  $03, X
 8644  D0 04     BNE  $864A
 8646  A9 FF     LDA  #$FF
 8648  80 02     BRA  $864C
 864A  A9 00     LDA  #$00
 864C  95 02     STA  $02, X
 864E  95 03     STA  $03, X
 8650  E8        INX  
 8651  E8        INX  
 8652  60        RTS  
 8653  CA        DEX  
 8654  CA        DEX  
 8655  74 00     STZ  $00, X
 8657  74 01     STZ  $01, X
 8659  E0 73     CPX  #$73
 865B  30 05     BMI  $8662
 865D  A9 0B     LDA  #$0B
 865F  4C 4F A2  JMP  $A24F
 8662  B5 04     LDA  $04, X
 8664  85 1E     STA  $1E
 8666  B5 05     LDA  $05, X
 8668  85 1F     STA  $1F
 866A  B5 02     LDA  $02, X
 866C  85 20     STA  $20
 866E  B5 03     LDA  $03, X
 8670  85 21     STA  $21
 8672  B5 00     LDA  $00, X
 8674  A8        TAY  
 8675  A9 7F     LDA  #$7F
 8677  C5 1F     CMP  $1F
 8679  90 21     BCC  $869C
 867B  D0 06     BNE  $8683
 867D  A9 FF     LDA  #$FF
 867F  C5 1E     CMP  $1E
 8681  90 19     BCC  $869C
 8683  A5 20     LDA  $20
 8685  45 21     EOR  $21
 8687  F0 13     BEQ  $869C
 8689  98        TYA  
 868A  92 1E     STA  ($1E)
 868C  A5 20     LDA  $20
 868E  D0 02     BNE  $8692
 8690  C6 21     DEC  $21
 8692  C6 20     DEC  $20
 8694  E6 1E     INC  $1E
 8696  D0 DD     BNE  $8675
 8698  E6 1F     INC  $1F
 869A  80 D9     BRA  $8675
 869C  8A        TXA  
 869D  18        CLC  
 869E  69 06     ADC  #$06
 86A0  AA        TAX  
 86A1  60        RTS  
 86A2  E0 75     CPX  #$75
 86A4  30 05     BMI  $86AB
 86A6  A9 0B     LDA  #$0B
 86A8  4C 4F A2  JMP  $A24F
 86AB  B5 00     LDA  $00, X
 86AD  15 01     ORA  $01, X
 86AF  F0 4D     BEQ  $86FE
 86B1  A5 0D     LDA  $0D
 86B3  48        PHA  
 86B4  A5 0C     LDA  $0C
 86B6  48        PHA  
 86B7  A5 07     LDA  $07
 86B9  48        PHA  
 86BA  A5 06     LDA  $06
 86BC  48        PHA  
 86BD  A5 09     LDA  $09
 86BF  48        PHA  
 86C0  A5 08     LDA  $08
 86C2  48        PHA  
 86C3  A5 0B     LDA  $0B
 86C5  48        PHA  
 86C6  A5 0A     LDA  $0A
 86C8  48        PHA  
 86C9  A9 FF     LDA  #$FF
 86CB  85 06     STA  $06
 86CD  85 07     STA  $07
 86CF  64 0C     STZ  $0C
 86D1  64 0D     STZ  $0D
 86D3  B5 00     LDA  $00, X
 86D5  85 0A     STA  $0A
 86D7  B5 01     LDA  $01, X
 86D9  85 0B     STA  $0B
 86DB  B5 02     LDA  $02, X
 86DD  85 08     STA  $08
 86DF  B5 03     LDA  $03, X
 86E1  85 09     STA  $09
 86E3  20 E2 A1  JSR  $A1E2
 86E6  68        PLA  
 86E7  85 0A     STA  $0A
 86E9  68        PLA  
 86EA  85 0B     STA  $0B
 86EC  68        PLA  
 86ED  85 08     STA  $08
 86EF  68        PLA  
 86F0  85 09     STA  $09
 86F2  68        PLA  
 86F3  85 06     STA  $06
 86F5  68        PLA  
 86F6  85 07     STA  $07
 86F8  68        PLA  
 86F9  85 0C     STA  $0C
 86FB  68        PLA  
 86FC  85 0D     STA  $0D
 86FE  E8        INX  
 86FF  E8        INX  
 8700  E8        INX  
 8701  E8        INX  
 8702  60        RTS  
 8703  B5 00     LDA  $00, X
 8705  85 0E     STA  $0E
 8707  B5 01     LDA  $01, X
 8709  85 0F     STA  $0F
 870B  E8        INX  
 870C  E8        INX  
 870D  A9 87     LDA  #$87
 870F  48        PHA  
 8710  A9 16     LDA  #$16
 8712  48        PHA  
 8713  6C 0E 00  JMP  ($000E)
 8716  EA        NOP  
 8717  60        RTS  
 8718  EA        NOP  
 8719  60        RTS  
 871A  CA        DEX  
 871B  CA        DEX  
 871C  74 00     STZ  $00, X
 871E  74 01     STZ  $01, X
 8720  60        RTS  
 8721  A1 00     LDA  ($00, X)
 8723  A8        TAY  
 8724  F6 00     INC  $00, X
 8726  D0 02     BNE  $872A
 8728  F6 01     INC  $01, X
 872A  A1 00     LDA  ($00, X)
 872C  95 01     STA  $01, X
 872E  98        TYA  
 872F  95 00     STA  $00, X
 8731  60        RTS  
 8732  EA        NOP  
 8733  60        RTS  
 8734  B5 00     LDA  $00, X
 8736  15 01     ORA  $01, X
 8738  F0 57     BEQ  $8791
 873A  A5 02     LDA  $02
 873C  85 1E     STA  $1E
 873E  A5 03     LDA  $03
 8740  85 1F     STA  $1F
 8742  B5 02     LDA  $02, X
 8744  85 20     STA  $20
 8746  B5 03     LDA  $03, X
 8748  85 21     STA  $21
 874A  B2 1E     LDA  ($1E)
 874C  D5 00     CMP  $00, X
 874E  D0 30     BNE  $8780
 8750  A0 08     LDY  #$08
 8752  B1 1E     LDA  ($1E), Y
 8754  D2 20     CMP  ($20)
 8756  D0 28     BNE  $8780
 8758  B5 00     LDA  $00, X
 875A  3A        DEC  
 875B  F0 19     BEQ  $8776
 875D  A5 1E     LDA  $1E
 875F  18        CLC  
 8760  69 08     ADC  #$08
 8762  85 22     STA  $22
 8764  A5 1F     LDA  $1F
 8766  69 00     ADC  #$00
 8768  85 23     STA  $23
 876A  B4 00     LDY  $00, X
 876C  88        DEY  
 876D  B1 20     LDA  ($20), Y
 876F  D1 22     CMP  ($22), Y
 8771  D0 0D     BNE  $8780
 8773  88        DEY  
 8774  D0 F7     BNE  $876D
 8776  A5 1E     LDA  $1E
 8778  95 02     STA  $02, X
 877A  A5 1F     LDA  $1F
 877C  95 03     STA  $03, X
 877E  80 15     BRA  $8795
 8780  A0 02     LDY  #$02
 8782  B1 1E     LDA  ($1E), Y
 8784  48        PHA  
 8785  C8        INY  
 8786  B1 1E     LDA  ($1E), Y
 8788  85 1F     STA  $1F
 878A  68        PLA  
 878B  85 1E     STA  $1E
 878D  05 1F     ORA  $1F
 878F  D0 B9     BNE  $874A
 8791  74 02     STZ  $02, X
 8793  74 03     STZ  $03, X
 8795  E8        INX  
 8796  E8        INX  
 8797  60        RTS  
 8798  E0 73     CPX  #$73
 879A  30 05     BMI  $87A1
 879C  A9 0B     LDA  #$0B
 879E  4C 4F A2  JMP  $A24F
 87A1  64 20     STZ  $20
 87A3  B5 01     LDA  $01, X
 87A5  10 0E     BPL  $87B5
 87A7  E6 20     INC  $20
 87A9  20 AC 89  JSR  $89AC
 87AC  20 2D 90  JSR  $902D
 87AF  20 F0 84  JSR  $84F0
 87B2  20 B7 8C  JSR  $8CB7
 87B5  B5 03     LDA  $03, X
 87B7  10 0D     BPL  $87C6
 87B9  18        CLC  
 87BA  B5 00     LDA  $00, X
 87BC  75 02     ADC  $02, X
 87BE  95 02     STA  $02, X
 87C0  B5 01     LDA  $01, X
 87C2  75 03     ADC  $03, X
 87C4  95 03     STA  $03, X
 87C6  20 32 91  JSR  $9132
 87C9  A5 20     LDA  $20
 87CB  F0 07     BEQ  $87D4
 87CD  E8        INX  
 87CE  E8        INX  
 87CF  20 AC 89  JSR  $89AC
 87D2  CA        DEX  
 87D3  CA        DEX  
 87D4  60        RTS  
 87D5  E0 75     CPX  #$75
 87D7  30 05     BMI  $87DE
 87D9  A9 0B     LDA  #$0B
 87DB  4C 4F A2  JMP  $A24F
 87DE  A0 00     LDY  #$00
 87E0  20 C7 A1  JSR  $A1C7
 87E3  F0 03     BEQ  $87E8
 87E5  10 01     BPL  $87E8
 87E7  88        DEY  
 87E8  98        TYA  
 87E9  E8        INX  
 87EA  E8        INX  
 87EB  95 00     STA  $00, X
 87ED  95 01     STA  $01, X
 87EF  60        RTS  
 87F0  CA        DEX  
 87F1  CA        DEX  
 87F2  A5 00     LDA  $00
 87F4  95 00     STA  $00, X
 87F6  A5 01     LDA  $01
 87F8  95 01     STA  $01, X
 87FA  60        RTS  
 87FB  A9 10     LDA  #$10
 87FD  85 18     STA  $18
 87FF  64 19     STZ  $19
 8801  60        RTS  
 8802  A5 28     LDA  $28
 8804  D0 02     BNE  $8808
 8806  C6 29     DEC  $29
 8808  C6 28     DEC  $28
 880A  B5 00     LDA  $00, X
 880C  92 28     STA  ($28)
 880E  E8        INX  
 880F  E8        INX  
 8810  60        RTS  
 8811  EA        NOP  
 8812  60        RTS  
 8813  EA        NOP  
 8814  60        RTS  
 8815  A0 01     LDY  #$01
 8817  B1 02     LDA  ($02), Y
 8819  09 04     ORA  #$04
 881B  91 02     STA  ($02), Y
 881D  60        RTS  
 881E  CA        DEX  
 881F  CA        DEX  
 8820  A9 12     LDA  #$12
 8822  95 00     STA  $00, X
 8824  A9 00     LDA  #$00
 8826  95 01     STA  $01, X
 8828  60        RTS  
 8829  A5 02     LDA  $02
 882B  85 20     STA  $20
 882D  A5 03     LDA  $03
 882F  85 21     STA  $21
 8831  B5 00     LDA  $00, X
 8833  85 22     STA  $22
 8835  B5 01     LDA  $01, X
 8837  85 23     STA  $23
 8839  A0 04     LDY  #$04
 883B  B1 20     LDA  ($20), Y
 883D  C5 22     CMP  $22
 883F  D0 07     BNE  $8848
 8841  C8        INY  
 8842  B1 20     LDA  ($20), Y
 8844  C5 23     CMP  $23
 8846  F0 25     BEQ  $886D
 8848  18        CLC  
 8849  A5 20     LDA  $20
 884B  69 02     ADC  #$02
 884D  85 20     STA  $20
 884F  A5 21     LDA  $21
 8851  69 00     ADC  #$00
 8853  85 21     STA  $21
 8855  A0 00     LDY  #$00
 8857  B1 20     LDA  ($20), Y
 8859  48        PHA  
 885A  C8        INY  
 885B  11 20     ORA  ($20), Y
 885D  F0 09     BEQ  $8868
 885F  B1 20     LDA  ($20), Y
 8861  85 21     STA  $21
 8863  68        PLA  
 8864  85 20     STA  $20
 8866  80 D1     BRA  $8839
 8868  A9 0D     LDA  #$0D
 886A  4C 4F A2  JMP  $A24F
 886D  A5 20     LDA  $20
 886F  95 00     STA  $00, X
 8871  A5 21     LDA  $21
 8873  95 01     STA  $01, X
 8875  60        RTS  
 8876  A9 FF     LDA  #$FF
 8878  A8        TAY  
 8879  55 00     EOR  $00, X
 887B  95 00     STA  $00, X
 887D  98        TYA  
 887E  55 01     EOR  $01, X
 8880  95 01     STA  $01, X
 8882  60        RTS  
 8883  EA        NOP  
 8884  60        RTS  
 8885  20 8F 88  JSR  $888F
 8888  CA        DEX  
 8889  CA        DEX  
 888A  95 00     STA  $00, X
 888C  74 01     STZ  $01, X
 888E  60        RTS  
 888F  6C 12 00  JMP  ($0012)
 8892  EA        NOP  
 8893  60        RTS  
 8894  CA        DEX  
 8895  CA        DEX  
 8896  A5 02     LDA  $02
 8898  95 00     STA  $00, X
 889A  A5 03     LDA  $03
 889C  95 01     STA  $01, X
 889E  60        RTS  
 889F  20 94 88  JSR  $8894
 88A2  20 79 89  JSR  $8979
 88A5  60        RTS  
 88A6  EA        NOP  
 88A7  60        RTS  
 88A8  64 16     STZ  $16
 88AA  64 17     STZ  $17
 88AC  60        RTS  
 88AD  20 1E 8B  JSR  $8B1E
 88B0  B5 00     LDA  $00, X
 88B2  85 28     STA  $28
 88B4  B5 01     LDA  $01, X
 88B6  85 29     STA  $29
 88B8  E8        INX  
 88B9  E8        INX  
 88BA  60        RTS  
 88BB  E0 75     CPX  #$75
 88BD  30 05     BMI  $88C4
 88BF  A9 0B     LDA  #$0B
 88C1  4C 4F A2  JMP  $A24F
 88C4  A0 00     LDY  #$00
 88C6  20 C7 A1  JSR  $A1C7
 88C9  F0 03     BEQ  $88CE
 88CB  30 01     BMI  $88CE
 88CD  88        DEY  
 88CE  98        TYA  
 88CF  E8        INX  
 88D0  E8        INX  
 88D1  95 00     STA  $00, X
 88D3  95 01     STA  $01, X
 88D5  60        RTS  
 88D6  A9 88     LDA  #$88
 88D8  48        PHA  
 88D9  A9 E3     LDA  #$E3
 88DB  48        PHA  
 88DC  20 1E A1  JSR  $A11E
 88DF  20 93 82  JSR  $8293
 88E2  60        RTS  
 88E3  CA        DEX  
 88E4  CA        DEX  
 88E5  7A        PLY  
 88E6  68        PLA  
 88E7  C8        INY  
 88E8  D0 01     BNE  $88EB
 88EA  1A        INC  
 88EB  84 1E     STY  $1E
 88ED  85 1F     STA  $1F
 88EF  B2 1E     LDA  ($1E)
 88F1  95 00     STA  $00, X
 88F3  E6 1E     INC  $1E
 88F5  D0 02     BNE  $88F9
 88F7  E6 1F     INC  $1F
 88F9  B2 1E     LDA  ($1E)
 88FB  95 01     STA  $01, X
 88FD  A5 1F     LDA  $1F
 88FF  48        PHA  
 8900  A5 1E     LDA  $1E
 8902  48        PHA  
 8903  60        RTS  
 8904  EA        NOP  
 8905  60        RTS  
 8906  B5 00     LDA  $00, X
 8908  29 0F     AND  #$0F
 890A  F0 08     BEQ  $8914
 890C  A8        TAY  
 890D  16 02     ASL  $02, X
 890F  36 03     ROL  $03, X
 8911  88        DEY  
 8912  D0 F9     BNE  $890D
 8914  E8        INX  
 8915  E8        INX  
 8916  60        RTS  
 8917  B5 01     LDA  $01, X
 8919  55 03     EOR  $03, X
 891B  48        PHA  
 891C  20 BE 80  JSR  $80BE
 891F  20 F7 8E  JSR  $8EF7
 8922  20 BE 80  JSR  $80BE
 8925  20 71 91  JSR  $9171
 8928  68        PLA  
 8929  10 03     BPL  $892E
 892B  20 F0 84  JSR  $84F0
 892E  60        RTS  
 892F  EA        NOP  
 8930  60        RTS  
 8931  B5 00     LDA  $00, X
 8933  D5 02     CMP  $02, X
 8935  B5 01     LDA  $01, X
 8937  F5 03     SBC  $03, X
 8939  50 02     BVC  $893D
 893B  49 80     EOR  #$80
 893D  30 08     BMI  $8947
 893F  B5 00     LDA  $00, X
 8941  95 02     STA  $02, X
 8943  B5 01     LDA  $01, X
 8945  95 03     STA  $03, X
 8947  E8        INX  
 8948  E8        INX  
 8949  60        RTS  
 894A  B5 00     LDA  $00, X
 894C  D5 02     CMP  $02, X
 894E  B5 01     LDA  $01, X
 8950  F5 03     SBC  $03, X
 8952  50 02     BVC  $8956
 8954  49 80     EOR  #$80
 8956  10 08     BPL  $8960
 8958  B5 00     LDA  $00, X
 895A  95 02     STA  $02, X
 895C  B5 01     LDA  $01, X
 895E  95 03     STA  $03, X
 8960  E8        INX  
 8961  E8        INX  
 8962  60        RTS  
 8963  38        SEC  
 8964  B5 02     LDA  $02, X
 8966  F5 00     SBC  $00, X
 8968  95 02     STA  $02, X
 896A  B5 03     LDA  $03, X
 896C  F5 01     SBC  $01, X
 896E  95 03     STA  $03, X
 8970  E8        INX  
 8971  E8        INX  
 8972  60        RTS  
 8973  EA        NOP  
 8974  60        RTS  
 8975  EA        NOP  
 8976  60        RTS  
 8977  EA        NOP  
 8978  60        RTS  
 8979  B5 00     LDA  $00, X
 897B  18        CLC  
 897C  69 04     ADC  #$04
 897E  85 22     STA  $22
 8980  B5 01     LDA  $01, X
 8982  90 01     BCC  $8985
 8984  1A        INC  
 8985  85 23     STA  $23
 8987  A0 00     LDY  #$00
 8989  B1 22     LDA  ($22), Y
 898B  95 00     STA  $00, X
 898D  C8        INY  
 898E  B1 22     LDA  ($22), Y
 8990  95 01     STA  $01, X
 8992  60        RTS  
 8993  CA        DEX  
 8994  CA        DEX  
 8995  A1 02     LDA  ($02, X)
 8997  95 00     STA  $00, X
 8999  74 01     STZ  $01, X
 899B  B5 02     LDA  $02, X
 899D  18        CLC  
 899E  69 08     ADC  #$08
 89A0  A8        TAY  
 89A1  B5 03     LDA  $03, X
 89A3  69 00     ADC  #$00
 89A5  95 03     STA  $03, X
 89A7  94 02     STY  $02, X
 89A9  60        RTS  
 89AA  EA        NOP  
 89AB  60        RTS  
 89AC  B5 00     LDA  $00, X
 89AE  49 FF     EOR  #$FF
 89B0  18        CLC  
 89B1  69 01     ADC  #$01
 89B3  95 00     STA  $00, X
 89B5  B5 01     LDA  $01, X
 89B7  49 FF     EOR  #$FF
 89B9  69 00     ADC  #$00
 89BB  95 01     STA  $01, X
 89BD  60        RTS  
 89BE  EA        NOP  
 89BF  60        RTS  
 89C0  B5 00     LDA  $00, X
 89C2  95 02     STA  $02, X
 89C4  B5 01     LDA  $01, X
 89C6  95 03     STA  $03, X
 89C8  E8        INX  
 89C9  E8        INX  
 89CA  60        RTS  
 89CB  E0 75     CPX  #$75
 89CD  30 05     BMI  $89D4
 89CF  A9 0B     LDA  #$0B
 89D1  4C 4F A2  JMP  $A24F
 89D4  A0 00     LDY  #$00
 89D6  B5 00     LDA  $00, X
 89D8  D5 02     CMP  $02, X
 89DA  D0 0A     BNE  $89E6
 89DC  B5 01     LDA  $01, X
 89DE  D5 03     CMP  $03, X
 89E0  D0 04     BNE  $89E6
 89E2  A9 FF     LDA  #$FF
 89E4  80 01     BRA  $89E7
 89E6  88        DEY  
 89E7  98        TYA  
 89E8  E8        INX  
 89E9  E8        INX  
 89EA  95 00     STA  $00, X
 89EC  95 01     STA  $01, X
 89EE  60        RTS  
 89EF  B5 01     LDA  $01, X
 89F1  A8        TAY  
 89F2  B5 03     LDA  $03, X
 89F4  95 01     STA  $01, X
 89F6  B5 05     LDA  $05, X
 89F8  95 03     STA  $03, X
 89FA  98        TYA  
 89FB  95 05     STA  $05, X
 89FD  B5 00     LDA  $00, X
 89FF  A8        TAY  
 8A00  B5 02     LDA  $02, X
 8A02  95 00     STA  $00, X
 8A04  B5 04     LDA  $04, X
 8A06  95 02     STA  $02, X
 8A08  98        TYA  
 8A09  95 04     STA  $04, X
 8A0B  60        RTS  
 8A0C  64 24     STZ  $24
 8A0E  64 25     STZ  $25
 8A10  A1 02     LDA  ($02, X)
 8A12  C9 2D     CMP  #$2D
 8A14  D0 0A     BNE  $8A20
 8A16  C6 25     DEC  $25
 8A18  F6 02     INC  $02, X
 8A1A  D0 02     BNE  $8A1E
 8A1C  F6 03     INC  $03, X
 8A1E  D6 00     DEC  $00, X
 8A20  B5 02     LDA  $02, X
 8A22  18        CLC  
 8A23  75 00     ADC  $00, X
 8A25  85 26     STA  $26
 8A27  B5 03     LDA  $03, X
 8A29  69 00     ADC  #$00
 8A2B  85 27     STA  $27
 8A2D  A5 26     LDA  $26
 8A2F  D0 02     BNE  $8A33
 8A31  C6 27     DEC  $27
 8A33  C6 26     DEC  $26
 8A35  B2 26     LDA  ($26)
 8A37  C9 2E     CMP  #$2E
 8A39  D0 04     BNE  $8A3F
 8A3B  C6 24     DEC  $24
 8A3D  D6 00     DEC  $00, X
 8A3F  CA        DEX  
 8A40  CA        DEX  
 8A41  CA        DEX  
 8A42  CA        DEX  
 8A43  B5 04     LDA  $04, X
 8A45  95 00     STA  $00, X
 8A47  74 01     STZ  $01, X
 8A49  B5 06     LDA  $06, X
 8A4B  95 02     STA  $02, X
 8A4D  B5 07     LDA  $07, X
 8A4F  95 03     STA  $03, X
 8A51  74 04     STZ  $04, X
 8A53  74 05     STZ  $05, X
 8A55  74 06     STZ  $06, X
 8A57  74 07     STZ  $07, X
 8A59  20 90 8F  JSR  $8F90
 8A5C  B5 00     LDA  $00, X
 8A5E  F0 15     BEQ  $8A75
 8A60  A9 3E     LDA  #$3E
 8A62  20 2E 86  JSR  $862E
 8A65  20 EA 90  JSR  $90EA
 8A68  A9 3C     LDA  #$3C
 8A6A  20 2E 86  JSR  $862E
 8A6D  20 8C 8E  JSR  $8E8C
 8A70  A9 0C     LDA  #$0C
 8A72  4C 4F A2  JMP  $A24F
 8A75  E8        INX  
 8A76  E8        INX  
 8A77  E8        INX  
 8A78  E8        INX  
 8A79  A5 24     LDA  $24
 8A7B  F0 09     BEQ  $8A86
 8A7D  A5 25     LDA  $25
 8A7F  F0 0E     BEQ  $8A8F
 8A81  20 F0 84  JSR  $84F0
 8A84  80 09     BRA  $8A8F
 8A86  E8        INX  
 8A87  E8        INX  
 8A88  A5 25     LDA  $25
 8A8A  F0 03     BEQ  $8A8F
 8A8C  20 AC 89  JSR  $89AC
 8A8F  60        RTS  
 8A90  20 CF 81  JSR  $81CF
 8A93  20 21 87  JSR  $8721
 8A96  20 16 91  JSR  $9116
 8A99  20 13 8D  JSR  $8D13
 8A9C  B5 00     LDA  $00, X
 8A9E  A8        TAY  
 8A9F  B9 82 9F  LDA  $9F82, Y
 8AA2  95 00     STA  $00, X
 8AA4  74 01     STZ  $01, X
 8AA6  20 02 88  JSR  $8802
 8AA9  60        RTS  
 8AAA  A5 28     LDA  $28
 8AAC  95 00     STA  $00, X
 8AAE  95 02     STA  $02, X
 8AB0  A5 29     LDA  $29
 8AB2  95 01     STA  $01, X
 8AB4  95 03     STA  $03, X
 8AB6  20 1E 8B  JSR  $8B1E
 8AB9  38        SEC  
 8ABA  B5 00     LDA  $00, X
 8ABC  F5 02     SBC  $02, X
 8ABE  95 02     STA  $02, X
 8AC0  B5 01     LDA  $01, X
 8AC2  F5 03     SBC  $03, X
 8AC4  95 03     STA  $03, X
 8AC6  E8        INX  
 8AC7  E8        INX  
 8AC8  60        RTS  
 8AC9  20 90 8A  JSR  $8A90
 8ACC  B5 00     LDA  $00, X
 8ACE  15 01     ORA  $01, X
 8AD0  15 02     ORA  $02, X
 8AD2  15 03     ORA  $03, X
 8AD4  D0 F3     BNE  $8AC9
 8AD6  60        RTS  
 8AD7  CA        DEX  
 8AD8  CA        DEX  
 8AD9  A9 01     LDA  #$01
 8ADB  95 00     STA  $00, X
 8ADD  74 01     STZ  $01, X
 8ADF  60        RTS  
 8AE0  B5 00     LDA  $00, X
 8AE2  D0 02     BNE  $8AE6
 8AE4  D6 01     DEC  $01, X
 8AE6  D6 00     DEC  $00, X
 8AE8  60        RTS  
 8AE9  F6 00     INC  $00, X
 8AEB  D0 02     BNE  $8AEF
 8AED  F6 01     INC  $01, X
 8AEF  60        RTS  
 8AF0  E0 75     CPX  #$75
 8AF2  30 05     BMI  $8AF9
 8AF4  A9 0B     LDA  #$0B
 8AF6  4C 4F A2  JMP  $A24F
 8AF9  B5 00     LDA  $00, X
 8AFB  15 02     ORA  $02, X
 8AFD  95 02     STA  $02, X
 8AFF  B5 01     LDA  $01, X
 8B01  15 03     ORA  $03, X
 8B03  95 03     STA  $03, X
 8B05  E8        INX  
 8B06  E8        INX  
 8B07  60        RTS  
 8B08  CA        DEX  
 8B09  CA        DEX  
 8B0A  A9 10     LDA  #$10
 8B0C  95 00     STA  $00, X
 8B0E  A9 00     LDA  #$00
 8B10  95 01     STA  $01, X
 8B12  60        RTS  
 8B13  CA        DEX  
 8B14  CA        DEX  
 8B15  B5 04     LDA  $04, X
 8B17  95 00     STA  $00, X
 8B19  B5 05     LDA  $05, X
 8B1B  95 01     STA  $01, X
 8B1D  60        RTS  
 8B1E  CA        DEX  
 8B1F  CA        DEX  
 8B20  A5 00     LDA  $00
 8B22  18        CLC  
 8B23  69 FF     ADC  #$FF
 8B25  95 00     STA  $00, X
 8B27  A5 01     LDA  $01
 8B29  69 00     ADC  #$00
 8B2B  95 01     STA  $01, X
 8B2D  60        RTS  
 8B2E  A9 1B     LDA  #$1B
 8B30  20 2E 86  JSR  $862E
 8B33  A9 5B     LDA  #$5B
 8B35  20 2E 86  JSR  $862E
 8B38  A9 32     LDA  #$32
 8B3A  20 2E 86  JSR  $862E
 8B3D  A9 4A     LDA  #$4A
 8B3F  20 2E 86  JSR  $862E
 8B42  20 38 92  JSR  $9238
 8B45  20 38 92  JSR  $9238
 8B48  20 A3 81  JSR  $81A3
 8B4B  60        RTS  
 8B4C  EA        NOP  
 8B4D  60        RTS  
 8B4E  EA        NOP  
 8B4F  60        RTS  
 8B50  EA        NOP  
 8B51  60        RTS  
 8B52  A5 0A     LDA  $0A
 8B54  38        SEC  
 8B55  E5 0C     SBC  $0C
 8B57  85 1E     STA  $1E
 8B59  A5 0B     LDA  $0B
 8B5B  E5 0D     SBC  $0D
 8B5D  85 1F     STA  $1F
 8B5F  A5 1E     LDA  $1E
 8B61  F0 02     BEQ  $8B65
 8B63  C6 1F     DEC  $1F
 8B65  C6 1E     DEC  $1E
 8B67  A5 08     LDA  $08
 8B69  18        CLC  
 8B6A  65 0C     ADC  $0C
 8B6C  85 20     STA  $20
 8B6E  A5 09     LDA  $09
 8B70  65 0D     ADC  $0D
 8B72  85 21     STA  $21
 8B74  B2 20     LDA  ($20)
 8B76  C9 20     CMP  #$20
 8B78  D0 1F     BNE  $8B99
 8B7A  E6 20     INC  $20
 8B7C  D0 02     BNE  $8B80
 8B7E  E6 21     INC  $21
 8B80  A5 1E     LDA  $1E
 8B82  D0 02     BNE  $8B86
 8B84  C6 1F     DEC  $1F
 8B86  C6 1E     DEC  $1E
 8B88  A5 1E     LDA  $1E
 8B8A  05 1F     ORA  $1F
 8B8C  D0 E6     BNE  $8B74
 8B8E  CA        DEX  
 8B8F  CA        DEX  
 8B90  CA        DEX  
 8B91  CA        DEX  
 8B92  74 00     STZ  $00, X
 8B94  74 01     STZ  $01, X
 8B96  4C 3E 8C  JMP  $8C3E
 8B99  A5 20     LDA  $20
 8B9B  38        SEC  
 8B9C  E5 08     SBC  $08
 8B9E  85 0C     STA  $0C
 8BA0  A5 21     LDA  $21
 8BA2  E5 09     SBC  $09
 8BA4  85 0D     STA  $0D
 8BA6  CA        DEX  
 8BA7  CA        DEX  
 8BA8  A9 20     LDA  #$20
 8BAA  95 00     STA  $00, X
 8BAC  74 01     STZ  $01, X
 8BAE  E0 77     CPX  #$77
 8BB0  30 05     BMI  $8BB7
 8BB2  A9 0B     LDA  #$0B
 8BB4  4C 4F A2  JMP  $A24F
 8BB7  A5 0A     LDA  $0A
 8BB9  05 0B     ORA  $0B
 8BBB  F0 0C     BEQ  $8BC9
 8BBD  A5 0D     LDA  $0D
 8BBF  C5 0B     CMP  $0B
 8BC1  90 0E     BCC  $8BD1
 8BC3  A5 0C     LDA  $0C
 8BC5  C5 0A     CMP  $0A
 8BC7  90 08     BCC  $8BD1
 8BC9  CA        DEX  
 8BCA  CA        DEX  
 8BCB  74 00     STZ  $00, X
 8BCD  74 01     STZ  $01, X
 8BCF  80 6D     BRA  $8C3E
 8BD1  B5 00     LDA  $00, X
 8BD3  85 26     STA  $26
 8BD5  CA        DEX  
 8BD6  CA        DEX  
 8BD7  A5 08     LDA  $08
 8BD9  18        CLC  
 8BDA  65 0C     ADC  $0C
 8BDC  85 1E     STA  $1E
 8BDE  85 20     STA  $20
 8BE0  95 02     STA  $02, X
 8BE2  A5 09     LDA  $09
 8BE4  65 0D     ADC  $0D
 8BE6  85 1F     STA  $1F
 8BE8  85 21     STA  $21
 8BEA  95 03     STA  $03, X
 8BEC  A5 08     LDA  $08
 8BEE  18        CLC  
 8BEF  65 0A     ADC  $0A
 8BF1  85 22     STA  $22
 8BF3  A5 09     LDA  $09
 8BF5  65 0B     ADC  $0B
 8BF7  85 23     STA  $23
 8BF9  64 27     STZ  $27
 8BFB  A5 20     LDA  $20
 8BFD  C5 22     CMP  $22
 8BFF  D0 06     BNE  $8C07
 8C01  A5 21     LDA  $21
 8C03  C5 23     CMP  $23
 8C05  F0 10     BEQ  $8C17
 8C07  B2 20     LDA  ($20)
 8C09  C5 26     CMP  $26
 8C0B  F0 08     BEQ  $8C15
 8C0D  E6 20     INC  $20
 8C0F  D0 EA     BNE  $8BFB
 8C11  E6 21     INC  $21
 8C13  80 E6     BRA  $8BFB
 8C15  E6 27     INC  $27
 8C17  A5 20     LDA  $20
 8C19  38        SEC  
 8C1A  E5 1E     SBC  $1E
 8C1C  95 00     STA  $00, X
 8C1E  A5 21     LDA  $21
 8C20  E5 1F     SBC  $1F
 8C22  95 01     STA  $01, X
 8C24  A5 20     LDA  $20
 8C26  38        SEC  
 8C27  E5 08     SBC  $08
 8C29  85 0C     STA  $0C
 8C2B  A5 21     LDA  $21
 8C2D  E5 09     SBC  $09
 8C2F  85 0D     STA  $0D
 8C31  A5 0C     LDA  $0C
 8C33  18        CLC  
 8C34  65 27     ADC  $27
 8C36  85 0C     STA  $0C
 8C38  A5 0D     LDA  $0D
 8C3A  69 00     ADC  #$00
 8C3C  85 0D     STA  $0D
 8C3E  60        RTS  
 8C3F  B5 00     LDA  $00, X
 8C41  0A        ASL  
 8C42  18        CLC  
 8C43  69 02     ADC  #$02
 8C45  A8        TAY  
 8C46  86 1E     STX  $1E
 8C48  64 1F     STZ  $1F
 8C4A  B1 1E     LDA  ($1E), Y
 8C4C  95 00     STA  $00, X
 8C4E  C8        INY  
 8C4F  B1 1E     LDA  ($1E), Y
 8C51  95 01     STA  $01, X
 8C53  60        RTS  
 8C54  E0 75     CPX  #$75
 8C56  30 05     BMI  $8C5D
 8C58  A9 0B     LDA  #$0B
 8C5A  4C 4F A2  JMP  $A24F
 8C5D  18        CLC  
 8C5E  B5 00     LDA  $00, X
 8C60  75 02     ADC  $02, X
 8C62  95 02     STA  $02, X
 8C64  B5 01     LDA  $01, X
 8C66  75 03     ADC  $03, X
 8C68  95 03     STA  $03, X
 8C6A  E8        INX  
 8C6B  E8        INX  
 8C6C  60        RTS  
 8C6D  EA        NOP  
 8C6E  60        RTS  
 8C6F  E0 75     CPX  #$75
 8C71  30 05     BMI  $8C78
 8C73  A9 0B     LDA  #$0B
 8C75  4C 4F A2  JMP  $A24F
 8C78  B5 00     LDA  $00, X
 8C7A  85 1E     STA  $1E
 8C7C  B5 01     LDA  $01, X
 8C7E  85 1F     STA  $1F
 8C80  A0 00     LDY  #$00
 8C82  B1 1E     LDA  ($1E), Y
 8C84  18        CLC  
 8C85  75 02     ADC  $02, X
 8C87  91 1E     STA  ($1E), Y
 8C89  C8        INY  
 8C8A  B1 1E     LDA  ($1E), Y
 8C8C  75 03     ADC  $03, X
 8C8E  91 1E     STA  ($1E), Y
 8C90  E8        INX  
 8C91  E8        INX  
 8C92  E8        INX  
 8C93  E8        INX  
 8C94  60        RTS  
 8C95  EA        NOP  
 8C96  60        RTS  
 8C97  20 21 87  JSR  $8721
 8C9A  20 56 85  JSR  $8556
 8C9D  60        RTS  
 8C9E  EA        NOP  
 8C9F  60        RTS  
 8CA0  EA        NOP  
 8CA1  60        RTS  
 8CA2  7A        PLY  
 8CA3  84 1E     STY  $1E
 8CA5  7A        PLY  
 8CA6  CA        DEX  
 8CA7  CA        DEX  
 8CA8  68        PLA  
 8CA9  95 00     STA  $00, X
 8CAB  68        PLA  
 8CAC  95 01     STA  $01, X
 8CAE  48        PHA  
 8CAF  B5 00     LDA  $00, X
 8CB1  48        PHA  
 8CB2  5A        PHY  
 8CB3  A4 1E     LDY  $1E
 8CB5  5A        PHY  
 8CB6  60        RTS  
 8CB7  CA        DEX  
 8CB8  CA        DEX  
 8CB9  68        PLA  
 8CBA  85 26     STA  $26
 8CBC  7A        PLY  
 8CBD  68        PLA  
 8CBE  95 00     STA  $00, X
 8CC0  68        PLA  
 8CC1  95 01     STA  $01, X
 8CC3  5A        PHY  
 8CC4  A5 26     LDA  $26
 8CC6  48        PHA  
 8CC7  60        RTS  
 8CC8  EA        NOP  
 8CC9  60        RTS  
 8CCA  A5 06     LDA  $06
 8CCC  D0 29     BNE  $8CF7
 8CCE  CA        DEX  
 8CCF  CA        DEX  
 8CD0  CA        DEX  
 8CD1  CA        DEX  
 8CD2  A5 08     LDA  $08
 8CD4  95 02     STA  $02, X
 8CD6  A5 09     LDA  $09
 8CD8  95 03     STA  $03, X
 8CDA  64 0A     STZ  $0A
 8CDC  64 0B     STZ  $0B
 8CDE  A9 FF     LDA  #$FF
 8CE0  95 00     STA  $00, X
 8CE2  74 01     STZ  $01, X
 8CE4  20 D0 80  JSR  $80D0
 8CE7  B5 00     LDA  $00, X
 8CE9  85 0A     STA  $0A
 8CEB  B5 01     LDA  $01, X
 8CED  85 0B     STA  $0B
 8CEF  A9 FF     LDA  #$FF
 8CF1  95 00     STA  $00, X
 8CF3  95 01     STA  $01, X
 8CF5  80 10     BRA  $8D07
 8CF7  1A        INC  
 8CF8  D0 08     BNE  $8D02
 8CFA  CA        DEX  
 8CFB  CA        DEX  
 8CFC  74 00     STZ  $00, X
 8CFE  74 01     STZ  $01, X
 8D00  80 05     BRA  $8D07
 8D02  A9 09     LDA  #$09
 8D04  4C 4F A2  JMP  $A24F
 8D07  60        RTS  
 8D08  EA        NOP  
 8D09  60        RTS  
 8D0A  A9 FF     LDA  #$FF
 8D0C  85 16     STA  $16
 8D0E  85 17     STA  $17
 8D10  60        RTS  
 8D11  EA        NOP  
 8D12  60        RTS  
 8D13  B5 05     LDA  $05, X
 8D15  A8        TAY  
 8D16  B5 03     LDA  $03, X
 8D18  95 05     STA  $05, X
 8D1A  B5 01     LDA  $01, X
 8D1C  95 03     STA  $03, X
 8D1E  98        TYA  
 8D1F  95 01     STA  $01, X
 8D21  B5 04     LDA  $04, X
 8D23  A8        TAY  
 8D24  B5 02     LDA  $02, X
 8D26  95 04     STA  $04, X
 8D28  B5 00     LDA  $00, X
 8D2A  95 02     STA  $02, X
 8D2C  98        TYA  
 8D2D  95 00     STA  $00, X
 8D2F  60        RTS  
 8D30  B5 00     LDA  $00, X
 8D32  29 0F     AND  #$0F
 8D34  F0 08     BEQ  $8D3E
 8D36  A8        TAY  
 8D37  56 03     LSR  $03, X
 8D39  76 02     ROR  $02, X
 8D3B  88        DEY  
 8D3C  D0 F9     BNE  $8D37
 8D3E  E8        INX  
 8D3F  E8        INX  
 8D40  60        RTS  
 8D41  EA        NOP  
 8D42  60        RTS  
 8D43  CA        DEX  
 8D44  CA        DEX  
 8D45  74 00     STZ  $00, X
 8D47  74 01     STZ  $01, X
 8D49  B5 02     LDA  $02, X
 8D4B  10 04     BPL  $8D51
 8D4D  D6 00     DEC  $00, X
 8D4F  D6 01     DEC  $01, X
 8D51  60        RTS  
 8D52  A0 06     LDY  #$06
 8D54  A5 00     LDA  $00
 8D56  91 04     STA  ($04), Y
 8D58  C8        INY  
 8D59  A5 01     LDA  $01
 8D5B  91 04     STA  ($04), Y
 8D5D  A9 60     LDA  #$60
 8D5F  92 00     STA  ($00)
 8D61  E6 00     INC  $00
 8D63  D0 02     BNE  $8D67
 8D65  E6 01     INC  $01
 8D67  A5 04     LDA  $04
 8D69  85 02     STA  $02
 8D6B  A5 05     LDA  $05
 8D6D  85 03     STA  $03
 8D6F  64 16     STZ  $16
 8D71  64 17     STZ  $17
 8D73  60        RTS  
 8D74  B5 01     LDA  $01, X
 8D76  30 04     BMI  $8D7C
 8D78  E8        INX  
 8D79  E8        INX  
 8D7A  80 09     BRA  $8D85
 8D7C  A9 2D     LDA  #$2D
 8D7E  95 00     STA  $00, X
 8D80  74 01     STZ  $01, X
 8D82  20 02 88  JSR  $8802
 8D85  60        RTS  
 8D86  EA        NOP  
 8D87  60        RTS  
 8D88  E0 75     CPX  #$75
 8D8A  30 05     BMI  $8D91
 8D8C  A9 0B     LDA  #$0B
 8D8E  4C 4F A2  JMP  $A24F
 8D91  B5 00     LDA  $00, X
 8D93  85 26     STA  $26
 8D95  B5 01     LDA  $01, X
 8D97  85 27     STA  $27
 8D99  B5 02     LDA  $02, X
 8D9B  85 1E     STA  $1E
 8D9D  B5 03     LDA  $03, X
 8D9F  85 1F     STA  $1F
 8DA1  A9 4C     LDA  #$4C
 8DA3  92 00     STA  ($00)
 8DA5  E6 00     INC  $00
 8DA7  D0 02     BNE  $8DAB
 8DA9  E6 01     INC  $01
 8DAB  A5 26     LDA  $26
 8DAD  18        CLC  
 8DAE  65 00     ADC  $00
 8DB0  69 02     ADC  #$02
 8DB2  92 00     STA  ($00)
 8DB4  A5 27     LDA  $27
 8DB6  65 01     ADC  $01
 8DB8  A0 01     LDY  #$01
 8DBA  91 00     STA  ($00), Y
 8DBC  18        CLC  
 8DBD  A5 00     LDA  $00
 8DBF  69 02     ADC  #$02
 8DC1  85 00     STA  $00
 8DC3  A5 01     LDA  $01
 8DC5  69 00     ADC  #$00
 8DC7  85 01     STA  $01
 8DC9  A4 26     LDY  $26
 8DCB  88        DEY  
 8DCC  B1 1E     LDA  ($1E), Y
 8DCE  91 00     STA  ($00), Y
 8DD0  88        DEY  
 8DD1  10 F9     BPL  $8DCC
 8DD3  A5 00     LDA  $00
 8DD5  85 22     STA  $22
 8DD7  A5 01     LDA  $01
 8DD9  85 23     STA  $23
 8DDB  18        CLC  
 8DDC  A5 00     LDA  $00
 8DDE  65 26     ADC  $26
 8DE0  85 00     STA  $00
 8DE2  A5 01     LDA  $01
 8DE4  65 27     ADC  $27
 8DE6  85 01     STA  $01
 8DE8  A9 8E     LDA  #$8E
 8DEA  48        PHA  
 8DEB  A9 08     LDA  #$08
 8DED  48        PHA  
 8DEE  20 1E A1  JSR  $A11E
 8DF1  A5 23     LDA  $23
 8DF3  48        PHA  
 8DF4  A5 22     LDA  $22
 8DF6  48        PHA  
 8DF7  20 2C A1  JSR  $A12C
 8DFA  A5 27     LDA  $27
 8DFC  48        PHA  
 8DFD  A5 26     LDA  $26
 8DFF  48        PHA  
 8E00  20 2C A1  JSR  $A12C
 8E03  E8        INX  
 8E04  E8        INX  
 8E05  E8        INX  
 8E06  E8        INX  
 8E07  60        RTS  
 8E08  CA        DEX  
 8E09  CA        DEX  
 8E0A  CA        DEX  
 8E0B  CA        DEX  
 8E0C  68        PLA  
 8E0D  85 1E     STA  $1E
 8E0F  68        PLA  
 8E10  85 1F     STA  $1F
 8E12  E6 1E     INC  $1E
 8E14  D0 02     BNE  $8E18
 8E16  E6 1F     INC  $1F
 8E18  68        PLA  
 8E19  85 20     STA  $20
 8E1B  68        PLA  
 8E1C  85 21     STA  $21
 8E1E  E6 20     INC  $20
 8E20  D0 02     BNE  $8E24
 8E22  E6 21     INC  $21
 8E24  A0 00     LDY  #$00
 8E26  B1 1E     LDA  ($1E), Y
 8E28  95 02     STA  $02, X
 8E2A  C8        INY  
 8E2B  B1 1E     LDA  ($1E), Y
 8E2D  95 03     STA  $03, X
 8E2F  C8        INY  
 8E30  B1 1E     LDA  ($1E), Y
 8E32  95 00     STA  $00, X
 8E34  C8        INY  
 8E35  B1 1E     LDA  ($1E), Y
 8E37  95 01     STA  $01, X
 8E39  E6 20     INC  $20
 8E3B  D0 02     BNE  $8E3F
 8E3D  E6 21     INC  $21
 8E3F  A5 21     LDA  $21
 8E41  48        PHA  
 8E42  A5 20     LDA  $20
 8E44  48        PHA  
 8E45  60        RTS  
 8E46  B5 03     LDA  $03, X
 8E48  48        PHA  
 8E49  B5 01     LDA  $01, X
 8E4B  55 03     EOR  $03, X
 8E4D  48        PHA  
 8E4E  20 BE 80  JSR  $80BE
 8E51  E8        INX  
 8E52  E8        INX  
 8E53  20 5B 84  JSR  $845B
 8E56  CA        DEX  
 8E57  CA        DEX  
 8E58  20 32 91  JSR  $9132
 8E5B  68        PLA  
 8E5C  10 03     BPL  $8E61
 8E5E  20 AC 89  JSR  $89AC
 8E61  68        PLA  
 8E62  10 07     BPL  $8E6B
 8E64  E8        INX  
 8E65  E8        INX  
 8E66  20 AC 89  JSR  $89AC
 8E69  CA        DEX  
 8E6A  CA        DEX  
 8E6B  60        RTS  
 8E6C  CA        DEX  
 8E6D  CA        DEX  
 8E6E  A5 08     LDA  $08
 8E70  95 00     STA  $00, X
 8E72  A5 09     LDA  $09
 8E74  95 01     STA  $01, X
 8E76  CA        DEX  
 8E77  CA        DEX  
 8E78  A5 0A     LDA  $0A
 8E7A  95 00     STA  $00, X
 8E7C  A5 0B     LDA  $0B
 8E7E  95 01     STA  $01, X
 8E80  60        RTS  
 8E81  CA        DEX  
 8E82  CA        DEX  
 8E83  A5 06     LDA  $06
 8E85  95 00     STA  $00, X
 8E87  A5 07     LDA  $07
 8E89  95 01     STA  $01, X
 8E8B  60        RTS  
 8E8C  A9 20     LDA  #$20
 8E8E  20 2E 86  JSR  $862E
 8E91  60        RTS  
 8E92  B5 00     LDA  $00, X
 8E94  15 01     ORA  $01, X
 8E96  F0 26     BEQ  $8EBE
 8E98  A9 20     LDA  #$20
 8E9A  B4 01     LDY  $01, X
 8E9C  D0 0A     BNE  $8EA8
 8E9E  B4 00     LDY  $00, X
 8EA0  20 2E 86  JSR  $862E
 8EA3  88        DEY  
 8EA4  F0 18     BEQ  $8EBE
 8EA6  80 F8     BRA  $8EA0
 8EA8  B4 00     LDY  $00, X
 8EAA  F0 06     BEQ  $8EB2
 8EAC  20 2E 86  JSR  $862E
 8EAF  88        DEY  
 8EB0  80 F8     BRA  $8EAA
 8EB2  A0 00     LDY  #$00
 8EB4  20 2E 86  JSR  $862E
 8EB7  88        DEY  
 8EB8  D0 FA     BNE  $8EB4
 8EBA  D6 01     DEC  $01, X
 8EBC  D0 F4     BNE  $8EB2
 8EBE  E8        INX  
 8EBF  E8        INX  
 8EC0  60        RTS  
 8EC1  E0 75     CPX  #$75
 8EC3  30 05     BMI  $8ECA
 8EC5  A9 0B     LDA  #$0B
 8EC7  4C 4F A2  JMP  $A24F
 8ECA  20 71 91  JSR  $9171
 8ECD  E8        INX  
 8ECE  E8        INX  
 8ECF  60        RTS  
 8ED0  CA        DEX  
 8ED1  CA        DEX  
 8ED2  A9 16     LDA  #$16
 8ED4  95 00     STA  $00, X
 8ED6  A9 00     LDA  #$00
 8ED8  95 01     STA  $01, X
 8EDA  60        RTS  
 8EDB  E0 75     CPX  #$75
 8EDD  30 05     BMI  $8EE4
 8EDF  A9 0B     LDA  #$0B
 8EE1  4C 4F A2  JMP  $A24F
 8EE4  B5 02     LDA  $02, X
 8EE6  81 00     STA  ($00, X)
 8EE8  F6 00     INC  $00, X
 8EEA  D0 02     BNE  $8EEE
 8EEC  F6 01     INC  $01, X
 8EEE  B5 03     LDA  $03, X
 8EF0  81 00     STA  ($00, X)
 8EF2  E8        INX  
 8EF3  E8        INX  
 8EF4  E8        INX  
 8EF5  E8        INX  
 8EF6  60        RTS  
 8EF7  E0 75     CPX  #$75
 8EF9  30 05     BMI  $8F00
 8EFB  A9 0B     LDA  #$0B
 8EFD  20 4F A2  JSR  $A24F
 8F00  B5 00     LDA  $00, X
 8F02  B4 02     LDY  $02, X
 8F04  95 02     STA  $02, X
 8F06  94 00     STY  $00, X
 8F08  B5 01     LDA  $01, X
 8F0A  B4 03     LDY  $03, X
 8F0C  95 03     STA  $03, X
 8F0E  94 01     STY  $01, X
 8F10  60        RTS  
 8F11  EA        NOP  
 8F12  60        RTS  
 8F13  20 52 8B  JSR  $8B52
 8F16  B5 00     LDA  $00, X
 8F18  15 01     ORA  $01, X
 8F1A  D0 05     BNE  $8F21
 8F1C  A9 06     LDA  #$06
 8F1E  4C 4F A2  JMP  $A24F
 8F21  20 34 87  JSR  $8734
 8F24  B5 00     LDA  $00, X
 8F26  15 01     ORA  $01, X
 8F28  D0 05     BNE  $8F2F
 8F2A  A9 0C     LDA  #$0C
 8F2C  4C 4F A2  JMP  $A24F
 8F2F  20 79 89  JSR  $8979
 8F32  60        RTS  
 8F33  EA        NOP  
 8F34  60        RTS  
 8F35  E0 77     CPX  #$77
 8F37  30 05     BMI  $8F3E
 8F39  A9 0B     LDA  #$0B
 8F3B  4C 4F A2  JMP  $A24F
 8F3E  A1 00     LDA  ($00, X)
 8F40  C9 20     CMP  #$20
 8F42  D0 40     BNE  $8F84
 8F44  B5 00     LDA  $00, X
 8F46  85 1E     STA  $1E
 8F48  B5 01     LDA  $01, X
 8F4A  85 1E     STA  $1E
 8F4C  A0 01     LDY  #$01
 8F4E  B1 1E     LDA  ($1E), Y
 8F50  C9 A2     CMP  #$A2
 8F52  D0 08     BNE  $8F5C
 8F54  C8        INY  
 8F55  B1 1E     LDA  ($1E), Y
 8F57  C9 A1     CMP  #$A1
 8F59  F0 1C     BEQ  $8F77
 8F5B  88        DEY  
 8F5C  B1 1E     LDA  ($1E), Y
 8F5E  C9 4D     CMP  #$4D
 8F60  D0 08     BNE  $8F6A
 8F62  C8        INY  
 8F63  B1 1E     LDA  ($1E), Y
 8F65  C9 A1     CMP  #$A1
 8F67  F0 0E     BEQ  $8F77
 8F69  88        DEY  
 8F6A  B1 1E     LDA  ($1E), Y
 8F6C  C9 88     CMP  #$88
 8F6E  D0 14     BNE  $8F84
 8F70  C8        INY  
 8F71  B1 1E     LDA  ($1E), Y
 8F73  C9 A1     CMP  #$A1
 8F75  D0 0D     BNE  $8F84
 8F77  18        CLC  
 8F78  B5 00     LDA  $00, X
 8F7A  69 03     ADC  #$03
 8F7C  95 00     STA  $00, X
 8F7E  B5 01     LDA  $01, X
 8F80  69 00     ADC  #$00
 8F82  95 01     STA  $01, X
 8F84  60        RTS  
 8F85  CA        DEX  
 8F86  CA        DEX  
 8F87  A9 0C     LDA  #$0C
 8F89  95 00     STA  $00, X
 8F8B  A9 00     LDA  #$00
 8F8D  95 01     STA  $01, X
 8F8F  60        RTS  
 8F90  B5 06     LDA  $06, X
 8F92  85 2A     STA  $2A
 8F94  B5 07     LDA  $07, X
 8F96  85 2B     STA  $2B
 8F98  B5 04     LDA  $04, X
 8F9A  85 2C     STA  $2C
 8F9C  B5 05     LDA  $05, X
 8F9E  85 2D     STA  $2D
 8FA0  CA        DEX  
 8FA1  CA        DEX  
 8FA2  A1 04     LDA  ($04, X)
 8FA4  95 00     STA  $00, X
 8FA6  74 01     STZ  $01, X
 8FA8  20 BE 84  JSR  $84BE
 8FAB  B5 00     LDA  $00, X
 8FAD  D0 04     BNE  $8FB3
 8FAF  E8        INX  
 8FB0  E8        INX  
 8FB1  80 67     BRA  $901A
 8FB3  B5 02     LDA  $02, X
 8FB5  85 2E     STA  $2E
 8FB7  B5 03     LDA  $03, X
 8FB9  85 2F     STA  $2F
 8FBB  A5 2C     LDA  $2C
 8FBD  95 02     STA  $02, X
 8FBF  A5 2D     LDA  $2D
 8FC1  95 03     STA  $03, X
 8FC3  A5 18     LDA  $18
 8FC5  95 00     STA  $00, X
 8FC7  74 01     STZ  $01, X
 8FC9  20 71 91  JSR  $9171
 8FCC  B5 02     LDA  $02, X
 8FCE  85 30     STA  $30
 8FD0  B5 03     LDA  $03, X
 8FD2  85 31     STA  $31
 8FD4  A5 2A     LDA  $2A
 8FD6  95 02     STA  $02, X
 8FD8  A5 2B     LDA  $2B
 8FDA  95 03     STA  $03, X
 8FDC  A5 18     LDA  $18
 8FDE  95 00     STA  $00, X
 8FE0  74 01     STZ  $01, X
 8FE2  20 71 91  JSR  $9171
 8FE5  B5 00     LDA  $00, X
 8FE7  85 2C     STA  $2C
 8FE9  B5 01     LDA  $01, X
 8FEB  85 2D     STA  $2D
 8FED  B5 02     LDA  $02, X
 8FEF  85 2A     STA  $2A
 8FF1  B5 03     LDA  $03, X
 8FF3  85 2B     STA  $2B
 8FF5  18        CLC  
 8FF6  A5 2A     LDA  $2A
 8FF8  65 2E     ADC  $2E
 8FFA  85 2A     STA  $2A
 8FFC  A5 2B     LDA  $2B
 8FFE  65 2F     ADC  $2F
 9000  85 2B     STA  $2B
 9002  A5 2C     LDA  $2C
 9004  65 30     ADC  $30
 9006  85 2C     STA  $2C
 9008  A5 2D     LDA  $2D
 900A  65 31     ADC  $31
 900C  85 2D     STA  $2D
 900E  E8        INX  
 900F  E8        INX  
 9010  F6 04     INC  $04, X
 9012  D0 02     BNE  $9016
 9014  F6 05     INC  $05, X
 9016  D6 02     DEC  $02, X
 9018  D0 88     BNE  $8FA2
 901A  E8        INX  
 901B  E8        INX  
 901C  A5 2A     LDA  $2A
 901E  95 06     STA  $06, X
 9020  A5 2B     LDA  $2B
 9022  95 07     STA  $07, X
 9024  A5 2C     LDA  $2C
 9026  95 04     STA  $04, X
 9028  A5 2D     LDA  $2D
 902A  95 05     STA  $05, X
 902C  60        RTS  
 902D  68        PLA  
 902E  85 26     STA  $26
 9030  7A        PLY  
 9031  B5 01     LDA  $01, X
 9033  48        PHA  
 9034  B5 00     LDA  $00, X
 9036  48        PHA  
 9037  5A        PHY  
 9038  A5 26     LDA  $26
 903A  48        PHA  
 903B  E8        INX  
 903C  E8        INX  
 903D  60        RTS  
 903E  CA        DEX  
 903F  CA        DEX  
 9040  A9 FF     LDA  #$FF
 9042  95 00     STA  $00, X
 9044  95 01     STA  $01, X
 9046  60        RTS  
 9047  CA        DEX  
 9048  CA        DEX  
 9049  B5 02     LDA  $02, X
 904B  95 00     STA  $00, X
 904D  B5 03     LDA  $03, X
 904F  95 01     STA  $01, X
 9051  B4 04     LDY  $04, X
 9053  94 02     STY  $02, X
 9055  B4 05     LDY  $05, X
 9057  94 03     STY  $03, X
 9059  95 05     STA  $05, X
 905B  B5 00     LDA  $00, X
 905D  95 04     STA  $04, X
 905F  60        RTS  
 9060  CA        DEX  
 9061  CA        DEX  
 9062  A9 02     LDA  #$02
 9064  95 00     STA  $00, X
 9066  74 01     STZ  $01, X
 9068  60        RTS  
 9069  E8        INX  
 906A  E8        INX  
 906B  E8        INX  
 906C  E8        INX  
 906D  60        RTS  
 906E  E0 75     CPX  #$75
 9070  30 05     BMI  $9077
 9072  A9 0B     LDA  #$0B
 9074  4C 4F A2  JMP  $A24F
 9077  CA        DEX  
 9078  CA        DEX  
 9079  CA        DEX  
 907A  CA        DEX  
 907B  B5 04     LDA  $04, X
 907D  95 00     STA  $00, X
 907F  B5 05     LDA  $05, X
 9081  95 01     STA  $01, X
 9083  B5 06     LDA  $06, X
 9085  95 02     STA  $02, X
 9087  B5 07     LDA  $07, X
 9089  95 03     STA  $03, X
 908B  60        RTS  
 908C  E0 71     CPX  #$71
 908E  30 05     BMI  $9095
 9090  A9 0B     LDA  #$0B
 9092  4C 4F A2  JMP  $A24F
 9095  CA        DEX  
 9096  CA        DEX  
 9097  CA        DEX  
 9098  CA        DEX  
 9099  B5 08     LDA  $08, X
 909B  95 00     STA  $00, X
 909D  B5 09     LDA  $09, X
 909F  95 01     STA  $01, X
 90A1  B5 0A     LDA  $0A, X
 90A3  95 02     STA  $02, X
 90A5  B5 0B     LDA  $0B, X
 90A7  95 03     STA  $03, X
 90A9  60        RTS  
 90AA  EA        NOP  
 90AB  60        RTS  
 90AC  EA        NOP  
 90AD  60        RTS  
 90AE  E0 77     CPX  #$77
 90B0  30 05     BMI  $90B7
 90B2  A9 0B     LDA  #$0B
 90B4  4C 4F A2  JMP  $A24F
 90B7  16 00     ASL  $00, X
 90B9  36 01     ROL  $01, X
 90BB  60        RTS  
 90BC  E0 71     CPX  #$71
 90BE  30 05     BMI  $90C5
 90C0  A9 0B     LDA  #$0B
 90C2  4C 4F A2  JMP  $A24F
 90C5  B5 00     LDA  $00, X
 90C7  B4 04     LDY  $04, X
 90C9  95 04     STA  $04, X
 90CB  94 00     STY  $00, X
 90CD  B5 01     LDA  $01, X
 90CF  B4 05     LDY  $05, X
 90D1  95 05     STA  $05, X
 90D3  94 01     STY  $01, X
 90D5  B5 02     LDA  $02, X
 90D7  B4 06     LDY  $06, X
 90D9  95 06     STA  $06, X
 90DB  94 02     STY  $02, X
 90DD  B5 03     LDA  $03, X
 90DF  B4 07     LDY  $07, X
 90E1  95 07     STA  $07, X
 90E3  94 03     STY  $03, X
 90E5  60        RTS  
 90E6  EA        NOP  
 90E7  60        RTS  
 90E8  EA        NOP  
 90E9  60        RTS  
 90EA  E0 75     CPX  #$75
 90EC  30 05     BMI  $90F3
 90EE  A9 0B     LDA  #$0B
 90F0  4C 4F A2  JMP  $A24F
 90F3  B5 00     LDA  $00, X
 90F5  15 01     ORA  $01, X
 90F7  F0 18     BEQ  $9111
 90F9  B5 02     LDA  $02, X
 90FB  85 1E     STA  $1E
 90FD  B5 03     LDA  $03, X
 90FF  85 1F     STA  $1F
 9101  A0 00     LDY  #$00
 9103  B5 00     LDA  $00, X
 9105  85 20     STA  $20
 9107  B1 1E     LDA  ($1E), Y
 9109  20 2E 86  JSR  $862E
 910C  C8        INY  
 910D  C4 20     CPY  $20
 910F  D0 F6     BNE  $9107
 9111  E8        INX  
 9112  E8        INX  
 9113  E8        INX  
 9114  E8        INX  
 9115  60        RTS  
 9116  20 2D 90  JSR  $902D
 9119  20 38 92  JSR  $9238
 911C  20 A2 8C  JSR  $8CA2
 911F  20 32 91  JSR  $9132
 9122  20 13 8D  JSR  $8D13
 9125  20 13 8D  JSR  $8D13
 9128  20 B7 8C  JSR  $8CB7
 912B  20 32 91  JSR  $9132
 912E  20 13 8D  JSR  $8D13
 9131  60        RTS  
 9132  B5 00     LDA  $00, X
 9134  15 01     ORA  $01, X
 9136  D0 05     BNE  $913D
 9138  A9 03     LDA  #$03
 913A  4C 4F A2  JMP  $A24F
 913D  A9 11     LDA  #$11
 913F  85 26     STA  $26
 9141  36 04     ROL  $04, X
 9143  36 05     ROL  $05, X
 9145  C6 26     DEC  $26
 9147  F0 22     BEQ  $916B
 9149  36 02     ROL  $02, X
 914B  36 03     ROL  $03, X
 914D  64 1E     STZ  $1E
 914F  26 1E     ROL  $1E
 9151  38        SEC  
 9152  B5 02     LDA  $02, X
 9154  F5 00     SBC  $00, X
 9156  85 1F     STA  $1F
 9158  B5 03     LDA  $03, X
 915A  F5 01     SBC  $01, X
 915C  A8        TAY  
 915D  A5 1E     LDA  $1E
 915F  E9 00     SBC  #$00
 9161  90 DE     BCC  $9141
 9163  A5 1F     LDA  $1F
 9165  95 02     STA  $02, X
 9167  94 03     STY  $03, X
 9169  80 D6     BRA  $9141
 916B  E8        INX  
 916C  E8        INX  
 916D  20 F7 8E  JSR  $8EF7
 9170  60        RTS  
 9171  18        CLC  
 9172  B5 00     LDA  $00, X
 9174  E9 00     SBC  #$00
 9176  85 20     STA  $20
 9178  B5 01     LDA  $01, X
 917A  E9 00     SBC  #$00
 917C  90 31     BCC  $91AF
 917E  85 21     STA  $21
 9180  A9 00     LDA  #$00
 9182  85 1E     STA  $1E
 9184  86 22     STX  $22
 9186  CA        DEX  
 9187  CA        DEX  
 9188  A0 08     LDY  #$08
 918A  56 04     LSR  $04, X
 918C  90 0C     BCC  $919A
 918E  85 1F     STA  $1F
 9190  A5 1E     LDA  $1E
 9192  65 20     ADC  $20
 9194  85 1E     STA  $1E
 9196  A5 1F     LDA  $1F
 9198  65 21     ADC  $21
 919A  6A        ROR  
 919B  66 1E     ROR  $1E
 919D  76 04     ROR  $04, X
 919F  88        DEY  
 91A0  D0 EA     BNE  $918C
 91A2  E8        INX  
 91A3  E4 22     CPX  $22
 91A5  D0 E1     BNE  $9188
 91A7  95 01     STA  $01, X
 91A9  A5 1E     LDA  $1E
 91AB  95 00     STA  $00, X
 91AD  80 04     BRA  $91B3
 91AF  74 02     STZ  $02, X
 91B1  74 03     STZ  $03, X
 91B3  60        RTS  
 91B4  EA        NOP  
 91B5  60        RTS  
 91B6  CA        DEX  
 91B7  CA        DEX  
 91B8  A9 FF     LDA  #$FF
 91BA  38        SEC  
 91BB  E5 00     SBC  $00
 91BD  95 00     STA  $00, X
 91BF  A9 7F     LDA  #$7F
 91C1  E5 01     SBC  $01
 91C3  95 01     STA  $01, X
 91C5  60        RTS  
 91C6  EA        NOP  
 91C7  60        RTS  
 91C8  20 72 83  JSR  $8372
 91CB  A9 00     LDA  #$00
 91CD  92 00     STA  ($00)
 91CF  E6 00     INC  $00
 91D1  D0 02     BNE  $91D5
 91D3  E6 01     INC  $01
 91D5  92 00     STA  ($00)
 91D7  E6 00     INC  $00
 91D9  D0 00     BNE  $91DB
 91DB  E6 01     INC  $01
 91DD  20 31 83  JSR  $8331
 91E0  60        RTS  
 91E1  EA        NOP  
 91E2  60        RTS  
 91E3  20 6C 83  JSR  $836C
 91E6  20 94 88  JSR  $8894
 91E9  20 0B 86  JSR  $860B
 91EC  20 93 89  JSR  $8993
 91EF  20 EA 90  JSR  $90EA
 91F2  A9 20     LDA  #$20
 91F4  20 2E 86  JSR  $862E
 91F7  20 E9 8A  JSR  $8AE9
 91FA  20 E9 8A  JSR  $8AE9
 91FD  20 21 87  JSR  $8721
 9200  B5 00     LDA  $00, X
 9202  15 01     ORA  $01, X
 9204  D0 E3     BNE  $91E9
 9206  E8        INX  
 9207  E8        INX  
 9208  60        RTS  
 9209  EA        NOP  
 920A  60        RTS  
 920B  B5 00     LDA  $00, X
 920D  85 1E     STA  $1E
 920F  B5 01     LDA  $01, X
 9211  85 1F     STA  $1F
 9213  A0 06     LDY  #$06
 9215  B1 1E     LDA  ($1E), Y
 9217  88        DEY  
 9218  88        DEY  
 9219  38        SEC  
 921A  F1 1E     SBC  ($1E), Y
 921C  95 00     STA  $00, X
 921E  A0 07     LDY  #$07
 9220  B1 1E     LDA  ($1E), Y
 9222  88        DEY  
 9223  88        DEY  
 9224  F1 1E     SBC  ($1E), Y
 9226  95 01     STA  $01, X
 9228  60        RTS  
 9229  B5 00     LDA  $00, X
 922B  55 02     EOR  $02, X
 922D  95 02     STA  $02, X
 922F  B5 01     LDA  $01, X
 9231  55 03     EOR  $03, X
 9233  95 03     STA  $03, X
 9235  E8        INX  
 9236  E8        INX  
 9237  60        RTS  
 9238  CA        DEX  
 9239  CA        DEX  
 923A  74 00     STZ  $00, X
 923C  74 01     STZ  $01, X
 923E  60        RTS  
 923F  EA        NOP  
 9240  60        RTS  
 9241  E0 77     CPX  #$77
 9243  30 05     BMI  $924A
 9245  A9 0B     LDA  #$0B
 9247  4C 4F A2  JMP  $A24F
 924A  B5 00     LDA  $00, X
 924C  15 01     ORA  $01, X
 924E  F0 04     BEQ  $9254
 9250  A9 00     LDA  #$00
 9252  80 02     BRA  $9256
 9254  A9 FF     LDA  #$FF
 9256  95 00     STA  $00, X
 9258  95 01     STA  $01, X
 925A  60        RTS  
 925B  EA        NOP  
 925C  60        RTS  
 925D  EA        NOP  
 925E  60        RTS  
 925F  E0 77     CPX  #$77
 9261  30 05     BMI  $9268
 9263  A9 0B     LDA  #$0B
 9265  4C 4F A2  JMP  $A24F
 9268  A0 00     LDY  #$00
 926A  B5 00     LDA  $00, X
 926C  15 01     ORA  $01, X
 926E  F0 01     BEQ  $9271
 9270  88        DEY  
 9271  98        TYA  
 9272  95 00     STA  $00, X
 9274  95 01     STA  $01, X
 9276  60        RTS  
 9277  3A 20 28 20 5B 63 68 61 72 5D 20 29 20 70 61 72  |: ( [char] ) par|
 9287  73 65 20 32 64 72 6F 70 20 3B 20 69 6D 6D 65 64  |se 2drop ; immed|
 9297  69 61 74 65 20 3A 20 2E 28 20 5B 63 68 61 72 5D  |iate : .( [char]|
 92A7  20 29 20 70 61 72 73 65 20 74 79 70 65 20 3B 20  | ) parse type ; |
 92B7  69 6D 6D 65 64 69 61 74 65 20 3A 20 74 68 65 6E  |immediate : then|
 92C7  20 68 65 72 65 20 73 77 61 70 20 21 20 3B 20 69  | here swap ! ; i|
 92D7  6D 6D 65 64 69 61 74 65 20 63 6F 6D 70 69 6C 65  |mmediate compile|
 92E7  2D 6F 6E 6C 79 20 3A 20 64 65 66 65 72 21 20 3E  |-only : defer! >|
 92F7  62 6F 64 79 20 21 20 3B 20 3A 20 64 65 66 65 72  |body ! ; : defer|
 9307  40 20 3E 62 6F 64 79 20 40 20 3B 20 3A 20 2F 20  |@ >body @ ; : / |
 9317  3E 72 20 73 3E 64 20 72 3E 20 73 6D 2F 72 65 6D  |>r s>d r> sm/rem|
 9327  20 73 77 61 70 20 64 72 6F 70 20 3B 20 3A 20 2F  | swap drop ; : /|
 9337  6D 6F 64 20 3E 72 20 73 3E 64 20 72 3E 20 73 6D  |mod >r s>d r> sm|
 9347  2F 72 65 6D 20 3B 20 3A 20 6D 6F 64 20 2F 6D 6F  |/rem ; : mod /mo|
 9357  64 20 64 72 6F 70 20 3B 20 3A 20 2A 2F 20 3E 72  |d drop ; : */ >r|
 9367  20 6D 2A 20 72 3E 20 73 6D 2F 72 65 6D 20 73 77  | m* r> sm/rem sw|
 9377  61 70 20 64 72 6F 70 20 3B 20 3A 20 2A 2F 6D 6F  |ap drop ; : */mo|
 9387  64 20 3E 72 20 6D 2A 20 72 3E 20 73 6D 2F 72 65  |d >r m* r> sm/re|
 9397  6D 20 3B 20 3A 20 75 2E 20 30 20 3C 23 20 23 73  |m ; : u. 0 <# #s|
 93A7  20 23 3E 20 74 79 70 65 20 73 70 61 63 65 20 3B  | #> type space ;|
 93B7  20 3A 20 75 2E 72 20 3E 72 20 30 20 3C 23 20 23  | : u.r >r 0 <# #|
 93C7  73 20 23 3E 20 72 3E 20 6F 76 65 72 20 2D 20 73  |s #> r> over - s|
 93D7  70 61 63 65 73 20 74 79 70 65 20 3B 20 3A 20 2E  |paces type ; : .|
 93E7  72 20 3E 72 20 64 75 70 20 61 62 73 20 30 20 3C  |r >r dup abs 0 <|
 93F7  23 20 23 73 20 72 6F 74 20 73 69 67 6E 20 23 3E  |# #s rot sign #>|
 9407  20 72 3E 20 6F 76 65 72 20 2D 20 73 70 61 63 65  | r> over - space|
 9417  73 20 74 79 70 65 20 3B 20 3A 20 75 64 2E 20 3C  |s type ; : ud. <|
 9427  23 20 23 73 20 23 3E 20 74 79 70 65 20 73 70 61  |# #s #> type spa|
 9437  63 65 20 3B 20 3A 20 75 64 2E 72 20 3E 72 20 3C  |ce ; : ud.r >r <|
 9447  23 20 23 73 20 23 3E 20 72 3E 20 6F 76 65 72 20  |# #s #> r> over |
 9457  2D 20 73 70 61 63 65 73 20 74 79 70 65 20 3B 20  |- spaces type ; |
 9467  3A 20 64 2E 20 74 75 63 6B 20 64 61 62 73 20 3C  |: d. tuck dabs <|
 9477  23 20 23 73 20 72 6F 74 20 73 69 67 6E 20 23 3E  |# #s rot sign #>|
 9487  20 74 79 70 65 20 73 70 61 63 65 20 3B 20 3A 20  | type space ; : |
 9497  64 2E 72 20 3E 72 20 74 75 63 6B 20 64 61 62 73  |d.r >r tuck dabs|
 94A7  20 3C 23 20 23 73 20 72 6F 74 20 73 69 67 6E 20  | <# #s rot sign |
 94B7  23 3E 20 72 3E 20 6F 76 65 72 20 2D 20 73 70 61  |#> r> over - spa|
 94C7  63 65 73 20 74 79 70 65 20 3B 20 3A 20 77 69 74  |ces type ; : wit|
 94D7  68 69 6E 20 28 20 6E 31 20 6E 32 20 6E 33 20 2D  |hin ( n1 n2 n3 -|
 94E7  2D 20 66 20 29 20 72 6F 74 20 74 75 63 6B 20 3E  |- f ) rot tuck >|
 94F7  20 2D 72 6F 74 20 3E 20 69 6E 76 65 72 74 20 61  | -rot > invert a|
 9507  6E 64 20 3B 20 2E 28 20 54 61 6C 69 20 46 6F 72  |nd ; .( Tali For|
 9517  74 68 20 32 20 66 6F 72 20 74 68 65 20 36 35 63  |th 2 for the 65c|
 9527  30 32 29 20 63 72 20 2E 28 20 56 65 72 73 69 6F  |02) cr .( Versio|
 9537  6E 20 50 52 45 2D 41 4C 50 48 41 20 31 35 2E 20  |n PRE-ALPHA 15. |
 9547  46 65 62 20 32 30 31 38 29 20 63 72 20 2E 28 20  |Feb 2018) cr .( |
 9557  43 6F 70 79 72 69 67 68 74 20 32 30 31 34 2D 32  |Copyright 2014-2|
 9567  30 31 38 20 53 63 6F 74 20 57 2E 20 53 74 65 76  |018 Scot W. Stev|
 9577  65 6E 73 6F 6E 29 20 63 72 20 2E 28 20 54 61 6C  |enson) cr .( Tal|
 9587  69 20 46 6F 72 74 68 20 32 20 63 6F 6D 65 73 20  |i Forth 2 comes |
 9597  77 69 74 68 20 61 62 73 6F 6C 75 74 65 6C 79 20  |with absolutely |
 95A7  4E 4F 20 57 41 52 52 41 4E 54 59 29 20 63 72 20  |NO WARRANTY) cr |
 95B7  2E 28 20 54 79 70 65 20 27 62 79 65 27 20 74 6F  |.( Type 'bye' to|
 95C7  20 65 78 69 74 29 20 63 72 20 03 00 00 00 17 82  | exit) cr ......|
 95D7  18 82 62 79 65 04 00 D1 95 00 80 BC 80 63 6F 6C  |..bye........col|
 95E7  64 02 00 DC 95 98 85 D3 85 2E 73 04 00 E8 95 E0  |d.........s.....|
 95F7  85 0A 86 64 75 6D 70 04 00 F2 95 DC 81 E1 81 62  |...dump........b|
 9607  65 6C 6C 08 00 FE 95 0B 92 28 92 77 6F 72 64 73  |ell......(.words|
 9617  69 7A 65 05 00 0A 96 E3 91 08 92 77 6F 72 64 73  |ize........words|
 9627  05 00 1A 96 A3 81 C5 81 61 74 2D 78 79 04 00 27  |........at-xy..'|
 9637  96 2E 8B 4B 8B 70 61 67 65 02 00 34 96 6C 83 71  |...K.page..4.l.q|
 9647  83 63 72 05 00 40 96 1E 88 28 88 69 6E 70 75 74  |.cr..@...(.input|
 9657  06 00 4A 96 08 8B 12 8B 6F 75 74 70 75 74 04 00  |..J.....output..|
 9667  57 96 74 8D 85 8D 73 69 67 6E 04 00 65 96 02 88  |W.t...sign..e...|
 9677  10 88 68 6F 6C 64 02 00 71 96 AA 8A C8 8A 23 3E  |..hold..q.....#>|
 9687  02 00 7D 96 C9 8A D6 8A 23 73 01 00 87 96 90 8A  |..}.....#s......|
 9697  A9 8A 23 02 00 91 96 AD 88 BA 88 3C 23 03 00 9A  |..#........<#...|
 96A7  96 85 8F 8F 8F 3E 69 6E 03 00 A4 96 1E 8B 2D 8B  |.....>in......-.|
 96B7  70 61 64 01 00 AF 96 C6 81 CE 81 5C 06 00 BA 96  |pad........\....|
 96C7  98 87 D4 87 66 6D 2F 6D 6F 64 06 00 C3 96 46 8E  |....fm/mod....F.|
 96D7  6B 8E 73 6D 2F 72 65 6D 06 00 D1 96 16 91 31 91  |k.sm/rem......1.|
 96E7  75 64 2F 6D 6F 64 06 00 DF 96 32 91 70 91 75 6D  |ud/mod....2.p.um|
 96F7  2F 6D 6F 64 01 00 ED 96 C1 8E CF 8E 2A 03 00 FB  |/mod........*...|
 9707  96 71 91 B3 91 75 6D 2A 02 00 04 97 17 89 2E 89  |.q...um*........|
 9717  6D 2A 05 00 0F 97 5B 83 6B 83 63 6F 75 6E 74 07  |m*....[.k.count.|
 9727  00 19 97 77 84 7D 84 64 65 63 69 6D 61 6C 03 00  |...w.}.decimal..|
 9737  26 97 FB 87 01 88 68 65 78 07 00 35 97 90 8F 2C  |&.....hex..5...,|
 9747  90 3E 6E 75 6D 62 65 72 06 00 40 97 0C 8A 8F 8A  |.>number..@.....|
 9757  6E 75 6D 62 65 72 06 00 4F 97 BE 84 EF 84 64 69  |number..O.....di|
 9767  67 69 74 3F 04 00 5D 97 CF 81 D9 81 62 61 73 65  |git?..].....base|
 9777  08 00 6B 97 A2 86 02 87 65 76 61 6C 75 61 74 65  |..k.....evaluate|
 9787  05 00 77 97 D0 8E DA 8E 73 74 61 74 65 04 00 87  |..w.....state...|
 9797  97 70 80 BC 80 71 75 69 74 05 00 94 97 6E 80 BC  |.p...quit....n..|
 97A7  80 61 62 6F 72 74 0C 00 A0 97 08 83 10 83 63 6F  |.abort........co|
 97B7  6D 70 69 6C 65 2D 6F 6E 6C 79 09 00 AD 97 15 88  |mpile-only......|
 97C7  1D 88 69 6D 6D 65 64 69 61 74 65 02 05 C1 97 80  |..immediate.....|
 97D7  85 97 85 2E 22 08 05 D2 97 88 8D 07 8E 73 6C 69  |...."........sli|
 97E7  74 65 72 61 6C 07 05 DC 97 D6 88 E2 88 6C 69 74  |teral........lit|
 97F7  65 72 61 6C 01 04 EC 97 0A 8D 10 8D 5D 01 05 FB  |eral........]...|
 9807  97 A8 88 AC 88 5B 08 00 04 98 AA 82 07 83 63 6F  |.....[........co|
 9817  6D 70 69 6C 65 2C 01 05 0D 98 52 8D 73 8D 3B 01  |mpile,....R.s.;.|
 9827  00 1D 98 61 82 92 82 3A 09 00 26 98 81 8E 8B 8E  |...a...:..&.....|
 9837  73 6F 75 72 63 65 2D 69 64 06 00 2F 98 6C 8E 80  |source-id../.l..|
 9847  8E 73 6F 75 72 63 65 05 00 40 98 AE 8B 3E 8C 70  |.source..@...>.p|
 9857  61 72 73 65 0A 00 4E 98 52 8B 3E 8C 70 61 72 73  |arse..N.R.>.pars|
 9867  65 2D 6E 61 6D 65 08 00 5B 98 94 88 9E 88 6C 61  |e-name..[.....la|
 9877  74 65 73 74 6E 74 08 00 6D 98 9F 88 A5 88 6C 61  |testnt..m.....la|
 9887  74 65 73 74 78 74 05 00 7D 98 7E 84 AE 84 64 65  |testxt..}.~...de|
 9897  66 65 72 05 00 8D 98 35 8F 84 8F 3E 62 6F 64 79  |fer....5...>body|
 98A7  0B 00 9A 98 93 89 A9 89 6E 61 6D 65 3E 73 74 72  |........name>str|
 98B7  69 6E 67 08 00 A7 98 29 88 75 88 69 6E 74 3E 6E  |ing....).u.int>n|
 98C7  61 6D 65 08 00 BA 98 79 89 92 89 6E 61 6D 65 3E  |ame....y...name>|
 98D7  69 6E 74 03 05 CA 98 0E 82 14 82 5B 27 5D 01 00  |int........[']..|
 98E7  DA 98 13 8F 32 8F 27 09 00 E5 98 34 87 97 87 66  |....2.'....4...f|
 98F7  69 6E 64 2D 6E 61 6D 65 04 00 EE 98 59 86 A1 86  |ind-name....Y...|
 9907  66 69 6C 6C 05 00 FF 98 53 86 A1 86 65 72 61 73  |fill....S...eras|
 9917  65 02 00 0B 99 28 84 4E 84 64 2B 02 00 18 99 01  |e....(.N.d+.....|
 9927  84 27 84 64 2D 03 00 22 99 4F 84 5A 84 64 3E 73  |.'.d-..".O.Z.d>s|
 9937  03 00 2C 99 43 8D 51 8D 73 3E 64 05 00 37 99 11  |..,.C.Q.s>d..7..|
 9947  83 5A 83 76 61 6C 75 65 08 00 42 99 11 83 5A 83  |.Z.value..B...Z.|
 9957  63 6F 6E 73 74 61 6E 74 08 00 4F 99 C8 91 E0 91  |constant..O.....|
 9967  76 61 72 69 61 62 6C 65 05 05 5F 99 14 85 26 85  |variable.._...&.|
 9977  64 6F 65 73 3E 06 00 6F 99 72 83 00 84 63 72 65  |does>..o.r...cre|
 9987  61 74 65 05 00 7C 99 42 81 93 81 61 6C 6C 6F 74  |ate..|.B...allot|
 9997  03 00 8A 99 85 88 92 88 6B 65 79 05 00 97 99 AF  |........key.....|
 99A7  84 BD 84 64 65 70 74 68 06 00 A2 99 B6 91 C5 91  |...depth........|
 99B7  75 6E 75 73 65 64 06 00 AF 99 D0 80 3B 81 61 63  |unused......;.ac|
 99C7  63 65 70 74 06 00 BD 99 CA 8C 07 8D 72 65 66 69  |cept........refi|
 99D7  6C 6C 02 00 CB 99 E2 81 EA 81 62 6C 06 00 D9 99  |ll........bl....|
 99E7  92 8E C0 8E 73 70 61 63 65 73 06 00 E3 99 EB 81  |....spaces......|
 99F7  06 82 62 6F 75 6E 64 73 02 00 F1 99 19 82 25 82  |..bounds......%.|
 9A07  63 2C 07 00 FF 99 F0 84 11 85 64 6E 65 67 61 74  |c,........dnegat|
 9A17  65 06 00 09 9A AC 89 BD 89 6E 65 67 61 74 65 06  |e........negate.|
 9A27  00 18 9A 76 88 82 88 69 6E 76 65 72 74 05 00 26  |...v...invert..&|
 9A37  9A 8C 90 A9 90 32 6F 76 65 72 05 00 34 9A BC 90  |.....2over..4...|
 9A47  E5 90 32 73 77 61 70 05 00 41 9A 69 90 6D 90 32  |..2swap..A.i.m.2|
 9A57  64 72 6F 70 03 00 4E 9A 31 89 49 89 6D 61 78 03  |drop..N.1.I.max.|
 9A67  00 5B 9A 4A 89 62 89 6D 69 6E 03 00 66 9A 5F 92  |.[.J.b.min..f._.|
 9A77  76 92 30 3C 3E 02 00 71 9A 41 92 5A 92 30 3D 01  |v.0<>..q.A.Z.0=.|
 9A87  00 7C 9A D5 87 EF 87 3E 01 00 86 9A BB 88 D5 88  |.|.....>........|
 9A97  3C 02 00 8F 9A CB 89 EE 89 3C 3E 01 00 98 9A 31  |<........<>....1|
 9AA7  86 52 86 3D 02 00 A2 9A AE 90 BB 90 32 2A 02 00  |.R.=........2*..|
 9AB7  AB 9A E9 8A EF 8A 31 2B 02 00 B5 9A E0 8A E8 8A  |......1+........|
 9AC7  31 2D 04 00 BF 9A F0 87 FA 87 68 65 72 65 05 00  |1-........here..|
 9AD7  C9 9A 36 82 43 82 63 65 6C 6C 2B 05 00 D5 9A AE  |..6.C.cell+.....|
 9AE7  90 BB 90 63 65 6C 6C 73 05 02 E2 9A 5B 82 5C 82  |...cells....[.\.|
 9AF7  63 68 61 72 73 05 00 EF 9A E9 8A EF 8A 63 68 61  |chars........cha|
 9B07  72 2B 06 05 FC 9A 07 82 0D 82 5B 63 68 61 72 5D  |r+........[char]|
 9B17  04 00 09 9B 44 82 5A 82 63 68 61 72 04 00 17 9B  |....D.Z.char....|
 9B27  3F 8C 53 8C 70 69 63 6B 06 00 23 9B 06 89 16 89  |?.S.pick..#.....|
 9B37  6C 73 68 69 66 74 06 00 2F 9B 30 8D 40 8D 72 73  |lshift../.0.@.rs|
 9B47  68 69 66 74 03 00 3D 9B 29 92 37 92 78 6F 72 02  |hift..=.).7.xor.|
 9B57  00 4B 9B F0 8A 07 8B 6F 72 03 00 56 9B 94 81 A2  |.K.....or..V....|
 9B67  81 61 6E 64 04 00 60 9B 5B 84 76 84 64 61 62 73  |.and..`.[.v.dabs|
 9B77  03 00 6B 9B BE 80 CF 80 61 62 73 01 00 77 9B 63  |..k.....abs..w.c|
 9B87  89 72 89 2D 01 00 82 9B 54 8C 6C 8C 2B 04 00 8B  |.r.-....T.l.+...|
 9B97  9B 6E 90 8B 90 32 64 75 70 01 00 94 9B 60 90 68  |.n...2dup....`.h|
 9BA7  90 32 01 00 A0 9B D7 8A DF 8A 31 01 00 A9 9B 38  |.2........1....8|
 9BB7  92 3E 92 30 05 00 B2 9B 8C 8E 91 8E 73 70 61 63  |.>.0........spac|
 9BC7  65 04 00 BB 9B 3E 90 46 90 74 72 75 65 05 00 C8  |e....>.F.true...|
 9BD7  9B 1A 87 20 87 66 61 6C 73 65 01 00 D4 9B 97 8C  |... .false......|
 9BE7  9D 8C 3F 01 00 E1 9B 56 85 7D 85 2E 04 00 EA 9B  |..?....V.}......|
 9BF7  EA 90 15 91 74 79 70 65 04 08 F3 9B 21 86 31 86  |....type....!.1.|
 9C07  65 6D 69 74 07 00 FF 9B 03 87 17 87 65 78 65 63  |emit........exec|
 9C17  75 74 65 02 00 0B 9C 6F 8C 94 8C 2B 21 02 00 1A  |ute....o...+!...|
 9C27  9C 2D 82 35 82 63 21 02 00 24 9C 26 82 2C 82 63  |.-.5.c!..$.&.,.c|
 9C37  40 01 00 2E 9C 93 82 A9 82 2C 04 00 38 9C 47 90  |@........,..8.G.|
 9C47  5F 90 74 75 63 6B 04 00 41 9C EF 89 0B 8A 2D 72  |_.tuck..A.....-r|
 9C57  6F 74 03 00 4D 9C 13 8D 2F 8D 72 6F 74 03 00 59  |ot..M.../.rot..Y|
 9C67  9C C0 89 CA 89 6E 69 70 02 08 64 9C A2 8C B6 8C  |.....nip..d.....|
 9C77  72 40 02 08 6F 9C B7 8C C7 8C 72 3E 02 01 79 9C  |r@..o.....r>..y.|
 9C87  2D 90 3D 90 3E 72 04 00 83 9C 13 8B 1D 8B 6F 76  |-.=.>r........ov|
 9C97  65 72 01 00 8D 9C 21 87 31 87 40 01 00 99 9C DB  |er....!.1.@.....|
 9CA7  8E F6 8E 21 04 00 A2 9C F7 8E 10 8F 73 77 61 70  |...!........swap|
 9CB7  03 00 AB 9C 0B 86 1E 86 64 75 70 04 00 B7 9C D4  |........dup.....|
 9CC7  85 DF 85 64 72 6F 70 07 00 00 00 4E 8B 4F 8B 28  |...drop....N.O.(|
 9CD7  2B 6C 6F 6F 70 29 05 00 00 00 50 8B 51 8B 28 3F  |+loop)....P.Q.(?|
 9CE7  64 6F 29 04 00 00 00 4C 8B 4D 8B 28 64 6F 29 05  |do)....L.M.(do).|
 9CF7  00 00 00 6D 8C 6E 8C 2B 6C 6F 6F 70 09 00 00 00  |...m.n.+loop....|
 9D07  73 89 74 89 2D 74 72 61 69 6C 69 6E 67 05 00 00  |s.t.-trailing...|
 9D17  00 7E 85 7F 85 2E 62 79 74 65 07 00 00 00 86 8D  |.~....byte......|
 9D27  87 8D 2F 73 74 72 69 6E 67 02 00 00 00 5D 92 5E  |../string....].^|
 9D37  92 30 3C 02 00 00 00 5B 92 5C 92 30 3E 07 00 00  |.0<....[.\.0>...|
 9D47  00 3F 92 40 92 30 62 72 61 6E 63 68 03 00 00 00  |.?.@.0branch....|
 9D57  E6 90 E7 90 32 3E 72 03 00 00 00 AC 90 AD 90 32  |....2>r........2|
 9D67  72 3E 03 00 00 00 AA 90 AB 90 32 72 40 09 00 00  |r>........2r@...|
 9D77  00 E8 90 E9 90 32 76 61 72 69 61 62 6C 65 03 00  |.....2variable..|
 9D87  00 00 9E 8C 9F 8C 3F 64 6F 04 00 00 00 A0 8C A1  |......?do.......|
 9D97  8C 3F 64 75 70 06 00 00 00 BC 80 BD 80 61 62 6F  |.?dup........abo|
 9DA7  72 74 22 05 00 00 00 3C 81 3D 81 61 67 61 69 6E  |rt"....<.=.again|
 9DB7  05 00 00 00 3E 81 3F 81 61 6C 69 67 6E 07 00 00  |....>.?.align...|
 9DC7  00 40 81 41 81 61 6C 69 67 6E 65 64 05 00 00 00  |.@.A.aligned....|
 9DD7  DA 81 DB 81 62 65 67 69 6E 06 00 00 00 15 82 16  |....begin.......|
 9DE7  82 62 72 61 6E 63 68 05 00 00 00 5D 82 5E 82 63  |.branch....].^.c|
 9DF7  6D 6F 76 65 06 00 00 00 5F 82 60 82 63 6D 6F 76  |move...._.`.cmov|
 9E07  65 3E 02 00 00 00 12 85 13 85 64 6F 04 00 00 00  |e>........do....|
 9E17  1F 86 20 86 65 6C 73 65 04 00 00 00 18 87 19 87  |.. .else........|
 9E27  65 78 69 74 04 00 00 00 32 87 33 87 66 69 6E 64  |exit....2.3.find|
 9E37  01 00 00 00 11 88 12 88 69 02 00 00 00 13 88 14  |........i.......|
 9E47  88 69 66 01 00 00 00 83 88 84 88 6A 04 00 00 00  |.if........j....|
 9E57  92 88 93 88 6B 65 79 3F 05 00 00 00 A6 88 A7 88  |....key?........|
 9E67  6C 65 61 76 65 04 00 00 00 04 89 05 89 6C 6F 6F  |leave........loo|
 9E77  70 06 00 00 00 2F 89 30 89 6D 61 72 6B 65 72 03  |p..../.0.marker.|
 9E87  00 00 00 75 89 76 89 6D 6F 64 04 00 00 00 77 89  |...u.v.mod....w.|
 9E97  78 89 6D 6F 76 65 08 00 00 00 AA 89 AB 89 6E 63  |x.move........nc|
 9EA7  2D 6C 69 6D 69 74 0D 00 00 00 BE 89 BF 89 6E 65  |-limit........ne|
 9EB7  76 65 72 2D 63 6F 6D 70 69 6C 65 08 00 00 00 95  |ver-compile.....|
 9EC7  8C 96 8C 70 6F 73 74 70 6F 6E 65 07 00 00 00 C8  |...postpone.....|
 9ED7  8C C9 8C 72 65 63 75 72 73 65 06 00 00 00 08 8D  |...recurse......|
 9EE7  09 8D 72 65 70 65 61 74 02 00 00 00 41 8D 42 8D  |..repeat....A.B.|
 9EF7  73 22 04 00 00 00 11 8F 12 8F 74 68 65 6E 02 00  |s"........then..|
 9F07  00 00 33 8F 34 8F 74 6F 06 00 00 00 B4 91 B5 91  |..3.4.to........|
 9F17  75 6E 6C 6F 6F 70 04 00 00 00 E1 91 E2 91 77 6F  |unloop........wo|
 9F27  72 64 0B 00 00 00 09 92 0A 92 77 6F 72 64 73 26  |rd........words&|
 9F37  73 69 7A 65 73 48 9F 4C 9F 56 9F 5B 9F 5F 9F 82  |sizesH.L.V.[._..|
 9F47  9F 20 6F 6B 00 20 63 6F 6D 70 69 6C 65 64 00 1B  |. ok. compiled..|
 9F57  5B 32 4A 00 1B 5B 48 00 30 31 32 33 34 35 36 37  |[2J..[H.01234567|
 9F67  38 39 61 62 63 64 65 66 67 68 69 6A 6B 6C 6D 6E  |89abcdefghijklmn|
 9F77  6F 70 71 72 73 74 75 76 77 79 7A 30 31 32 33 34  |opqrstuvwyz01234|
 9F87  35 36 37 38 39 41 42 43 44 45 46 47 48 49 4A 4B  |56789ABCDEFGHIJK|
 9F97  4C 4D 4E 4F 50 51 52 53 54 55 56 57 59 5A C1 9F  |LMNOPQRSTUVWYZ..|
 9FA7  E2 9F 03 A0 20 A0 31 A0 3D A0 53 A0 82 A0 99 A0  |.... .1.=.S.....|
 9FB7  C7 A0 E7 A0 FF A0 0F A1 63 A0 41 4C 4C 4F 54 20  |........c.ALLOT |
 9FC7  75 73 69 6E 67 20 61 6C 6C 20 61 76 61 69 6C 61  |using all availa|
 9FD7  62 6C 65 20 6D 65 6D 6F 72 79 00 49 6E 74 65 72  |ble memory.Inter|
 9FE7  70 72 65 74 69 6E 67 20 61 20 63 6F 6D 70 69 6C  |preting a compil|
 9FF7  65 2D 6F 6E 6C 79 20 77 6F 72 64 00 44 45 46 45  |e-only word.DEFE|
 A007  52 65 64 20 77 6F 72 64 20 6E 6F 74 20 64 65 66  |Red word not def|
 A017  69 6E 65 64 20 79 65 74 00 44 69 76 69 73 69 6F  |ined yet.Divisio|
 A027  6E 20 62 79 20 7A 65 72 6F 00 3E 3E 3E 45 72 72  |n by zero.>>>Err|
 A037  6F 72 3C 3C 3C 00 4E 6F 74 20 69 6E 20 69 6E 74  |or<<<.Not in int|
 A047  65 72 70 72 65 74 20 6D 6F 64 65 00 50 61 72 73  |erpret mode.Pars|
 A057  69 6E 67 20 66 61 69 6C 75 72 65 00 4E 6F 20 73  |ing failure.No s|
 A067  75 63 68 20 78 74 20 66 6F 75 6E 64 20 69 6E 20  |uch xt found in |
 A077  44 69 63 74 69 6F 6E 61 72 79 00 44 69 67 69 74  |Dictionary.Digit|
 A087  20 6C 61 72 67 65 72 20 74 68 61 6E 20 62 61 73  | larger than bas|
 A097  65 00 51 55 49 54 20 63 6F 75 6C 64 20 6E 6F 74  |e.QUIT could not|
 A0A7  20 67 65 74 20 69 6E 70 75 74 20 28 52 45 46 49  | get input (REFI|
 A0B7  4C 4C 20 72 65 74 75 72 6E 65 64 20 2D 31 29 00  |LL returned -1).|
 A0C7  49 6C 6C 65 67 61 6C 20 53 4F 55 52 43 45 2D 49  |Illegal SOURCE-I|
 A0D7  44 20 64 75 72 69 6E 67 20 52 45 46 49 4C 4C 00  |D during REFILL.|
 A0E7  41 6C 72 65 61 64 79 20 69 6E 20 63 6F 6D 70 69  |Already in compi|
 A0F7  6C 65 20 6D 6F 64 65 00 53 74 61 63 6B 20 75 6E  |le mode.Stack un|
 A107  64 65 72 66 6C 6F 77 00 55 6E 64 65 66 69 6E 65  |derflow.Undefine|
 A117  64 20 77 6F 72 64 00                             |d word.         |
 A11E  A9 20     LDA  #$20
 A120  80 02     BRA  $A124
 A122  A9 4C     LDA  #$4C
 A124  92 00     STA  ($00)
 A126  E6 00     INC  $00
 A128  D0 02     BNE  $A12C
 A12A  E6 01     INC  $01
 A12C  68        PLA  
 A12D  85 1E     STA  $1E
 A12F  68        PLA  
 A130  85 1F     STA  $1F
 A132  A0 00     LDY  #$00
 A134  68        PLA  
 A135  91 00     STA  ($00), Y
 A137  C8        INY  
 A138  68        PLA  
 A139  91 00     STA  ($00), Y
 A13B  A5 00     LDA  $00
 A13D  18        CLC  
 A13E  69 02     ADC  #$02
 A140  85 00     STA  $00
 A142  90 02     BCC  $A146
 A144  E6 01     INC  $01
 A146  A5 1F     LDA  $1F
 A148  48        PHA  
 A149  A5 1E     LDA  $1E
 A14B  48        PHA  
 A14C  60        RTS  
 A14D  CA        DEX  
 A14E  CA        DEX  
 A14F  68        PLA  
 A150  85 1E     STA  $1E
 A152  68        PLA  
 A153  85 1F     STA  $1F
 A155  A0 01     LDY  #$01
 A157  B1 1E     LDA  ($1E), Y
 A159  95 00     STA  $00, X
 A15B  C8        INY  
 A15C  B1 1E     LDA  ($1E), Y
 A15E  95 01     STA  $01, X
 A160  60        RTS  
 A161  7A        PLY  
 A162  68        PLA  
 A163  C8        INY  
 A164  D0 01     BNE  $A167
 A166  1A        INC  
 A167  84 1E     STY  $1E
 A169  85 1F     STA  $1F
 A16B  A0 00     LDY  #$00
 A16D  B1 1E     LDA  ($1E), Y
 A16F  85 20     STA  $20
 A171  C8        INY  
 A172  B1 1E     LDA  ($1E), Y
 A174  85 21     STA  $21
 A176  A5 20     LDA  $20
 A178  38        SEC  
 A179  E9 01     SBC  #$01
 A17B  A8        TAY  
 A17C  A5 21     LDA  $21
 A17E  E9 00     SBC  #$00
 A180  48        PHA  
 A181  5A        PHY  
 A182  60        RTS  
 A183  A9 02     LDA  #$02
 A185  4C 4F A2  JMP  $A24F
 A188  7A        PLY  
 A189  68        PLA  
 A18A  C8        INY  
 A18B  D0 01     BNE  $A18E
 A18D  1A        INC  
 A18E  84 20     STY  $20
 A190  85 21     STA  $21
 A192  CA        DEX  
 A193  CA        DEX  
 A194  68        PLA  
 A195  18        CLC  
 A196  69 01     ADC  #$01
 A198  95 00     STA  $00, X
 A19A  68        PLA  
 A19B  69 00     ADC  #$00
 A19D  95 01     STA  $01, X
 A19F  6C 20 00  JMP  ($0020)
 A1A2  7A        PLY  
 A1A3  68        PLA  
 A1A4  C8        INY  
 A1A5  D0 01     BNE  $A1A8
 A1A7  1A        INC  
 A1A8  CA        DEX  
 A1A9  CA        DEX  
 A1AA  95 01     STA  $01, X
 A1AC  98        TYA  
 A1AD  95 00     STA  $00, X
 A1AF  60        RTS  
 A1B0  48        PHA  
 A1B1  4A        LSR  
 A1B2  4A        LSR  
 A1B3  4A        LSR  
 A1B4  4A        LSR  
 A1B5  20 B9 A1  JSR  $A1B9
 A1B8  68        PLA  
 A1B9  29 0F     AND  #$0F
 A1BB  09 30     ORA  #$30
 A1BD  C9 3A     CMP  #$3A
 A1BF  90 02     BCC  $A1C3
 A1C1  69 06     ADC  #$06
 A1C3  4C 2E 86  JMP  $862E
 A1C6  60        RTS  
 A1C7  B5 00     LDA  $00, X
 A1C9  D5 02     CMP  $02, X
 A1CB  F0 0A     BEQ  $A1D7
 A1CD  B5 01     LDA  $01, X
 A1CF  F5 03     SBC  $03, X
 A1D1  09 01     ORA  #$01
 A1D3  70 08     BVS  $A1DD
 A1D5  80 08     BRA  $A1DF
 A1D7  B5 01     LDA  $01, X
 A1D9  F5 03     SBC  $03, X
 A1DB  50 04     BVC  $A1E1
 A1DD  49 80     EOR  #$80
 A1DF  09 01     ORA  #$01
 A1E1  60        RTS  
 A1E2  20 52 8B  JSR  $8B52
 A1E5  B5 00     LDA  $00, X
 A1E7  15 01     ORA  $01, X
 A1E9  F0 5F     BEQ  $A24A
 A1EB  20 6E 90  JSR  $906E
 A1EE  20 34 87  JSR  $8734
 A1F1  B5 00     LDA  $00, X
 A1F3  15 01     ORA  $01, X
 A1F5  D0 17     BNE  $A20E
 A1F7  E8        INX  
 A1F8  E8        INX  
 A1F9  20 0C 8A  JSR  $8A0C
 A1FC  A5 16     LDA  $16
 A1FE  F0 E2     BEQ  $A1E2
 A200  A9 E3     LDA  #$E3
 A202  48        PHA  
 A203  A9 88     LDA  #$88
 A205  48        PHA  
 A206  20 1E A1  JSR  $A11E
 A209  20 93 82  JSR  $8293
 A20C  80 D4     BRA  $A1E2
 A20E  B5 00     LDA  $00, X
 A210  95 04     STA  $04, X
 A212  B5 01     LDA  $01, X
 A214  95 05     STA  $05, X
 A216  E8        INX  
 A217  E8        INX  
 A218  E8        INX  
 A219  E8        INX  
 A21A  B5 00     LDA  $00, X
 A21C  85 1C     STA  $1C
 A21E  B5 01     LDA  $01, X
 A220  85 1D     STA  $1D
 A222  20 79 89  JSR  $8979
 A225  A5 16     LDA  $16
 A227  D0 13     BNE  $A23C
 A229  A0 01     LDY  #$01
 A22B  B1 1C     LDA  ($1C), Y
 A22D  29 01     AND  #$01
 A22F  F0 05     BEQ  $A236
 A231  A9 01     LDA  #$01
 A233  4C 4F A2  JMP  $A24F
 A236  20 03 87  JSR  $8703
 A239  4C E2 A1  JMP  $A1E2
 A23C  A0 01     LDY  #$01
 A23E  B1 1C     LDA  ($1C), Y
 A240  29 04     AND  #$04
 A242  D0 F2     BNE  $A236
 A244  20 AA 82  JSR  $82AA
 A247  4C E2 A1  JMP  $A1E2
 A24A  E8        INX  
 A24B  E8        INX  
 A24C  E8        INX  
 A24D  E8        INX  
 A24E  60        RTS  
 A24F  0A        ASL  
 A250  A8        TAY  
 A251  B9 A5 9F  LDA  $9FA5, Y
 A254  85 22     STA  $22
 A256  C8        INY  
 A257  B9 A5 9F  LDA  $9FA5, Y
 A25A  85 23     STA  $23
 A25C  20 6F A2  JSR  $A26F
 A25F  4C 6E 80  JMP  $806E
 A262  0A        ASL  
 A263  A8        TAY  
 A264  B9 3C 9F  LDA  $9F3C, Y
 A267  85 22     STA  $22
 A269  C8        INY  
 A26A  B9 3C 9F  LDA  $9F3C, Y
 A26D  85 23     STA  $23
 A26F  A0 00     LDY  #$00
 A271  B1 22     LDA  ($22), Y
 A273  F0 06     BEQ  $A27B
 A275  20 2E 86  JSR  $862E
 A278  C8        INY  
 A279  80 F6     BRA  $A271
 A27B  A9 0A     LDA  #$0A
 A27D  20 2E 86  JSR  $862E
 A280  60        RTS  
 A281  00 00 00 00 00 00 00 00 00 00 00 00 00 00 00 00  |................|
 A291  00 00 00 00 00 00 00 00 00 00 00 00 00 00 00 00  |................|
 A2A1  00 00 00 00 00 00 00 00 00 00 00 00 00 00 00 00  |................|
 A2B1  00 00 00 00 00 00 00 00 00 00 00 00 00 00 00 00  |................|
 A2C1  00 00 00 00 00 00 00 00 00 00 00 00 00 00 00 00  |................|
 A2D1  00 00 00 00 00 00 00 00 00 00 00 00 00 00 00 00  |................|
 A2E1  00 00 00 00 00 00 00 00 00 00 00 00 00 00 00 00  |................|
 A2F1  00 00 00 00 00 00 00 00 00 00 00 00 00 00 00 00  |................|
 A301  00 00 00 00 00 00 00 00 00 00 00 00 00 00 00 00  |................|
 A311  00 00 00 00 00 00 00 00 00 00 00 00 00 00 00 00  |................|
 A321  00 00 00 00 00 00 00 00 00 00 00 00 00 00 00 00  |................|
 A331  00 00 00 00 00 00 00 00 00 00 00 00 00 00 00 00  |................|
 A341  00 00 00 00 00 00 00 00 00 00 00 00 00 00 00 00  |................|
 A351  00 00 00 00 00 00 00 00 00 00 00 00 00 00 00 00  |................|
 A361  00 00 00 00 00 00 00 00 00 00 00 00 00 00 00 00  |................|
 A371  00 00 00 00 00 00 00 00 00 00 00 00 00 00 00 00  |................|
 A381  00 00 00 00 00 00 00 00 00 00 00 00 00 00 00 00  |................|
 A391  00 00 00 00 00 00 00 00 00 00 00 00 00 00 00 00  |................|
 A3A1  00 00 00 00 00 00 00 00 00 00 00 00 00 00 00 00  |................|
 A3B1  00 00 00 00 00 00 00 00 00 00 00 00 00 00 00 00  |................|
 A3C1  00 00 00 00 00 00 00 00 00 00 00 00 00 00 00 00  |................|
 A3D1  00 00 00 00 00 00 00 00 00 00 00 00 00 00 00 00  |................|
 A3E1  00 00 00 00 00 00 00 00 00 00 00 00 00 00 00 00  |................|
 A3F1  00 00 00 00 00 00 00 00 00 00 00 00 00 00 00 00  |................|
 A401  00 00 00 00 00 00 00 00 00 00 00 00 00 00 00 00  |................|
 A411  00 00 00 00 00 00 00 00 00 00 00 00 00 00 00 00  |................|
 A421  00 00 00 00 00 00 00 00 00 00 00 00 00 00 00 00  |................|
 A431  00 00 00 00 00 00 00 00 00 00 00 00 00 00 00 00  |................|
 A441  00 00 00 00 00 00 00 00 00 00 00 00 00 00 00 00  |................|
 A451  00 00 00 00 00 00 00 00 00 00 00 00 00 00 00 00  |................|
 A461  00 00 00 00 00 00 00 00 00 00 00 00 00 00 00 00  |................|
 A471  00 00 00 00 00 00 00 00 00 00 00 00 00 00 00 00  |................|
 A481  00 00 00 00 00 00 00 00 00 00 00 00 00 00 00 00  |................|
 A491  00 00 00 00 00 00 00 00 00 00 00 00 00 00 00 00  |................|
 A4A1  00 00 00 00 00 00 00 00 00 00 00 00 00 00 00 00  |................|
 A4B1  00 00 00 00 00 00 00 00 00 00 00 00 00 00 00 00  |................|
 A4C1  00 00 00 00 00 00 00 00 00 00 00 00 00 00 00 00  |................|
 A4D1  00 00 00 00 00 00 00 00 00 00 00 00 00 00 00 00  |................|
 A4E1  00 00 00 00 00 00 00 00 00 00 00 00 00 00 00 00  |................|
 A4F1  00 00 00 00 00 00 00 00 00 00 00 00 00 00 00 00  |................|
 A501  00 00 00 00 00 00 00 00 00 00 00 00 00 00 00 00  |................|
 A511  00 00 00 00 00 00 00 00 00 00 00 00 00 00 00 00  |................|
 A521  00 00 00 00 00 00 00 00 00 00 00 00 00 00 00 00  |................|
 A531  00 00 00 00 00 00 00 00 00 00 00 00 00 00 00 00  |................|
 A541  00 00 00 00 00 00 00 00 00 00 00 00 00 00 00 00  |................|
 A551  00 00 00 00 00 00 00 00 00 00 00 00 00 00 00 00  |................|
 A561  00 00 00 00 00 00 00 00 00 00 00 00 00 00 00 00  |................|
 A571  00 00 00 00 00 00 00 00 00 00 00 00 00 00 00 00  |................|
 A581  00 00 00 00 00 00 00 00 00 00 00 00 00 00 00 00  |................|
 A591  00 00 00 00 00 00 00 00 00 00 00 00 00 00 00 00  |................|
 A5A1  00 00 00 00 00 00 00 00 00 00 00 00 00 00 00 00  |................|
 A5B1  00 00 00 00 00 00 00 00 00 00 00 00 00 00 00 00  |................|
 A5C1  00 00 00 00 00 00 00 00 00 00 00 00 00 00 00 00  |................|
 A5D1  00 00 00 00 00 00 00 00 00 00 00 00 00 00 00 00  |................|
 A5E1  00 00 00 00 00 00 00 00 00 00 00 00 00 00 00 00  |................|
 A5F1  00 00 00 00 00 00 00 00 00 00 00 00 00 00 00 00  |................|
 A601  00 00 00 00 00 00 00 00 00 00 00 00 00 00 00 00  |................|
 A611  00 00 00 00 00 00 00 00 00 00 00 00 00 00 00 00  |................|
 A621  00 00 00 00 00 00 00 00 00 00 00 00 00 00 00 00  |................|
 A631  00 00 00 00 00 00 00 00 00 00 00 00 00 00 00 00  |................|
 A641  00 00 00 00 00 00 00 00 00 00 00 00 00 00 00 00  |................|
 A651  00 00 00 00 00 00 00 00 00 00 00 00 00 00 00 00  |................|
 A661  00 00 00 00 00 00 00 00 00 00 00 00 00 00 00 00  |................|
 A671  00 00 00 00 00 00 00 00 00 00 00 00 00 00 00 00  |................|
 A681  00 00 00 00 00 00 00 00 00 00 00 00 00 00 00 00  |................|
 A691  00 00 00 00 00 00 00 00 00 00 00 00 00 00 00 00  |................|
 A6A1  00 00 00 00 00 00 00 00 00 00 00 00 00 00 00 00  |................|
 A6B1  00 00 00 00 00 00 00 00 00 00 00 00 00 00 00 00  |................|
 A6C1  00 00 00 00 00 00 00 00 00 00 00 00 00 00 00 00  |................|
 A6D1  00 00 00 00 00 00 00 00 00 00 00 00 00 00 00 00  |................|
 A6E1  00 00 00 00 00 00 00 00 00 00 00 00 00 00 00 00  |................|
 A6F1  00 00 00 00 00 00 00 00 00 00 00 00 00 00 00 00  |................|
 A701  00 00 00 00 00 00 00 00 00 00 00 00 00 00 00 00  |................|
 A711  00 00 00 00 00 00 00 00 00 00 00 00 00 00 00 00  |................|
 A721  00 00 00 00 00 00 00 00 00 00 00 00 00 00 00 00  |................|
 A731  00 00 00 00 00 00 00 00 00 00 00 00 00 00 00 00  |................|
 A741  00 00 00 00 00 00 00 00 00 00 00 00 00 00 00 00  |................|
 A751  00 00 00 00 00 00 00 00 00 00 00 00 00 00 00 00  |................|
 A761  00 00 00 00 00 00 00 00 00 00 00 00 00 00 00 00  |................|
 A771  00 00 00 00 00 00 00 00 00 00 00 00 00 00 00 00  |................|
 A781  00 00 00 00 00 00 00 00 00 00 00 00 00 00 00 00  |................|
 A791  00 00 00 00 00 00 00 00 00 00 00 00 00 00 00 00  |................|
 A7A1  00 00 00 00 00 00 00 00 00 00 00 00 00 00 00 00  |................|
 A7B1  00 00 00 00 00 00 00 00 00 00 00 00 00 00 00 00  |................|
 A7C1  00 00 00 00 00 00 00 00 00 00 00 00 00 00 00 00  |................|
 A7D1  00 00 00 00 00 00 00 00 00 00 00 00 00 00 00 00  |................|
 A7E1  00 00 00 00 00 00 00 00 00 00 00 00 00 00 00 00  |................|
 A7F1  00 00 00 00 00 00 00 00 00 00 00 00 00 00 00 00  |................|
 A801  00 00 00 00 00 00 00 00 00 00 00 00 00 00 00 00  |................|
 A811  00 00 00 00 00 00 00 00 00 00 00 00 00 00 00 00  |................|
 A821  00 00 00 00 00 00 00 00 00 00 00 00 00 00 00 00  |................|
 A831  00 00 00 00 00 00 00 00 00 00 00 00 00 00 00 00  |................|
 A841  00 00 00 00 00 00 00 00 00 00 00 00 00 00 00 00  |................|
 A851  00 00 00 00 00 00 00 00 00 00 00 00 00 00 00 00  |................|
 A861  00 00 00 00 00 00 00 00 00 00 00 00 00 00 00 00  |................|
 A871  00 00 00 00 00 00 00 00 00 00 00 00 00 00 00 00  |................|
 A881  00 00 00 00 00 00 00 00 00 00 00 00 00 00 00 00  |................|
 A891  00 00 00 00 00 00 00 00 00 00 00 00 00 00 00 00  |................|
 A8A1  00 00 00 00 00 00 00 00 00 00 00 00 00 00 00 00  |................|
 A8B1  00 00 00 00 00 00 00 00 00 00 00 00 00 00 00 00  |................|
 A8C1  00 00 00 00 00 00 00 00 00 00 00 00 00 00 00 00  |................|
 A8D1  00 00 00 00 00 00 00 00 00 00 00 00 00 00 00 00  |................|
 A8E1  00 00 00 00 00 00 00 00 00 00 00 00 00 00 00 00  |................|
 A8F1  00 00 00 00 00 00 00 00 00 00 00 00 00 00 00 00  |................|
 A901  00 00 00 00 00 00 00 00 00 00 00 00 00 00 00 00  |................|
 A911  00 00 00 00 00 00 00 00 00 00 00 00 00 00 00 00  |................|
 A921  00 00 00 00 00 00 00 00 00 00 00 00 00 00 00 00  |................|
 A931  00 00 00 00 00 00 00 00 00 00 00 00 00 00 00 00  |................|
 A941  00 00 00 00 00 00 00 00 00 00 00 00 00 00 00 00  |................|
 A951  00 00 00 00 00 00 00 00 00 00 00 00 00 00 00 00  |................|
 A961  00 00 00 00 00 00 00 00 00 00 00 00 00 00 00 00  |................|
 A971  00 00 00 00 00 00 00 00 00 00 00 00 00 00 00 00  |................|
 A981  00 00 00 00 00 00 00 00 00 00 00 00 00 00 00 00  |................|
 A991  00 00 00 00 00 00 00 00 00 00 00 00 00 00 00 00  |................|
 A9A1  00 00 00 00 00 00 00 00 00 00 00 00 00 00 00 00  |................|
 A9B1  00 00 00 00 00 00 00 00 00 00 00 00 00 00 00 00  |................|
 A9C1  00 00 00 00 00 00 00 00 00 00 00 00 00 00 00 00  |................|
 A9D1  00 00 00 00 00 00 00 00 00 00 00 00 00 00 00 00  |................|
 A9E1  00 00 00 00 00 00 00 00 00 00 00 00 00 00 00 00  |................|
 A9F1  00 00 00 00 00 00 00 00 00 00 00 00 00 00 00 00  |................|
 AA01  00 00 00 00 00 00 00 00 00 00 00 00 00 00 00 00  |................|
 AA11  00 00 00 00 00 00 00 00 00 00 00 00 00 00 00 00  |................|
 AA21  00 00 00 00 00 00 00 00 00 00 00 00 00 00 00 00  |................|
 AA31  00 00 00 00 00 00 00 00 00 00 00 00 00 00 00 00  |................|
 AA41  00 00 00 00 00 00 00 00 00 00 00 00 00 00 00 00  |................|
 AA51  00 00 00 00 00 00 00 00 00 00 00 00 00 00 00 00  |................|
 AA61  00 00 00 00 00 00 00 00 00 00 00 00 00 00 00 00  |................|
 AA71  00 00 00 00 00 00 00 00 00 00 00 00 00 00 00 00  |................|
 AA81  00 00 00 00 00 00 00 00 00 00 00 00 00 00 00 00  |................|
 AA91  00 00 00 00 00 00 00 00 00 00 00 00 00 00 00 00  |................|
 AAA1  00 00 00 00 00 00 00 00 00 00 00 00 00 00 00 00  |................|
 AAB1  00 00 00 00 00 00 00 00 00 00 00 00 00 00 00 00  |................|
 AAC1  00 00 00 00 00 00 00 00 00 00 00 00 00 00 00 00  |................|
 AAD1  00 00 00 00 00 00 00 00 00 00 00 00 00 00 00 00  |................|
 AAE1  00 00 00 00 00 00 00 00 00 00 00 00 00 00 00 00  |................|
 AAF1  00 00 00 00 00 00 00 00 00 00 00 00 00 00 00 00  |................|
 AB01  00 00 00 00 00 00 00 00 00 00 00 00 00 00 00 00  |................|
 AB11  00 00 00 00 00 00 00 00 00 00 00 00 00 00 00 00  |................|
 AB21  00 00 00 00 00 00 00 00 00 00 00 00 00 00 00 00  |................|
 AB31  00 00 00 00 00 00 00 00 00 00 00 00 00 00 00 00  |................|
 AB41  00 00 00 00 00 00 00 00 00 00 00 00 00 00 00 00  |................|
 AB51  00 00 00 00 00 00 00 00 00 00 00 00 00 00 00 00  |................|
 AB61  00 00 00 00 00 00 00 00 00 00 00 00 00 00 00 00  |................|
 AB71  00 00 00 00 00 00 00 00 00 00 00 00 00 00 00 00  |................|
 AB81  00 00 00 00 00 00 00 00 00 00 00 00 00 00 00 00  |................|
 AB91  00 00 00 00 00 00 00 00 00 00 00 00 00 00 00 00  |................|
 ABA1  00 00 00 00 00 00 00 00 00 00 00 00 00 00 00 00  |................|
 ABB1  00 00 00 00 00 00 00 00 00 00 00 00 00 00 00 00  |................|
 ABC1  00 00 00 00 00 00 00 00 00 00 00 00 00 00 00 00  |................|
 ABD1  00 00 00 00 00 00 00 00 00 00 00 00 00 00 00 00  |................|
 ABE1  00 00 00 00 00 00 00 00 00 00 00 00 00 00 00 00  |................|
 ABF1  00 00 00 00 00 00 00 00 00 00 00 00 00 00 00 00  |................|
 AC01  00 00 00 00 00 00 00 00 00 00 00 00 00 00 00 00  |................|
 AC11  00 00 00 00 00 00 00 00 00 00 00 00 00 00 00 00  |................|
 AC21  00 00 00 00 00 00 00 00 00 00 00 00 00 00 00 00  |................|
 AC31  00 00 00 00 00 00 00 00 00 00 00 00 00 00 00 00  |................|
 AC41  00 00 00 00 00 00 00 00 00 00 00 00 00 00 00 00  |................|
 AC51  00 00 00 00 00 00 00 00 00 00 00 00 00 00 00 00  |................|
 AC61  00 00 00 00 00 00 00 00 00 00 00 00 00 00 00 00  |................|
 AC71  00 00 00 00 00 00 00 00 00 00 00 00 00 00 00 00  |................|
 AC81  00 00 00 00 00 00 00 00 00 00 00 00 00 00 00 00  |................|
 AC91  00 00 00 00 00 00 00 00 00 00 00 00 00 00 00 00  |................|
 ACA1  00 00 00 00 00 00 00 00 00 00 00 00 00 00 00 00  |................|
 ACB1  00 00 00 00 00 00 00 00 00 00 00 00 00 00 00 00  |................|
 ACC1  00 00 00 00 00 00 00 00 00 00 00 00 00 00 00 00  |................|
 ACD1  00 00 00 00 00 00 00 00 00 00 00 00 00 00 00 00  |................|
 ACE1  00 00 00 00 00 00 00 00 00 00 00 00 00 00 00 00  |................|
 ACF1  00 00 00 00 00 00 00 00 00 00 00 00 00 00 00 00  |................|
 AD01  00 00 00 00 00 00 00 00 00 00 00 00 00 00 00 00  |................|
 AD11  00 00 00 00 00 00 00 00 00 00 00 00 00 00 00 00  |................|
 AD21  00 00 00 00 00 00 00 00 00 00 00 00 00 00 00 00  |................|
 AD31  00 00 00 00 00 00 00 00 00 00 00 00 00 00 00 00  |................|
 AD41  00 00 00 00 00 00 00 00 00 00 00 00 00 00 00 00  |................|
 AD51  00 00 00 00 00 00 00 00 00 00 00 00 00 00 00 00  |................|
 AD61  00 00 00 00 00 00 00 00 00 00 00 00 00 00 00 00  |................|
 AD71  00 00 00 00 00 00 00 00 00 00 00 00 00 00 00 00  |................|
 AD81  00 00 00 00 00 00 00 00 00 00 00 00 00 00 00 00  |................|
 AD91  00 00 00 00 00 00 00 00 00 00 00 00 00 00 00 00  |................|
 ADA1  00 00 00 00 00 00 00 00 00 00 00 00 00 00 00 00  |................|
 ADB1  00 00 00 00 00 00 00 00 00 00 00 00 00 00 00 00  |................|
 ADC1  00 00 00 00 00 00 00 00 00 00 00 00 00 00 00 00  |................|
 ADD1  00 00 00 00 00 00 00 00 00 00 00 00 00 00 00 00  |................|
 ADE1  00 00 00 00 00 00 00 00 00 00 00 00 00 00 00 00  |................|
 ADF1  00 00 00 00 00 00 00 00 00 00 00 00 00 00 00 00  |................|
 AE01  00 00 00 00 00 00 00 00 00 00 00 00 00 00 00 00  |................|
 AE11  00 00 00 00 00 00 00 00 00 00 00 00 00 00 00 00  |................|
 AE21  00 00 00 00 00 00 00 00 00 00 00 00 00 00 00 00  |................|
 AE31  00 00 00 00 00 00 00 00 00 00 00 00 00 00 00 00  |................|
 AE41  00 00 00 00 00 00 00 00 00 00 00 00 00 00 00 00  |................|
 AE51  00 00 00 00 00 00 00 00 00 00 00 00 00 00 00 00  |................|
 AE61  00 00 00 00 00 00 00 00 00 00 00 00 00 00 00 00  |................|
 AE71  00 00 00 00 00 00 00 00 00 00 00 00 00 00 00 00  |................|
 AE81  00 00 00 00 00 00 00 00 00 00 00 00 00 00 00 00  |................|
 AE91  00 00 00 00 00 00 00 00 00 00 00 00 00 00 00 00  |................|
 AEA1  00 00 00 00 00 00 00 00 00 00 00 00 00 00 00 00  |................|
 AEB1  00 00 00 00 00 00 00 00 00 00 00 00 00 00 00 00  |................|
 AEC1  00 00 00 00 00 00 00 00 00 00 00 00 00 00 00 00  |................|
 AED1  00 00 00 00 00 00 00 00 00 00 00 00 00 00 00 00  |................|
 AEE1  00 00 00 00 00 00 00 00 00 00 00 00 00 00 00 00  |................|
 AEF1  00 00 00 00 00 00 00 00 00 00 00 00 00 00 00 00  |................|
 AF01  00 00 00 00 00 00 00 00 00 00 00 00 00 00 00 00  |................|
 AF11  00 00 00 00 00 00 00 00 00 00 00 00 00 00 00 00  |................|
 AF21  00 00 00 00 00 00 00 00 00 00 00 00 00 00 00 00  |................|
 AF31  00 00 00 00 00 00 00 00 00 00 00 00 00 00 00 00  |................|
 AF41  00 00 00 00 00 00 00 00 00 00 00 00 00 00 00 00  |................|
 AF51  00 00 00 00 00 00 00 00 00 00 00 00 00 00 00 00  |................|
 AF61  00 00 00 00 00 00 00 00 00 00 00 00 00 00 00 00  |................|
 AF71  00 00 00 00 00 00 00 00 00 00 00 00 00 00 00 00  |................|
 AF81  00 00 00 00 00 00 00 00 00 00 00 00 00 00 00 00  |................|
 AF91  00 00 00 00 00 00 00 00 00 00 00 00 00 00 00 00  |................|
 AFA1  00 00 00 00 00 00 00 00 00 00 00 00 00 00 00 00  |................|
 AFB1  00 00 00 00 00 00 00 00 00 00 00 00 00 00 00 00  |................|
 AFC1  00 00 00 00 00 00 00 00 00 00 00 00 00 00 00 00  |................|
 AFD1  00 00 00 00 00 00 00 00 00 00 00 00 00 00 00 00  |................|
 AFE1  00 00 00 00 00 00 00 00 00 00 00 00 00 00 00 00  |................|
 AFF1  00 00 00 00 00 00 00 00 00 00 00 00 00 00 00 00  |................|
 B001  00 00 00 00 00 00 00 00 00 00 00 00 00 00 00 00  |................|
 B011  00 00 00 00 00 00 00 00 00 00 00 00 00 00 00 00  |................|
 B021  00 00 00 00 00 00 00 00 00 00 00 00 00 00 00 00  |................|
 B031  00 00 00 00 00 00 00 00 00 00 00 00 00 00 00 00  |................|
 B041  00 00 00 00 00 00 00 00 00 00 00 00 00 00 00 00  |................|
 B051  00 00 00 00 00 00 00 00 00 00 00 00 00 00 00 00  |................|
 B061  00 00 00 00 00 00 00 00 00 00 00 00 00 00 00 00  |................|
 B071  00 00 00 00 00 00 00 00 00 00 00 00 00 00 00 00  |................|
 B081  00 00 00 00 00 00 00 00 00 00 00 00 00 00 00 00  |................|
 B091  00 00 00 00 00 00 00 00 00 00 00 00 00 00 00 00  |................|
 B0A1  00 00 00 00 00 00 00 00 00 00 00 00 00 00 00 00  |................|
 B0B1  00 00 00 00 00 00 00 00 00 00 00 00 00 00 00 00  |................|
 B0C1  00 00 00 00 00 00 00 00 00 00 00 00 00 00 00 00  |................|
 B0D1  00 00 00 00 00 00 00 00 00 00 00 00 00 00 00 00  |................|
 B0E1  00 00 00 00 00 00 00 00 00 00 00 00 00 00 00 00  |................|
 B0F1  00 00 00 00 00 00 00 00 00 00 00 00 00 00 00 00  |................|
 B101  00 00 00 00 00 00 00 00 00 00 00 00 00 00 00 00  |................|
 B111  00 00 00 00 00 00 00 00 00 00 00 00 00 00 00 00  |................|
 B121  00 00 00 00 00 00 00 00 00 00 00 00 00 00 00 00  |................|
 B131  00 00 00 00 00 00 00 00 00 00 00 00 00 00 00 00  |................|
 B141  00 00 00 00 00 00 00 00 00 00 00 00 00 00 00 00  |................|
 B151  00 00 00 00 00 00 00 00 00 00 00 00 00 00 00 00  |................|
 B161  00 00 00 00 00 00 00 00 00 00 00 00 00 00 00 00  |................|
 B171  00 00 00 00 00 00 00 00 00 00 00 00 00 00 00 00  |................|
 B181  00 00 00 00 00 00 00 00 00 00 00 00 00 00 00 00  |................|
 B191  00 00 00 00 00 00 00 00 00 00 00 00 00 00 00 00  |................|
 B1A1  00 00 00 00 00 00 00 00 00 00 00 00 00 00 00 00  |................|
 B1B1  00 00 00 00 00 00 00 00 00 00 00 00 00 00 00 00  |................|
 B1C1  00 00 00 00 00 00 00 00 00 00 00 00 00 00 00 00  |................|
 B1D1  00 00 00 00 00 00 00 00 00 00 00 00 00 00 00 00  |................|
 B1E1  00 00 00 00 00 00 00 00 00 00 00 00 00 00 00 00  |................|
 B1F1  00 00 00 00 00 00 00 00 00 00 00 00 00 00 00 00  |................|
 B201  00 00 00 00 00 00 00 00 00 00 00 00 00 00 00 00  |................|
 B211  00 00 00 00 00 00 00 00 00 00 00 00 00 00 00 00  |................|
 B221  00 00 00 00 00 00 00 00 00 00 00 00 00 00 00 00  |................|
 B231  00 00 00 00 00 00 00 00 00 00 00 00 00 00 00 00  |................|
 B241  00 00 00 00 00 00 00 00 00 00 00 00 00 00 00 00  |................|
 B251  00 00 00 00 00 00 00 00 00 00 00 00 00 00 00 00  |................|
 B261  00 00 00 00 00 00 00 00 00 00 00 00 00 00 00 00  |................|
 B271  00 00 00 00 00 00 00 00 00 00 00 00 00 00 00 00  |................|
 B281  00 00 00 00 00 00 00 00 00 00 00 00 00 00 00 00  |................|
 B291  00 00 00 00 00 00 00 00 00 00 00 00 00 00 00 00  |................|
 B2A1  00 00 00 00 00 00 00 00 00 00 00 00 00 00 00 00  |................|
 B2B1  00 00 00 00 00 00 00 00 00 00 00 00 00 00 00 00  |................|
 B2C1  00 00 00 00 00 00 00 00 00 00 00 00 00 00 00 00  |................|
 B2D1  00 00 00 00 00 00 00 00 00 00 00 00 00 00 00 00  |................|
 B2E1  00 00 00 00 00 00 00 00 00 00 00 00 00 00 00 00  |................|
 B2F1  00 00 00 00 00 00 00 00 00 00 00 00 00 00 00 00  |................|
 B301  00 00 00 00 00 00 00 00 00 00 00 00 00 00 00 00  |................|
 B311  00 00 00 00 00 00 00 00 00 00 00 00 00 00 00 00  |................|
 B321  00 00 00 00 00 00 00 00 00 00 00 00 00 00 00 00  |................|
 B331  00 00 00 00 00 00 00 00 00 00 00 00 00 00 00 00  |................|
 B341  00 00 00 00 00 00 00 00 00 00 00 00 00 00 00 00  |................|
 B351  00 00 00 00 00 00 00 00 00 00 00 00 00 00 00 00  |................|
 B361  00 00 00 00 00 00 00 00 00 00 00 00 00 00 00 00  |................|
 B371  00 00 00 00 00 00 00 00 00 00 00 00 00 00 00 00  |................|
 B381  00 00 00 00 00 00 00 00 00 00 00 00 00 00 00 00  |................|
 B391  00 00 00 00 00 00 00 00 00 00 00 00 00 00 00 00  |................|
 B3A1  00 00 00 00 00 00 00 00 00 00 00 00 00 00 00 00  |................|
 B3B1  00 00 00 00 00 00 00 00 00 00 00 00 00 00 00 00  |................|
 B3C1  00 00 00 00 00 00 00 00 00 00 00 00 00 00 00 00  |................|
 B3D1  00 00 00 00 00 00 00 00 00 00 00 00 00 00 00 00  |................|
 B3E1  00 00 00 00 00 00 00 00 00 00 00 00 00 00 00 00  |................|
 B3F1  00 00 00 00 00 00 00 00 00 00 00 00 00 00 00 00  |................|
 B401  00 00 00 00 00 00 00 00 00 00 00 00 00 00 00 00  |................|
 B411  00 00 00 00 00 00 00 00 00 00 00 00 00 00 00 00  |................|
 B421  00 00 00 00 00 00 00 00 00 00 00 00 00 00 00 00  |................|
 B431  00 00 00 00 00 00 00 00 00 00 00 00 00 00 00 00  |................|
 B441  00 00 00 00 00 00 00 00 00 00 00 00 00 00 00 00  |................|
 B451  00 00 00 00 00 00 00 00 00 00 00 00 00 00 00 00  |................|
 B461  00 00 00 00 00 00 00 00 00 00 00 00 00 00 00 00  |................|
 B471  00 00 00 00 00 00 00 00 00 00 00 00 00 00 00 00  |................|
 B481  00 00 00 00 00 00 00 00 00 00 00 00 00 00 00 00  |................|
 B491  00 00 00 00 00 00 00 00 00 00 00 00 00 00 00 00  |................|
 B4A1  00 00 00 00 00 00 00 00 00 00 00 00 00 00 00 00  |................|
 B4B1  00 00 00 00 00 00 00 00 00 00 00 00 00 00 00 00  |................|
 B4C1  00 00 00 00 00 00 00 00 00 00 00 00 00 00 00 00  |................|
 B4D1  00 00 00 00 00 00 00 00 00 00 00 00 00 00 00 00  |................|
 B4E1  00 00 00 00 00 00 00 00 00 00 00 00 00 00 00 00  |................|
 B4F1  00 00 00 00 00 00 00 00 00 00 00 00 00 00 00 00  |................|
 B501  00 00 00 00 00 00 00 00 00 00 00 00 00 00 00 00  |................|
 B511  00 00 00 00 00 00 00 00 00 00 00 00 00 00 00 00  |................|
 B521  00 00 00 00 00 00 00 00 00 00 00 00 00 00 00 00  |................|
 B531  00 00 00 00 00 00 00 00 00 00 00 00 00 00 00 00  |................|
 B541  00 00 00 00 00 00 00 00 00 00 00 00 00 00 00 00  |................|
 B551  00 00 00 00 00 00 00 00 00 00 00 00 00 00 00 00  |................|
 B561  00 00 00 00 00 00 00 00 00 00 00 00 00 00 00 00  |................|
 B571  00 00 00 00 00 00 00 00 00 00 00 00 00 00 00 00  |................|
 B581  00 00 00 00 00 00 00 00 00 00 00 00 00 00 00 00  |................|
 B591  00 00 00 00 00 00 00 00 00 00 00 00 00 00 00 00  |................|
 B5A1  00 00 00 00 00 00 00 00 00 00 00 00 00 00 00 00  |................|
 B5B1  00 00 00 00 00 00 00 00 00 00 00 00 00 00 00 00  |................|
 B5C1  00 00 00 00 00 00 00 00 00 00 00 00 00 00 00 00  |................|
 B5D1  00 00 00 00 00 00 00 00 00 00 00 00 00 00 00 00  |................|
 B5E1  00 00 00 00 00 00 00 00 00 00 00 00 00 00 00 00  |................|
 B5F1  00 00 00 00 00 00 00 00 00 00 00 00 00 00 00 00  |................|
 B601  00 00 00 00 00 00 00 00 00 00 00 00 00 00 00 00  |................|
 B611  00 00 00 00 00 00 00 00 00 00 00 00 00 00 00 00  |................|
 B621  00 00 00 00 00 00 00 00 00 00 00 00 00 00 00 00  |................|
 B631  00 00 00 00 00 00 00 00 00 00 00 00 00 00 00 00  |................|
 B641  00 00 00 00 00 00 00 00 00 00 00 00 00 00 00 00  |................|
 B651  00 00 00 00 00 00 00 00 00 00 00 00 00 00 00 00  |................|
 B661  00 00 00 00 00 00 00 00 00 00 00 00 00 00 00 00  |................|
 B671  00 00 00 00 00 00 00 00 00 00 00 00 00 00 00 00  |................|
 B681  00 00 00 00 00 00 00 00 00 00 00 00 00 00 00 00  |................|
 B691  00 00 00 00 00 00 00 00 00 00 00 00 00 00 00 00  |................|
 B6A1  00 00 00 00 00 00 00 00 00 00 00 00 00 00 00 00  |................|
 B6B1  00 00 00 00 00 00 00 00 00 00 00 00 00 00 00 00  |................|
 B6C1  00 00 00 00 00 00 00 00 00 00 00 00 00 00 00 00  |................|
 B6D1  00 00 00 00 00 00 00 00 00 00 00 00 00 00 00 00  |................|
 B6E1  00 00 00 00 00 00 00 00 00 00 00 00 00 00 00 00  |................|
 B6F1  00 00 00 00 00 00 00 00 00 00 00 00 00 00 00 00  |................|
 B701  00 00 00 00 00 00 00 00 00 00 00 00 00 00 00 00  |................|
 B711  00 00 00 00 00 00 00 00 00 00 00 00 00 00 00 00  |................|
 B721  00 00 00 00 00 00 00 00 00 00 00 00 00 00 00 00  |................|
 B731  00 00 00 00 00 00 00 00 00 00 00 00 00 00 00 00  |................|
 B741  00 00 00 00 00 00 00 00 00 00 00 00 00 00 00 00  |................|
 B751  00 00 00 00 00 00 00 00 00 00 00 00 00 00 00 00  |................|
 B761  00 00 00 00 00 00 00 00 00 00 00 00 00 00 00 00  |................|
 B771  00 00 00 00 00 00 00 00 00 00 00 00 00 00 00 00  |................|
 B781  00 00 00 00 00 00 00 00 00 00 00 00 00 00 00 00  |................|
 B791  00 00 00 00 00 00 00 00 00 00 00 00 00 00 00 00  |................|
 B7A1  00 00 00 00 00 00 00 00 00 00 00 00 00 00 00 00  |................|
 B7B1  00 00 00 00 00 00 00 00 00 00 00 00 00 00 00 00  |................|
 B7C1  00 00 00 00 00 00 00 00 00 00 00 00 00 00 00 00  |................|
 B7D1  00 00 00 00 00 00 00 00 00 00 00 00 00 00 00 00  |................|
 B7E1  00 00 00 00 00 00 00 00 00 00 00 00 00 00 00 00  |................|
 B7F1  00 00 00 00 00 00 00 00 00 00 00 00 00 00 00 00  |................|
 B801  00 00 00 00 00 00 00 00 00 00 00 00 00 00 00 00  |................|
 B811  00 00 00 00 00 00 00 00 00 00 00 00 00 00 00 00  |................|
 B821  00 00 00 00 00 00 00 00 00 00 00 00 00 00 00 00  |................|
 B831  00 00 00 00 00 00 00 00 00 00 00 00 00 00 00 00  |................|
 B841  00 00 00 00 00 00 00 00 00 00 00 00 00 00 00 00  |................|
 B851  00 00 00 00 00 00 00 00 00 00 00 00 00 00 00 00  |................|
 B861  00 00 00 00 00 00 00 00 00 00 00 00 00 00 00 00  |................|
 B871  00 00 00 00 00 00 00 00 00 00 00 00 00 00 00 00  |................|
 B881  00 00 00 00 00 00 00 00 00 00 00 00 00 00 00 00  |................|
 B891  00 00 00 00 00 00 00 00 00 00 00 00 00 00 00 00  |................|
 B8A1  00 00 00 00 00 00 00 00 00 00 00 00 00 00 00 00  |................|
 B8B1  00 00 00 00 00 00 00 00 00 00 00 00 00 00 00 00  |................|
 B8C1  00 00 00 00 00 00 00 00 00 00 00 00 00 00 00 00  |................|
 B8D1  00 00 00 00 00 00 00 00 00 00 00 00 00 00 00 00  |................|
 B8E1  00 00 00 00 00 00 00 00 00 00 00 00 00 00 00 00  |................|
 B8F1  00 00 00 00 00 00 00 00 00 00 00 00 00 00 00 00  |................|
 B901  00 00 00 00 00 00 00 00 00 00 00 00 00 00 00 00  |................|
 B911  00 00 00 00 00 00 00 00 00 00 00 00 00 00 00 00  |................|
 B921  00 00 00 00 00 00 00 00 00 00 00 00 00 00 00 00  |................|
 B931  00 00 00 00 00 00 00 00 00 00 00 00 00 00 00 00  |................|
 B941  00 00 00 00 00 00 00 00 00 00 00 00 00 00 00 00  |................|
 B951  00 00 00 00 00 00 00 00 00 00 00 00 00 00 00 00  |................|
 B961  00 00 00 00 00 00 00 00 00 00 00 00 00 00 00 00  |................|
 B971  00 00 00 00 00 00 00 00 00 00 00 00 00 00 00 00  |................|
 B981  00 00 00 00 00 00 00 00 00 00 00 00 00 00 00 00  |................|
 B991  00 00 00 00 00 00 00 00 00 00 00 00 00 00 00 00  |................|
 B9A1  00 00 00 00 00 00 00 00 00 00 00 00 00 00 00 00  |................|
 B9B1  00 00 00 00 00 00 00 00 00 00 00 00 00 00 00 00  |................|
 B9C1  00 00 00 00 00 00 00 00 00 00 00 00 00 00 00 00  |................|
 B9D1  00 00 00 00 00 00 00 00 00 00 00 00 00 00 00 00  |................|
 B9E1  00 00 00 00 00 00 00 00 00 00 00 00 00 00 00 00  |................|
 B9F1  00 00 00 00 00 00 00 00 00 00 00 00 00 00 00 00  |................|
 BA01  00 00 00 00 00 00 00 00 00 00 00 00 00 00 00 00  |................|
 BA11  00 00 00 00 00 00 00 00 00 00 00 00 00 00 00 00  |................|
 BA21  00 00 00 00 00 00 00 00 00 00 00 00 00 00 00 00  |................|
 BA31  00 00 00 00 00 00 00 00 00 00 00 00 00 00 00 00  |................|
 BA41  00 00 00 00 00 00 00 00 00 00 00 00 00 00 00 00  |................|
 BA51  00 00 00 00 00 00 00 00 00 00 00 00 00 00 00 00  |................|
 BA61  00 00 00 00 00 00 00 00 00 00 00 00 00 00 00 00  |................|
 BA71  00 00 00 00 00 00 00 00 00 00 00 00 00 00 00 00  |................|
 BA81  00 00 00 00 00 00 00 00 00 00 00 00 00 00 00 00  |................|
 BA91  00 00 00 00 00 00 00 00 00 00 00 00 00 00 00 00  |................|
 BAA1  00 00 00 00 00 00 00 00 00 00 00 00 00 00 00 00  |................|
 BAB1  00 00 00 00 00 00 00 00 00 00 00 00 00 00 00 00  |................|
 BAC1  00 00 00 00 00 00 00 00 00 00 00 00 00 00 00 00  |................|
 BAD1  00 00 00 00 00 00 00 00 00 00 00 00 00 00 00 00  |................|
 BAE1  00 00 00 00 00 00 00 00 00 00 00 00 00 00 00 00  |................|
 BAF1  00 00 00 00 00 00 00 00 00 00 00 00 00 00 00 00  |................|
 BB01  00 00 00 00 00 00 00 00 00 00 00 00 00 00 00 00  |................|
 BB11  00 00 00 00 00 00 00 00 00 00 00 00 00 00 00 00  |................|
 BB21  00 00 00 00 00 00 00 00 00 00 00 00 00 00 00 00  |................|
 BB31  00 00 00 00 00 00 00 00 00 00 00 00 00 00 00 00  |................|
 BB41  00 00 00 00 00 00 00 00 00 00 00 00 00 00 00 00  |................|
 BB51  00 00 00 00 00 00 00 00 00 00 00 00 00 00 00 00  |................|
 BB61  00 00 00 00 00 00 00 00 00 00 00 00 00 00 00 00  |................|
 BB71  00 00 00 00 00 00 00 00 00 00 00 00 00 00 00 00  |................|
 BB81  00 00 00 00 00 00 00 00 00 00 00 00 00 00 00 00  |................|
 BB91  00 00 00 00 00 00 00 00 00 00 00 00 00 00 00 00  |................|
 BBA1  00 00 00 00 00 00 00 00 00 00 00 00 00 00 00 00  |................|
 BBB1  00 00 00 00 00 00 00 00 00 00 00 00 00 00 00 00  |................|
 BBC1  00 00 00 00 00 00 00 00 00 00 00 00 00 00 00 00  |................|
 BBD1  00 00 00 00 00 00 00 00 00 00 00 00 00 00 00 00  |................|
 BBE1  00 00 00 00 00 00 00 00 00 00 00 00 00 00 00 00  |................|
 BBF1  00 00 00 00 00 00 00 00 00 00 00 00 00 00 00 00  |................|
 BC01  00 00 00 00 00 00 00 00 00 00 00 00 00 00 00 00  |................|
 BC11  00 00 00 00 00 00 00 00 00 00 00 00 00 00 00 00  |................|
 BC21  00 00 00 00 00 00 00 00 00 00 00 00 00 00 00 00  |................|
 BC31  00 00 00 00 00 00 00 00 00 00 00 00 00 00 00 00  |................|
 BC41  00 00 00 00 00 00 00 00 00 00 00 00 00 00 00 00  |................|
 BC51  00 00 00 00 00 00 00 00 00 00 00 00 00 00 00 00  |................|
 BC61  00 00 00 00 00 00 00 00 00 00 00 00 00 00 00 00  |................|
 BC71  00 00 00 00 00 00 00 00 00 00 00 00 00 00 00 00  |................|
 BC81  00 00 00 00 00 00 00 00 00 00 00 00 00 00 00 00  |................|
 BC91  00 00 00 00 00 00 00 00 00 00 00 00 00 00 00 00  |................|
 BCA1  00 00 00 00 00 00 00 00 00 00 00 00 00 00 00 00  |................|
 BCB1  00 00 00 00 00 00 00 00 00 00 00 00 00 00 00 00  |................|
 BCC1  00 00 00 00 00 00 00 00 00 00 00 00 00 00 00 00  |................|
 BCD1  00 00 00 00 00 00 00 00 00 00 00 00 00 00 00 00  |................|
 BCE1  00 00 00 00 00 00 00 00 00 00 00 00 00 00 00 00  |................|
 BCF1  00 00 00 00 00 00 00 00 00 00 00 00 00 00 00 00  |................|
 BD01  00 00 00 00 00 00 00 00 00 00 00 00 00 00 00 00  |................|
 BD11  00 00 00 00 00 00 00 00 00 00 00 00 00 00 00 00  |................|
 BD21  00 00 00 00 00 00 00 00 00 00 00 00 00 00 00 00  |................|
 BD31  00 00 00 00 00 00 00 00 00 00 00 00 00 00 00 00  |................|
 BD41  00 00 00 00 00 00 00 00 00 00 00 00 00 00 00 00  |................|
 BD51  00 00 00 00 00 00 00 00 00 00 00 00 00 00 00 00  |................|
 BD61  00 00 00 00 00 00 00 00 00 00 00 00 00 00 00 00  |................|
 BD71  00 00 00 00 00 00 00 00 00 00 00 00 00 00 00 00  |................|
 BD81  00 00 00 00 00 00 00 00 00 00 00 00 00 00 00 00  |................|
 BD91  00 00 00 00 00 00 00 00 00 00 00 00 00 00 00 00  |................|
 BDA1  00 00 00 00 00 00 00 00 00 00 00 00 00 00 00 00  |................|
 BDB1  00 00 00 00 00 00 00 00 00 00 00 00 00 00 00 00  |................|
 BDC1  00 00 00 00 00 00 00 00 00 00 00 00 00 00 00 00  |................|
 BDD1  00 00 00 00 00 00 00 00 00 00 00 00 00 00 00 00  |................|
 BDE1  00 00 00 00 00 00 00 00 00 00 00 00 00 00 00 00  |................|
 BDF1  00 00 00 00 00 00 00 00 00 00 00 00 00 00 00 00  |................|
 BE01  00 00 00 00 00 00 00 00 00 00 00 00 00 00 00 00  |................|
 BE11  00 00 00 00 00 00 00 00 00 00 00 00 00 00 00 00  |................|
 BE21  00 00 00 00 00 00 00 00 00 00 00 00 00 00 00 00  |................|
 BE31  00 00 00 00 00 00 00 00 00 00 00 00 00 00 00 00  |................|
 BE41  00 00 00 00 00 00 00 00 00 00 00 00 00 00 00 00  |................|
 BE51  00 00 00 00 00 00 00 00 00 00 00 00 00 00 00 00  |................|
 BE61  00 00 00 00 00 00 00 00 00 00 00 00 00 00 00 00  |................|
 BE71  00 00 00 00 00 00 00 00 00 00 00 00 00 00 00 00  |................|
 BE81  00 00 00 00 00 00 00 00 00 00 00 00 00 00 00 00  |................|
 BE91  00 00 00 00 00 00 00 00 00 00 00 00 00 00 00 00  |................|
 BEA1  00 00 00 00 00 00 00 00 00 00 00 00 00 00 00 00  |................|
 BEB1  00 00 00 00 00 00 00 00 00 00 00 00 00 00 00 00  |................|
 BEC1  00 00 00 00 00 00 00 00 00 00 00 00 00 00 00 00  |................|
 BED1  00 00 00 00 00 00 00 00 00 00 00 00 00 00 00 00  |................|
 BEE1  00 00 00 00 00 00 00 00 00 00 00 00 00 00 00 00  |................|
 BEF1  00 00 00 00 00 00 00 00 00 00 00 00 00 00 00 00  |................|
 BF01  00 00 00 00 00 00 00 00 00 00 00 00 00 00 00 00  |................|
 BF11  00 00 00 00 00 00 00 00 00 00 00 00 00 00 00 00  |................|
 BF21  00 00 00 00 00 00 00 00 00 00 00 00 00 00 00 00  |................|
 BF31  00 00 00 00 00 00 00 00 00 00 00 00 00 00 00 00  |................|
 BF41  00 00 00 00 00 00 00 00 00 00 00 00 00 00 00 00  |................|
 BF51  00 00 00 00 00 00 00 00 00 00 00 00 00 00 00 00  |................|
 BF61  00 00 00 00 00 00 00 00 00 00 00 00 00 00 00 00  |................|
 BF71  00 00 00 00 00 00 00 00 00 00 00 00 00 00 00 00  |................|
 BF81  00 00 00 00 00 00 00 00 00 00 00 00 00 00 00 00  |................|
 BF91  00 00 00 00 00 00 00 00 00 00 00 00 00 00 00 00  |................|
 BFA1  00 00 00 00 00 00 00 00 00 00 00 00 00 00 00 00  |................|
 BFB1  00 00 00 00 00 00 00 00 00 00 00 00 00 00 00 00  |................|
 BFC1  00 00 00 00 00 00 00 00 00 00 00 00 00 00 00 00  |................|
 BFD1  00 00 00 00 00 00 00 00 00 00 00 00 00 00 00 00  |................|
 BFE1  00 00 00 00 00 00 00 00 00 00 00 00 00 00 00 00  |................|
 BFF1  00 00 00 00 00 00 00 00 00 00 00 00 00 00 00 00  |................|
 C001  00 00 00 00 00 00 00 00 00 00 00 00 00 00 00 00  |................|
 C011  00 00 00 00 00 00 00 00 00 00 00 00 00 00 00 00  |................|
 C021  00 00 00 00 00 00 00 00 00 00 00 00 00 00 00 00  |................|
 C031  00 00 00 00 00 00 00 00 00 00 00 00 00 00 00 00  |................|
 C041  00 00 00 00 00 00 00 00 00 00 00 00 00 00 00 00  |................|
 C051  00 00 00 00 00 00 00 00 00 00 00 00 00 00 00 00  |................|
 C061  00 00 00 00 00 00 00 00 00 00 00 00 00 00 00 00  |................|
 C071  00 00 00 00 00 00 00 00 00 00 00 00 00 00 00 00  |................|
 C081  00 00 00 00 00 00 00 00 00 00 00 00 00 00 00 00  |................|
 C091  00 00 00 00 00 00 00 00 00 00 00 00 00 00 00 00  |................|
 C0A1  00 00 00 00 00 00 00 00 00 00 00 00 00 00 00 00  |................|
 C0B1  00 00 00 00 00 00 00 00 00 00 00 00 00 00 00 00  |................|
 C0C1  00 00 00 00 00 00 00 00 00 00 00 00 00 00 00 00  |................|
 C0D1  00 00 00 00 00 00 00 00 00 00 00 00 00 00 00 00  |................|
 C0E1  00 00 00 00 00 00 00 00 00 00 00 00 00 00 00 00  |................|
 C0F1  00 00 00 00 00 00 00 00 00 00 00 00 00 00 00 00  |................|
 C101  00 00 00 00 00 00 00 00 00 00 00 00 00 00 00 00  |................|
 C111  00 00 00 00 00 00 00 00 00 00 00 00 00 00 00 00  |................|
 C121  00 00 00 00 00 00 00 00 00 00 00 00 00 00 00 00  |................|
 C131  00 00 00 00 00 00 00 00 00 00 00 00 00 00 00 00  |................|
 C141  00 00 00 00 00 00 00 00 00 00 00 00 00 00 00 00  |................|
 C151  00 00 00 00 00 00 00 00 00 00 00 00 00 00 00 00  |................|
 C161  00 00 00 00 00 00 00 00 00 00 00 00 00 00 00 00  |................|
 C171  00 00 00 00 00 00 00 00 00 00 00 00 00 00 00 00  |................|
 C181  00 00 00 00 00 00 00 00 00 00 00 00 00 00 00 00  |................|
 C191  00 00 00 00 00 00 00 00 00 00 00 00 00 00 00 00  |................|
 C1A1  00 00 00 00 00 00 00 00 00 00 00 00 00 00 00 00  |................|
 C1B1  00 00 00 00 00 00 00 00 00 00 00 00 00 00 00 00  |................|
 C1C1  00 00 00 00 00 00 00 00 00 00 00 00 00 00 00 00  |................|
 C1D1  00 00 00 00 00 00 00 00 00 00 00 00 00 00 00 00  |................|
 C1E1  00 00 00 00 00 00 00 00 00 00 00 00 00 00 00 00  |................|
 C1F1  00 00 00 00 00 00 00 00 00 00 00 00 00 00 00 00  |................|
 C201  00 00 00 00 00 00 00 00 00 00 00 00 00 00 00 00  |................|
 C211  00 00 00 00 00 00 00 00 00 00 00 00 00 00 00 00  |................|
 C221  00 00 00 00 00 00 00 00 00 00 00 00 00 00 00 00  |................|
 C231  00 00 00 00 00 00 00 00 00 00 00 00 00 00 00 00  |................|
 C241  00 00 00 00 00 00 00 00 00 00 00 00 00 00 00 00  |................|
 C251  00 00 00 00 00 00 00 00 00 00 00 00 00 00 00 00  |................|
 C261  00 00 00 00 00 00 00 00 00 00 00 00 00 00 00 00  |................|
 C271  00 00 00 00 00 00 00 00 00 00 00 00 00 00 00 00  |................|
 C281  00 00 00 00 00 00 00 00 00 00 00 00 00 00 00 00  |................|
 C291  00 00 00 00 00 00 00 00 00 00 00 00 00 00 00 00  |................|
 C2A1  00 00 00 00 00 00 00 00 00 00 00 00 00 00 00 00  |................|
 C2B1  00 00 00 00 00 00 00 00 00 00 00 00 00 00 00 00  |................|
 C2C1  00 00 00 00 00 00 00 00 00 00 00 00 00 00 00 00  |................|
 C2D1  00 00 00 00 00 00 00 00 00 00 00 00 00 00 00 00  |................|
 C2E1  00 00 00 00 00 00 00 00 00 00 00 00 00 00 00 00  |................|
 C2F1  00 00 00 00 00 00 00 00 00 00 00 00 00 00 00 00  |................|
 C301  00 00 00 00 00 00 00 00 00 00 00 00 00 00 00 00  |................|
 C311  00 00 00 00 00 00 00 00 00 00 00 00 00 00 00 00  |................|
 C321  00 00 00 00 00 00 00 00 00 00 00 00 00 00 00 00  |................|
 C331  00 00 00 00 00 00 00 00 00 00 00 00 00 00 00 00  |................|
 C341  00 00 00 00 00 00 00 00 00 00 00 00 00 00 00 00  |................|
 C351  00 00 00 00 00 00 00 00 00 00 00 00 00 00 00 00  |................|
 C361  00 00 00 00 00 00 00 00 00 00 00 00 00 00 00 00  |................|
 C371  00 00 00 00 00 00 00 00 00 00 00 00 00 00 00 00  |................|
 C381  00 00 00 00 00 00 00 00 00 00 00 00 00 00 00 00  |................|
 C391  00 00 00 00 00 00 00 00 00 00 00 00 00 00 00 00  |................|
 C3A1  00 00 00 00 00 00 00 00 00 00 00 00 00 00 00 00  |................|
 C3B1  00 00 00 00 00 00 00 00 00 00 00 00 00 00 00 00  |................|
 C3C1  00 00 00 00 00 00 00 00 00 00 00 00 00 00 00 00  |................|
 C3D1  00 00 00 00 00 00 00 00 00 00 00 00 00 00 00 00  |................|
 C3E1  00 00 00 00 00 00 00 00 00 00 00 00 00 00 00 00  |................|
 C3F1  00 00 00 00 00 00 00 00 00 00 00 00 00 00 00 00  |................|
 C401  00 00 00 00 00 00 00 00 00 00 00 00 00 00 00 00  |................|
 C411  00 00 00 00 00 00 00 00 00 00 00 00 00 00 00 00  |................|
 C421  00 00 00 00 00 00 00 00 00 00 00 00 00 00 00 00  |................|
 C431  00 00 00 00 00 00 00 00 00 00 00 00 00 00 00 00  |................|
 C441  00 00 00 00 00 00 00 00 00 00 00 00 00 00 00 00  |................|
 C451  00 00 00 00 00 00 00 00 00 00 00 00 00 00 00 00  |................|
 C461  00 00 00 00 00 00 00 00 00 00 00 00 00 00 00 00  |................|
 C471  00 00 00 00 00 00 00 00 00 00 00 00 00 00 00 00  |................|
 C481  00 00 00 00 00 00 00 00 00 00 00 00 00 00 00 00  |................|
 C491  00 00 00 00 00 00 00 00 00 00 00 00 00 00 00 00  |................|
 C4A1  00 00 00 00 00 00 00 00 00 00 00 00 00 00 00 00  |................|
 C4B1  00 00 00 00 00 00 00 00 00 00 00 00 00 00 00 00  |................|
 C4C1  00 00 00 00 00 00 00 00 00 00 00 00 00 00 00 00  |................|
 C4D1  00 00 00 00 00 00 00 00 00 00 00 00 00 00 00 00  |................|
 C4E1  00 00 00 00 00 00 00 00 00 00 00 00 00 00 00 00  |................|
 C4F1  00 00 00 00 00 00 00 00 00 00 00 00 00 00 00 00  |................|
 C501  00 00 00 00 00 00 00 00 00 00 00 00 00 00 00 00  |................|
 C511  00 00 00 00 00 00 00 00 00 00 00 00 00 00 00 00  |................|
 C521  00 00 00 00 00 00 00 00 00 00 00 00 00 00 00 00  |................|
 C531  00 00 00 00 00 00 00 00 00 00 00 00 00 00 00 00  |................|
 C541  00 00 00 00 00 00 00 00 00 00 00 00 00 00 00 00  |................|
 C551  00 00 00 00 00 00 00 00 00 00 00 00 00 00 00 00  |................|
 C561  00 00 00 00 00 00 00 00 00 00 00 00 00 00 00 00  |................|
 C571  00 00 00 00 00 00 00 00 00 00 00 00 00 00 00 00  |................|
 C581  00 00 00 00 00 00 00 00 00 00 00 00 00 00 00 00  |................|
 C591  00 00 00 00 00 00 00 00 00 00 00 00 00 00 00 00  |................|
 C5A1  00 00 00 00 00 00 00 00 00 00 00 00 00 00 00 00  |................|
 C5B1  00 00 00 00 00 00 00 00 00 00 00 00 00 00 00 00  |................|
 C5C1  00 00 00 00 00 00 00 00 00 00 00 00 00 00 00 00  |................|
 C5D1  00 00 00 00 00 00 00 00 00 00 00 00 00 00 00 00  |................|
 C5E1  00 00 00 00 00 00 00 00 00 00 00 00 00 00 00 00  |................|
 C5F1  00 00 00 00 00 00 00 00 00 00 00 00 00 00 00 00  |................|
 C601  00 00 00 00 00 00 00 00 00 00 00 00 00 00 00 00  |................|
 C611  00 00 00 00 00 00 00 00 00 00 00 00 00 00 00 00  |................|
 C621  00 00 00 00 00 00 00 00 00 00 00 00 00 00 00 00  |................|
 C631  00 00 00 00 00 00 00 00 00 00 00 00 00 00 00 00  |................|
 C641  00 00 00 00 00 00 00 00 00 00 00 00 00 00 00 00  |................|
 C651  00 00 00 00 00 00 00 00 00 00 00 00 00 00 00 00  |................|
 C661  00 00 00 00 00 00 00 00 00 00 00 00 00 00 00 00  |................|
 C671  00 00 00 00 00 00 00 00 00 00 00 00 00 00 00 00  |................|
 C681  00 00 00 00 00 00 00 00 00 00 00 00 00 00 00 00  |................|
 C691  00 00 00 00 00 00 00 00 00 00 00 00 00 00 00 00  |................|
 C6A1  00 00 00 00 00 00 00 00 00 00 00 00 00 00 00 00  |................|
 C6B1  00 00 00 00 00 00 00 00 00 00 00 00 00 00 00 00  |................|
 C6C1  00 00 00 00 00 00 00 00 00 00 00 00 00 00 00 00  |................|
 C6D1  00 00 00 00 00 00 00 00 00 00 00 00 00 00 00 00  |................|
 C6E1  00 00 00 00 00 00 00 00 00 00 00 00 00 00 00 00  |................|
 C6F1  00 00 00 00 00 00 00 00 00 00 00 00 00 00 00 00  |................|
 C701  00 00 00 00 00 00 00 00 00 00 00 00 00 00 00 00  |................|
 C711  00 00 00 00 00 00 00 00 00 00 00 00 00 00 00 00  |................|
 C721  00 00 00 00 00 00 00 00 00 00 00 00 00 00 00 00  |................|
 C731  00 00 00 00 00 00 00 00 00 00 00 00 00 00 00 00  |................|
 C741  00 00 00 00 00 00 00 00 00 00 00 00 00 00 00 00  |................|
 C751  00 00 00 00 00 00 00 00 00 00 00 00 00 00 00 00  |................|
 C761  00 00 00 00 00 00 00 00 00 00 00 00 00 00 00 00  |................|
 C771  00 00 00 00 00 00 00 00 00 00 00 00 00 00 00 00  |................|
 C781  00 00 00 00 00 00 00 00 00 00 00 00 00 00 00 00  |................|
 C791  00 00 00 00 00 00 00 00 00 00 00 00 00 00 00 00  |................|
 C7A1  00 00 00 00 00 00 00 00 00 00 00 00 00 00 00 00  |................|
 C7B1  00 00 00 00 00 00 00 00 00 00 00 00 00 00 00 00  |................|
 C7C1  00 00 00 00 00 00 00 00 00 00 00 00 00 00 00 00  |................|
 C7D1  00 00 00 00 00 00 00 00 00 00 00 00 00 00 00 00  |................|
 C7E1  00 00 00 00 00 00 00 00 00 00 00 00 00 00 00 00  |................|
 C7F1  00 00 00 00 00 00 00 00 00 00 00 00 00 00 00 00  |................|
 C801  00 00 00 00 00 00 00 00 00 00 00 00 00 00 00 00  |................|
 C811  00 00 00 00 00 00 00 00 00 00 00 00 00 00 00 00  |................|
 C821  00 00 00 00 00 00 00 00 00 00 00 00 00 00 00 00  |................|
 C831  00 00 00 00 00 00 00 00 00 00 00 00 00 00 00 00  |................|
 C841  00 00 00 00 00 00 00 00 00 00 00 00 00 00 00 00  |................|
 C851  00 00 00 00 00 00 00 00 00 00 00 00 00 00 00 00  |................|
 C861  00 00 00 00 00 00 00 00 00 00 00 00 00 00 00 00  |................|
 C871  00 00 00 00 00 00 00 00 00 00 00 00 00 00 00 00  |................|
 C881  00 00 00 00 00 00 00 00 00 00 00 00 00 00 00 00  |................|
 C891  00 00 00 00 00 00 00 00 00 00 00 00 00 00 00 00  |................|
 C8A1  00 00 00 00 00 00 00 00 00 00 00 00 00 00 00 00  |................|
 C8B1  00 00 00 00 00 00 00 00 00 00 00 00 00 00 00 00  |................|
 C8C1  00 00 00 00 00 00 00 00 00 00 00 00 00 00 00 00  |................|
 C8D1  00 00 00 00 00 00 00 00 00 00 00 00 00 00 00 00  |................|
 C8E1  00 00 00 00 00 00 00 00 00 00 00 00 00 00 00 00  |................|
 C8F1  00 00 00 00 00 00 00 00 00 00 00 00 00 00 00 00  |................|
 C901  00 00 00 00 00 00 00 00 00 00 00 00 00 00 00 00  |................|
 C911  00 00 00 00 00 00 00 00 00 00 00 00 00 00 00 00  |................|
 C921  00 00 00 00 00 00 00 00 00 00 00 00 00 00 00 00  |................|
 C931  00 00 00 00 00 00 00 00 00 00 00 00 00 00 00 00  |................|
 C941  00 00 00 00 00 00 00 00 00 00 00 00 00 00 00 00  |................|
 C951  00 00 00 00 00 00 00 00 00 00 00 00 00 00 00 00  |................|
 C961  00 00 00 00 00 00 00 00 00 00 00 00 00 00 00 00  |................|
 C971  00 00 00 00 00 00 00 00 00 00 00 00 00 00 00 00  |................|
 C981  00 00 00 00 00 00 00 00 00 00 00 00 00 00 00 00  |................|
 C991  00 00 00 00 00 00 00 00 00 00 00 00 00 00 00 00  |................|
 C9A1  00 00 00 00 00 00 00 00 00 00 00 00 00 00 00 00  |................|
 C9B1  00 00 00 00 00 00 00 00 00 00 00 00 00 00 00 00  |................|
 C9C1  00 00 00 00 00 00 00 00 00 00 00 00 00 00 00 00  |................|
 C9D1  00 00 00 00 00 00 00 00 00 00 00 00 00 00 00 00  |................|
 C9E1  00 00 00 00 00 00 00 00 00 00 00 00 00 00 00 00  |................|
 C9F1  00 00 00 00 00 00 00 00 00 00 00 00 00 00 00 00  |................|
 CA01  00 00 00 00 00 00 00 00 00 00 00 00 00 00 00 00  |................|
 CA11  00 00 00 00 00 00 00 00 00 00 00 00 00 00 00 00  |................|
 CA21  00 00 00 00 00 00 00 00 00 00 00 00 00 00 00 00  |................|
 CA31  00 00 00 00 00 00 00 00 00 00 00 00 00 00 00 00  |................|
 CA41  00 00 00 00 00 00 00 00 00 00 00 00 00 00 00 00  |................|
 CA51  00 00 00 00 00 00 00 00 00 00 00 00 00 00 00 00  |................|
 CA61  00 00 00 00 00 00 00 00 00 00 00 00 00 00 00 00  |................|
 CA71  00 00 00 00 00 00 00 00 00 00 00 00 00 00 00 00  |................|
 CA81  00 00 00 00 00 00 00 00 00 00 00 00 00 00 00 00  |................|
 CA91  00 00 00 00 00 00 00 00 00 00 00 00 00 00 00 00  |................|
 CAA1  00 00 00 00 00 00 00 00 00 00 00 00 00 00 00 00  |................|
 CAB1  00 00 00 00 00 00 00 00 00 00 00 00 00 00 00 00  |................|
 CAC1  00 00 00 00 00 00 00 00 00 00 00 00 00 00 00 00  |................|
 CAD1  00 00 00 00 00 00 00 00 00 00 00 00 00 00 00 00  |................|
 CAE1  00 00 00 00 00 00 00 00 00 00 00 00 00 00 00 00  |................|
 CAF1  00 00 00 00 00 00 00 00 00 00 00 00 00 00 00 00  |................|
 CB01  00 00 00 00 00 00 00 00 00 00 00 00 00 00 00 00  |................|
 CB11  00 00 00 00 00 00 00 00 00 00 00 00 00 00 00 00  |................|
 CB21  00 00 00 00 00 00 00 00 00 00 00 00 00 00 00 00  |................|
 CB31  00 00 00 00 00 00 00 00 00 00 00 00 00 00 00 00  |................|
 CB41  00 00 00 00 00 00 00 00 00 00 00 00 00 00 00 00  |................|
 CB51  00 00 00 00 00 00 00 00 00 00 00 00 00 00 00 00  |................|
 CB61  00 00 00 00 00 00 00 00 00 00 00 00 00 00 00 00  |................|
 CB71  00 00 00 00 00 00 00 00 00 00 00 00 00 00 00 00  |................|
 CB81  00 00 00 00 00 00 00 00 00 00 00 00 00 00 00 00  |................|
 CB91  00 00 00 00 00 00 00 00 00 00 00 00 00 00 00 00  |................|
 CBA1  00 00 00 00 00 00 00 00 00 00 00 00 00 00 00 00  |................|
 CBB1  00 00 00 00 00 00 00 00 00 00 00 00 00 00 00 00  |................|
 CBC1  00 00 00 00 00 00 00 00 00 00 00 00 00 00 00 00  |................|
 CBD1  00 00 00 00 00 00 00 00 00 00 00 00 00 00 00 00  |................|
 CBE1  00 00 00 00 00 00 00 00 00 00 00 00 00 00 00 00  |................|
 CBF1  00 00 00 00 00 00 00 00 00 00 00 00 00 00 00 00  |................|
 CC01  00 00 00 00 00 00 00 00 00 00 00 00 00 00 00 00  |................|
 CC11  00 00 00 00 00 00 00 00 00 00 00 00 00 00 00 00  |................|
 CC21  00 00 00 00 00 00 00 00 00 00 00 00 00 00 00 00  |................|
 CC31  00 00 00 00 00 00 00 00 00 00 00 00 00 00 00 00  |................|
 CC41  00 00 00 00 00 00 00 00 00 00 00 00 00 00 00 00  |................|
 CC51  00 00 00 00 00 00 00 00 00 00 00 00 00 00 00 00  |................|
 CC61  00 00 00 00 00 00 00 00 00 00 00 00 00 00 00 00  |................|
 CC71  00 00 00 00 00 00 00 00 00 00 00 00 00 00 00 00  |................|
 CC81  00 00 00 00 00 00 00 00 00 00 00 00 00 00 00 00  |................|
 CC91  00 00 00 00 00 00 00 00 00 00 00 00 00 00 00 00  |................|
 CCA1  00 00 00 00 00 00 00 00 00 00 00 00 00 00 00 00  |................|
 CCB1  00 00 00 00 00 00 00 00 00 00 00 00 00 00 00 00  |................|
 CCC1  00 00 00 00 00 00 00 00 00 00 00 00 00 00 00 00  |................|
 CCD1  00 00 00 00 00 00 00 00 00 00 00 00 00 00 00 00  |................|
 CCE1  00 00 00 00 00 00 00 00 00 00 00 00 00 00 00 00  |................|
 CCF1  00 00 00 00 00 00 00 00 00 00 00 00 00 00 00 00  |................|
 CD01  00 00 00 00 00 00 00 00 00 00 00 00 00 00 00 00  |................|
 CD11  00 00 00 00 00 00 00 00 00 00 00 00 00 00 00 00  |................|
 CD21  00 00 00 00 00 00 00 00 00 00 00 00 00 00 00 00  |................|
 CD31  00 00 00 00 00 00 00 00 00 00 00 00 00 00 00 00  |................|
 CD41  00 00 00 00 00 00 00 00 00 00 00 00 00 00 00 00  |................|
 CD51  00 00 00 00 00 00 00 00 00 00 00 00 00 00 00 00  |................|
 CD61  00 00 00 00 00 00 00 00 00 00 00 00 00 00 00 00  |................|
 CD71  00 00 00 00 00 00 00 00 00 00 00 00 00 00 00 00  |................|
 CD81  00 00 00 00 00 00 00 00 00 00 00 00 00 00 00 00  |................|
 CD91  00 00 00 00 00 00 00 00 00 00 00 00 00 00 00 00  |................|
 CDA1  00 00 00 00 00 00 00 00 00 00 00 00 00 00 00 00  |................|
 CDB1  00 00 00 00 00 00 00 00 00 00 00 00 00 00 00 00  |................|
 CDC1  00 00 00 00 00 00 00 00 00 00 00 00 00 00 00 00  |................|
 CDD1  00 00 00 00 00 00 00 00 00 00 00 00 00 00 00 00  |................|
 CDE1  00 00 00 00 00 00 00 00 00 00 00 00 00 00 00 00  |................|
 CDF1  00 00 00 00 00 00 00 00 00 00 00 00 00 00 00 00  |................|
 CE01  00 00 00 00 00 00 00 00 00 00 00 00 00 00 00 00  |................|
 CE11  00 00 00 00 00 00 00 00 00 00 00 00 00 00 00 00  |................|
 CE21  00 00 00 00 00 00 00 00 00 00 00 00 00 00 00 00  |................|
 CE31  00 00 00 00 00 00 00 00 00 00 00 00 00 00 00 00  |................|
 CE41  00 00 00 00 00 00 00 00 00 00 00 00 00 00 00 00  |................|
 CE51  00 00 00 00 00 00 00 00 00 00 00 00 00 00 00 00  |................|
 CE61  00 00 00 00 00 00 00 00 00 00 00 00 00 00 00 00  |................|
 CE71  00 00 00 00 00 00 00 00 00 00 00 00 00 00 00 00  |................|
 CE81  00 00 00 00 00 00 00 00 00 00 00 00 00 00 00 00  |................|
 CE91  00 00 00 00 00 00 00 00 00 00 00 00 00 00 00 00  |................|
 CEA1  00 00 00 00 00 00 00 00 00 00 00 00 00 00 00 00  |................|
 CEB1  00 00 00 00 00 00 00 00 00 00 00 00 00 00 00 00  |................|
 CEC1  00 00 00 00 00 00 00 00 00 00 00 00 00 00 00 00  |................|
 CED1  00 00 00 00 00 00 00 00 00 00 00 00 00 00 00 00  |................|
 CEE1  00 00 00 00 00 00 00 00 00 00 00 00 00 00 00 00  |................|
 CEF1  00 00 00 00 00 00 00 00 00 00 00 00 00 00 00 00  |................|
 CF01  00 00 00 00 00 00 00 00 00 00 00 00 00 00 00 00  |................|
 CF11  00 00 00 00 00 00 00 00 00 00 00 00 00 00 00 00  |................|
 CF21  00 00 00 00 00 00 00 00 00 00 00 00 00 00 00 00  |................|
 CF31  00 00 00 00 00 00 00 00 00 00 00 00 00 00 00 00  |................|
 CF41  00 00 00 00 00 00 00 00 00 00 00 00 00 00 00 00  |................|
 CF51  00 00 00 00 00 00 00 00 00 00 00 00 00 00 00 00  |................|
 CF61  00 00 00 00 00 00 00 00 00 00 00 00 00 00 00 00  |................|
 CF71  00 00 00 00 00 00 00 00 00 00 00 00 00 00 00 00  |................|
 CF81  00 00 00 00 00 00 00 00 00 00 00 00 00 00 00 00  |................|
 CF91  00 00 00 00 00 00 00 00 00 00 00 00 00 00 00 00  |................|
 CFA1  00 00 00 00 00 00 00 00 00 00 00 00 00 00 00 00  |................|
 CFB1  00 00 00 00 00 00 00 00 00 00 00 00 00 00 00 00  |................|
 CFC1  00 00 00 00 00 00 00 00 00 00 00 00 00 00 00 00  |................|
 CFD1  00 00 00 00 00 00 00 00 00 00 00 00 00 00 00 00  |................|
 CFE1  00 00 00 00 00 00 00 00 00 00 00 00 00 00 00 00  |................|
 CFF1  00 00 00 00 00 00 00 00 00 00 00 00 00 00 00 00  |................|
 D001  00 00 00 00 00 00 00 00 00 00 00 00 00 00 00 00  |................|
 D011  00 00 00 00 00 00 00 00 00 00 00 00 00 00 00 00  |................|
 D021  00 00 00 00 00 00 00 00 00 00 00 00 00 00 00 00  |................|
 D031  00 00 00 00 00 00 00 00 00 00 00 00 00 00 00 00  |................|
 D041  00 00 00 00 00 00 00 00 00 00 00 00 00 00 00 00  |................|
 D051  00 00 00 00 00 00 00 00 00 00 00 00 00 00 00 00  |................|
 D061  00 00 00 00 00 00 00 00 00 00 00 00 00 00 00 00  |................|
 D071  00 00 00 00 00 00 00 00 00 00 00 00 00 00 00 00  |................|
 D081  00 00 00 00 00 00 00 00 00 00 00 00 00 00 00 00  |................|
 D091  00 00 00 00 00 00 00 00 00 00 00 00 00 00 00 00  |................|
 D0A1  00 00 00 00 00 00 00 00 00 00 00 00 00 00 00 00  |................|
 D0B1  00 00 00 00 00 00 00 00 00 00 00 00 00 00 00 00  |................|
 D0C1  00 00 00 00 00 00 00 00 00 00 00 00 00 00 00 00  |................|
 D0D1  00 00 00 00 00 00 00 00 00 00 00 00 00 00 00 00  |................|
 D0E1  00 00 00 00 00 00 00 00 00 00 00 00 00 00 00 00  |................|
 D0F1  00 00 00 00 00 00 00 00 00 00 00 00 00 00 00 00  |................|
 D101  00 00 00 00 00 00 00 00 00 00 00 00 00 00 00 00  |................|
 D111  00 00 00 00 00 00 00 00 00 00 00 00 00 00 00 00  |................|
 D121  00 00 00 00 00 00 00 00 00 00 00 00 00 00 00 00  |................|
 D131  00 00 00 00 00 00 00 00 00 00 00 00 00 00 00 00  |................|
 D141  00 00 00 00 00 00 00 00 00 00 00 00 00 00 00 00  |................|
 D151  00 00 00 00 00 00 00 00 00 00 00 00 00 00 00 00  |................|
 D161  00 00 00 00 00 00 00 00 00 00 00 00 00 00 00 00  |................|
 D171  00 00 00 00 00 00 00 00 00 00 00 00 00 00 00 00  |................|
 D181  00 00 00 00 00 00 00 00 00 00 00 00 00 00 00 00  |................|
 D191  00 00 00 00 00 00 00 00 00 00 00 00 00 00 00 00  |................|
 D1A1  00 00 00 00 00 00 00 00 00 00 00 00 00 00 00 00  |................|
 D1B1  00 00 00 00 00 00 00 00 00 00 00 00 00 00 00 00  |................|
 D1C1  00 00 00 00 00 00 00 00 00 00 00 00 00 00 00 00  |................|
 D1D1  00 00 00 00 00 00 00 00 00 00 00 00 00 00 00 00  |................|
 D1E1  00 00 00 00 00 00 00 00 00 00 00 00 00 00 00 00  |................|
 D1F1  00 00 00 00 00 00 00 00 00 00 00 00 00 00 00 00  |................|
 D201  00 00 00 00 00 00 00 00 00 00 00 00 00 00 00 00  |................|
 D211  00 00 00 00 00 00 00 00 00 00 00 00 00 00 00 00  |................|
 D221  00 00 00 00 00 00 00 00 00 00 00 00 00 00 00 00  |................|
 D231  00 00 00 00 00 00 00 00 00 00 00 00 00 00 00 00  |................|
 D241  00 00 00 00 00 00 00 00 00 00 00 00 00 00 00 00  |................|
 D251  00 00 00 00 00 00 00 00 00 00 00 00 00 00 00 00  |................|
 D261  00 00 00 00 00 00 00 00 00 00 00 00 00 00 00 00  |................|
 D271  00 00 00 00 00 00 00 00 00 00 00 00 00 00 00 00  |................|
 D281  00 00 00 00 00 00 00 00 00 00 00 00 00 00 00 00  |................|
 D291  00 00 00 00 00 00 00 00 00 00 00 00 00 00 00 00  |................|
 D2A1  00 00 00 00 00 00 00 00 00 00 00 00 00 00 00 00  |................|
 D2B1  00 00 00 00 00 00 00 00 00 00 00 00 00 00 00 00  |................|
 D2C1  00 00 00 00 00 00 00 00 00 00 00 00 00 00 00 00  |................|
 D2D1  00 00 00 00 00 00 00 00 00 00 00 00 00 00 00 00  |................|
 D2E1  00 00 00 00 00 00 00 00 00 00 00 00 00 00 00 00  |................|
 D2F1  00 00 00 00 00 00 00 00 00 00 00 00 00 00 00 00  |................|
 D301  00 00 00 00 00 00 00 00 00 00 00 00 00 00 00 00  |................|
 D311  00 00 00 00 00 00 00 00 00 00 00 00 00 00 00 00  |................|
 D321  00 00 00 00 00 00 00 00 00 00 00 00 00 00 00 00  |................|
 D331  00 00 00 00 00 00 00 00 00 00 00 00 00 00 00 00  |................|
 D341  00 00 00 00 00 00 00 00 00 00 00 00 00 00 00 00  |................|
 D351  00 00 00 00 00 00 00 00 00 00 00 00 00 00 00 00  |................|
 D361  00 00 00 00 00 00 00 00 00 00 00 00 00 00 00 00  |................|
 D371  00 00 00 00 00 00 00 00 00 00 00 00 00 00 00 00  |................|
 D381  00 00 00 00 00 00 00 00 00 00 00 00 00 00 00 00  |................|
 D391  00 00 00 00 00 00 00 00 00 00 00 00 00 00 00 00  |................|
 D3A1  00 00 00 00 00 00 00 00 00 00 00 00 00 00 00 00  |................|
 D3B1  00 00 00 00 00 00 00 00 00 00 00 00 00 00 00 00  |................|
 D3C1  00 00 00 00 00 00 00 00 00 00 00 00 00 00 00 00  |................|
 D3D1  00 00 00 00 00 00 00 00 00 00 00 00 00 00 00 00  |................|
 D3E1  00 00 00 00 00 00 00 00 00 00 00 00 00 00 00 00  |................|
 D3F1  00 00 00 00 00 00 00 00 00 00 00 00 00 00 00 00  |................|
 D401  00 00 00 00 00 00 00 00 00 00 00 00 00 00 00 00  |................|
 D411  00 00 00 00 00 00 00 00 00 00 00 00 00 00 00 00  |................|
 D421  00 00 00 00 00 00 00 00 00 00 00 00 00 00 00 00  |................|
 D431  00 00 00 00 00 00 00 00 00 00 00 00 00 00 00 00  |................|
 D441  00 00 00 00 00 00 00 00 00 00 00 00 00 00 00 00  |................|
 D451  00 00 00 00 00 00 00 00 00 00 00 00 00 00 00 00  |................|
 D461  00 00 00 00 00 00 00 00 00 00 00 00 00 00 00 00  |................|
 D471  00 00 00 00 00 00 00 00 00 00 00 00 00 00 00 00  |................|
 D481  00 00 00 00 00 00 00 00 00 00 00 00 00 00 00 00  |................|
 D491  00 00 00 00 00 00 00 00 00 00 00 00 00 00 00 00  |................|
 D4A1  00 00 00 00 00 00 00 00 00 00 00 00 00 00 00 00  |................|
 D4B1  00 00 00 00 00 00 00 00 00 00 00 00 00 00 00 00  |................|
 D4C1  00 00 00 00 00 00 00 00 00 00 00 00 00 00 00 00  |................|
 D4D1  00 00 00 00 00 00 00 00 00 00 00 00 00 00 00 00  |................|
 D4E1  00 00 00 00 00 00 00 00 00 00 00 00 00 00 00 00  |................|
 D4F1  00 00 00 00 00 00 00 00 00 00 00 00 00 00 00 00  |................|
 D501  00 00 00 00 00 00 00 00 00 00 00 00 00 00 00 00  |................|
 D511  00 00 00 00 00 00 00 00 00 00 00 00 00 00 00 00  |................|
 D521  00 00 00 00 00 00 00 00 00 00 00 00 00 00 00 00  |................|
 D531  00 00 00 00 00 00 00 00 00 00 00 00 00 00 00 00  |................|
 D541  00 00 00 00 00 00 00 00 00 00 00 00 00 00 00 00  |................|
 D551  00 00 00 00 00 00 00 00 00 00 00 00 00 00 00 00  |................|
 D561  00 00 00 00 00 00 00 00 00 00 00 00 00 00 00 00  |................|
 D571  00 00 00 00 00 00 00 00 00 00 00 00 00 00 00 00  |................|
 D581  00 00 00 00 00 00 00 00 00 00 00 00 00 00 00 00  |................|
 D591  00 00 00 00 00 00 00 00 00 00 00 00 00 00 00 00  |................|
 D5A1  00 00 00 00 00 00 00 00 00 00 00 00 00 00 00 00  |................|
 D5B1  00 00 00 00 00 00 00 00 00 00 00 00 00 00 00 00  |................|
 D5C1  00 00 00 00 00 00 00 00 00 00 00 00 00 00 00 00  |................|
 D5D1  00 00 00 00 00 00 00 00 00 00 00 00 00 00 00 00  |................|
 D5E1  00 00 00 00 00 00 00 00 00 00 00 00 00 00 00 00  |................|
 D5F1  00 00 00 00 00 00 00 00 00 00 00 00 00 00 00 00  |................|
 D601  00 00 00 00 00 00 00 00 00 00 00 00 00 00 00 00  |................|
 D611  00 00 00 00 00 00 00 00 00 00 00 00 00 00 00 00  |................|
 D621  00 00 00 00 00 00 00 00 00 00 00 00 00 00 00 00  |................|
 D631  00 00 00 00 00 00 00 00 00 00 00 00 00 00 00 00  |................|
 D641  00 00 00 00 00 00 00 00 00 00 00 00 00 00 00 00  |................|
 D651  00 00 00 00 00 00 00 00 00 00 00 00 00 00 00 00  |................|
 D661  00 00 00 00 00 00 00 00 00 00 00 00 00 00 00 00  |................|
 D671  00 00 00 00 00 00 00 00 00 00 00 00 00 00 00 00  |................|
 D681  00 00 00 00 00 00 00 00 00 00 00 00 00 00 00 00  |................|
 D691  00 00 00 00 00 00 00 00 00 00 00 00 00 00 00 00  |................|
 D6A1  00 00 00 00 00 00 00 00 00 00 00 00 00 00 00 00  |................|
 D6B1  00 00 00 00 00 00 00 00 00 00 00 00 00 00 00 00  |................|
 D6C1  00 00 00 00 00 00 00 00 00 00 00 00 00 00 00 00  |................|
 D6D1  00 00 00 00 00 00 00 00 00 00 00 00 00 00 00 00  |................|
 D6E1  00 00 00 00 00 00 00 00 00 00 00 00 00 00 00 00  |................|
 D6F1  00 00 00 00 00 00 00 00 00 00 00 00 00 00 00 00  |................|
 D701  00 00 00 00 00 00 00 00 00 00 00 00 00 00 00 00  |................|
 D711  00 00 00 00 00 00 00 00 00 00 00 00 00 00 00 00  |................|
 D721  00 00 00 00 00 00 00 00 00 00 00 00 00 00 00 00  |................|
 D731  00 00 00 00 00 00 00 00 00 00 00 00 00 00 00 00  |................|
 D741  00 00 00 00 00 00 00 00 00 00 00 00 00 00 00 00  |................|
 D751  00 00 00 00 00 00 00 00 00 00 00 00 00 00 00 00  |................|
 D761  00 00 00 00 00 00 00 00 00 00 00 00 00 00 00 00  |................|
 D771  00 00 00 00 00 00 00 00 00 00 00 00 00 00 00 00  |................|
 D781  00 00 00 00 00 00 00 00 00 00 00 00 00 00 00 00  |................|
 D791  00 00 00 00 00 00 00 00 00 00 00 00 00 00 00 00  |................|
 D7A1  00 00 00 00 00 00 00 00 00 00 00 00 00 00 00 00  |................|
 D7B1  00 00 00 00 00 00 00 00 00 00 00 00 00 00 00 00  |................|
 D7C1  00 00 00 00 00 00 00 00 00 00 00 00 00 00 00 00  |................|
 D7D1  00 00 00 00 00 00 00 00 00 00 00 00 00 00 00 00  |................|
 D7E1  00 00 00 00 00 00 00 00 00 00 00 00 00 00 00 00  |................|
 D7F1  00 00 00 00 00 00 00 00 00 00 00 00 00 00 00 00  |................|
 D801  00 00 00 00 00 00 00 00 00 00 00 00 00 00 00 00  |................|
 D811  00 00 00 00 00 00 00 00 00 00 00 00 00 00 00 00  |................|
 D821  00 00 00 00 00 00 00 00 00 00 00 00 00 00 00 00  |................|
 D831  00 00 00 00 00 00 00 00 00 00 00 00 00 00 00 00  |................|
 D841  00 00 00 00 00 00 00 00 00 00 00 00 00 00 00 00  |................|
 D851  00 00 00 00 00 00 00 00 00 00 00 00 00 00 00 00  |................|
 D861  00 00 00 00 00 00 00 00 00 00 00 00 00 00 00 00  |................|
 D871  00 00 00 00 00 00 00 00 00 00 00 00 00 00 00 00  |................|
 D881  00 00 00 00 00 00 00 00 00 00 00 00 00 00 00 00  |................|
 D891  00 00 00 00 00 00 00 00 00 00 00 00 00 00 00 00  |................|
 D8A1  00 00 00 00 00 00 00 00 00 00 00 00 00 00 00 00  |................|
 D8B1  00 00 00 00 00 00 00 00 00 00 00 00 00 00 00 00  |................|
 D8C1  00 00 00 00 00 00 00 00 00 00 00 00 00 00 00 00  |................|
 D8D1  00 00 00 00 00 00 00 00 00 00 00 00 00 00 00 00  |................|
 D8E1  00 00 00 00 00 00 00 00 00 00 00 00 00 00 00 00  |................|
 D8F1  00 00 00 00 00 00 00 00 00 00 00 00 00 00 00 00  |................|
 D901  00 00 00 00 00 00 00 00 00 00 00 00 00 00 00 00  |................|
 D911  00 00 00 00 00 00 00 00 00 00 00 00 00 00 00 00  |................|
 D921  00 00 00 00 00 00 00 00 00 00 00 00 00 00 00 00  |................|
 D931  00 00 00 00 00 00 00 00 00 00 00 00 00 00 00 00  |................|
 D941  00 00 00 00 00 00 00 00 00 00 00 00 00 00 00 00  |................|
 D951  00 00 00 00 00 00 00 00 00 00 00 00 00 00 00 00  |................|
 D961  00 00 00 00 00 00 00 00 00 00 00 00 00 00 00 00  |................|
 D971  00 00 00 00 00 00 00 00 00 00 00 00 00 00 00 00  |................|
 D981  00 00 00 00 00 00 00 00 00 00 00 00 00 00 00 00  |................|
 D991  00 00 00 00 00 00 00 00 00 00 00 00 00 00 00 00  |................|
 D9A1  00 00 00 00 00 00 00 00 00 00 00 00 00 00 00 00  |................|
 D9B1  00 00 00 00 00 00 00 00 00 00 00 00 00 00 00 00  |................|
 D9C1  00 00 00 00 00 00 00 00 00 00 00 00 00 00 00 00  |................|
 D9D1  00 00 00 00 00 00 00 00 00 00 00 00 00 00 00 00  |................|
 D9E1  00 00 00 00 00 00 00 00 00 00 00 00 00 00 00 00  |................|
 D9F1  00 00 00 00 00 00 00 00 00 00 00 00 00 00 00 00  |................|
 DA01  00 00 00 00 00 00 00 00 00 00 00 00 00 00 00 00  |................|
 DA11  00 00 00 00 00 00 00 00 00 00 00 00 00 00 00 00  |................|
 DA21  00 00 00 00 00 00 00 00 00 00 00 00 00 00 00 00  |................|
 DA31  00 00 00 00 00 00 00 00 00 00 00 00 00 00 00 00  |................|
 DA41  00 00 00 00 00 00 00 00 00 00 00 00 00 00 00 00  |................|
 DA51  00 00 00 00 00 00 00 00 00 00 00 00 00 00 00 00  |................|
 DA61  00 00 00 00 00 00 00 00 00 00 00 00 00 00 00 00  |................|
 DA71  00 00 00 00 00 00 00 00 00 00 00 00 00 00 00 00  |................|
 DA81  00 00 00 00 00 00 00 00 00 00 00 00 00 00 00 00  |................|
 DA91  00 00 00 00 00 00 00 00 00 00 00 00 00 00 00 00  |................|
 DAA1  00 00 00 00 00 00 00 00 00 00 00 00 00 00 00 00  |................|
 DAB1  00 00 00 00 00 00 00 00 00 00 00 00 00 00 00 00  |................|
 DAC1  00 00 00 00 00 00 00 00 00 00 00 00 00 00 00 00  |................|
 DAD1  00 00 00 00 00 00 00 00 00 00 00 00 00 00 00 00  |................|
 DAE1  00 00 00 00 00 00 00 00 00 00 00 00 00 00 00 00  |................|
 DAF1  00 00 00 00 00 00 00 00 00 00 00 00 00 00 00 00  |................|
 DB01  00 00 00 00 00 00 00 00 00 00 00 00 00 00 00 00  |................|
 DB11  00 00 00 00 00 00 00 00 00 00 00 00 00 00 00 00  |................|
 DB21  00 00 00 00 00 00 00 00 00 00 00 00 00 00 00 00  |................|
 DB31  00 00 00 00 00 00 00 00 00 00 00 00 00 00 00 00  |................|
 DB41  00 00 00 00 00 00 00 00 00 00 00 00 00 00 00 00  |................|
 DB51  00 00 00 00 00 00 00 00 00 00 00 00 00 00 00 00  |................|
 DB61  00 00 00 00 00 00 00 00 00 00 00 00 00 00 00 00  |................|
 DB71  00 00 00 00 00 00 00 00 00 00 00 00 00 00 00 00  |................|
 DB81  00 00 00 00 00 00 00 00 00 00 00 00 00 00 00 00  |................|
 DB91  00 00 00 00 00 00 00 00 00 00 00 00 00 00 00 00  |................|
 DBA1  00 00 00 00 00 00 00 00 00 00 00 00 00 00 00 00  |................|
 DBB1  00 00 00 00 00 00 00 00 00 00 00 00 00 00 00 00  |................|
 DBC1  00 00 00 00 00 00 00 00 00 00 00 00 00 00 00 00  |................|
 DBD1  00 00 00 00 00 00 00 00 00 00 00 00 00 00 00 00  |................|
 DBE1  00 00 00 00 00 00 00 00 00 00 00 00 00 00 00 00  |................|
 DBF1  00 00 00 00 00 00 00 00 00 00 00 00 00 00 00 00  |................|
 DC01  00 00 00 00 00 00 00 00 00 00 00 00 00 00 00 00  |................|
 DC11  00 00 00 00 00 00 00 00 00 00 00 00 00 00 00 00  |................|
 DC21  00 00 00 00 00 00 00 00 00 00 00 00 00 00 00 00  |................|
 DC31  00 00 00 00 00 00 00 00 00 00 00 00 00 00 00 00  |................|
 DC41  00 00 00 00 00 00 00 00 00 00 00 00 00 00 00 00  |................|
 DC51  00 00 00 00 00 00 00 00 00 00 00 00 00 00 00 00  |................|
 DC61  00 00 00 00 00 00 00 00 00 00 00 00 00 00 00 00  |................|
 DC71  00 00 00 00 00 00 00 00 00 00 00 00 00 00 00 00  |................|
 DC81  00 00 00 00 00 00 00 00 00 00 00 00 00 00 00 00  |................|
 DC91  00 00 00 00 00 00 00 00 00 00 00 00 00 00 00 00  |................|
 DCA1  00 00 00 00 00 00 00 00 00 00 00 00 00 00 00 00  |................|
 DCB1  00 00 00 00 00 00 00 00 00 00 00 00 00 00 00 00  |................|
 DCC1  00 00 00 00 00 00 00 00 00 00 00 00 00 00 00 00  |................|
 DCD1  00 00 00 00 00 00 00 00 00 00 00 00 00 00 00 00  |................|
 DCE1  00 00 00 00 00 00 00 00 00 00 00 00 00 00 00 00  |................|
 DCF1  00 00 00 00 00 00 00 00 00 00 00 00 00 00 00 00  |................|
 DD01  00 00 00 00 00 00 00 00 00 00 00 00 00 00 00 00  |................|
 DD11  00 00 00 00 00 00 00 00 00 00 00 00 00 00 00 00  |................|
 DD21  00 00 00 00 00 00 00 00 00 00 00 00 00 00 00 00  |................|
 DD31  00 00 00 00 00 00 00 00 00 00 00 00 00 00 00 00  |................|
 DD41  00 00 00 00 00 00 00 00 00 00 00 00 00 00 00 00  |................|
 DD51  00 00 00 00 00 00 00 00 00 00 00 00 00 00 00 00  |................|
 DD61  00 00 00 00 00 00 00 00 00 00 00 00 00 00 00 00  |................|
 DD71  00 00 00 00 00 00 00 00 00 00 00 00 00 00 00 00  |................|
 DD81  00 00 00 00 00 00 00 00 00 00 00 00 00 00 00 00  |................|
 DD91  00 00 00 00 00 00 00 00 00 00 00 00 00 00 00 00  |................|
 DDA1  00 00 00 00 00 00 00 00 00 00 00 00 00 00 00 00  |................|
 DDB1  00 00 00 00 00 00 00 00 00 00 00 00 00 00 00 00  |................|
 DDC1  00 00 00 00 00 00 00 00 00 00 00 00 00 00 00 00  |................|
 DDD1  00 00 00 00 00 00 00 00 00 00 00 00 00 00 00 00  |................|
 DDE1  00 00 00 00 00 00 00 00 00 00 00 00 00 00 00 00  |................|
 DDF1  00 00 00 00 00 00 00 00 00 00 00 00 00 00 00 00  |................|
 DE01  00 00 00 00 00 00 00 00 00 00 00 00 00 00 00 00  |................|
 DE11  00 00 00 00 00 00 00 00 00 00 00 00 00 00 00 00  |................|
 DE21  00 00 00 00 00 00 00 00 00 00 00 00 00 00 00 00  |................|
 DE31  00 00 00 00 00 00 00 00 00 00 00 00 00 00 00 00  |................|
 DE41  00 00 00 00 00 00 00 00 00 00 00 00 00 00 00 00  |................|
 DE51  00 00 00 00 00 00 00 00 00 00 00 00 00 00 00 00  |................|
 DE61  00 00 00 00 00 00 00 00 00 00 00 00 00 00 00 00  |................|
 DE71  00 00 00 00 00 00 00 00 00 00 00 00 00 00 00 00  |................|
 DE81  00 00 00 00 00 00 00 00 00 00 00 00 00 00 00 00  |................|
 DE91  00 00 00 00 00 00 00 00 00 00 00 00 00 00 00 00  |................|
 DEA1  00 00 00 00 00 00 00 00 00 00 00 00 00 00 00 00  |................|
 DEB1  00 00 00 00 00 00 00 00 00 00 00 00 00 00 00 00  |................|
 DEC1  00 00 00 00 00 00 00 00 00 00 00 00 00 00 00 00  |................|
 DED1  00 00 00 00 00 00 00 00 00 00 00 00 00 00 00 00  |................|
 DEE1  00 00 00 00 00 00 00 00 00 00 00 00 00 00 00 00  |................|
 DEF1  00 00 00 00 00 00 00 00 00 00 00 00 00 00 00 00  |................|
 DF01  00 00 00 00 00 00 00 00 00 00 00 00 00 00 00 00  |................|
 DF11  00 00 00 00 00 00 00 00 00 00 00 00 00 00 00 00  |................|
 DF21  00 00 00 00 00 00 00 00 00 00 00 00 00 00 00 00  |................|
 DF31  00 00 00 00 00 00 00 00 00 00 00 00 00 00 00 00  |................|
 DF41  00 00 00 00 00 00 00 00 00 00 00 00 00 00 00 00  |................|
 DF51  00 00 00 00 00 00 00 00 00 00 00 00 00 00 00 00  |................|
 DF61  00 00 00 00 00 00 00 00 00 00 00 00 00 00 00 00  |................|
 DF71  00 00 00 00 00 00 00 00 00 00 00 00 00 00 00 00  |................|
 DF81  00 00 00 00 00 00 00 00 00 00 00 00 00 00 00 00  |................|
 DF91  00 00 00 00 00 00 00 00 00 00 00 00 00 00 00 00  |................|
 DFA1  00 00 00 00 00 00 00 00 00 00 00 00 00 00 00 00  |................|
 DFB1  00 00 00 00 00 00 00 00 00 00 00 00 00 00 00 00  |................|
 DFC1  00 00 00 00 00 00 00 00 00 00 00 00 00 00 00 00  |................|
 DFD1  00 00 00 00 00 00 00 00 00 00 00 00 00 00 00 00  |................|
 DFE1  00 00 00 00 00 00 00 00 00 00 00 00 00 00 00 00  |................|
 DFF1  00 00 00 00 00 00 00 00 00 00 00 00 00 00 00 00  |................|
 E001  00 00 00 00 00 00 00 00 00 00 00 00 00 00 00 00  |................|
 E011  00 00 00 00 00 00 00 00 00 00 00 00 00 00 00 00  |................|
 E021  00 00 00 00 00 00 00 00 00 00 00 00 00 00 00 00  |................|
 E031  00 00 00 00 00 00 00 00 00 00 00 00 00 00 00 00  |................|
 E041  00 00 00 00 00 00 00 00 00 00 00 00 00 00 00 00  |................|
 E051  00 00 00 00 00 00 00 00 00 00 00 00 00 00 00 00  |................|
 E061  00 00 00 00 00 00 00 00 00 00 00 00 00 00 00 00  |................|
 E071  00 00 00 00 00 00 00 00 00 00 00 00 00 00 00 00  |................|
 E081  00 00 00 00 00 00 00 00 00 00 00 00 00 00 00 00  |................|
 E091  00 00 00 00 00 00 00 00 00 00 00 00 00 00 00 00  |................|
 E0A1  00 00 00 00 00 00 00 00 00 00 00 00 00 00 00 00  |................|
 E0B1  00 00 00 00 00 00 00 00 00 00 00 00 00 00 00 00  |................|
 E0C1  00 00 00 00 00 00 00 00 00 00 00 00 00 00 00 00  |................|
 E0D1  00 00 00 00 00 00 00 00 00 00 00 00 00 00 00 00  |................|
 E0E1  00 00 00 00 00 00 00 00 00 00 00 00 00 00 00 00  |................|
 E0F1  00 00 00 00 00 00 00 00 00 00 00 00 00 00 00 00  |................|
 E101  00 00 00 00 00 00 00 00 00 00 00 00 00 00 00 00  |................|
 E111  00 00 00 00 00 00 00 00 00 00 00 00 00 00 00 00  |................|
 E121  00 00 00 00 00 00 00 00 00 00 00 00 00 00 00 00  |................|
 E131  00 00 00 00 00 00 00 00 00 00 00 00 00 00 00 00  |................|
 E141  00 00 00 00 00 00 00 00 00 00 00 00 00 00 00 00  |................|
 E151  00 00 00 00 00 00 00 00 00 00 00 00 00 00 00 00  |................|
 E161  00 00 00 00 00 00 00 00 00 00 00 00 00 00 00 00  |................|
 E171  00 00 00 00 00 00 00 00 00 00 00 00 00 00 00 00  |................|
 E181  00 00 00 00 00 00 00 00 00 00 00 00 00 00 00 00  |................|
 E191  00 00 00 00 00 00 00 00 00 00 00 00 00 00 00 00  |................|
 E1A1  00 00 00 00 00 00 00 00 00 00 00 00 00 00 00 00  |................|
 E1B1  00 00 00 00 00 00 00 00 00 00 00 00 00 00 00 00  |................|
 E1C1  00 00 00 00 00 00 00 00 00 00 00 00 00 00 00 00  |................|
 E1D1  00 00 00 00 00 00 00 00 00 00 00 00 00 00 00 00  |................|
 E1E1  00 00 00 00 00 00 00 00 00 00 00 00 00 00 00 00  |................|
 E1F1  00 00 00 00 00 00 00 00 00 00 00 00 00 00 00 00  |................|
 E201  00 00 00 00 00 00 00 00 00 00 00 00 00 00 00 00  |................|
 E211  00 00 00 00 00 00 00 00 00 00 00 00 00 00 00 00  |................|
 E221  00 00 00 00 00 00 00 00 00 00 00 00 00 00 00 00  |................|
 E231  00 00 00 00 00 00 00 00 00 00 00 00 00 00 00 00  |................|
 E241  00 00 00 00 00 00 00 00 00 00 00 00 00 00 00 00  |................|
 E251  00 00 00 00 00 00 00 00 00 00 00 00 00 00 00 00  |................|
 E261  00 00 00 00 00 00 00 00 00 00 00 00 00 00 00 00  |................|
 E271  00 00 00 00 00 00 00 00 00 00 00 00 00 00 00 00  |................|
 E281  00 00 00 00 00 00 00 00 00 00 00 00 00 00 00 00  |................|
 E291  00 00 00 00 00 00 00 00 00 00 00 00 00 00 00 00  |................|
 E2A1  00 00 00 00 00 00 00 00 00 00 00 00 00 00 00 00  |................|
 E2B1  00 00 00 00 00 00 00 00 00 00 00 00 00 00 00 00  |................|
 E2C1  00 00 00 00 00 00 00 00 00 00 00 00 00 00 00 00  |................|
 E2D1  00 00 00 00 00 00 00 00 00 00 00 00 00 00 00 00  |................|
 E2E1  00 00 00 00 00 00 00 00 00 00 00 00 00 00 00 00  |................|
 E2F1  00 00 00 00 00 00 00 00 00 00 00 00 00 00 00 00  |................|
 E301  00 00 00 00 00 00 00 00 00 00 00 00 00 00 00 00  |................|
 E311  00 00 00 00 00 00 00 00 00 00 00 00 00 00 00 00  |................|
 E321  00 00 00 00 00 00 00 00 00 00 00 00 00 00 00 00  |................|
 E331  00 00 00 00 00 00 00 00 00 00 00 00 00 00 00 00  |................|
 E341  00 00 00 00 00 00 00 00 00 00 00 00 00 00 00 00  |................|
 E351  00 00 00 00 00 00 00 00 00 00 00 00 00 00 00 00  |................|
 E361  00 00 00 00 00 00 00 00 00 00 00 00 00 00 00 00  |................|
 E371  00 00 00 00 00 00 00 00 00 00 00 00 00 00 00 00  |................|
 E381  00 00 00 00 00 00 00 00 00 00 00 00 00 00 00 00  |................|
 E391  00 00 00 00 00 00 00 00 00 00 00 00 00 00 00 00  |................|
 E3A1  00 00 00 00 00 00 00 00 00 00 00 00 00 00 00 00  |................|
 E3B1  00 00 00 00 00 00 00 00 00 00 00 00 00 00 00 00  |................|
 E3C1  00 00 00 00 00 00 00 00 00 00 00 00 00 00 00 00  |................|
 E3D1  00 00 00 00 00 00 00 00 00 00 00 00 00 00 00 00  |................|
 E3E1  00 00 00 00 00 00 00 00 00 00 00 00 00 00 00 00  |................|
 E3F1  00 00 00 00 00 00 00 00 00 00 00 00 00 00 00 00  |................|
 E401  00 00 00 00 00 00 00 00 00 00 00 00 00 00 00 00  |................|
 E411  00 00 00 00 00 00 00 00 00 00 00 00 00 00 00 00  |................|
 E421  00 00 00 00 00 00 00 00 00 00 00 00 00 00 00 00  |................|
 E431  00 00 00 00 00 00 00 00 00 00 00 00 00 00 00 00  |................|
 E441  00 00 00 00 00 00 00 00 00 00 00 00 00 00 00 00  |................|
 E451  00 00 00 00 00 00 00 00 00 00 00 00 00 00 00 00  |................|
 E461  00 00 00 00 00 00 00 00 00 00 00 00 00 00 00 00  |................|
 E471  00 00 00 00 00 00 00 00 00 00 00 00 00 00 00 00  |................|
 E481  00 00 00 00 00 00 00 00 00 00 00 00 00 00 00 00  |................|
 E491  00 00 00 00 00 00 00 00 00 00 00 00 00 00 00 00  |................|
 E4A1  00 00 00 00 00 00 00 00 00 00 00 00 00 00 00 00  |................|
 E4B1  00 00 00 00 00 00 00 00 00 00 00 00 00 00 00 00  |................|
 E4C1  00 00 00 00 00 00 00 00 00 00 00 00 00 00 00 00  |................|
 E4D1  00 00 00 00 00 00 00 00 00 00 00 00 00 00 00 00  |................|
 E4E1  00 00 00 00 00 00 00 00 00 00 00 00 00 00 00 00  |................|
 E4F1  00 00 00 00 00 00 00 00 00 00 00 00 00 00 00 00  |................|
 E501  00 00 00 00 00 00 00 00 00 00 00 00 00 00 00 00  |................|
 E511  00 00 00 00 00 00 00 00 00 00 00 00 00 00 00 00  |................|
 E521  00 00 00 00 00 00 00 00 00 00 00 00 00 00 00 00  |................|
 E531  00 00 00 00 00 00 00 00 00 00 00 00 00 00 00 00  |................|
 E541  00 00 00 00 00 00 00 00 00 00 00 00 00 00 00 00  |................|
 E551  00 00 00 00 00 00 00 00 00 00 00 00 00 00 00 00  |................|
 E561  00 00 00 00 00 00 00 00 00 00 00 00 00 00 00 00  |................|
 E571  00 00 00 00 00 00 00 00 00 00 00 00 00 00 00 00  |................|
 E581  00 00 00 00 00 00 00 00 00 00 00 00 00 00 00 00  |................|
 E591  00 00 00 00 00 00 00 00 00 00 00 00 00 00 00 00  |................|
 E5A1  00 00 00 00 00 00 00 00 00 00 00 00 00 00 00 00  |................|
 E5B1  00 00 00 00 00 00 00 00 00 00 00 00 00 00 00 00  |................|
 E5C1  00 00 00 00 00 00 00 00 00 00 00 00 00 00 00 00  |................|
 E5D1  00 00 00 00 00 00 00 00 00 00 00 00 00 00 00 00  |................|
 E5E1  00 00 00 00 00 00 00 00 00 00 00 00 00 00 00 00  |................|
 E5F1  00 00 00 00 00 00 00 00 00 00 00 00 00 00 00 00  |................|
 E601  00 00 00 00 00 00 00 00 00 00 00 00 00 00 00 00  |................|
 E611  00 00 00 00 00 00 00 00 00 00 00 00 00 00 00 00  |................|
 E621  00 00 00 00 00 00 00 00 00 00 00 00 00 00 00 00  |................|
 E631  00 00 00 00 00 00 00 00 00 00 00 00 00 00 00 00  |................|
 E641  00 00 00 00 00 00 00 00 00 00 00 00 00 00 00 00  |................|
 E651  00 00 00 00 00 00 00 00 00 00 00 00 00 00 00 00  |................|
 E661  00 00 00 00 00 00 00 00 00 00 00 00 00 00 00 00  |................|
 E671  00 00 00 00 00 00 00 00 00 00 00 00 00 00 00 00  |................|
 E681  00 00 00 00 00 00 00 00 00 00 00 00 00 00 00 00  |................|
 E691  00 00 00 00 00 00 00 00 00 00 00 00 00 00 00 00  |................|
 E6A1  00 00 00 00 00 00 00 00 00 00 00 00 00 00 00 00  |................|
 E6B1  00 00 00 00 00 00 00 00 00 00 00 00 00 00 00 00  |................|
 E6C1  00 00 00 00 00 00 00 00 00 00 00 00 00 00 00 00  |................|
 E6D1  00 00 00 00 00 00 00 00 00 00 00 00 00 00 00 00  |................|
 E6E1  00 00 00 00 00 00 00 00 00 00 00 00 00 00 00 00  |................|
 E6F1  00 00 00 00 00 00 00 00 00 00 00 00 00 00 00 00  |................|
 E701  00 00 00 00 00 00 00 00 00 00 00 00 00 00 00 00  |................|
 E711  00 00 00 00 00 00 00 00 00 00 00 00 00 00 00 00  |................|
 E721  00 00 00 00 00 00 00 00 00 00 00 00 00 00 00 00  |................|
 E731  00 00 00 00 00 00 00 00 00 00 00 00 00 00 00 00  |................|
 E741  00 00 00 00 00 00 00 00 00 00 00 00 00 00 00 00  |................|
 E751  00 00 00 00 00 00 00 00 00 00 00 00 00 00 00 00  |................|
 E761  00 00 00 00 00 00 00 00 00 00 00 00 00 00 00 00  |................|
 E771  00 00 00 00 00 00 00 00 00 00 00 00 00 00 00 00  |................|
 E781  00 00 00 00 00 00 00 00 00 00 00 00 00 00 00 00  |................|
 E791  00 00 00 00 00 00 00 00 00 00 00 00 00 00 00 00  |................|
 E7A1  00 00 00 00 00 00 00 00 00 00 00 00 00 00 00 00  |................|
 E7B1  00 00 00 00 00 00 00 00 00 00 00 00 00 00 00 00  |................|
 E7C1  00 00 00 00 00 00 00 00 00 00 00 00 00 00 00 00  |................|
 E7D1  00 00 00 00 00 00 00 00 00 00 00 00 00 00 00 00  |................|
 E7E1  00 00 00 00 00 00 00 00 00 00 00 00 00 00 00 00  |................|
 E7F1  00 00 00 00 00 00 00 00 00 00 00 00 00 00 00 00  |................|
 E801  00 00 00 00 00 00 00 00 00 00 00 00 00 00 00 00  |................|
 E811  00 00 00 00 00 00 00 00 00 00 00 00 00 00 00 00  |................|
 E821  00 00 00 00 00 00 00 00 00 00 00 00 00 00 00 00  |................|
 E831  00 00 00 00 00 00 00 00 00 00 00 00 00 00 00 00  |................|
 E841  00 00 00 00 00 00 00 00 00 00 00 00 00 00 00 00  |................|
 E851  00 00 00 00 00 00 00 00 00 00 00 00 00 00 00 00  |................|
 E861  00 00 00 00 00 00 00 00 00 00 00 00 00 00 00 00  |................|
 E871  00 00 00 00 00 00 00 00 00 00 00 00 00 00 00 00  |................|
 E881  00 00 00 00 00 00 00 00 00 00 00 00 00 00 00 00  |................|
 E891  00 00 00 00 00 00 00 00 00 00 00 00 00 00 00 00  |................|
 E8A1  00 00 00 00 00 00 00 00 00 00 00 00 00 00 00 00  |................|
 E8B1  00 00 00 00 00 00 00 00 00 00 00 00 00 00 00 00  |................|
 E8C1  00 00 00 00 00 00 00 00 00 00 00 00 00 00 00 00  |................|
 E8D1  00 00 00 00 00 00 00 00 00 00 00 00 00 00 00 00  |................|
 E8E1  00 00 00 00 00 00 00 00 00 00 00 00 00 00 00 00  |................|
 E8F1  00 00 00 00 00 00 00 00 00 00 00 00 00 00 00 00  |................|
 E901  00 00 00 00 00 00 00 00 00 00 00 00 00 00 00 00  |................|
 E911  00 00 00 00 00 00 00 00 00 00 00 00 00 00 00 00  |................|
 E921  00 00 00 00 00 00 00 00 00 00 00 00 00 00 00 00  |................|
 E931  00 00 00 00 00 00 00 00 00 00 00 00 00 00 00 00  |................|
 E941  00 00 00 00 00 00 00 00 00 00 00 00 00 00 00 00  |................|
 E951  00 00 00 00 00 00 00 00 00 00 00 00 00 00 00 00  |................|
 E961  00 00 00 00 00 00 00 00 00 00 00 00 00 00 00 00  |................|
 E971  00 00 00 00 00 00 00 00 00 00 00 00 00 00 00 00  |................|
 E981  00 00 00 00 00 00 00 00 00 00 00 00 00 00 00 00  |................|
 E991  00 00 00 00 00 00 00 00 00 00 00 00 00 00 00 00  |................|
 E9A1  00 00 00 00 00 00 00 00 00 00 00 00 00 00 00 00  |................|
 E9B1  00 00 00 00 00 00 00 00 00 00 00 00 00 00 00 00  |................|
 E9C1  00 00 00 00 00 00 00 00 00 00 00 00 00 00 00 00  |................|
 E9D1  00 00 00 00 00 00 00 00 00 00 00 00 00 00 00 00  |................|
 E9E1  00 00 00 00 00 00 00 00 00 00 00 00 00 00 00 00  |................|
 E9F1  00 00 00 00 00 00 00 00 00 00 00 00 00 00 00 00  |................|
 EA01  00 00 00 00 00 00 00 00 00 00 00 00 00 00 00 00  |................|
 EA11  00 00 00 00 00 00 00 00 00 00 00 00 00 00 00 00  |................|
 EA21  00 00 00 00 00 00 00 00 00 00 00 00 00 00 00 00  |................|
 EA31  00 00 00 00 00 00 00 00 00 00 00 00 00 00 00 00  |................|
 EA41  00 00 00 00 00 00 00 00 00 00 00 00 00 00 00 00  |................|
 EA51  00 00 00 00 00 00 00 00 00 00 00 00 00 00 00 00  |................|
 EA61  00 00 00 00 00 00 00 00 00 00 00 00 00 00 00 00  |................|
 EA71  00 00 00 00 00 00 00 00 00 00 00 00 00 00 00 00  |................|
 EA81  00 00 00 00 00 00 00 00 00 00 00 00 00 00 00 00  |................|
 EA91  00 00 00 00 00 00 00 00 00 00 00 00 00 00 00 00  |................|
 EAA1  00 00 00 00 00 00 00 00 00 00 00 00 00 00 00 00  |................|
 EAB1  00 00 00 00 00 00 00 00 00 00 00 00 00 00 00 00  |................|
 EAC1  00 00 00 00 00 00 00 00 00 00 00 00 00 00 00 00  |................|
 EAD1  00 00 00 00 00 00 00 00 00 00 00 00 00 00 00 00  |................|
 EAE1  00 00 00 00 00 00 00 00 00 00 00 00 00 00 00 00  |................|
 EAF1  00 00 00 00 00 00 00 00 00 00 00 00 00 00 00 00  |................|
 EB01  00 00 00 00 00 00 00 00 00 00 00 00 00 00 00 00  |................|
 EB11  00 00 00 00 00 00 00 00 00 00 00 00 00 00 00 00  |................|
 EB21  00 00 00 00 00 00 00 00 00 00 00 00 00 00 00 00  |................|
 EB31  00 00 00 00 00 00 00 00 00 00 00 00 00 00 00 00  |................|
 EB41  00 00 00 00 00 00 00 00 00 00 00 00 00 00 00 00  |................|
 EB51  00 00 00 00 00 00 00 00 00 00 00 00 00 00 00 00  |................|
 EB61  00 00 00 00 00 00 00 00 00 00 00 00 00 00 00 00  |................|
 EB71  00 00 00 00 00 00 00 00 00 00 00 00 00 00 00 00  |................|
 EB81  00 00 00 00 00 00 00 00 00 00 00 00 00 00 00 00  |................|
 EB91  00 00 00 00 00 00 00 00 00 00 00 00 00 00 00 00  |................|
 EBA1  00 00 00 00 00 00 00 00 00 00 00 00 00 00 00 00  |................|
 EBB1  00 00 00 00 00 00 00 00 00 00 00 00 00 00 00 00  |................|
 EBC1  00 00 00 00 00 00 00 00 00 00 00 00 00 00 00 00  |................|
 EBD1  00 00 00 00 00 00 00 00 00 00 00 00 00 00 00 00  |................|
 EBE1  00 00 00 00 00 00 00 00 00 00 00 00 00 00 00 00  |................|
 EBF1  00 00 00 00 00 00 00 00 00 00 00 00 00 00 00 00  |................|
 EC01  00 00 00 00 00 00 00 00 00 00 00 00 00 00 00 00  |................|
 EC11  00 00 00 00 00 00 00 00 00 00 00 00 00 00 00 00  |................|
 EC21  00 00 00 00 00 00 00 00 00 00 00 00 00 00 00 00  |................|
 EC31  00 00 00 00 00 00 00 00 00 00 00 00 00 00 00 00  |................|
 EC41  00 00 00 00 00 00 00 00 00 00 00 00 00 00 00 00  |................|
 EC51  00 00 00 00 00 00 00 00 00 00 00 00 00 00 00 00  |................|
 EC61  00 00 00 00 00 00 00 00 00 00 00 00 00 00 00 00  |................|
 EC71  00 00 00 00 00 00 00 00 00 00 00 00 00 00 00 00  |................|
 EC81  00 00 00 00 00 00 00 00 00 00 00 00 00 00 00 00  |................|
 EC91  00 00 00 00 00 00 00 00 00 00 00 00 00 00 00 00  |................|
 ECA1  00 00 00 00 00 00 00 00 00 00 00 00 00 00 00 00  |................|
 ECB1  00 00 00 00 00 00 00 00 00 00 00 00 00 00 00 00  |................|
 ECC1  00 00 00 00 00 00 00 00 00 00 00 00 00 00 00 00  |................|
 ECD1  00 00 00 00 00 00 00 00 00 00 00 00 00 00 00 00  |................|
 ECE1  00 00 00 00 00 00 00 00 00 00 00 00 00 00 00 00  |................|
 ECF1  00 00 00 00 00 00 00 00 00 00 00 00 00 00 00 00  |................|
 ED01  00 00 00 00 00 00 00 00 00 00 00 00 00 00 00 00  |................|
 ED11  00 00 00 00 00 00 00 00 00 00 00 00 00 00 00 00  |................|
 ED21  00 00 00 00 00 00 00 00 00 00 00 00 00 00 00 00  |................|
 ED31  00 00 00 00 00 00 00 00 00 00 00 00 00 00 00 00  |................|
 ED41  00 00 00 00 00 00 00 00 00 00 00 00 00 00 00 00  |................|
 ED51  00 00 00 00 00 00 00 00 00 00 00 00 00 00 00 00  |................|
 ED61  00 00 00 00 00 00 00 00 00 00 00 00 00 00 00 00  |................|
 ED71  00 00 00 00 00 00 00 00 00 00 00 00 00 00 00 00  |................|
 ED81  00 00 00 00 00 00 00 00 00 00 00 00 00 00 00 00  |................|
 ED91  00 00 00 00 00 00 00 00 00 00 00 00 00 00 00 00  |................|
 EDA1  00 00 00 00 00 00 00 00 00 00 00 00 00 00 00 00  |................|
 EDB1  00 00 00 00 00 00 00 00 00 00 00 00 00 00 00 00  |................|
 EDC1  00 00 00 00 00 00 00 00 00 00 00 00 00 00 00 00  |................|
 EDD1  00 00 00 00 00 00 00 00 00 00 00 00 00 00 00 00  |................|
 EDE1  00 00 00 00 00 00 00 00 00 00 00 00 00 00 00 00  |................|
 EDF1  00 00 00 00 00 00 00 00 00 00 00 00 00 00 00 00  |................|
 EE01  00 00 00 00 00 00 00 00 00 00 00 00 00 00 00 00  |................|
 EE11  00 00 00 00 00 00 00 00 00 00 00 00 00 00 00 00  |................|
 EE21  00 00 00 00 00 00 00 00 00 00 00 00 00 00 00 00  |................|
 EE31  00 00 00 00 00 00 00 00 00 00 00 00 00 00 00 00  |................|
 EE41  00 00 00 00 00 00 00 00 00 00 00 00 00 00 00 00  |................|
 EE51  00 00 00 00 00 00 00 00 00 00 00 00 00 00 00 00  |................|
 EE61  00 00 00 00 00 00 00 00 00 00 00 00 00 00 00 00  |................|
 EE71  00 00 00 00 00 00 00 00 00 00 00 00 00 00 00 00  |................|
 EE81  00 00 00 00 00 00 00 00 00 00 00 00 00 00 00 00  |................|
 EE91  00 00 00 00 00 00 00 00 00 00 00 00 00 00 00 00  |................|
 EEA1  00 00 00 00 00 00 00 00 00 00 00 00 00 00 00 00  |................|
 EEB1  00 00 00 00 00 00 00 00 00 00 00 00 00 00 00 00  |................|
 EEC1  00 00 00 00 00 00 00 00 00 00 00 00 00 00 00 00  |................|
 EED1  00 00 00 00 00 00 00 00 00 00 00 00 00 00 00 00  |................|
 EEE1  00 00 00 00 00 00 00 00 00 00 00 00 00 00 00 00  |................|
 EEF1  00 00 00 00 00 00 00 00 00 00 00 00 00 00 00 00  |................|
 EF01  00 00 00 00 00 00 00 00 00 00 00 00 00 00 00 00  |................|
 EF11  00 00 00 00 00 00 00 00 00 00 00 00 00 00 00 00  |................|
 EF21  00 00 00 00 00 00 00 00 00 00 00 00 00 00 00 00  |................|
 EF31  00 00 00 00 00 00 00 00 00 00 00 00 00 00 00 00  |................|
 EF41  00 00 00 00 00 00 00 00 00 00 00 00 00 00 00 00  |................|
 EF51  00 00 00 00 00 00 00 00 00 00 00 00 00 00 00 00  |................|
 EF61  00 00 00 00 00 00 00 00 00 00 00 00 00 00 00 00  |................|
 EF71  00 00 00 00 00 00 00 00 00 00 00 00 00 00 00 00  |................|
 EF81  00 00 00 00 00 00 00 00 00 00 00 00 00 00 00 00  |................|
 EF91  00 00 00 00 00 00 00 00 00 00 00 00 00 00 00 00  |................|
 EFA1  00 00 00 00 00 00 00 00 00 00 00 00 00 00 00 00  |................|
 EFB1  00 00 00 00 00 00 00 00 00 00 00 00 00 00 00 00  |................|
 EFC1  00 00 00 00 00 00 00 00 00 00 00 00 00 00 00 00  |................|
 EFD1  00 00 00 00 00 00 00 00 00 00 00 00 00 00 00 00  |................|
 EFE1  00 00 00 00 00 00 00 00 00 00 00 00 00 00 00 00  |................|
 EFF1  00 00 00 00 00 00 00 00 00 00 00 00 00 00 00 00  |................|
 F001  00 00 00 00 00                                   |.....           |
 F006  A2 00     LDX  #$00
 F008  BD 20 F0  LDA  $F020, X
 F00B  F0 06     BEQ  $F013
 F00D  20 1C F0  JSR  $F01C
 F010  E8        INX  
 F011  80 F5     BRA  $F008
 F013  4C 00 80  JMP  $8000
 F016  AD 04 F0  LDA  $F004
 F019  F0 FB     BEQ  $F016
 F01B  60        RTS  
 F01C  8D 01 F0  STA  $F001
 F01F  60        RTS  
 F020  54 61 6C 69 20 46 6F 72 74 68 20 32 20 64 65 66  |Tali Forth 2 def|
 F030  61 75 6C 74 20 6B 65 72 6E 65 6C 20 66 6F 72 20  |ault kernel for |
 F040  70 79 36 35 6D 6F 6E 20 28 31 33 2E 20 46 65 62  |py65mon (13. Feb|
 F050  20 32 30 31 38 29 0A 00 00 00 00 00 00 00 00 00  | 2018)..........|
 F060  00 00 00 00 00 00 00 00 00 00 00 00 00 00 00 00  |................|
 F070  00 00 00 00 00 00 00 00 00 00 00 00 00 00 00 00  |................|
 F080  00 00 00 00 00 00 00 00 00 00 00 00 00 00 00 00  |................|
 F090  00 00 00 00 00 00 00 00 00 00 00 00 00 00 00 00  |................|
 F0A0  00 00 00 00 00 00 00 00 00 00 00 00 00 00 00 00  |................|
 F0B0  00 00 00 00 00 00 00 00 00 00 00 00 00 00 00 00  |................|
 F0C0  00 00 00 00 00 00 00 00 00 00 00 00 00 00 00 00  |................|
 F0D0  00 00 00 00 00 00 00 00 00 00 00 00 00 00 00 00  |................|
 F0E0  00 00 00 00 00 00 00 00 00 00 00 00 00 00 00 00  |................|
 F0F0  00 00 00 00 00 00 00 00 00 00 00 00 00 00 00 00  |................|
 F100  00 00 00 00 00 00 00 00 00 00 00 00 00 00 00 00  |................|
 F110  00 00 00 00 00 00 00 00 00 00 00 00 00 00 00 00  |................|
 F120  00 00 00 00 00 00 00 00 00 00 00 00 00 00 00 00  |................|
 F130  00 00 00 00 00 00 00 00 00 00 00 00 00 00 00 00  |................|
 F140  00 00 00 00 00 00 00 00 00 00 00 00 00 00 00 00  |................|
 F150  00 00 00 00 00 00 00 00 00 00 00 00 00 00 00 00  |................|
 F160  00 00 00 00 00 00 00 00 00 00 00 00 00 00 00 00  |................|
 F170  00 00 00 00 00 00 00 00 00 00 00 00 00 00 00 00  |................|
 F180  00 00 00 00 00 00 00 00 00 00 00 00 00 00 00 00  |................|
 F190  00 00 00 00 00 00 00 00 00 00 00 00 00 00 00 00  |................|
 F1A0  00 00 00 00 00 00 00 00 00 00 00 00 00 00 00 00  |................|
 F1B0  00 00 00 00 00 00 00 00 00 00 00 00 00 00 00 00  |................|
 F1C0  00 00 00 00 00 00 00 00 00 00 00 00 00 00 00 00  |................|
 F1D0  00 00 00 00 00 00 00 00 00 00 00 00 00 00 00 00  |................|
 F1E0  00 00 00 00 00 00 00 00 00 00 00 00 00 00 00 00  |................|
 F1F0  00 00 00 00 00 00 00 00 00 00 00 00 00 00 00 00  |................|
 F200  00 00 00 00 00 00 00 00 00 00 00 00 00 00 00 00  |................|
 F210  00 00 00 00 00 00 00 00 00 00 00 00 00 00 00 00  |................|
 F220  00 00 00 00 00 00 00 00 00 00 00 00 00 00 00 00  |................|
 F230  00 00 00 00 00 00 00 00 00 00 00 00 00 00 00 00  |................|
 F240  00 00 00 00 00 00 00 00 00 00 00 00 00 00 00 00  |................|
 F250  00 00 00 00 00 00 00 00 00 00 00 00 00 00 00 00  |................|
 F260  00 00 00 00 00 00 00 00 00 00 00 00 00 00 00 00  |................|
 F270  00 00 00 00 00 00 00 00 00 00 00 00 00 00 00 00  |................|
 F280  00 00 00 00 00 00 00 00 00 00 00 00 00 00 00 00  |................|
 F290  00 00 00 00 00 00 00 00 00 00 00 00 00 00 00 00  |................|
 F2A0  00 00 00 00 00 00 00 00 00 00 00 00 00 00 00 00  |................|
 F2B0  00 00 00 00 00 00 00 00 00 00 00 00 00 00 00 00  |................|
 F2C0  00 00 00 00 00 00 00 00 00 00 00 00 00 00 00 00  |................|
 F2D0  00 00 00 00 00 00 00 00 00 00 00 00 00 00 00 00  |................|
 F2E0  00 00 00 00 00 00 00 00 00 00 00 00 00 00 00 00  |................|
 F2F0  00 00 00 00 00 00 00 00 00 00 00 00 00 00 00 00  |................|
 F300  00 00 00 00 00 00 00 00 00 00 00 00 00 00 00 00  |................|
 F310  00 00 00 00 00 00 00 00 00 00 00 00 00 00 00 00  |................|
 F320  00 00 00 00 00 00 00 00 00 00 00 00 00 00 00 00  |................|
 F330  00 00 00 00 00 00 00 00 00 00 00 00 00 00 00 00  |................|
 F340  00 00 00 00 00 00 00 00 00 00 00 00 00 00 00 00  |................|
 F350  00 00 00 00 00 00 00 00 00 00 00 00 00 00 00 00  |................|
 F360  00 00 00 00 00 00 00 00 00 00 00 00 00 00 00 00  |................|
 F370  00 00 00 00 00 00 00 00 00 00 00 00 00 00 00 00  |................|
 F380  00 00 00 00 00 00 00 00 00 00 00 00 00 00 00 00  |................|
 F390  00 00 00 00 00 00 00 00 00 00 00 00 00 00 00 00  |................|
 F3A0  00 00 00 00 00 00 00 00 00 00 00 00 00 00 00 00  |................|
 F3B0  00 00 00 00 00 00 00 00 00 00 00 00 00 00 00 00  |................|
 F3C0  00 00 00 00 00 00 00 00 00 00 00 00 00 00 00 00  |................|
 F3D0  00 00 00 00 00 00 00 00 00 00 00 00 00 00 00 00  |................|
 F3E0  00 00 00 00 00 00 00 00 00 00 00 00 00 00 00 00  |................|
 F3F0  00 00 00 00 00 00 00 00 00 00 00 00 00 00 00 00  |................|
 F400  00 00 00 00 00 00 00 00 00 00 00 00 00 00 00 00  |................|
 F410  00 00 00 00 00 00 00 00 00 00 00 00 00 00 00 00  |................|
 F420  00 00 00 00 00 00 00 00 00 00 00 00 00 00 00 00  |................|
 F430  00 00 00 00 00 00 00 00 00 00 00 00 00 00 00 00  |................|
 F440  00 00 00 00 00 00 00 00 00 00 00 00 00 00 00 00  |................|
 F450  00 00 00 00 00 00 00 00 00 00 00 00 00 00 00 00  |................|
 F460  00 00 00 00 00 00 00 00 00 00 00 00 00 00 00 00  |................|
 F470  00 00 00 00 00 00 00 00 00 00 00 00 00 00 00 00  |................|
 F480  00 00 00 00 00 00 00 00 00 00 00 00 00 00 00 00  |................|
 F490  00 00 00 00 00 00 00 00 00 00 00 00 00 00 00 00  |................|
 F4A0  00 00 00 00 00 00 00 00 00 00 00 00 00 00 00 00  |................|
 F4B0  00 00 00 00 00 00 00 00 00 00 00 00 00 00 00 00  |................|
 F4C0  00 00 00 00 00 00 00 00 00 00 00 00 00 00 00 00  |................|
 F4D0  00 00 00 00 00 00 00 00 00 00 00 00 00 00 00 00  |................|
 F4E0  00 00 00 00 00 00 00 00 00 00 00 00 00 00 00 00  |................|
 F4F0  00 00 00 00 00 00 00 00 00 00 00 00 00 00 00 00  |................|
 F500  00 00 00 00 00 00 00 00 00 00 00 00 00 00 00 00  |................|
 F510  00 00 00 00 00 00 00 00 00 00 00 00 00 00 00 00  |................|
 F520  00 00 00 00 00 00 00 00 00 00 00 00 00 00 00 00  |................|
 F530  00 00 00 00 00 00 00 00 00 00 00 00 00 00 00 00  |................|
 F540  00 00 00 00 00 00 00 00 00 00 00 00 00 00 00 00  |................|
 F550  00 00 00 00 00 00 00 00 00 00 00 00 00 00 00 00  |................|
 F560  00 00 00 00 00 00 00 00 00 00 00 00 00 00 00 00  |................|
 F570  00 00 00 00 00 00 00 00 00 00 00 00 00 00 00 00  |................|
 F580  00 00 00 00 00 00 00 00 00 00 00 00 00 00 00 00  |................|
 F590  00 00 00 00 00 00 00 00 00 00 00 00 00 00 00 00  |................|
 F5A0  00 00 00 00 00 00 00 00 00 00 00 00 00 00 00 00  |................|
 F5B0  00 00 00 00 00 00 00 00 00 00 00 00 00 00 00 00  |................|
 F5C0  00 00 00 00 00 00 00 00 00 00 00 00 00 00 00 00  |................|
 F5D0  00 00 00 00 00 00 00 00 00 00 00 00 00 00 00 00  |................|
 F5E0  00 00 00 00 00 00 00 00 00 00 00 00 00 00 00 00  |................|
 F5F0  00 00 00 00 00 00 00 00 00 00 00 00 00 00 00 00  |................|
 F600  00 00 00 00 00 00 00 00 00 00 00 00 00 00 00 00  |................|
 F610  00 00 00 00 00 00 00 00 00 00 00 00 00 00 00 00  |................|
 F620  00 00 00 00 00 00 00 00 00 00 00 00 00 00 00 00  |................|
 F630  00 00 00 00 00 00 00 00 00 00 00 00 00 00 00 00  |................|
 F640  00 00 00 00 00 00 00 00 00 00 00 00 00 00 00 00  |................|
 F650  00 00 00 00 00 00 00 00 00 00 00 00 00 00 00 00  |................|
 F660  00 00 00 00 00 00 00 00 00 00 00 00 00 00 00 00  |................|
 F670  00 00 00 00 00 00 00 00 00 00 00 00 00 00 00 00  |................|
 F680  00 00 00 00 00 00 00 00 00 00 00 00 00 00 00 00  |................|
 F690  00 00 00 00 00 00 00 00 00 00 00 00 00 00 00 00  |................|
 F6A0  00 00 00 00 00 00 00 00 00 00 00 00 00 00 00 00  |................|
 F6B0  00 00 00 00 00 00 00 00 00 00 00 00 00 00 00 00  |................|
 F6C0  00 00 00 00 00 00 00 00 00 00 00 00 00 00 00 00  |................|
 F6D0  00 00 00 00 00 00 00 00 00 00 00 00 00 00 00 00  |................|
 F6E0  00 00 00 00 00 00 00 00 00 00 00 00 00 00 00 00  |................|
 F6F0  00 00 00 00 00 00 00 00 00 00 00 00 00 00 00 00  |................|
 F700  00 00 00 00 00 00 00 00 00 00 00 00 00 00 00 00  |................|
 F710  00 00 00 00 00 00 00 00 00 00 00 00 00 00 00 00  |................|
 F720  00 00 00 00 00 00 00 00 00 00 00 00 00 00 00 00  |................|
 F730  00 00 00 00 00 00 00 00 00 00 00 00 00 00 00 00  |................|
 F740  00 00 00 00 00 00 00 00 00 00 00 00 00 00 00 00  |................|
 F750  00 00 00 00 00 00 00 00 00 00 00 00 00 00 00 00  |................|
 F760  00 00 00 00 00 00 00 00 00 00 00 00 00 00 00 00  |................|
 F770  00 00 00 00 00 00 00 00 00 00 00 00 00 00 00 00  |................|
 F780  00 00 00 00 00 00 00 00 00 00 00 00 00 00 00 00  |................|
 F790  00 00 00 00 00 00 00 00 00 00 00 00 00 00 00 00  |................|
 F7A0  00 00 00 00 00 00 00 00 00 00 00 00 00 00 00 00  |................|
 F7B0  00 00 00 00 00 00 00 00 00 00 00 00 00 00 00 00  |................|
 F7C0  00 00 00 00 00 00 00 00 00 00 00 00 00 00 00 00  |................|
 F7D0  00 00 00 00 00 00 00 00 00 00 00 00 00 00 00 00  |................|
 F7E0  00 00 00 00 00 00 00 00 00 00 00 00 00 00 00 00  |................|
 F7F0  00 00 00 00 00 00 00 00 00 00 00 00 00 00 00 00  |................|
 F800  00 00 00 00 00 00 00 00 00 00 00 00 00 00 00 00  |................|
 F810  00 00 00 00 00 00 00 00 00 00 00 00 00 00 00 00  |................|
 F820  00 00 00 00 00 00 00 00 00 00 00 00 00 00 00 00  |................|
 F830  00 00 00 00 00 00 00 00 00 00 00 00 00 00 00 00  |................|
 F840  00 00 00 00 00 00 00 00 00 00 00 00 00 00 00 00  |................|
 F850  00 00 00 00 00 00 00 00 00 00 00 00 00 00 00 00  |................|
 F860  00 00 00 00 00 00 00 00 00 00 00 00 00 00 00 00  |................|
 F870  00 00 00 00 00 00 00 00 00 00 00 00 00 00 00 00  |................|
 F880  00 00 00 00 00 00 00 00 00 00 00 00 00 00 00 00  |................|
 F890  00 00 00 00 00 00 00 00 00 00 00 00 00 00 00 00  |................|
 F8A0  00 00 00 00 00 00 00 00 00 00 00 00 00 00 00 00  |................|
 F8B0  00 00 00 00 00 00 00 00 00 00 00 00 00 00 00 00  |................|
 F8C0  00 00 00 00 00 00 00 00 00 00 00 00 00 00 00 00  |................|
 F8D0  00 00 00 00 00 00 00 00 00 00 00 00 00 00 00 00  |................|
 F8E0  00 00 00 00 00 00 00 00 00 00 00 00 00 00 00 00  |................|
 F8F0  00 00 00 00 00 00 00 00 00 00 00 00 00 00 00 00  |................|
 F900  00 00 00 00 00 00 00 00 00 00 00 00 00 00 00 00  |................|
 F910  00 00 00 00 00 00 00 00 00 00 00 00 00 00 00 00  |................|
 F920  00 00 00 00 00 00 00 00 00 00 00 00 00 00 00 00  |................|
 F930  00 00 00 00 00 00 00 00 00 00 00 00 00 00 00 00  |................|
 F940  00 00 00 00 00 00 00 00 00 00 00 00 00 00 00 00  |................|
 F950  00 00 00 00 00 00 00 00 00 00 00 00 00 00 00 00  |................|
 F960  00 00 00 00 00 00 00 00 00 00 00 00 00 00 00 00  |................|
 F970  00 00 00 00 00 00 00 00 00 00 00 00 00 00 00 00  |................|
 F980  00 00 00 00 00 00 00 00 00 00 00 00 00 00 00 00  |................|
 F990  00 00 00 00 00 00 00 00 00 00 00 00 00 00 00 00  |................|
 F9A0  00 00 00 00 00 00 00 00 00 00 00 00 00 00 00 00  |................|
 F9B0  00 00 00 00 00 00 00 00 00 00 00 00 00 00 00 00  |................|
 F9C0  00 00 00 00 00 00 00 00 00 00 00 00 00 00 00 00  |................|
 F9D0  00 00 00 00 00 00 00 00 00 00 00 00 00 00 00 00  |................|
 F9E0  00 00 00 00 00 00 00 00 00 00 00 00 00 00 00 00  |................|
 F9F0  00 00 00 00 00 00 00 00 00 00 00 00 00 00 00 00  |................|
 FA00  00 00 00 00 00 00 00 00 00 00 00 00 00 00 00 00  |................|
 FA10  00 00 00 00 00 00 00 00 00 00 00 00 00 00 00 00  |................|
 FA20  00 00 00 00 00 00 00 00 00 00 00 00 00 00 00 00  |................|
 FA30  00 00 00 00 00 00 00 00 00 00 00 00 00 00 00 00  |................|
 FA40  00 00 00 00 00 00 00 00 00 00 00 00 00 00 00 00  |................|
 FA50  00 00 00 00 00 00 00 00 00 00 00 00 00 00 00 00  |................|
 FA60  00 00 00 00 00 00 00 00 00 00 00 00 00 00 00 00  |................|
 FA70  00 00 00 00 00 00 00 00 00 00 00 00 00 00 00 00  |................|
 FA80  00 00 00 00 00 00 00 00 00 00 00 00 00 00 00 00  |................|
 FA90  00 00 00 00 00 00 00 00 00 00 00 00 00 00 00 00  |................|
 FAA0  00 00 00 00 00 00 00 00 00 00 00 00 00 00 00 00  |................|
 FAB0  00 00 00 00 00 00 00 00 00 00 00 00 00 00 00 00  |................|
 FAC0  00 00 00 00 00 00 00 00 00 00 00 00 00 00 00 00  |................|
 FAD0  00 00 00 00 00 00 00 00 00 00 00 00 00 00 00 00  |................|
 FAE0  00 00 00 00 00 00 00 00 00 00 00 00 00 00 00 00  |................|
 FAF0  00 00 00 00 00 00 00 00 00 00 00 00 00 00 00 00  |................|
 FB00  00 00 00 00 00 00 00 00 00 00 00 00 00 00 00 00  |................|
 FB10  00 00 00 00 00 00 00 00 00 00 00 00 00 00 00 00  |................|
 FB20  00 00 00 00 00 00 00 00 00 00 00 00 00 00 00 00  |................|
 FB30  00 00 00 00 00 00 00 00 00 00 00 00 00 00 00 00  |................|
 FB40  00 00 00 00 00 00 00 00 00 00 00 00 00 00 00 00  |................|
 FB50  00 00 00 00 00 00 00 00 00 00 00 00 00 00 00 00  |................|
 FB60  00 00 00 00 00 00 00 00 00 00 00 00 00 00 00 00  |................|
 FB70  00 00 00 00 00 00 00 00 00 00 00 00 00 00 00 00  |................|
 FB80  00 00 00 00 00 00 00 00 00 00 00 00 00 00 00 00  |................|
 FB90  00 00 00 00 00 00 00 00 00 00 00 00 00 00 00 00  |................|
 FBA0  00 00 00 00 00 00 00 00 00 00 00 00 00 00 00 00  |................|
 FBB0  00 00 00 00 00 00 00 00 00 00 00 00 00 00 00 00  |................|
 FBC0  00 00 00 00 00 00 00 00 00 00 00 00 00 00 00 00  |................|
 FBD0  00 00 00 00 00 00 00 00 00 00 00 00 00 00 00 00  |................|
 FBE0  00 00 00 00 00 00 00 00 00 00 00 00 00 00 00 00  |................|
 FBF0  00 00 00 00 00 00 00 00 00 00 00 00 00 00 00 00  |................|
 FC00  00 00 00 00 00 00 00 00 00 00 00 00 00 00 00 00  |................|
 FC10  00 00 00 00 00 00 00 00 00 00 00 00 00 00 00 00  |................|
 FC20  00 00 00 00 00 00 00 00 00 00 00 00 00 00 00 00  |................|
 FC30  00 00 00 00 00 00 00 00 00 00 00 00 00 00 00 00  |................|
 FC40  00 00 00 00 00 00 00 00 00 00 00 00 00 00 00 00  |................|
 FC50  00 00 00 00 00 00 00 00 00 00 00 00 00 00 00 00  |................|
 FC60  00 00 00 00 00 00 00 00 00 00 00 00 00 00 00 00  |................|
 FC70  00 00 00 00 00 00 00 00 00 00 00 00 00 00 00 00  |................|
 FC80  00 00 00 00 00 00 00 00 00 00 00 00 00 00 00 00  |................|
 FC90  00 00 00 00 00 00 00 00 00 00 00 00 00 00 00 00  |................|
 FCA0  00 00 00 00 00 00 00 00 00 00 00 00 00 00 00 00  |................|
 FCB0  00 00 00 00 00 00 00 00 00 00 00 00 00 00 00 00  |................|
 FCC0  00 00 00 00 00 00 00 00 00 00 00 00 00 00 00 00  |................|
 FCD0  00 00 00 00 00 00 00 00 00 00 00 00 00 00 00 00  |................|
 FCE0  00 00 00 00 00 00 00 00 00 00 00 00 00 00 00 00  |................|
 FCF0  00 00 00 00 00 00 00 00 00 00 00 00 00 00 00 00  |................|
 FD00  00 00 00 00 00 00 00 00 00 00 00 00 00 00 00 00  |................|
 FD10  00 00 00 00 00 00 00 00 00 00 00 00 00 00 00 00  |................|
 FD20  00 00 00 00 00 00 00 00 00 00 00 00 00 00 00 00  |................|
 FD30  00 00 00 00 00 00 00 00 00 00 00 00 00 00 00 00  |................|
 FD40  00 00 00 00 00 00 00 00 00 00 00 00 00 00 00 00  |................|
 FD50  00 00 00 00 00 00 00 00 00 00 00 00 00 00 00 00  |................|
 FD60  00 00 00 00 00 00 00 00 00 00 00 00 00 00 00 00  |................|
 FD70  00 00 00 00 00 00 00 00 00 00 00 00 00 00 00 00  |................|
 FD80  00 00 00 00 00 00 00 00 00 00 00 00 00 00 00 00  |................|
 FD90  00 00 00 00 00 00 00 00 00 00 00 00 00 00 00 00  |................|
 FDA0  00 00 00 00 00 00 00 00 00 00 00 00 00 00 00 00  |................|
 FDB0  00 00 00 00 00 00 00 00 00 00 00 00 00 00 00 00  |................|
 FDC0  00 00 00 00 00 00 00 00 00 00 00 00 00 00 00 00  |................|
 FDD0  00 00 00 00 00 00 00 00 00 00 00 00 00 00 00 00  |................|
 FDE0  00 00 00 00 00 00 00 00 00 00 00 00 00 00 00 00  |................|
 FDF0  00 00 00 00 00 00 00 00 00 00 00 00 00 00 00 00  |................|
 FE00  00 00 00 00 00 00 00 00 00 00 00 00 00 00 00 00  |................|
 FE10  00 00 00 00 00 00 00 00 00 00 00 00 00 00 00 00  |................|
 FE20  00 00 00 00 00 00 00 00 00 00 00 00 00 00 00 00  |................|
 FE30  00 00 00 00 00 00 00 00 00 00 00 00 00 00 00 00  |................|
 FE40  00 00 00 00 00 00 00 00 00 00 00 00 00 00 00 00  |................|
 FE50  00 00 00 00 00 00 00 00 00 00 00 00 00 00 00 00  |................|
 FE60  00 00 00 00 00 00 00 00 00 00 00 00 00 00 00 00  |................|
 FE70  00 00 00 00 00 00 00 00 00 00 00 00 00 00 00 00  |................|
 FE80  00 00 00 00 00 00 00 00 00 00 00 00 00 00 00 00  |................|
 FE90  00 00 00 00 00 00 00 00 00 00 00 00 00 00 00 00  |................|
 FEA0  00 00 00 00 00 00 00 00 00 00 00 00 00 00 00 00  |................|
 FEB0  00 00 00 00 00 00 00 00 00 00 00 00 00 00 00 00  |................|
 FEC0  00 00 00 00 00 00 00 00 00 00 00 00 00 00 00 00  |................|
 FED0  00 00 00 00 00 00 00 00 00 00 00 00 00 00 00 00  |................|
 FEE0  00 00 00 00 00 00 00 00 00 00 00 00 00 00 00 00  |................|
 FEF0  00 00 00 00 00 00 00 00 00 00 00 00 00 00 00 00  |................|
 FF00  00 00 00 00 00 00 00 00 00 00 00 00 00 00 00 00  |................|
 FF10  00 00 00 00 00 00 00 00 00 00 00 00 00 00 00 00  |................|
 FF20  00 00 00 00 00 00 00 00 00 00 00 00 00 00 00 00  |................|
 FF30  00 00 00 00 00 00 00 00 00 00 00 00 00 00 00 00  |................|
 FF40  00 00 00 00 00 00 00 00 00 00 00 00 00 00 00 00  |................|
 FF50  00 00 00 00 00 00 00 00 00 00 00 00 00 00 00 00  |................|
 FF60  00 00 00 00 00 00 00 00 00 00 00 00 00 00 00 00  |................|
 FF70  00 00 00 00 00 00 00 00 00 00 00 00 00 00 00 00  |................|
 FF80  00 00 00 00 00 00 00 00 00 00 00 00 00 00 00 00  |................|
 FF90  00 00 00 00 00 00 00 00 00 00 00 00 00 00 00 00  |................|
 FFA0  00 00 00 00 00 00 00 00 00 00 00 00 00 00 00 00  |................|
 FFB0  00 00 00 00 00 00 00 00 00 00 00 00 00 00 00 00  |................|
 FFC0  00 00 00 00 00 00 00 00 00 00 00 00 00 00 00 00  |................|
 FFD0  00 00 00 00 00 00 00 00 00 00 00 00 00 00 00 00  |................|
 FFE0  00 00 00 00 00 00 00 00 00 00 00 00 00 00 00 00  |................|
 FFF0  00 00 00 00 00 00 00 00 00 00 06 F0 06 F0 06 F0  |................|
