 8000  78        SEI  
 8001  D8        CLD  
 8002  A9 1C     LDA  #$1C
 8004  85 10     STA  $10
 8006  A9 F0     LDA  #$F0
 8008  85 11     STA  $11
 800A  A9 16     LDA  #$16
 800C  85 12     STA  $12
 800E  A9 F0     LDA  #$F0
 8010  85 13     STA  $13
 8012  A2 FF     LDX  #$FF
 8014  9A        TXS  
 8015  A2 78     LDX  #$78
 8017  A9 0A     LDA  #$0A
 8019  85 18     STA  $18
 801B  64 19     STZ  $19
 801D  A9 00     LDA  #$00
 801F  85 1A     STA  $1A
 8021  64 1B     STZ  $1B
 8023  A9 FF     LDA  #$FF
 8025  85 00     STA  $00
 8027  A9 02     LDA  #$02
 8029  85 01     STA  $01
 802B  A9 00     LDA  #$00
 802D  85 08     STA  $08
 802F  A9 02     LDA  #$02
 8031  85 09     STA  $09
 8033  64 0A     STZ  $0A
 8035  64 0B     STZ  $0B
 8037  64 06     STZ  $06
 8039  64 07     STZ  $07
 803B  64 16     STZ  $16
 803D  64 17     STZ  $17
 803F  A9 81     LDA  #$81
 8041  85 02     STA  $02
 8043  A9 A9     LDA  #$A9
 8045  85 03     STA  $03
 8047  20 07 85  JSR  $8507
 804A  CA        DEX  
 804B  CA        DEX  
 804C  CA        DEX  
 804D  CA        DEX  
 804E  A9 0D     LDA  #$0D
 8050  95 02     STA  $02, X
 8052  A9 9A     LDA  #$9A
 8054  95 03     STA  $03, X
 8056  A9 13     LDA  #$13
 8058  38        SEC  
 8059  E9 0D     SBC  #$0D
 805B  95 00     STA  $00, X
 805D  A9 9F     LDA  #$9F
 805F  E9 9A     SBC  #$9A
 8061  95 01     STA  $01, X
 8063  20 16 89  JSR  $8916
 8066  CA        DEX  
 8067  CA        DEX  
 8068  CA        DEX  
 8069  CA        DEX  
 806A  A9 13     LDA  #$13
 806C  95 02     STA  $02, X
 806E  A9 9F     LDA  #$9F
 8070  95 03     STA  $03, X
 8072  A9 90     LDA  #$90
 8074  38        SEC  
 8075  E9 13     SBC  #$13
 8077  95 00     STA  $00, X
 8079  A9 A0     LDA  #$A0
 807B  E9 9F     SBC  #$9F
 807D  95 01     STA  $01, X
 807F  20 16 89  JSR  $8916
 8082  A2 78     LDX  #$78
 8084  8A        TXA  
 8085  A2 FF     LDX  #$FF
 8087  9A        TXS  
 8088  AA        TAX  
 8089  64 0E     STZ  $0E
 808B  64 0F     STZ  $0F
 808D  64 06     STZ  $06
 808F  64 07     STZ  $07
 8091  64 16     STZ  $16
 8093  64 17     STZ  $17
 8095  A9 00     LDA  #$00
 8097  85 08     STA  $08
 8099  A9 02     LDA  #$02
 809B  85 09     STA  $09
 809D  64 0A     STZ  $0A
 809F  64 0B     STZ  $0B
 80A1  20 2C 92  JSR  $922C
 80A4  B5 00     LDA  $00, X
 80A6  D0 05     BNE  $80AD
 80A8  A9 08     LDA  #$08
 80AA  4C 7D AC  JMP  $AC7D
 80AD  E8        INX  
 80AE  E8        INX  
 80AF  64 0C     STZ  $0C
 80B1  64 0D     STZ  $0D
 80B3  20 10 AC  JSR  $AC10
 80B6  E0 78     CPX  #$78
 80B8  F0 07     BEQ  $80C1
 80BA  90 05     BCC  $80C1
 80BC  A9 0B     LDA  #$0B
 80BE  4C 7D AC  JMP  $AC7D
 80C1  A5 16     LDA  $16
 80C3  F0 02     BEQ  $80C7
 80C5  A9 01     LDA  #$01
 80C7  20 90 AC  JSR  $AC90
 80CA  80 C9     BRA  $8095
 80CC  20 B1 92  JSR  $92B1
 80CF  A9 80     LDA  #$80
 80D1  48        PHA  
 80D2  A9 D9     LDA  #$D9
 80D4  48        PHA  
 80D5  20 5A AB  JSR  $AB5A
 80D8  60        RTS  
 80D9  B5 04     LDA  $04, X
 80DB  15 05     ORA  $05, X
 80DD  F0 09     BEQ  $80E8
 80DF  20 75 97  JSR  $9775
 80E2  20 07 85  JSR  $8507
 80E5  4C 82 80  JMP  $8082
 80E8  8A        TXA  
 80E9  18        CLC  
 80EA  69 06     ADC  #$06
 80EC  AA        TAX  
 80ED  60        RTS  
 80EE  E0 77     CPX  #$77
 80F0  30 05     BMI  $80F7
 80F2  A9 0B     LDA  #$0B
 80F4  4C 7D AC  JMP  $AC7D
 80F7  B5 01     LDA  $01, X
 80F9  10 0D     BPL  $8108
 80FB  38        SEC  
 80FC  A9 00     LDA  #$00
 80FE  F5 00     SBC  $00, X
 8100  95 00     STA  $00, X
 8102  A9 00     LDA  #$00
 8104  F5 01     SBC  $01, X
 8106  95 01     STA  $01, X
 8108  60        RTS  
 8109  E0 75     CPX  #$75
 810B  30 05     BMI  $8112
 810D  A9 0B     LDA  #$0B
 810F  4C 7D AC  JMP  $AC7D
 8112  B5 00     LDA  $00, X
 8114  15 01     ORA  $01, X
 8116  D0 08     BNE  $8120
 8118  E8        INX  
 8119  E8        INX  
 811A  74 00     STZ  $00, X
 811C  74 01     STZ  $01, X
 811E  80 54     BRA  $8174
 8120  B5 00     LDA  $00, X
 8122  85 20     STA  $20
 8124  64 21     STZ  $21
 8126  B5 02     LDA  $02, X
 8128  85 1E     STA  $1E
 812A  B5 03     LDA  $03, X
 812C  85 1F     STA  $1F
 812E  E8        INX  
 812F  E8        INX  
 8130  A0 00     LDY  #$00
 8132  20 B8 8B  JSR  $8BB8
 8135  C9 0A     CMP  #$0A
 8137  F0 16     BEQ  $814F
 8139  C9 0D     CMP  #$0D
 813B  F0 12     BEQ  $814F
 813D  C9 08     CMP  #$08
 813F  F0 17     BEQ  $8158
 8141  C9 7F     CMP  #$7F
 8143  F0 13     BEQ  $8158
 8145  20 98 88  JSR  $8898
 8148  91 1E     STA  ($1E), Y
 814A  C8        INY  
 814B  C4 20     CPY  $20
 814D  D0 E3     BNE  $8132
 814F  94 00     STY  $00, X
 8151  74 01     STZ  $01, X
 8153  20 78 94  JSR  $9478
 8156  80 1C     BRA  $8174
 8158  C0 00     CPY  #$00
 815A  D0 06     BNE  $8162
 815C  A9 07     LDA  #$07
 815E  20 98 88  JSR  $8898
 8161  C8        INY  
 8162  88        DEY  
 8163  A9 08     LDA  #$08
 8165  20 98 88  JSR  $8898
 8168  A9 20     LDA  #$20
 816A  20 98 88  JSR  $8898
 816D  A9 08     LDA  #$08
 816F  20 98 88  JSR  $8898
 8172  80 BE     BRA  $8132
 8174  60        RTS  
 8175  E0 77     CPX  #$77
 8177  30 05     BMI  $817E
 8179  A9 0B     LDA  #$0B
 817B  4C 7D AC  JMP  $AC7D
 817E  A0 00     LDY  #$00
 8180  A9 4C     LDA  #$4C
 8182  91 00     STA  ($00), Y
 8184  C8        INY  
 8185  B5 00     LDA  $00, X
 8187  91 00     STA  ($00), Y
 8189  C8        INY  
 818A  B5 01     LDA  $01, X
 818C  91 00     STA  ($00), Y
 818E  C8        INY  
 818F  98        TYA  
 8190  18        CLC  
 8191  65 00     ADC  $00
 8193  85 00     STA  $00
 8195  90 02     BCC  $8199
 8197  E6 01     INC  $01
 8199  E8        INX  
 819A  E8        INX  
 819B  60        RTS  
 819C  60        RTS  
 819D  E0 77     CPX  #$77
 819F  30 05     BMI  $81A6
 81A1  A9 0B     LDA  #$0B
 81A3  4C 7D AC  JMP  $AC7D
 81A6  B5 00     LDA  $00, X
 81A8  15 01     ORA  $01, X
 81AA  F0 49     BEQ  $81F5
 81AC  B5 01     LDA  $01, X
 81AE  30 25     BMI  $81D5
 81B0  18        CLC  
 81B1  B5 00     LDA  $00, X
 81B3  65 00     ADC  $00
 81B5  85 00     STA  $00
 81B7  B5 01     LDA  $01, X
 81B9  65 01     ADC  $01
 81BB  85 01     STA  $01
 81BD  38        SEC  
 81BE  A9 FF     LDA  #$FF
 81C0  E5 00     SBC  $00
 81C2  A9 7F     LDA  #$7F
 81C4  E5 01     SBC  $01
 81C6  10 2D     BPL  $81F5
 81C8  A9 FF     LDA  #$FF
 81CA  85 00     STA  $00
 81CC  A9 7F     LDA  #$7F
 81CE  85 01     STA  $01
 81D0  A9 01     LDA  #$01
 81D2  4C 7D AC  JMP  $AC7D
 81D5  18        CLC  
 81D6  A5 00     LDA  $00
 81D8  75 00     ADC  $00, X
 81DA  85 00     STA  $00
 81DC  A5 01     LDA  $01
 81DE  75 01     ADC  $01, X
 81E0  85 01     STA  $01
 81E2  38        SEC  
 81E3  A9 FF     LDA  #$FF
 81E5  E5 00     SBC  $00
 81E7  A9 02     LDA  #$02
 81E9  E5 01     SBC  $01
 81EB  30 08     BMI  $81F5
 81ED  A9 FF     LDA  #$FF
 81EF  85 00     STA  $00
 81F1  A9 02     LDA  #$02
 81F3  85 01     STA  $01
 81F5  E8        INX  
 81F6  E8        INX  
 81F7  60        RTS  
 81F8  A0 01     LDY  #$01
 81FA  B1 02     LDA  ($02), Y
 81FC  09 02     ORA  #$02
 81FE  91 02     STA  ($02), Y
 8200  60        RTS  
 8201  E0 75     CPX  #$75
 8203  30 05     BMI  $820A
 8205  A9 0B     LDA  #$0B
 8207  4C 7D AC  JMP  $AC7D
 820A  B5 00     LDA  $00, X
 820C  35 02     AND  $02, X
 820E  95 02     STA  $02, X
 8210  B5 01     LDA  $01, X
 8212  35 03     AND  $03, X
 8214  95 03     STA  $03, X
 8216  E8        INX  
 8217  E8        INX  
 8218  60        RTS  
 8219  E0 75     CPX  #$75
 821B  30 05     BMI  $8222
 821D  A9 0B     LDA  #$0B
 821F  4C 7D AC  JMP  $AC7D
 8222  A9 1B     LDA  #$1B
 8224  20 98 88  JSR  $8898
 8227  A9 5B     LDA  #$5B
 8229  20 98 88  JSR  $8898
 822C  20 AF AC  JSR  $ACAF
 822F  A9 3B     LDA  #$3B
 8231  20 98 88  JSR  $8898
 8234  20 AF AC  JSR  $ACAF
 8237  A9 48     LDA  #$48
 8239  20 98 88  JSR  $8898
 823C  60        RTS  
 823D  A5 0A     LDA  $0A
 823F  85 0C     STA  $0C
 8241  A5 0B     LDA  $0B
 8243  85 0D     STA  $0D
 8245  60        RTS  
 8246  CA        DEX  
 8247  CA        DEX  
 8248  A9 18     LDA  #$18
 824A  95 00     STA  $00, X
 824C  A9 00     LDA  #$00
 824E  95 01     STA  $01, X
 8250  60        RTS  
 8251  CA        DEX  
 8252  CA        DEX  
 8253  A5 00     LDA  $00
 8255  95 00     STA  $00, X
 8257  A5 01     LDA  $01
 8259  95 01     STA  $01, X
 825B  60        RTS  
 825C  A9 07     LDA  #$07
 825E  20 98 88  JSR  $8898
 8261  60        RTS  
 8262  CA        DEX  
 8263  CA        DEX  
 8264  A9 20     LDA  #$20
 8266  95 00     STA  $00, X
 8268  74 01     STZ  $01, X
 826A  60        RTS  
 826B  E0 75     CPX  #$75
 826D  30 05     BMI  $8274
 826F  A9 0B     LDA  #$0B
 8271  4C 7D AC  JMP  $AC7D
 8274  18        CLC  
 8275  B5 00     LDA  $00, X
 8277  B4 02     LDY  $02, X
 8279  75 02     ADC  $02, X
 827B  95 02     STA  $02, X
 827D  94 00     STY  $00, X
 827F  B5 01     LDA  $01, X
 8281  B4 03     LDY  $03, X
 8283  75 03     ADC  $03, X
 8285  95 03     STA  $03, X
 8287  94 01     STY  $01, X
 8289  60        RTS  
 828A  20 06 83  JSR  $8306
 828D  20 00 8C  JSR  $8C00
 8290  60        RTS  
 8291  20 06 95  JSR  $9506
 8294  20 00 8C  JSR  $8C00
 8297  60        RTS  
 8298  A9 82     LDA  #$82
 829A  48        PHA  
 829B  A9 A2     LDA  #$A2
 829D  48        PHA  
 829E  20 5A AB  JSR  $AB5A
 82A1  60        RTS  
 82A2  68        PLA  
 82A3  85 1C     STA  $1C
 82A5  68        PLA  
 82A6  85 1D     STA  $1D
 82A8  A0 01     LDY  #$01
 82AA  B1 1C     LDA  ($1C), Y
 82AC  85 1E     STA  $1E
 82AE  C8        INY  
 82AF  B1 1C     LDA  ($1C), Y
 82B1  85 1F     STA  $1F
 82B3  6C 1E 00  JMP  ($001E)
 82B6  00        BRK  
 82B7  60        RTS  
 82B8  E0 77     CPX  #$77
 82BA  30 05     BMI  $82C1
 82BC  A9 0B     LDA  #$0B
 82BE  4C 7D AC  JMP  $AC7D
 82C1  B5 00     LDA  $00, X
 82C3  92 00     STA  ($00)
 82C5  E6 00     INC  $00
 82C7  D0 02     BNE  $82CB
 82C9  E6 01     INC  $01
 82CB  E8        INX  
 82CC  E8        INX  
 82CD  60        RTS  
 82CE  E0 77     CPX  #$77
 82D0  30 05     BMI  $82D7
 82D2  A9 0B     LDA  #$0B
 82D4  4C 7D AC  JMP  $AC7D
 82D7  A1 00     LDA  ($00, X)
 82D9  95 00     STA  $00, X
 82DB  74 01     STZ  $01, X
 82DD  60        RTS  
 82DE  E0 75     CPX  #$75
 82E0  30 05     BMI  $82E7
 82E2  A9 0B     LDA  #$0B
 82E4  4C 7D AC  JMP  $AC7D
 82E7  B5 02     LDA  $02, X
 82E9  81 00     STA  ($00, X)
 82EB  E8        INX  
 82EC  E8        INX  
 82ED  E8        INX  
 82EE  E8        INX  
 82EF  60        RTS  
 82F0  E0 77     CPX  #$77
 82F2  30 05     BMI  $82F9
 82F4  A9 0B     LDA  #$0B
 82F6  4C 7D AC  JMP  $AC7D
 82F9  F6 00     INC  $00, X
 82FB  D0 02     BNE  $82FF
 82FD  F6 01     INC  $01, X
 82FF  F6 00     INC  $00, X
 8301  D0 02     BNE  $8305
 8303  F6 01     INC  $01, X
 8305  60        RTS  
 8306  20 2D 90  JSR  $902D
 8309  B5 00     LDA  $00, X
 830B  15 01     ORA  $01, X
 830D  D0 05     BNE  $8314
 830F  A9 06     LDA  #$06
 8311  4C 7D AC  JMP  $AC7D
 8314  E8        INX  
 8315  E8        INX  
 8316  A1 00     LDA  ($00, X)
 8318  95 00     STA  $00, X
 831A  74 01     STZ  $01, X
 831C  60        RTS  
 831D  E0 77     CPX  #$77
 831F  30 05     BMI  $8326
 8321  A9 0B     LDA  #$0B
 8323  4C 7D AC  JMP  $AC7D
 8326  60        RTS  
 8327  E0 73     CPX  #$73
 8329  30 05     BMI  $8330
 832B  A9 0B     LDA  #$0B
 832D  4C 7D AC  JMP  $AC7D
 8330  B5 02     LDA  $02, X
 8332  85 20     STA  $20
 8334  B5 03     LDA  $03, X
 8336  85 21     STA  $21
 8338  B5 04     LDA  $04, X
 833A  85 1E     STA  $1E
 833C  B5 05     LDA  $05, X
 833E  85 1F     STA  $1F
 8340  A0 00     LDY  #$00
 8342  B5 01     LDA  $01, X
 8344  F0 0F     BEQ  $8355
 8346  B1 1E     LDA  ($1E), Y
 8348  91 20     STA  ($20), Y
 834A  C8        INY  
 834B  D0 F9     BNE  $8346
 834D  E6 1F     INC  $1F
 834F  E6 21     INC  $21
 8351  D6 01     DEC  $01, X
 8353  D0 F1     BNE  $8346
 8355  B5 00     LDA  $00, X
 8357  F0 09     BEQ  $8362
 8359  B1 1E     LDA  ($1E), Y
 835B  91 20     STA  ($20), Y
 835D  C8        INY  
 835E  D6 00     DEC  $00, X
 8360  D0 F7     BNE  $8359
 8362  8A        TXA  
 8363  18        CLC  
 8364  69 06     ADC  #$06
 8366  AA        TAX  
 8367  60        RTS  
 8368  E0 73     CPX  #$73
 836A  30 05     BMI  $8371
 836C  A9 0B     LDA  #$0B
 836E  4C 7D AC  JMP  $AC7D
 8371  B5 02     LDA  $02, X
 8373  85 20     STA  $20
 8375  B5 03     LDA  $03, X
 8377  18        CLC  
 8378  75 01     ADC  $01, X
 837A  85 21     STA  $21
 837C  B5 04     LDA  $04, X
 837E  85 1E     STA  $1E
 8380  B5 05     LDA  $05, X
 8382  18        CLC  
 8383  75 01     ADC  $01, X
 8385  85 1F     STA  $1F
 8387  F6 01     INC  $01, X
 8389  B4 00     LDY  $00, X
 838B  F0 0E     BEQ  $839B
 838D  88        DEY  
 838E  F0 07     BEQ  $8397
 8390  B1 1E     LDA  ($1E), Y
 8392  91 20     STA  ($20), Y
 8394  88        DEY  
 8395  D0 F9     BNE  $8390
 8397  B2 1E     LDA  ($1E)
 8399  92 20     STA  ($20)
 839B  C6 1F     DEC  $1F
 839D  C6 21     DEC  $21
 839F  D6 01     DEC  $01, X
 83A1  D0 EA     BNE  $838D
 83A3  8A        TXA  
 83A4  18        CLC  
 83A5  69 06     ADC  #$06
 83A7  AA        TAX  
 83A8  60        RTS  
 83A9  A5 16     LDA  $16
 83AB  05 17     ORA  $17
 83AD  F0 05     BEQ  $83B4
 83AF  A9 0A     LDA  #$0A
 83B1  4C 7D AC  JMP  $AC7D
 83B4  C6 16     DEC  $16
 83B6  C6 17     DEC  $17
 83B8  A5 03     LDA  $03
 83BA  48        PHA  
 83BB  A5 02     LDA  $02
 83BD  48        PHA  
 83BE  20 0D 85  JSR  $850D
 83C1  A5 02     LDA  $02
 83C3  85 04     STA  $04
 83C5  A5 03     LDA  $03
 83C7  85 05     STA  $05
 83C9  68        PLA  
 83CA  85 02     STA  $02
 83CC  68        PLA  
 83CD  85 03     STA  $03
 83CF  A5 00     LDA  $00
 83D1  38        SEC  
 83D2  E9 03     SBC  #$03
 83D4  85 00     STA  $00
 83D6  B0 02     BCS  $83DA
 83D8  C6 01     DEC  $01
 83DA  60        RTS  
 83DB  E0 77     CPX  #$77
 83DD  D0 05     BNE  $83E4
 83DF  A9 0B     LDA  #$0B
 83E1  4C 7D AC  JMP  $AC7D
 83E4  B5 00     LDA  $00, X
 83E6  92 00     STA  ($00)
 83E8  E6 00     INC  $00
 83EA  D0 02     BNE  $83EE
 83EC  E6 01     INC  $01
 83EE  B5 01     LDA  $01, X
 83F0  92 00     STA  ($00)
 83F2  E6 00     INC  $00
 83F4  D0 02     BNE  $83F8
 83F6  E6 01     INC  $01
 83F8  E8        INX  
 83F9  E8        INX  
 83FA  60        RTS  
 83FB  E0 77     CPX  #$77
 83FD  30 05     BMI  $8404
 83FF  A9 0B     LDA  #$0B
 8401  4C 7D AC  JMP  $AC7D
 8404  B5 01     LDA  $01, X
 8406  48        PHA  
 8407  B5 00     LDA  $00, X
 8409  48        PHA  
 840A  20 25 8B  JSR  $8B25
 840D  B5 00     LDA  $00, X
 840F  85 26     STA  $26
 8411  B5 01     LDA  $01, X
 8413  85 27     STA  $27
 8415  F6 00     INC  $00, X
 8417  D0 02     BNE  $841B
 8419  F6 01     INC  $01, X
 841B  A1 00     LDA  ($00, X)
 841D  85 1E     STA  $1E
 841F  29 02     AND  #$02
 8421  F0 0D     BEQ  $8430
 8423  A5 26     LDA  $26
 8425  95 00     STA  $00, X
 8427  A5 27     LDA  $27
 8429  95 01     STA  $01, X
 842B  20 20 99  JSR  $9920
 842E  80 16     BRA  $8446
 8430  A5 1E     LDA  $1E
 8432  29 08     AND  #$08
 8434  D0 40     BNE  $8476
 8436  A5 26     LDA  $26
 8438  95 00     STA  $00, X
 843A  A5 27     LDA  $27
 843C  95 01     STA  $01, X
 843E  20 20 99  JSR  $9920
 8441  18        CLC  
 8442  C5 1A     CMP  $1A
 8444  B0 30     BCS  $8476
 8446  CA        DEX  
 8447  CA        DEX  
 8448  CA        DEX  
 8449  CA        DEX  
 844A  B5 04     LDA  $04, X
 844C  95 00     STA  $00, X
 844E  B5 05     LDA  $05, X
 8450  95 01     STA  $01, X
 8452  68        PLA  
 8453  95 04     STA  $04, X
 8455  68        PLA  
 8456  95 05     STA  $05, X
 8458  A5 00     LDA  $00
 845A  95 02     STA  $02, X
 845C  A5 01     LDA  $01
 845E  95 03     STA  $03, X
 8460  B5 01     LDA  $01, X
 8462  48        PHA  
 8463  B5 00     LDA  $00, X
 8465  48        PHA  
 8466  20 C3 8D  JSR  $8DC3
 8469  18        CLC  
 846A  68        PLA  
 846B  65 00     ADC  $00
 846D  85 00     STA  $00
 846F  68        PLA  
 8470  65 01     ADC  $01
 8472  85 01     STA  $01
 8474  80 1A     BRA  $8490
 8476  A9 20     LDA  #$20
 8478  92 00     STA  ($00)
 847A  A0 01     LDY  #$01
 847C  68        PLA  
 847D  91 00     STA  ($00), Y
 847F  C8        INY  
 8480  68        PLA  
 8481  91 00     STA  ($00), Y
 8483  A9 03     LDA  #$03
 8485  18        CLC  
 8486  65 00     ADC  $00
 8488  85 00     STA  $00
 848A  90 02     BCC  $848E
 848C  E6 01     INC  $01
 848E  E8        INX  
 848F  E8        INX  
 8490  60        RTS  
 8491  A0 01     LDY  #$01
 8493  B1 02     LDA  ($02), Y
 8495  09 01     ORA  #$01
 8497  91 02     STA  ($02), Y
 8499  60        RTS  
 849A  E0 77     CPX  #$77
 849C  30 05     BMI  $84A3
 849E  A9 0B     LDA  #$0B
 84A0  4C 7D AC  JMP  $AC7D
 84A3  20 0D 85  JSR  $850D
 84A6  A5 00     LDA  $00
 84A8  E9 02     SBC  #$02
 84AA  85 1E     STA  $1E
 84AC  A5 01     LDA  $01
 84AE  E9 00     SBC  #$00
 84B0  85 1F     STA  $1F
 84B2  A9 89     LDA  #$89
 84B4  92 1E     STA  ($1E)
 84B6  E6 1E     INC  $1E
 84B8  D0 02     BNE  $84BC
 84BA  E6 1F     INC  $1F
 84BC  A9 AB     LDA  #$AB
 84BE  92 1E     STA  ($1E)
 84C0  20 DB 83  JSR  $83DB
 84C3  20 BB 8B  JSR  $8BBB
 84C6  B5 00     LDA  $00, X
 84C8  18        CLC  
 84C9  69 06     ADC  #$06
 84CB  85 1E     STA  $1E
 84CD  B5 01     LDA  $01, X
 84CF  69 00     ADC  #$00
 84D1  85 1F     STA  $1F
 84D3  B2 1E     LDA  ($1E)
 84D5  18        CLC  
 84D6  69 02     ADC  #$02
 84D8  85 20     STA  $20
 84DA  A0 01     LDY  #$01
 84DC  B1 1E     LDA  ($1E), Y
 84DE  69 00     ADC  #$00
 84E0  A8        TAY  
 84E1  E6 1E     INC  $1E
 84E3  D0 02     BNE  $84E7
 84E5  E6 1E     INC  $1E
 84E7  98        TYA  
 84E8  92 1E     STA  ($1E)
 84EA  E8        INX  
 84EB  E8        INX  
 84EC  60        RTS  
 84ED  E0 77     CPX  #$77
 84EF  30 05     BMI  $84F6
 84F1  A9 0B     LDA  #$0B
 84F3  4C 7D AC  JMP  $AC7D
 84F6  A1 00     LDA  ($00, X)
 84F8  A8        TAY  
 84F9  F6 00     INC  $00, X
 84FB  D0 02     BNE  $84FF
 84FD  F6 01     INC  $01, X
 84FF  98        TYA  
 8500  CA        DEX  
 8501  CA        DEX  
 8502  95 00     STA  $00, X
 8504  74 01     STZ  $01, X
 8506  60        RTS  
 8507  A9 0A     LDA  #$0A
 8509  20 98 88  JSR  $8898
 850C  60        RTS  
 850D  20 2D 90  JSR  $902D
 8510  B5 00     LDA  $00, X
 8512  15 01     ORA  $01, X
 8514  D0 05     BNE  $851B
 8516  A9 06     LDA  #$06
 8518  4C 7D AC  JMP  $AC7D
 851B  74 01     STZ  $01, X
 851D  B5 00     LDA  $00, X
 851F  85 20     STA  $20
 8521  A5 00     LDA  $00
 8523  85 1E     STA  $1E
 8525  A5 01     LDA  $01
 8527  85 1F     STA  $1F
 8529  B5 00     LDA  $00, X
 852B  18        CLC  
 852C  69 08     ADC  #$08
 852E  85 22     STA  $22
 8530  18        CLC  
 8531  69 03     ADC  #$03
 8533  95 00     STA  $00, X
 8535  74 01     STZ  $01, X
 8537  20 9D 81  JSR  $819D
 853A  A0 00     LDY  #$00
 853C  A5 20     LDA  $20
 853E  91 1E     STA  ($1E), Y
 8540  98        TYA  
 8541  C8        INY  
 8542  91 1E     STA  ($1E), Y
 8544  C8        INY  
 8545  A5 02     LDA  $02
 8547  91 1E     STA  ($1E), Y
 8549  C8        INY  
 854A  A5 03     LDA  $03
 854C  91 1E     STA  ($1E), Y
 854E  C8        INY  
 854F  A5 1F     LDA  $1F
 8551  85 03     STA  $03
 8553  A5 1E     LDA  $1E
 8555  85 02     STA  $02
 8557  18        CLC  
 8558  65 22     ADC  $22
 855A  91 1E     STA  ($1E), Y
 855C  48        PHA  
 855D  C8        INY  
 855E  A5 1F     LDA  $1F
 8560  69 00     ADC  #$00
 8562  91 1E     STA  ($1E), Y
 8564  C8        INY  
 8565  68        PLA  
 8566  18        CLC  
 8567  69 03     ADC  #$03
 8569  91 1E     STA  ($1E), Y
 856B  88        DEY  
 856C  B1 1E     LDA  ($1E), Y
 856E  69 00     ADC  #$00
 8570  C8        INY  
 8571  C8        INY  
 8572  91 1E     STA  ($1E), Y
 8574  C8        INY  
 8575  B5 00     LDA  $00, X
 8577  38        SEC  
 8578  E9 08     SBC  #$08
 857A  85 26     STA  $26
 857C  B5 01     LDA  $01, X
 857E  E9 00     SBC  #$00
 8580  85 27     STA  $27
 8582  B1 26     LDA  ($26), Y
 8584  91 1E     STA  ($1E), Y
 8586  C8        INY  
 8587  C6 20     DEC  $20
 8589  D0 F7     BNE  $8582
 858B  A9 20     LDA  #$20
 858D  91 1E     STA  ($1E), Y
 858F  C8        INY  
 8590  A9 D0     LDA  #$D0
 8592  91 1E     STA  ($1E), Y
 8594  C8        INY  
 8595  A9 AB     LDA  #$AB
 8597  91 1E     STA  ($1E), Y
 8599  E8        INX  
 859A  E8        INX  
 859B  60        RTS  
 859C  E0 71     CPX  #$71
 859E  30 05     BMI  $85A5
 85A0  A9 0B     LDA  #$0B
 85A2  4C 7D AC  JMP  $AC7D
 85A5  38        SEC  
 85A6  B5 06     LDA  $06, X
 85A8  F5 02     SBC  $02, X
 85AA  95 06     STA  $06, X
 85AC  B5 07     LDA  $07, X
 85AE  F5 03     SBC  $03, X
 85B0  95 07     STA  $07, X
 85B2  B5 04     LDA  $04, X
 85B4  F5 00     SBC  $00, X
 85B6  95 04     STA  $04, X
 85B8  B5 05     LDA  $05, X
 85BA  F5 01     SBC  $01, X
 85BC  95 05     STA  $05, X
 85BE  E8        INX  
 85BF  E8        INX  
 85C0  E8        INX  
 85C1  E8        INX  
 85C2  60        RTS  
 85C3  E0 71     CPX  #$71
 85C5  30 05     BMI  $85CC
 85C7  A9 0B     LDA  #$0B
 85C9  4C 7D AC  JMP  $AC7D
 85CC  18        CLC  
 85CD  B5 02     LDA  $02, X
 85CF  75 06     ADC  $06, X
 85D1  95 06     STA  $06, X
 85D3  B5 03     LDA  $03, X
 85D5  75 07     ADC  $07, X
 85D7  95 07     STA  $07, X
 85D9  B5 00     LDA  $00, X
 85DB  75 04     ADC  $04, X
 85DD  95 04     STA  $04, X
 85DF  B5 01     LDA  $01, X
 85E1  75 05     ADC  $05, X
 85E3  95 05     STA  $05, X
 85E5  E8        INX  
 85E6  E8        INX  
 85E7  E8        INX  
 85E8  E8        INX  
 85E9  60        RTS  
 85EA  E0 75     CPX  #$75
 85EC  30 05     BMI  $85F3
 85EE  A9 0B     LDA  #$0B
 85F0  4C 7D AC  JMP  $AC7D
 85F3  E8        INX  
 85F4  E8        INX  
 85F5  60        RTS  
 85F6  E0 75     CPX  #$75
 85F8  30 05     BMI  $85FF
 85FA  A9 0B     LDA  #$0B
 85FC  4C 7D AC  JMP  $AC7D
 85FF  B5 01     LDA  $01, X
 8601  10 17     BPL  $861A
 8603  A0 00     LDY  #$00
 8605  38        SEC  
 8606  98        TYA  
 8607  F5 02     SBC  $02, X
 8609  95 02     STA  $02, X
 860B  98        TYA  
 860C  F5 03     SBC  $03, X
 860E  95 03     STA  $03, X
 8610  98        TYA  
 8611  F5 00     SBC  $00, X
 8613  95 00     STA  $00, X
 8615  98        TYA  
 8616  F5 01     SBC  $01, X
 8618  95 01     STA  $01, X
 861A  60        RTS  
 861B  A9 0A     LDA  #$0A
 861D  85 18     STA  $18
 861F  64 19     STZ  $19
 8621  60        RTS  
 8622  20 0D 85  JSR  $850D
 8625  A5 00     LDA  $00
 8627  38        SEC  
 8628  E9 02     SBC  #$02
 862A  85 1E     STA  $1E
 862C  A5 01     LDA  $01
 862E  E9 00     SBC  #$00
 8630  85 1F     STA  $1F
 8632  A0 00     LDY  #$00
 8634  A9 9D     LDA  #$9D
 8636  91 1E     STA  ($1E), Y
 8638  C8        INY  
 8639  A9 AB     LDA  #$AB
 863B  91 1E     STA  ($1E), Y
 863D  A9 B1     LDA  #$B1
 863F  92 00     STA  ($00)
 8641  E6 00     INC  $00
 8643  D0 02     BNE  $8647
 8645  E6 01     INC  $01
 8647  A9 AB     LDA  #$AB
 8649  92 00     STA  ($00)
 864B  E6 00     INC  $00
 864D  D0 02     BNE  $8651
 864F  E6 01     INC  $01
 8651  20 C3 84  JSR  $84C3
 8654  60        RTS  
 8655  A9 78     LDA  #$78
 8657  86 24     STX  $24
 8659  38        SEC  
 865A  E5 24     SBC  $24
 865C  4A        LSR  
 865D  CA        DEX  
 865E  CA        DEX  
 865F  95 00     STA  $00, X
 8661  74 01     STZ  $01, X
 8663  60        RTS  
 8664  E0 77     CPX  #$77
 8666  30 05     BMI  $866D
 8668  A9 0B     LDA  #$0B
 866A  4C 7D AC  JMP  $AC7D
 866D  CA        DEX  
 866E  CA        DEX  
 866F  74 00     STZ  $00, X
 8671  74 01     STZ  $01, X
 8673  74 03     STZ  $03, X
 8675  B5 02     LDA  $02, X
 8677  C9 30     CMP  #$30
 8679  90 23     BCC  $869E
 867B  C9 3A     CMP  #$3A
 867D  90 12     BCC  $8691
 867F  C9 40     CMP  #$40
 8681  90 1B     BCC  $869E
 8683  C9 61     CMP  #$61
 8685  90 07     BCC  $868E
 8687  C9 7B     CMP  #$7B
 8689  B0 03     BCS  $868E
 868B  18        CLC  
 868C  69 E0     ADC  #$E0
 868E  38        SEC  
 868F  E9 07     SBC  #$07
 8691  38        SEC  
 8692  E9 30     SBC  #$30
 8694  C5 18     CMP  $18
 8696  B0 06     BCS  $869E
 8698  95 02     STA  $02, X
 869A  D6 00     DEC  $00, X
 869C  D6 01     DEC  $01, X
 869E  60        RTS  
 869F  E0 75     CPX  #$75
 86A1  30 05     BMI  $86A8
 86A3  A9 0B     LDA  #$0B
 86A5  4C 7D AC  JMP  $AC7D
 86A8  B5 02     LDA  $02, X
 86AA  49 FF     EOR  #$FF
 86AC  18        CLC  
 86AD  69 01     ADC  #$01
 86AF  95 02     STA  $02, X
 86B1  B5 03     LDA  $03, X
 86B3  49 FF     EOR  #$FF
 86B5  69 00     ADC  #$00
 86B7  95 03     STA  $03, X
 86B9  B5 00     LDA  $00, X
 86BB  49 FF     EOR  #$FF
 86BD  69 00     ADC  #$00
 86BF  95 00     STA  $00, X
 86C1  B5 01     LDA  $01, X
 86C3  49 FF     EOR  #$FF
 86C5  69 00     ADC  #$00
 86C7  95 01     STA  $01, X
 86C9  60        RTS  
 86CA  A9 FF     LDA  #$FF
 86CC  85 1E     STA  $1E
 86CE  80 02     BRA  $86D2
 86D0  64 1E     STZ  $1E
 86D2  CA        DEX  
 86D3  CA        DEX  
 86D4  A5 00     LDA  $00
 86D6  95 00     STA  $00, X
 86D8  A5 01     LDA  $01
 86DA  95 01     STA  $01, X
 86DC  A9 05     LDA  #$05
 86DE  A8        TAY  
 86DF  91 00     STA  ($00), Y
 86E1  88        DEY  
 86E2  10 FB     BPL  $86DF
 86E4  1A        INC  
 86E5  18        CLC  
 86E6  65 00     ADC  $00
 86E8  85 00     STA  $00
 86EA  90 02     BCC  $86EE
 86EC  E6 01     INC  $01
 86EE  A5 1E     LDA  $1E
 86F0  F0 17     BEQ  $8709
 86F2  A0 16     LDY  #$16
 86F4  5A        PHY  
 86F5  B9 4F 87  LDA  $874F, Y
 86F8  91 00     STA  ($00), Y
 86FA  88        DEY  
 86FB  10 F8     BPL  $86F5
 86FD  68        PLA  
 86FE  18        CLC  
 86FF  65 00     ADC  $00
 8701  85 00     STA  $00
 8703  A5 01     LDA  $01
 8705  69 00     ADC  #$00
 8707  85 01     STA  $01
 8709  A0 24     LDY  #$24
 870B  5A        PHY  
 870C  B9 2B 87  LDA  $872B, Y
 870F  91 00     STA  ($00), Y
 8711  88        DEY  
 8712  10 F8     BPL  $870C
 8714  68        PLA  
 8715  18        CLC  
 8716  65 00     ADC  $00
 8718  85 00     STA  $00
 871A  A5 01     LDA  $01
 871C  69 00     ADC  #$00
 871E  85 01     STA  $01
 8720  CA        DEX  
 8721  CA        DEX  
 8722  A5 00     LDA  $00
 8724  95 00     STA  $00, X
 8726  A5 01     LDA  $01
 8728  95 01     STA  $01, X
 872A  60        RTS  
 872B  38        SEC  
 872C  A9 00     LDA  #$00
 872E  F5 02     SBC  $02, X
 8730  95 02     STA  $02, X
 8732  A9 80     LDA  #$80
 8734  F5 03     SBC  $03, X
 8736  95 03     STA  $03, X
 8738  48        PHA  
 8739  B5 02     LDA  $02, X
 873B  48        PHA  
 873C  18        CLC  
 873D  B5 00     LDA  $00, X
 873F  75 02     ADC  $02, X
 8741  95 00     STA  $00, X
 8743  B5 01     LDA  $01, X
 8745  75 03     ADC  $03, X
 8747  48        PHA  
 8748  B5 00     LDA  $00, X
 874A  48        PHA  
 874B  E8        INX  
 874C  E8        INX  
 874D  E8        INX  
 874E  E8        INX  
 874F  20 91 96  JSR  $9691
 8752  20 9B 88  JSR  $889B
 8755  B5 00     LDA  $00, X
 8757  15 01     ORA  $01, X
 8759  F0 08     BEQ  $8763
 875B  8A        TXA  
 875C  18        CLC  
 875D  69 06     ADC  #$06
 875F  AA        TAX  
 8760  68        PLA  
 8761  68        PLA  
 8762  60        RTS  
 8763  E8        INX  
 8764  E8        INX  
 8765  A9 87     LDA  #$87
 8767  48        PHA  
 8768  A9 78     LDA  #$78
 876A  48        PHA  
 876B  20 5A AB  JSR  $AB5A
 876E  A9 AB     LDA  #$AB
 8770  48        PHA  
 8771  A9 B6     LDA  #$B6
 8773  48        PHA  
 8774  20 5A AB  JSR  $AB5A
 8777  60        RTS  
 8778  7A        PLY  
 8779  68        PLA  
 877A  C8        INY  
 877B  D0 01     BNE  $877E
 877D  1A        INC  
 877E  84 1E     STY  $1E
 8780  85 1F     STA  $1F
 8782  A5 02     LDA  $02
 8784  18        CLC  
 8785  69 04     ADC  #$04
 8787  85 20     STA  $20
 8789  A5 03     LDA  $03
 878B  69 00     ADC  #$00
 878D  85 21     STA  $21
 878F  B2 20     LDA  ($20)
 8791  18        CLC  
 8792  69 01     ADC  #$01
 8794  85 22     STA  $22
 8796  A0 01     LDY  #$01
 8798  B1 20     LDA  ($20), Y
 879A  69 00     ADC  #$00
 879C  85 23     STA  $23
 879E  A5 1E     LDA  $1E
 87A0  92 22     STA  ($22)
 87A2  A5 1F     LDA  $1F
 87A4  91 22     STA  ($22), Y
 87A6  60        RTS  
 87A7  E0 77     CPX  #$77
 87A9  30 05     BMI  $87B0
 87AB  A9 0B     LDA  #$0B
 87AD  4C 7D AC  JMP  $AC7D
 87B0  20 77 88  JSR  $8877
 87B3  20 EE 80  JSR  $80EE
 87B6  20 5F 99  JSR  $995F
 87B9  20 D7 8B  JSR  $8BD7
 87BC  20 86 8F  JSR  $8F86
 87BF  20 71 92  JSR  $9271
 87C2  20 3C 93  JSR  $933C
 87C5  20 5E 8F  JSR  $8F5E
 87C8  20 75 97  JSR  $9775
 87CB  20 78 94  JSR  $9478
 87CE  60        RTS  
 87CF  20 B1 92  JSR  $92B1
 87D2  A9 97     LDA  #$97
 87D4  48        PHA  
 87D5  A9 75     LDA  #$75
 87D7  48        PHA  
 87D8  20 5A AB  JSR  $AB5A
 87DB  60        RTS  
 87DC  20 55 86  JSR  $8655
 87DF  A9 3C     LDA  #$3C
 87E1  20 98 88  JSR  $8898
 87E4  B5 00     LDA  $00, X
 87E6  48        PHA  
 87E7  CA        DEX  
 87E8  CA        DEX  
 87E9  95 00     STA  $00, X
 87EB  74 01     STZ  $01, X
 87ED  20 AF AC  JSR  $ACAF
 87F0  A9 3E     LDA  #$3E
 87F2  20 98 88  JSR  $8898
 87F5  A9 20     LDA  #$20
 87F7  20 98 88  JSR  $8898
 87FA  E8        INX  
 87FB  E8        INX  
 87FC  E0 78     CPX  #$78
 87FE  F0 1E     BEQ  $881E
 8800  7A        PLY  
 8801  A9 77     LDA  #$77
 8803  85 22     STA  $22
 8805  64 23     STZ  $23
 8807  CA        DEX  
 8808  CA        DEX  
 8809  B2 22     LDA  ($22)
 880B  95 01     STA  $01, X
 880D  C6 22     DEC  $22
 880F  B2 22     LDA  ($22)
 8811  95 00     STA  $00, X
 8813  C6 22     DEC  $22
 8815  5A        PHY  
 8816  20 A7 87  JSR  $87A7
 8819  7A        PLY  
 881A  88        DEY  
 881B  D0 EA     BNE  $8807
 881D  48        PHA  
 881E  68        PLA  
 881F  60        RTS  
 8820  E0 77     CPX  #$77
 8822  30 05     BMI  $8829
 8824  A9 0B     LDA  #$0B
 8826  4C 7D AC  JMP  $AC7D
 8829  E8        INX  
 882A  E8        INX  
 882B  60        RTS  
 882C  E0 75     CPX  #$75
 882E  30 05     BMI  $8835
 8830  A9 0B     LDA  #$0B
 8832  4C 7D AC  JMP  $AC7D
 8835  A0 10     LDY  #$10
 8837  20 07 85  JSR  $8507
 883A  B5 03     LDA  $03, X
 883C  20 DE AB  JSR  $ABDE
 883F  B5 02     LDA  $02, X
 8841  20 DE AB  JSR  $ABDE
 8844  20 78 94  JSR  $9478
 8847  20 78 94  JSR  $9478
 884A  B5 00     LDA  $00, X
 884C  15 01     ORA  $01, X
 884E  F0 22     BEQ  $8872
 8850  A1 02     LDA  ($02, X)
 8852  20 DE AB  JSR  $ABDE
 8855  20 78 94  JSR  $9478
 8858  C0 09     CPY  #$09
 885A  D0 03     BNE  $885F
 885C  20 78 94  JSR  $9478
 885F  F6 02     INC  $02, X
 8861  D0 02     BNE  $8865
 8863  F6 03     INC  $03, X
 8865  B5 00     LDA  $00, X
 8867  D0 02     BNE  $886B
 8869  D6 01     DEC  $01, X
 886B  D6 00     DEC  $00, X
 886D  88        DEY  
 886E  D0 DA     BNE  $884A
 8870  80 BA     BRA  $882C
 8872  E8        INX  
 8873  E8        INX  
 8874  E8        INX  
 8875  E8        INX  
 8876  60        RTS  
 8877  E0 77     CPX  #$77
 8879  30 05     BMI  $8880
 887B  A9 0B     LDA  #$0B
 887D  4C 7D AC  JMP  $AC7D
 8880  CA        DEX  
 8881  CA        DEX  
 8882  B5 02     LDA  $02, X
 8884  95 00     STA  $00, X
 8886  B5 03     LDA  $03, X
 8888  95 01     STA  $01, X
 888A  60        RTS  
 888B  E0 77     CPX  #$77
 888D  30 05     BMI  $8894
 888F  A9 0B     LDA  #$0B
 8891  4C 7D AC  JMP  $AC7D
 8894  B5 00     LDA  $00, X
 8896  E8        INX  
 8897  E8        INX  
 8898  6C 10 00  JMP  ($0010)
 889B  E0 75     CPX  #$75
 889D  30 05     BMI  $88A4
 889F  A9 0B     LDA  #$0B
 88A1  4C 7D AC  JMP  $AC7D
 88A4  B5 00     LDA  $00, X
 88A6  D5 02     CMP  $02, X
 88A8  D0 0A     BNE  $88B4
 88AA  B5 01     LDA  $01, X
 88AC  D5 03     CMP  $03, X
 88AE  D0 04     BNE  $88B4
 88B0  A9 FF     LDA  #$FF
 88B2  80 02     BRA  $88B6
 88B4  A9 00     LDA  #$00
 88B6  95 02     STA  $02, X
 88B8  95 03     STA  $03, X
 88BA  E8        INX  
 88BB  E8        INX  
 88BC  60        RTS  
 88BD  CA        DEX  
 88BE  CA        DEX  
 88BF  A9 20     LDA  #$20
 88C1  95 00     STA  $00, X
 88C3  74 01     STZ  $01, X
 88C5  80 06     BRA  $88CD
 88C7  CA        DEX  
 88C8  CA        DEX  
 88C9  74 00     STZ  $00, X
 88CB  74 01     STZ  $01, X
 88CD  E0 73     CPX  #$73
 88CF  30 05     BMI  $88D6
 88D1  A9 0B     LDA  #$0B
 88D3  4C 7D AC  JMP  $AC7D
 88D6  B5 04     LDA  $04, X
 88D8  85 1E     STA  $1E
 88DA  B5 05     LDA  $05, X
 88DC  85 1F     STA  $1F
 88DE  B5 02     LDA  $02, X
 88E0  85 20     STA  $20
 88E2  B5 03     LDA  $03, X
 88E4  85 21     STA  $21
 88E6  B5 00     LDA  $00, X
 88E8  A8        TAY  
 88E9  A9 7F     LDA  #$7F
 88EB  C5 1F     CMP  $1F
 88ED  90 21     BCC  $8910
 88EF  D0 06     BNE  $88F7
 88F1  A9 FF     LDA  #$FF
 88F3  C5 1E     CMP  $1E
 88F5  90 19     BCC  $8910
 88F7  A5 20     LDA  $20
 88F9  05 21     ORA  $21
 88FB  F0 13     BEQ  $8910
 88FD  98        TYA  
 88FE  92 1E     STA  ($1E)
 8900  A5 20     LDA  $20
 8902  D0 02     BNE  $8906
 8904  C6 21     DEC  $21
 8906  C6 20     DEC  $20
 8908  E6 1E     INC  $1E
 890A  D0 DD     BNE  $88E9
 890C  E6 1F     INC  $1F
 890E  80 D9     BRA  $88E9
 8910  8A        TXA  
 8911  18        CLC  
 8912  69 06     ADC  #$06
 8914  AA        TAX  
 8915  60        RTS  
 8916  E0 75     CPX  #$75
 8918  30 05     BMI  $891F
 891A  A9 0B     LDA  #$0B
 891C  4C 7D AC  JMP  $AC7D
 891F  B5 00     LDA  $00, X
 8921  15 01     ORA  $01, X
 8923  F0 4D     BEQ  $8972
 8925  A5 0D     LDA  $0D
 8927  48        PHA  
 8928  A5 0C     LDA  $0C
 892A  48        PHA  
 892B  A5 07     LDA  $07
 892D  48        PHA  
 892E  A5 06     LDA  $06
 8930  48        PHA  
 8931  A5 09     LDA  $09
 8933  48        PHA  
 8934  A5 08     LDA  $08
 8936  48        PHA  
 8937  A5 0B     LDA  $0B
 8939  48        PHA  
 893A  A5 0A     LDA  $0A
 893C  48        PHA  
 893D  A9 FF     LDA  #$FF
 893F  85 06     STA  $06
 8941  85 07     STA  $07
 8943  64 0C     STZ  $0C
 8945  64 0D     STZ  $0D
 8947  B5 00     LDA  $00, X
 8949  85 0A     STA  $0A
 894B  B5 01     LDA  $01, X
 894D  85 0B     STA  $0B
 894F  B5 02     LDA  $02, X
 8951  85 08     STA  $08
 8953  B5 03     LDA  $03, X
 8955  85 09     STA  $09
 8957  20 10 AC  JSR  $AC10
 895A  68        PLA  
 895B  85 0A     STA  $0A
 895D  68        PLA  
 895E  85 0B     STA  $0B
 8960  68        PLA  
 8961  85 08     STA  $08
 8963  68        PLA  
 8964  85 09     STA  $09
 8966  68        PLA  
 8967  85 06     STA  $06
 8969  68        PLA  
 896A  85 07     STA  $07
 896C  68        PLA  
 896D  85 0C     STA  $0C
 896F  68        PLA  
 8970  85 0D     STA  $0D
 8972  E8        INX  
 8973  E8        INX  
 8974  E8        INX  
 8975  E8        INX  
 8976  60        RTS  
 8977  E0 77     CPX  #$77
 8979  30 05     BMI  $8980
 897B  A9 0B     LDA  #$0B
 897D  4C 7D AC  JMP  $AC7D
 8980  B5 00     LDA  $00, X
 8982  85 0E     STA  $0E
 8984  B5 01     LDA  $01, X
 8986  85 0F     STA  $0F
 8988  E8        INX  
 8989  E8        INX  
 898A  A9 89     LDA  #$89
 898C  48        PHA  
 898D  A9 93     LDA  #$93
 898F  48        PHA  
 8990  6C 0E 00  JMP  ($000E)
 8993  EA        NOP  
 8994  60        RTS  
 8995  60        RTS  
 8996  CA        DEX  
 8997  CA        DEX  
 8998  74 00     STZ  $00, X
 899A  74 01     STZ  $01, X
 899C  60        RTS  
 899D  E0 77     CPX  #$77
 899F  30 05     BMI  $89A6
 89A1  A9 0B     LDA  #$0B
 89A3  4C 7D AC  JMP  $AC7D
 89A6  A1 00     LDA  ($00, X)
 89A8  A8        TAY  
 89A9  F6 00     INC  $00, X
 89AB  D0 02     BNE  $89AF
 89AD  F6 01     INC  $01, X
 89AF  A1 00     LDA  ($00, X)
 89B1  95 01     STA  $01, X
 89B3  98        TYA  
 89B4  95 00     STA  $00, X
 89B6  60        RTS  
 89B7  E0 77     CPX  #$77
 89B9  30 05     BMI  $89C0
 89BB  A9 0B     LDA  #$0B
 89BD  4C 7D AC  JMP  $AC7D
 89C0  20 ED 84  JSR  $84ED
 89C3  B5 03     LDA  $03, X
 89C5  48        PHA  
 89C6  B5 02     LDA  $02, X
 89C8  48        PHA  
 89C9  20 05 8A  JSR  $8A05
 89CC  B5 00     LDA  $00, X
 89CE  15 01     ORA  $01, X
 89D0  D0 0B     BNE  $89DD
 89D2  20 96 89  JSR  $8996
 89D5  68        PLA  
 89D6  95 02     STA  $02, X
 89D8  68        PLA  
 89D9  95 03     STA  $03, X
 89DB  80 27     BRA  $8A04
 89DD  68        PLA  
 89DE  68        PLA  
 89DF  20 77 88  JSR  $8877
 89E2  20 E2 8D  JSR  $8DE2
 89E5  20 EC 94  JSR  $94EC
 89E8  A0 00     LDY  #$00
 89EA  F6 00     INC  $00, X
 89EC  D0 02     BNE  $89F0
 89EE  F6 01     INC  $01, X
 89F0  A1 00     LDA  ($00, X)
 89F2  29 04     AND  #$04
 89F4  D0 08     BNE  $89FE
 89F6  A9 FF     LDA  #$FF
 89F8  95 00     STA  $00, X
 89FA  95 01     STA  $01, X
 89FC  80 06     BRA  $8A04
 89FE  A9 01     LDA  #$01
 8A00  95 00     STA  $00, X
 8A02  74 01     STZ  $01, X
 8A04  60        RTS  
 8A05  E0 75     CPX  #$75
 8A07  30 05     BMI  $8A0E
 8A09  A9 0B     LDA  #$0B
 8A0B  4C 7D AC  JMP  $AC7D
 8A0E  B5 00     LDA  $00, X
 8A10  15 01     ORA  $01, X
 8A12  F0 57     BEQ  $8A6B
 8A14  A5 02     LDA  $02
 8A16  85 1E     STA  $1E
 8A18  A5 03     LDA  $03
 8A1A  85 1F     STA  $1F
 8A1C  B5 02     LDA  $02, X
 8A1E  85 20     STA  $20
 8A20  B5 03     LDA  $03, X
 8A22  85 21     STA  $21
 8A24  B2 1E     LDA  ($1E)
 8A26  D5 00     CMP  $00, X
 8A28  D0 30     BNE  $8A5A
 8A2A  A0 08     LDY  #$08
 8A2C  B1 1E     LDA  ($1E), Y
 8A2E  D2 20     CMP  ($20)
 8A30  D0 28     BNE  $8A5A
 8A32  B5 00     LDA  $00, X
 8A34  3A        DEC  
 8A35  F0 19     BEQ  $8A50
 8A37  A5 1E     LDA  $1E
 8A39  18        CLC  
 8A3A  69 08     ADC  #$08
 8A3C  85 22     STA  $22
 8A3E  A5 1F     LDA  $1F
 8A40  69 00     ADC  #$00
 8A42  85 23     STA  $23
 8A44  B4 00     LDY  $00, X
 8A46  88        DEY  
 8A47  B1 20     LDA  ($20), Y
 8A49  D1 22     CMP  ($22), Y
 8A4B  D0 0D     BNE  $8A5A
 8A4D  88        DEY  
 8A4E  D0 F7     BNE  $8A47
 8A50  A5 1E     LDA  $1E
 8A52  95 02     STA  $02, X
 8A54  A5 1F     LDA  $1F
 8A56  95 03     STA  $03, X
 8A58  80 15     BRA  $8A6F
 8A5A  A0 02     LDY  #$02
 8A5C  B1 1E     LDA  ($1E), Y
 8A5E  48        PHA  
 8A5F  C8        INY  
 8A60  B1 1E     LDA  ($1E), Y
 8A62  85 1F     STA  $1F
 8A64  68        PLA  
 8A65  85 1E     STA  $1E
 8A67  05 1F     ORA  $1F
 8A69  D0 B9     BNE  $8A24
 8A6B  74 02     STZ  $02, X
 8A6D  74 03     STZ  $03, X
 8A6F  E8        INX  
 8A70  E8        INX  
 8A71  60        RTS  
 8A72  E0 73     CPX  #$73
 8A74  30 05     BMI  $8A7B
 8A76  A9 0B     LDA  #$0B
 8A78  4C 7D AC  JMP  $AC7D
 8A7B  64 20     STZ  $20
 8A7D  B5 01     LDA  $01, X
 8A7F  10 0E     BPL  $8A8F
 8A81  E6 20     INC  $20
 8A83  20 30 8E  JSR  $8E30
 8A86  20 35 96  JSR  $9635
 8A89  20 9F 86  JSR  $869F
 8A8C  20 EE 91  JSR  $91EE
 8A8F  B5 03     LDA  $03, X
 8A91  10 0D     BPL  $8AA0
 8A93  18        CLC  
 8A94  B5 00     LDA  $00, X
 8A96  75 02     ADC  $02, X
 8A98  95 02     STA  $02, X
 8A9A  B5 01     LDA  $01, X
 8A9C  75 03     ADC  $03, X
 8A9E  95 03     STA  $03, X
 8AA0  20 D8 97  JSR  $97D8
 8AA3  A5 20     LDA  $20
 8AA5  F0 07     BEQ  $8AAE
 8AA7  E8        INX  
 8AA8  E8        INX  
 8AA9  20 30 8E  JSR  $8E30
 8AAC  CA        DEX  
 8AAD  CA        DEX  
 8AAE  60        RTS  
 8AAF  E0 75     CPX  #$75
 8AB1  30 05     BMI  $8AB8
 8AB3  A9 0B     LDA  #$0B
 8AB5  4C 7D AC  JMP  $AC7D
 8AB8  A0 00     LDY  #$00
 8ABA  20 F5 AB  JSR  $ABF5
 8ABD  F0 03     BEQ  $8AC2
 8ABF  10 01     BPL  $8AC2
 8AC1  88        DEY  
 8AC2  98        TYA  
 8AC3  E8        INX  
 8AC4  E8        INX  
 8AC5  95 00     STA  $00, X
 8AC7  95 01     STA  $01, X
 8AC9  60        RTS  
 8ACA  CA        DEX  
 8ACB  CA        DEX  
 8ACC  A5 00     LDA  $00
 8ACE  95 00     STA  $00, X
 8AD0  A5 01     LDA  $01
 8AD2  95 01     STA  $01, X
 8AD4  60        RTS  
 8AD5  A9 10     LDA  #$10
 8AD7  85 18     STA  $18
 8AD9  64 19     STZ  $19
 8ADB  60        RTS  
 8ADC  E0 77     CPX  #$77
 8ADE  30 05     BMI  $8AE5
 8AE0  A9 0B     LDA  #$0B
 8AE2  4C 7D AC  JMP  $AC7D
 8AE5  A5 28     LDA  $28
 8AE7  D0 02     BNE  $8AEB
 8AE9  C6 29     DEC  $29
 8AEB  C6 28     DEC  $28
 8AED  B5 00     LDA  $00, X
 8AEF  92 28     STA  ($28)
 8AF1  E8        INX  
 8AF2  E8        INX  
 8AF3  60        RTS  
 8AF4  CA        DEX  
 8AF5  CA        DEX  
 8AF6  86 24     STX  $24
 8AF8  BA        TSX  
 8AF9  38        SEC  
 8AFA  BD 01 01  LDA  $0101, X
 8AFD  FD 03 01  SBC  $0103, X
 8B00  85 1E     STA  $1E
 8B02  BD 02 01  LDA  $0102, X
 8B05  FD 04 01  SBC  $0104, X
 8B08  A6 24     LDX  $24
 8B0A  95 01     STA  $01, X
 8B0C  A5 1E     LDA  $1E
 8B0E  95 00     STA  $00, X
 8B10  60        RTS  
 8B11  A0 01     LDY  #$01
 8B13  B1 02     LDA  ($02), Y
 8B15  09 04     ORA  #$04
 8B17  91 02     STA  ($02), Y
 8B19  60        RTS  
 8B1A  CA        DEX  
 8B1B  CA        DEX  
 8B1C  A9 12     LDA  #$12
 8B1E  95 00     STA  $00, X
 8B20  A9 00     LDA  #$00
 8B22  95 01     STA  $01, X
 8B24  60        RTS  
 8B25  E0 77     CPX  #$77
 8B27  30 05     BMI  $8B2E
 8B29  A9 0B     LDA  #$0B
 8B2B  4C 7D AC  JMP  $AC7D
 8B2E  A5 02     LDA  $02
 8B30  85 20     STA  $20
 8B32  A5 03     LDA  $03
 8B34  85 21     STA  $21
 8B36  B5 00     LDA  $00, X
 8B38  85 22     STA  $22
 8B3A  B5 01     LDA  $01, X
 8B3C  85 23     STA  $23
 8B3E  A0 04     LDY  #$04
 8B40  B1 20     LDA  ($20), Y
 8B42  C5 22     CMP  $22
 8B44  D0 07     BNE  $8B4D
 8B46  C8        INY  
 8B47  B1 20     LDA  ($20), Y
 8B49  C5 23     CMP  $23
 8B4B  F0 25     BEQ  $8B72
 8B4D  18        CLC  
 8B4E  A5 20     LDA  $20
 8B50  69 02     ADC  #$02
 8B52  85 20     STA  $20
 8B54  A5 21     LDA  $21
 8B56  69 00     ADC  #$00
 8B58  85 21     STA  $21
 8B5A  A0 00     LDY  #$00
 8B5C  B1 20     LDA  ($20), Y
 8B5E  48        PHA  
 8B5F  C8        INY  
 8B60  11 20     ORA  ($20), Y
 8B62  F0 09     BEQ  $8B6D
 8B64  B1 20     LDA  ($20), Y
 8B66  85 21     STA  $21
 8B68  68        PLA  
 8B69  85 20     STA  $20
 8B6B  80 D1     BRA  $8B3E
 8B6D  A9 0D     LDA  #$0D
 8B6F  4C 7D AC  JMP  $AC7D
 8B72  A5 20     LDA  $20
 8B74  95 00     STA  $00, X
 8B76  A5 21     LDA  $21
 8B78  95 01     STA  $01, X
 8B7A  60        RTS  
 8B7B  E0 77     CPX  #$77
 8B7D  30 05     BMI  $8B84
 8B7F  A9 0B     LDA  #$0B
 8B81  4C 7D AC  JMP  $AC7D
 8B84  A9 FF     LDA  #$FF
 8B86  A8        TAY  
 8B87  55 00     EOR  $00, X
 8B89  95 00     STA  $00, X
 8B8B  98        TYA  
 8B8C  55 01     EOR  $01, X
 8B8E  95 01     STA  $01, X
 8B90  60        RTS  
 8B91  CA        DEX  
 8B92  CA        DEX  
 8B93  86 24     STX  $24
 8B95  BA        TSX  
 8B96  38        SEC  
 8B97  BD 07 01  LDA  $0107, X
 8B9A  FD 09 01  SBC  $0109, X
 8B9D  85 1E     STA  $1E
 8B9F  BD 08 01  LDA  $0108, X
 8BA2  FD 0A 01  SBC  $010A, X
 8BA5  A6 24     LDX  $24
 8BA7  95 01     STA  $01, X
 8BA9  A5 1E     LDA  $1E
 8BAB  95 00     STA  $00, X
 8BAD  60        RTS  
 8BAE  20 B8 8B  JSR  $8BB8
 8BB1  CA        DEX  
 8BB2  CA        DEX  
 8BB3  95 00     STA  $00, X
 8BB5  74 01     STZ  $01, X
 8BB7  60        RTS  
 8BB8  6C 12 00  JMP  ($0012)
 8BBB  CA        DEX  
 8BBC  CA        DEX  
 8BBD  A5 02     LDA  $02
 8BBF  95 00     STA  $00, X
 8BC1  A5 03     LDA  $03
 8BC3  95 01     STA  $01, X
 8BC5  60        RTS  
 8BC6  20 BB 8B  JSR  $8BBB
 8BC9  20 E2 8D  JSR  $8DE2
 8BCC  60        RTS  
 8BCD  68        PLA  
 8BCE  68        PLA  
 8BCF  68        PLA  
 8BD0  68        PLA  
 8BD1  60        RTS  
 8BD2  64 16     STZ  $16
 8BD4  64 17     STZ  $17
 8BD6  60        RTS  
 8BD7  20 FF 8F  JSR  $8FFF
 8BDA  B5 00     LDA  $00, X
 8BDC  85 28     STA  $28
 8BDE  B5 01     LDA  $01, X
 8BE0  85 29     STA  $29
 8BE2  E8        INX  
 8BE3  E8        INX  
 8BE4  60        RTS  
 8BE5  E0 75     CPX  #$75
 8BE7  30 05     BMI  $8BEE
 8BE9  A9 0B     LDA  #$0B
 8BEB  4C 7D AC  JMP  $AC7D
 8BEE  A0 00     LDY  #$00
 8BF0  20 F5 AB  JSR  $ABF5
 8BF3  F0 03     BEQ  $8BF8
 8BF5  30 01     BMI  $8BF8
 8BF7  88        DEY  
 8BF8  98        TYA  
 8BF9  E8        INX  
 8BFA  E8        INX  
 8BFB  95 00     STA  $00, X
 8BFD  95 01     STA  $01, X
 8BFF  60        RTS  
 8C00  E0 77     CPX  #$77
 8C02  30 05     BMI  $8C09
 8C04  A9 0B     LDA  #$0B
 8C06  4C 7D AC  JMP  $AC7D
 8C09  A9 8C     LDA  #$8C
 8C0B  48        PHA  
 8C0C  A9 16     LDA  #$16
 8C0E  48        PHA  
 8C0F  20 5A AB  JSR  $AB5A
 8C12  20 DB 83  JSR  $83DB
 8C15  60        RTS  
 8C16  CA        DEX  
 8C17  CA        DEX  
 8C18  68        PLA  
 8C19  85 1E     STA  $1E
 8C1B  68        PLA  
 8C1C  85 1F     STA  $1F
 8C1E  A0 01     LDY  #$01
 8C20  B1 1E     LDA  ($1E), Y
 8C22  95 00     STA  $00, X
 8C24  C8        INY  
 8C25  B1 1E     LDA  ($1E), Y
 8C27  95 01     STA  $01, X
 8C29  98        TYA  
 8C2A  18        CLC  
 8C2B  65 1E     ADC  $1E
 8C2D  A8        TAY  
 8C2E  A5 1F     LDA  $1F
 8C30  69 00     ADC  #$00
 8C32  48        PHA  
 8C33  5A        PHY  
 8C34  60        RTS  
 8C35  A9 8F     LDA  #$8F
 8C37  48        PHA  
 8C38  A9 9D     LDA  #$9D
 8C3A  48        PHA  
 8C3B  20 5A AB  JSR  $AB5A
 8C3E  A0 11     LDY  #$11
 8C40  5A        PHY  
 8C41  B9 A5 8C  LDA  $8CA5, Y
 8C44  91 00     STA  ($00), Y
 8C46  88        DEY  
 8C47  10 F8     BPL  $8C41
 8C49  68        PLA  
 8C4A  18        CLC  
 8C4B  65 00     ADC  $00
 8C4D  85 00     STA  $00
 8C4F  A5 01     LDA  $01
 8C51  69 00     ADC  #$00
 8C53  85 01     STA  $01
 8C55  20 DB 83  JSR  $83DB
 8C58  A9 68     LDA  #$68
 8C5A  A0 06     LDY  #$06
 8C5C  91 00     STA  ($00), Y
 8C5E  88        DEY  
 8C5F  10 FB     BPL  $8C5C
 8C61  A9 06     LDA  #$06
 8C63  18        CLC  
 8C64  65 00     ADC  $00
 8C66  85 00     STA  $00
 8C68  A5 01     LDA  $01
 8C6A  69 00     ADC  #$00
 8C6C  85 01     STA  $01
 8C6E  B5 00     LDA  $00, X
 8C70  85 1E     STA  $1E
 8C72  B5 01     LDA  $01, X
 8C74  85 1F     STA  $1F
 8C76  E8        INX  
 8C77  E8        INX  
 8C78  A5 00     LDA  $00
 8C7A  38        SEC  
 8C7B  E9 01     SBC  #$01
 8C7D  85 20     STA  $20
 8C7F  A5 01     LDA  $01
 8C81  E9 00     SBC  #$00
 8C83  85 21     STA  $21
 8C85  A0 00     LDY  #$00
 8C87  A9 A9     LDA  #$A9
 8C89  91 1E     STA  ($1E), Y
 8C8B  C8        INY  
 8C8C  A5 21     LDA  $21
 8C8E  91 1E     STA  ($1E), Y
 8C90  C8        INY  
 8C91  A9 48     LDA  #$48
 8C93  91 1E     STA  ($1E), Y
 8C95  C8        INY  
 8C96  A9 A9     LDA  #$A9
 8C98  91 1E     STA  ($1E), Y
 8C9A  C8        INY  
 8C9B  A5 20     LDA  $20
 8C9D  91 1E     STA  ($1E), Y
 8C9F  C8        INY  
 8CA0  A9 48     LDA  #$48
 8CA2  91 1E     STA  ($1E), Y
 8CA4  60        RTS  
 8CA5  18        CLC  
 8CA6  68        PLA  
 8CA7  75 00     ADC  $00, X
 8CA9  A8        TAY  
 8CAA  B8        CLV  
 8CAB  68        PLA  
 8CAC  75 01     ADC  $01, X
 8CAE  48        PHA  
 8CAF  98        TYA  
 8CB0  48        PHA  
 8CB1  E8        INX  
 8CB2  E8        INX  
 8CB3  70 03     BVS  $8CB8
 8CB5  4C                                               |L               |
 8CB6  E0 75     CPX  #$75
 8CB8  30 05     BMI  $8CBF
 8CBA  A9 0B     LDA  #$0B
 8CBC  4C 7D AC  JMP  $AC7D
 8CBF  B5 00     LDA  $00, X
 8CC1  29 0F     AND  #$0F
 8CC3  F0 08     BEQ  $8CCD
 8CC5  A8        TAY  
 8CC6  16 02     ASL  $02, X
 8CC8  36 03     ROL  $03, X
 8CCA  88        DEY  
 8CCB  D0 F9     BNE  $8CC6
 8CCD  E8        INX  
 8CCE  E8        INX  
 8CCF  60        RTS  
 8CD0  E0 75     CPX  #$75
 8CD2  30 05     BMI  $8CD9
 8CD4  A9 0B     LDA  #$0B
 8CD6  4C 7D AC  JMP  $AC7D
 8CD9  B5 01     LDA  $01, X
 8CDB  55 03     EOR  $03, X
 8CDD  48        PHA  
 8CDE  20 EE 80  JSR  $80EE
 8CE1  20 EC 94  JSR  $94EC
 8CE4  20 EE 80  JSR  $80EE
 8CE7  20 20 98  JSR  $9820
 8CEA  68        PLA  
 8CEB  10 03     BPL  $8CF0
 8CED  20 9F 86  JSR  $869F
 8CF0  60        RTS  
 8CF1  20 0D 85  JSR  $850D
 8CF4  A0 00     LDY  #$00
 8CF6  A5 02     LDA  $02
 8CF8  91 00     STA  ($00), Y
 8CFA  C8        INY  
 8CFB  A5 03     LDA  $03
 8CFD  91 00     STA  ($00), Y
 8CFF  C8        INY  
 8D00  98        TYA  
 8D01  18        CLC  
 8D02  65 00     ADC  $00
 8D04  85 00     STA  $00
 8D06  90 02     BCC  $8D0A
 8D08  E6 01     INC  $01
 8D0A  20 78 87  JSR  $8778
 8D0D  20 B6 AB  JSR  $ABB6
 8D10  20 9D 89  JSR  $899D
 8D13  B5 00     LDA  $00, X
 8D15  85 1E     STA  $1E
 8D17  B5 01     LDA  $01, X
 8D19  85 1F     STA  $1F
 8D1B  E8        INX  
 8D1C  E8        INX  
 8D1D  A0 02     LDY  #$02
 8D1F  B1 1E     LDA  ($1E), Y
 8D21  85 02     STA  $02
 8D23  C8        INY  
 8D24  B1 1E     LDA  ($1E), Y
 8D26  85 03     STA  $03
 8D28  A0 06     LDY  #$06
 8D2A  B1 02     LDA  ($02), Y
 8D2C  85 00     STA  $00
 8D2E  C8        INY  
 8D2F  B1 02     LDA  ($02), Y
 8D31  85 01     STA  $01
 8D33  E6 00     INC  $00
 8D35  D0 02     BNE  $8D39
 8D37  E6 01     INC  $01
 8D39  60        RTS  
 8D3A  E0 75     CPX  #$75
 8D3C  30 05     BMI  $8D43
 8D3E  A9 0B     LDA  #$0B
 8D40  4C 7D AC  JMP  $AC7D
 8D43  B5 00     LDA  $00, X
 8D45  D5 02     CMP  $02, X
 8D47  B5 01     LDA  $01, X
 8D49  F5 03     SBC  $03, X
 8D4B  50 02     BVC  $8D4F
 8D4D  49 80     EOR  #$80
 8D4F  30 08     BMI  $8D59
 8D51  B5 00     LDA  $00, X
 8D53  95 02     STA  $02, X
 8D55  B5 01     LDA  $01, X
 8D57  95 03     STA  $03, X
 8D59  E8        INX  
 8D5A  E8        INX  
 8D5B  60        RTS  
 8D5C  E0 75     CPX  #$75
 8D5E  30 05     BMI  $8D65
 8D60  A9 0B     LDA  #$0B
 8D62  4C 7D AC  JMP  $AC7D
 8D65  B5 00     LDA  $00, X
 8D67  D5 02     CMP  $02, X
 8D69  B5 01     LDA  $01, X
 8D6B  F5 03     SBC  $03, X
 8D6D  50 02     BVC  $8D71
 8D6F  49 80     EOR  #$80
 8D71  10 08     BPL  $8D7B
 8D73  B5 00     LDA  $00, X
 8D75  95 02     STA  $02, X
 8D77  B5 01     LDA  $01, X
 8D79  95 03     STA  $03, X
 8D7B  E8        INX  
 8D7C  E8        INX  
 8D7D  60        RTS  
 8D7E  E0 75     CPX  #$75
 8D80  30 05     BMI  $8D87
 8D82  A9 0B     LDA  #$0B
 8D84  4C 7D AC  JMP  $AC7D
 8D87  38        SEC  
 8D88  B5 02     LDA  $02, X
 8D8A  F5 00     SBC  $00, X
 8D8C  95 02     STA  $02, X
 8D8E  B5 03     LDA  $03, X
 8D90  F5 01     SBC  $01, X
 8D92  95 03     STA  $03, X
 8D94  E8        INX  
 8D95  E8        INX  
 8D96  60        RTS  
 8D97  E0 75     CPX  #$75
 8D99  30 05     BMI  $8DA0
 8D9B  A9 0B     LDA  #$0B
 8D9D  4C 7D AC  JMP  $AC7D
 8DA0  B5 00     LDA  $00, X
 8DA2  15 01     ORA  $01, X
 8DA4  F0 1C     BEQ  $8DC2
 8DA6  B5 02     LDA  $02, X
 8DA8  85 1E     STA  $1E
 8DAA  B5 03     LDA  $03, X
 8DAC  85 1F     STA  $1F
 8DAE  B5 00     LDA  $00, X
 8DB0  A8        TAY  
 8DB1  88        DEY  
 8DB2  B1 1E     LDA  ($1E), Y
 8DB4  C9 20     CMP  #$20
 8DB6  D0 04     BNE  $8DBC
 8DB8  88        DEY  
 8DB9  D0 F7     BNE  $8DB2
 8DBB  88        DEY  
 8DBC  C8        INY  
 8DBD  98        TYA  
 8DBE  95 00     STA  $00, X
 8DC0  74 01     STZ  $01, X
 8DC2  60        RTS  
 8DC3  B5 03     LDA  $03, X
 8DC5  D5 05     CMP  $05, X
 8DC7  F0 05     BEQ  $8DCE
 8DC9  90 0E     BCC  $8DD9
 8DCB  4C 27 83  JMP  $8327
 8DCE  B5 02     LDA  $02, X
 8DD0  D5 04     CMP  $04, X
 8DD2  F0 08     BEQ  $8DDC
 8DD4  90 03     BCC  $8DD9
 8DD6  4C 27 83  JMP  $8327
 8DD9  4C 68 83  JMP  $8368
 8DDC  8A        TXA  
 8DDD  18        CLC  
 8DDE  69 06     ADC  #$06
 8DE0  AA        TAX  
 8DE1  60        RTS  
 8DE2  E0 77     CPX  #$77
 8DE4  30 05     BMI  $8DEB
 8DE6  A9 0B     LDA  #$0B
 8DE8  4C 7D AC  JMP  $AC7D
 8DEB  B5 00     LDA  $00, X
 8DED  18        CLC  
 8DEE  69 04     ADC  #$04
 8DF0  85 22     STA  $22
 8DF2  B5 01     LDA  $01, X
 8DF4  90 01     BCC  $8DF7
 8DF6  1A        INC  
 8DF7  85 23     STA  $23
 8DF9  A0 00     LDY  #$00
 8DFB  B1 22     LDA  ($22), Y
 8DFD  95 00     STA  $00, X
 8DFF  C8        INY  
 8E00  B1 22     LDA  ($22), Y
 8E02  95 01     STA  $01, X
 8E04  60        RTS  
 8E05  E0 77     CPX  #$77
 8E07  30 05     BMI  $8E0E
 8E09  A9 0B     LDA  #$0B
 8E0B  4C 7D AC  JMP  $AC7D
 8E0E  CA        DEX  
 8E0F  CA        DEX  
 8E10  A1 02     LDA  ($02, X)
 8E12  95 00     STA  $00, X
 8E14  74 01     STZ  $01, X
 8E16  B5 02     LDA  $02, X
 8E18  18        CLC  
 8E19  69 08     ADC  #$08
 8E1B  A8        TAY  
 8E1C  B5 03     LDA  $03, X
 8E1E  69 00     ADC  #$00
 8E20  95 03     STA  $03, X
 8E22  94 02     STY  $02, X
 8E24  60        RTS  
 8E25  CA        DEX  
 8E26  CA        DEX  
 8E27  A9 1A     LDA  #$1A
 8E29  95 00     STA  $00, X
 8E2B  A9 00     LDA  #$00
 8E2D  95 01     STA  $01, X
 8E2F  60        RTS  
 8E30  E0 77     CPX  #$77
 8E32  30 05     BMI  $8E39
 8E34  A9 0B     LDA  #$0B
 8E36  4C 7D AC  JMP  $AC7D
 8E39  A9 00     LDA  #$00
 8E3B  38        SEC  
 8E3C  F5 00     SBC  $00, X
 8E3E  95 00     STA  $00, X
 8E40  A9 00     LDA  #$00
 8E42  F5 01     SBC  $01, X
 8E44  95 01     STA  $01, X
 8E46  60        RTS  
 8E47  A0 01     LDY  #$01
 8E49  B1 02     LDA  ($02), Y
 8E4B  09 08     ORA  #$08
 8E4D  91 02     STA  ($02), Y
 8E4F  60        RTS  
 8E50  E0 75     CPX  #$75
 8E52  30 05     BMI  $8E59
 8E54  A9 0B     LDA  #$0B
 8E56  4C 7D AC  JMP  $AC7D
 8E59  B5 00     LDA  $00, X
 8E5B  95 02     STA  $02, X
 8E5D  B5 01     LDA  $01, X
 8E5F  95 03     STA  $03, X
 8E61  E8        INX  
 8E62  E8        INX  
 8E63  60        RTS  
 8E64  E0 75     CPX  #$75
 8E66  30 05     BMI  $8E6D
 8E68  A9 0B     LDA  #$0B
 8E6A  4C 7D AC  JMP  $AC7D
 8E6D  A0 00     LDY  #$00
 8E6F  B5 00     LDA  $00, X
 8E71  D5 02     CMP  $02, X
 8E73  D0 0A     BNE  $8E7F
 8E75  B5 01     LDA  $01, X
 8E77  D5 03     CMP  $03, X
 8E79  D0 04     BNE  $8E7F
 8E7B  A9 FF     LDA  #$FF
 8E7D  80 01     BRA  $8E80
 8E7F  88        DEY  
 8E80  98        TYA  
 8E81  E8        INX  
 8E82  E8        INX  
 8E83  95 00     STA  $00, X
 8E85  95 01     STA  $01, X
 8E87  60        RTS  
 8E88  E0 73     CPX  #$73
 8E8A  30 05     BMI  $8E91
 8E8C  A9 0B     LDA  #$0B
 8E8E  4C 7D AC  JMP  $AC7D
 8E91  B5 01     LDA  $01, X
 8E93  A8        TAY  
 8E94  B5 03     LDA  $03, X
 8E96  95 01     STA  $01, X
 8E98  B5 05     LDA  $05, X
 8E9A  95 03     STA  $03, X
 8E9C  98        TYA  
 8E9D  95 05     STA  $05, X
 8E9F  B5 00     LDA  $00, X
 8EA1  A8        TAY  
 8EA2  B5 02     LDA  $02, X
 8EA4  95 00     STA  $00, X
 8EA6  B5 04     LDA  $04, X
 8EA8  95 02     STA  $02, X
 8EAA  98        TYA  
 8EAB  95 04     STA  $04, X
 8EAD  60        RTS  
 8EAE  E0 75     CPX  #$75
 8EB0  30 05     BMI  $8EB7
 8EB2  A9 0B     LDA  #$0B
 8EB4  4C 7D AC  JMP  $AC7D
 8EB7  64 24     STZ  $24
 8EB9  64 25     STZ  $25
 8EBB  A1 02     LDA  ($02, X)
 8EBD  C9 2D     CMP  #$2D
 8EBF  D0 0A     BNE  $8ECB
 8EC1  C6 25     DEC  $25
 8EC3  F6 02     INC  $02, X
 8EC5  D0 02     BNE  $8EC9
 8EC7  F6 03     INC  $03, X
 8EC9  D6 00     DEC  $00, X
 8ECB  B5 02     LDA  $02, X
 8ECD  18        CLC  
 8ECE  75 00     ADC  $00, X
 8ED0  85 26     STA  $26
 8ED2  B5 03     LDA  $03, X
 8ED4  69 00     ADC  #$00
 8ED6  85 27     STA  $27
 8ED8  A5 26     LDA  $26
 8EDA  D0 02     BNE  $8EDE
 8EDC  C6 27     DEC  $27
 8EDE  C6 26     DEC  $26
 8EE0  B2 26     LDA  ($26)
 8EE2  C9 2E     CMP  #$2E
 8EE4  D0 04     BNE  $8EEA
 8EE6  C6 24     DEC  $24
 8EE8  D6 00     DEC  $00, X
 8EEA  CA        DEX  
 8EEB  CA        DEX  
 8EEC  CA        DEX  
 8EED  CA        DEX  
 8EEE  B5 04     LDA  $04, X
 8EF0  95 00     STA  $00, X
 8EF2  74 01     STZ  $01, X
 8EF4  B5 06     LDA  $06, X
 8EF6  95 02     STA  $02, X
 8EF8  B5 07     LDA  $07, X
 8EFA  95 03     STA  $03, X
 8EFC  74 04     STZ  $04, X
 8EFE  74 05     STZ  $05, X
 8F00  74 06     STZ  $06, X
 8F02  74 07     STZ  $07, X
 8F04  20 8F 95  JSR  $958F
 8F07  B5 00     LDA  $00, X
 8F09  F0 15     BEQ  $8F20
 8F0B  A9 3E     LDA  #$3E
 8F0D  20 98 88  JSR  $8898
 8F10  20 75 97  JSR  $9775
 8F13  A9 3C     LDA  #$3C
 8F15  20 98 88  JSR  $8898
 8F18  20 78 94  JSR  $9478
 8F1B  A9 0C     LDA  #$0C
 8F1D  4C 7D AC  JMP  $AC7D
 8F20  E8        INX  
 8F21  E8        INX  
 8F22  E8        INX  
 8F23  E8        INX  
 8F24  A5 24     LDA  $24
 8F26  F0 09     BEQ  $8F31
 8F28  A5 25     LDA  $25
 8F2A  F0 0E     BEQ  $8F3A
 8F2C  20 9F 86  JSR  $869F
 8F2F  80 09     BRA  $8F3A
 8F31  E8        INX  
 8F32  E8        INX  
 8F33  A5 25     LDA  $25
 8F35  F0 03     BEQ  $8F3A
 8F37  20 30 8E  JSR  $8E30
 8F3A  60        RTS  
 8F3B  E0 75     CPX  #$75
 8F3D  30 05     BMI  $8F44
 8F3F  A9 0B     LDA  #$0B
 8F41  4C 7D AC  JMP  $AC7D
 8F44  20 46 82  JSR  $8246
 8F47  20 9D 89  JSR  $899D
 8F4A  20 B3 97  JSR  $97B3
 8F4D  20 71 92  JSR  $9271
 8F50  B5 00     LDA  $00, X
 8F52  A8        TAY  
 8F53  B9 CA A9  LDA  $A9CA, Y
 8F56  95 00     STA  $00, X
 8F58  74 01     STZ  $01, X
 8F5A  20 DC 8A  JSR  $8ADC
 8F5D  60        RTS  
 8F5E  E0 75     CPX  #$75
 8F60  30 05     BMI  $8F67
 8F62  A9 0B     LDA  #$0B
 8F64  4C 7D AC  JMP  $AC7D
 8F67  A5 28     LDA  $28
 8F69  95 00     STA  $00, X
 8F6B  95 02     STA  $02, X
 8F6D  A5 29     LDA  $29
 8F6F  95 01     STA  $01, X
 8F71  95 03     STA  $03, X
 8F73  20 FF 8F  JSR  $8FFF
 8F76  38        SEC  
 8F77  B5 00     LDA  $00, X
 8F79  F5 02     SBC  $02, X
 8F7B  95 02     STA  $02, X
 8F7D  B5 01     LDA  $01, X
 8F7F  F5 03     SBC  $03, X
 8F81  95 03     STA  $03, X
 8F83  E8        INX  
 8F84  E8        INX  
 8F85  60        RTS  
 8F86  E0 75     CPX  #$75
 8F88  30 05     BMI  $8F8F
 8F8A  A9 0B     LDA  #$0B
 8F8C  4C 7D AC  JMP  $AC7D
 8F8F  20 3B 8F  JSR  $8F3B
 8F92  B5 00     LDA  $00, X
 8F94  15 01     ORA  $01, X
 8F96  15 02     ORA  $02, X
 8F98  15 03     ORA  $03, X
 8F9A  D0 F3     BNE  $8F8F
 8F9C  60        RTS  
 8F9D  CA        DEX  
 8F9E  CA        DEX  
 8F9F  A9 01     LDA  #$01
 8FA1  95 00     STA  $00, X
 8FA3  74 01     STZ  $01, X
 8FA5  60        RTS  
 8FA6  E0 77     CPX  #$77
 8FA8  30 05     BMI  $8FAF
 8FAA  A9 0B     LDA  #$0B
 8FAC  4C 7D AC  JMP  $AC7D
 8FAF  B5 00     LDA  $00, X
 8FB1  D0 02     BNE  $8FB5
 8FB3  D6 01     DEC  $01, X
 8FB5  D6 00     DEC  $00, X
 8FB7  60        RTS  
 8FB8  E0 77     CPX  #$77
 8FBA  30 05     BMI  $8FC1
 8FBC  A9 0B     LDA  #$0B
 8FBE  4C 7D AC  JMP  $AC7D
 8FC1  F6 00     INC  $00, X
 8FC3  D0 02     BNE  $8FC7
 8FC5  F6 01     INC  $01, X
 8FC7  60        RTS  
 8FC8  E0 75     CPX  #$75
 8FCA  30 05     BMI  $8FD1
 8FCC  A9 0B     LDA  #$0B
 8FCE  4C 7D AC  JMP  $AC7D
 8FD1  B5 00     LDA  $00, X
 8FD3  15 02     ORA  $02, X
 8FD5  95 02     STA  $02, X
 8FD7  B5 01     LDA  $01, X
 8FD9  15 03     ORA  $03, X
 8FDB  95 03     STA  $03, X
 8FDD  E8        INX  
 8FDE  E8        INX  
 8FDF  60        RTS  
 8FE0  CA        DEX  
 8FE1  CA        DEX  
 8FE2  A9 10     LDA  #$10
 8FE4  95 00     STA  $00, X
 8FE6  A9 00     LDA  #$00
 8FE8  95 01     STA  $01, X
 8FEA  60        RTS  
 8FEB  E0 75     CPX  #$75
 8FED  30 05     BMI  $8FF4
 8FEF  A9 0B     LDA  #$0B
 8FF1  4C 7D AC  JMP  $AC7D
 8FF4  CA        DEX  
 8FF5  CA        DEX  
 8FF6  B5 04     LDA  $04, X
 8FF8  95 00     STA  $00, X
 8FFA  B5 05     LDA  $05, X
 8FFC  95 01     STA  $01, X
 8FFE  60        RTS  
 8FFF  CA        DEX  
 9000  CA        DEX  
 9001  A5 00     LDA  $00
 9003  18        CLC  
 9004  69 FF     ADC  #$FF
 9006  95 00     STA  $00, X
 9008  A5 01     LDA  $01
 900A  69 00     ADC  #$00
 900C  95 01     STA  $01, X
 900E  60        RTS  
 900F  A9 1B     LDA  #$1B
 9011  20 98 88  JSR  $8898
 9014  A9 5B     LDA  #$5B
 9016  20 98 88  JSR  $8898
 9019  A9 32     LDA  #$32
 901B  20 98 88  JSR  $8898
 901E  A9 4A     LDA  #$4A
 9020  20 98 88  JSR  $8898
 9023  20 5F 99  JSR  $995F
 9026  20 5F 99  JSR  $995F
 9029  20 19 82  JSR  $8219
 902C  60        RTS  
 902D  A5 0A     LDA  $0A
 902F  38        SEC  
 9030  E5 0C     SBC  $0C
 9032  85 1E     STA  $1E
 9034  A5 0B     LDA  $0B
 9036  E5 0D     SBC  $0D
 9038  85 1F     STA  $1F
 903A  A5 1E     LDA  $1E
 903C  F0 02     BEQ  $9040
 903E  C6 1F     DEC  $1F
 9040  C6 1E     DEC  $1E
 9042  A5 08     LDA  $08
 9044  18        CLC  
 9045  65 0C     ADC  $0C
 9047  85 20     STA  $20
 9049  A5 09     LDA  $09
 904B  65 0D     ADC  $0D
 904D  85 21     STA  $21
 904F  B2 20     LDA  ($20)
 9051  C9 20     CMP  #$20
 9053  D0 1F     BNE  $9074
 9055  E6 20     INC  $20
 9057  D0 02     BNE  $905B
 9059  E6 21     INC  $21
 905B  A5 1E     LDA  $1E
 905D  D0 02     BNE  $9061
 905F  C6 1F     DEC  $1F
 9061  C6 1E     DEC  $1E
 9063  A5 1E     LDA  $1E
 9065  05 1F     ORA  $1F
 9067  D0 E6     BNE  $904F
 9069  CA        DEX  
 906A  CA        DEX  
 906B  CA        DEX  
 906C  CA        DEX  
 906D  74 00     STZ  $00, X
 906F  74 01     STZ  $01, X
 9071  4C 19 91  JMP  $9119
 9074  A5 20     LDA  $20
 9076  38        SEC  
 9077  E5 08     SBC  $08
 9079  85 0C     STA  $0C
 907B  A5 21     LDA  $21
 907D  E5 09     SBC  $09
 907F  85 0D     STA  $0D
 9081  CA        DEX  
 9082  CA        DEX  
 9083  A9 20     LDA  #$20
 9085  95 00     STA  $00, X
 9087  74 01     STZ  $01, X
 9089  E0 77     CPX  #$77
 908B  30 05     BMI  $9092
 908D  A9 0B     LDA  #$0B
 908F  4C 7D AC  JMP  $AC7D
 9092  A5 0A     LDA  $0A
 9094  05 0B     ORA  $0B
 9096  F0 0C     BEQ  $90A4
 9098  A5 0D     LDA  $0D
 909A  C5 0B     CMP  $0B
 909C  90 0E     BCC  $90AC
 909E  A5 0C     LDA  $0C
 90A0  C5 0A     CMP  $0A
 90A2  90 08     BCC  $90AC
 90A4  CA        DEX  
 90A5  CA        DEX  
 90A6  74 00     STZ  $00, X
 90A8  74 01     STZ  $01, X
 90AA  80 6D     BRA  $9119
 90AC  B5 00     LDA  $00, X
 90AE  85 26     STA  $26
 90B0  CA        DEX  
 90B1  CA        DEX  
 90B2  A5 08     LDA  $08
 90B4  18        CLC  
 90B5  65 0C     ADC  $0C
 90B7  85 1E     STA  $1E
 90B9  85 20     STA  $20
 90BB  95 02     STA  $02, X
 90BD  A5 09     LDA  $09
 90BF  65 0D     ADC  $0D
 90C1  85 1F     STA  $1F
 90C3  85 21     STA  $21
 90C5  95 03     STA  $03, X
 90C7  A5 08     LDA  $08
 90C9  18        CLC  
 90CA  65 0A     ADC  $0A
 90CC  85 22     STA  $22
 90CE  A5 09     LDA  $09
 90D0  65 0B     ADC  $0B
 90D2  85 23     STA  $23
 90D4  64 27     STZ  $27
 90D6  A5 20     LDA  $20
 90D8  C5 22     CMP  $22
 90DA  D0 06     BNE  $90E2
 90DC  A5 21     LDA  $21
 90DE  C5 23     CMP  $23
 90E0  F0 10     BEQ  $90F2
 90E2  B2 20     LDA  ($20)
 90E4  C5 26     CMP  $26
 90E6  F0 08     BEQ  $90F0
 90E8  E6 20     INC  $20
 90EA  D0 EA     BNE  $90D6
 90EC  E6 21     INC  $21
 90EE  80 E6     BRA  $90D6
 90F0  E6 27     INC  $27
 90F2  A5 20     LDA  $20
 90F4  38        SEC  
 90F5  E5 1E     SBC  $1E
 90F7  95 00     STA  $00, X
 90F9  A5 21     LDA  $21
 90FB  E5 1F     SBC  $1F
 90FD  95 01     STA  $01, X
 90FF  A5 20     LDA  $20
 9101  38        SEC  
 9102  E5 08     SBC  $08
 9104  85 0C     STA  $0C
 9106  A5 21     LDA  $21
 9108  E5 09     SBC  $09
 910A  85 0D     STA  $0D
 910C  A5 0C     LDA  $0C
 910E  18        CLC  
 910F  65 27     ADC  $27
 9111  85 0C     STA  $0C
 9113  A5 0D     LDA  $0D
 9115  69 00     ADC  #$00
 9117  85 0D     STA  $0D
 9119  60        RTS  
 911A  B5 00     LDA  $00, X
 911C  0A        ASL  
 911D  18        CLC  
 911E  69 02     ADC  #$02
 9120  A8        TAY  
 9121  86 1E     STX  $1E
 9123  64 1F     STZ  $1F
 9125  B1 1E     LDA  ($1E), Y
 9127  95 00     STA  $00, X
 9129  C8        INY  
 912A  B1 1E     LDA  ($1E), Y
 912C  95 01     STA  $01, X
 912E  60        RTS  
 912F  E0 75     CPX  #$75
 9131  30 05     BMI  $9138
 9133  A9 0B     LDA  #$0B
 9135  4C 7D AC  JMP  $AC7D
 9138  18        CLC  
 9139  B5 00     LDA  $00, X
 913B  75 02     ADC  $02, X
 913D  95 02     STA  $02, X
 913F  B5 01     LDA  $01, X
 9141  75 03     ADC  $03, X
 9143  95 03     STA  $03, X
 9145  E8        INX  
 9146  E8        INX  
 9147  60        RTS  
 9148  E0 75     CPX  #$75
 914A  30 05     BMI  $9151
 914C  A9 0B     LDA  #$0B
 914E  4C 7D AC  JMP  $AC7D
 9151  B5 00     LDA  $00, X
 9153  85 1E     STA  $1E
 9155  B5 01     LDA  $01, X
 9157  85 1F     STA  $1F
 9159  A0 00     LDY  #$00
 915B  B1 1E     LDA  ($1E), Y
 915D  18        CLC  
 915E  75 02     ADC  $02, X
 9160  91 1E     STA  ($1E), Y
 9162  C8        INY  
 9163  B1 1E     LDA  ($1E), Y
 9165  75 03     ADC  $03, X
 9167  91 1E     STA  ($1E), Y
 9169  E8        INX  
 916A  E8        INX  
 916B  E8        INX  
 916C  E8        INX  
 916D  60        RTS  
 916E  20 2D 90  JSR  $902D
 9171  B5 00     LDA  $00, X
 9173  15 01     ORA  $01, X
 9175  D0 05     BNE  $917C
 9177  A9 06     LDA  #$06
 9179  4C 7D AC  JMP  $AC7D
 917C  20 05 8A  JSR  $8A05
 917F  D0 05     BNE  $9186
 9181  A9 0C     LDA  #$0C
 9183  4C 7D AC  JMP  $AC7D
 9186  B5 00     LDA  $00, X
 9188  85 1E     STA  $1E
 918A  B5 01     LDA  $01, X
 918C  85 1F     STA  $1F
 918E  20 E2 8D  JSR  $8DE2
 9191  E6 1E     INC  $1E
 9193  D0 02     BNE  $9197
 9195  E6 1F     INC  $1F
 9197  B2 1E     LDA  ($1E)
 9199  29 04     AND  #$04
 919B  F0 05     BEQ  $91A2
 919D  20 FB 83  JSR  $83FB
 91A0  80 15     BRA  $91B7
 91A2  A9 8C     LDA  #$8C
 91A4  48        PHA  
 91A5  A9 16     LDA  #$16
 91A7  48        PHA  
 91A8  20 5A AB  JSR  $AB5A
 91AB  20 DB 83  JSR  $83DB
 91AE  A9 83     LDA  #$83
 91B0  48        PHA  
 91B1  A9 FB     LDA  #$FB
 91B3  48        PHA  
 91B4  20 5A AB  JSR  $AB5A
 91B7  60        RTS  
 91B8  20 9D 89  JSR  $899D
 91BB  20 A7 87  JSR  $87A7
 91BE  60        RTS  
 91BF  E0 77     CPX  #$77
 91C1  30 05     BMI  $91C8
 91C3  A9 0B     LDA  #$0B
 91C5  4C 7D AC  JMP  $AC7D
 91C8  B5 00     LDA  $00, X
 91CA  15 01     ORA  $01, X
 91CC  F0 0A     BEQ  $91D8
 91CE  CA        DEX  
 91CF  CA        DEX  
 91D0  B5 02     LDA  $02, X
 91D2  95 00     STA  $00, X
 91D4  B5 03     LDA  $03, X
 91D6  95 01     STA  $01, X
 91D8  60        RTS  
 91D9  7A        PLY  
 91DA  84 1E     STY  $1E
 91DC  7A        PLY  
 91DD  CA        DEX  
 91DE  CA        DEX  
 91DF  68        PLA  
 91E0  95 00     STA  $00, X
 91E2  68        PLA  
 91E3  95 01     STA  $01, X
 91E5  48        PHA  
 91E6  B5 00     LDA  $00, X
 91E8  48        PHA  
 91E9  5A        PHY  
 91EA  A4 1E     LDY  $1E
 91EC  5A        PHY  
 91ED  60        RTS  
 91EE  CA        DEX  
 91EF  CA        DEX  
 91F0  68        PLA  
 91F1  85 26     STA  $26
 91F3  7A        PLY  
 91F4  68        PLA  
 91F5  95 00     STA  $00, X
 91F7  68        PLA  
 91F8  95 01     STA  $01, X
 91FA  5A        PHY  
 91FB  A5 26     LDA  $26
 91FD  48        PHA  
 91FE  60        RTS  
 91FF  A0 00     LDY  #$00
 9201  A9 20     LDA  #$20
 9203  91 00     STA  ($00), Y
 9205  C8        INY  
 9206  A5 04     LDA  $04
 9208  18        CLC  
 9209  69 04     ADC  #$04
 920B  85 1E     STA  $1E
 920D  A5 05     LDA  $05
 920F  69 00     ADC  #$00
 9211  85 1F     STA  $1F
 9213  B2 1E     LDA  ($1E)
 9215  91 00     STA  ($00), Y
 9217  5A        PHY  
 9218  A0 01     LDY  #$01
 921A  B1 1E     LDA  ($1E), Y
 921C  7A        PLY  
 921D  C8        INY  
 921E  91 00     STA  ($00), Y
 9220  C8        INY  
 9221  98        TYA  
 9222  18        CLC  
 9223  65 00     ADC  $00
 9225  85 00     STA  $00
 9227  90 02     BCC  $922B
 9229  E6 01     INC  $01
 922B  60        RTS  
 922C  A5 06     LDA  $06
 922E  D0 29     BNE  $9259
 9230  CA        DEX  
 9231  CA        DEX  
 9232  CA        DEX  
 9233  CA        DEX  
 9234  A5 08     LDA  $08
 9236  95 02     STA  $02, X
 9238  A5 09     LDA  $09
 923A  95 03     STA  $03, X
 923C  64 0A     STZ  $0A
 923E  64 0B     STZ  $0B
 9240  A9 FF     LDA  #$FF
 9242  95 00     STA  $00, X
 9244  74 01     STZ  $01, X
 9246  20 09 81  JSR  $8109
 9249  B5 00     LDA  $00, X
 924B  85 0A     STA  $0A
 924D  B5 01     LDA  $01, X
 924F  85 0B     STA  $0B
 9251  A9 FF     LDA  #$FF
 9253  95 00     STA  $00, X
 9255  95 01     STA  $01, X
 9257  80 10     BRA  $9269
 9259  1A        INC  
 925A  D0 08     BNE  $9264
 925C  CA        DEX  
 925D  CA        DEX  
 925E  74 00     STZ  $00, X
 9260  74 01     STZ  $01, X
 9262  80 05     BRA  $9269
 9264  A9 09     LDA  #$09
 9266  4C 7D AC  JMP  $AC7D
 9269  60        RTS  
 926A  A9 FF     LDA  #$FF
 926C  85 16     STA  $16
 926E  85 17     STA  $17
 9270  60        RTS  
 9271  E0 73     CPX  #$73
 9273  30 05     BMI  $927A
 9275  A9 0B     LDA  #$0B
 9277  4C 7D AC  JMP  $AC7D
 927A  B5 05     LDA  $05, X
 927C  A8        TAY  
 927D  B5 03     LDA  $03, X
 927F  95 05     STA  $05, X
 9281  B5 01     LDA  $01, X
 9283  95 03     STA  $03, X
 9285  98        TYA  
 9286  95 01     STA  $01, X
 9288  B5 04     LDA  $04, X
 928A  A8        TAY  
 928B  B5 02     LDA  $02, X
 928D  95 04     STA  $04, X
 928F  B5 00     LDA  $00, X
 9291  95 02     STA  $02, X
 9293  98        TYA  
 9294  95 00     STA  $00, X
 9296  60        RTS  
 9297  E0 75     CPX  #$75
 9299  30 05     BMI  $92A0
 929B  A9 0B     LDA  #$0B
 929D  4C 7D AC  JMP  $AC7D
 92A0  B5 00     LDA  $00, X
 92A2  29 0F     AND  #$0F
 92A4  F0 08     BEQ  $92AE
 92A6  A8        TAY  
 92A7  56 03     LSR  $03, X
 92A9  76 02     ROR  $02, X
 92AB  88        DEY  
 92AC  D0 F9     BNE  $92A7
 92AE  E8        INX  
 92AF  E8        INX  
 92B0  60        RTS  
 92B1  CA        DEX  
 92B2  CA        DEX  
 92B3  A9 22     LDA  #$22
 92B5  95 00     STA  $00, X
 92B7  74 01     STZ  $01, X
 92B9  20 89 90  JSR  $9089
 92BC  B5 00     LDA  $00, X
 92BE  15 01     ORA  $01, X
 92C0  D0 06     BNE  $92C8
 92C2  E8        INX  
 92C3  E8        INX  
 92C4  E8        INX  
 92C5  E8        INX  
 92C6  80 39     BRA  $9301
 92C8  A5 16     LDA  $16
 92CA  05 17     ORA  $17
 92CC  F0 05     BEQ  $92D3
 92CE  20 7D 93  JSR  $937D
 92D1  80 2E     BRA  $9301
 92D3  B5 02     LDA  $02, X
 92D5  85 1E     STA  $1E
 92D7  B5 03     LDA  $03, X
 92D9  85 1F     STA  $1F
 92DB  A5 00     LDA  $00
 92DD  85 20     STA  $20
 92DF  A5 01     LDA  $01
 92E1  85 21     STA  $21
 92E3  B4 00     LDY  $00, X
 92E5  88        DEY  
 92E6  B1 1E     LDA  ($1E), Y
 92E8  91 20     STA  ($20), Y
 92EA  D0 F9     BNE  $92E5
 92EC  A5 00     LDA  $00
 92EE  95 02     STA  $02, X
 92F0  A5 01     LDA  $01
 92F2  95 03     STA  $03, X
 92F4  B5 00     LDA  $00, X
 92F6  18        CLC  
 92F7  65 00     ADC  $00
 92F9  85 00     STA  $00
 92FB  A5 01     LDA  $01
 92FD  69 00     ADC  #$00
 92FF  85 01     STA  $01
 9301  60        RTS  
 9302  E0 77     CPX  #$77
 9304  30 05     BMI  $930B
 9306  A9 0B     LDA  #$0B
 9308  4C 7D AC  JMP  $AC7D
 930B  CA        DEX  
 930C  CA        DEX  
 930D  74 00     STZ  $00, X
 930F  74 01     STZ  $01, X
 9311  B5 03     LDA  $03, X
 9313  10 04     BPL  $9319
 9315  D6 00     DEC  $00, X
 9317  D6 01     DEC  $01, X
 9319  60        RTS  
 931A  A0 06     LDY  #$06
 931C  A5 00     LDA  $00
 931E  91 04     STA  ($04), Y
 9320  C8        INY  
 9321  A5 01     LDA  $01
 9323  91 04     STA  ($04), Y
 9325  A9 60     LDA  #$60
 9327  92 00     STA  ($00)
 9329  E6 00     INC  $00
 932B  D0 02     BNE  $932F
 932D  E6 01     INC  $01
 932F  A5 04     LDA  $04
 9331  85 02     STA  $02
 9333  A5 05     LDA  $05
 9335  85 03     STA  $03
 9337  64 16     STZ  $16
 9339  64 17     STZ  $17
 933B  60        RTS  
 933C  E0 77     CPX  #$77
 933E  30 05     BMI  $9345
 9340  A9 0B     LDA  #$0B
 9342  4C 7D AC  JMP  $AC7D
 9345  B5 01     LDA  $01, X
 9347  30 04     BMI  $934D
 9349  E8        INX  
 934A  E8        INX  
 934B  80 09     BRA  $9356
 934D  A9 2D     LDA  #$2D
 934F  95 00     STA  $00, X
 9351  74 01     STZ  $01, X
 9353  20 DC 8A  JSR  $8ADC
 9356  60        RTS  
 9357  E0 73     CPX  #$73
 9359  30 05     BMI  $9360
 935B  A9 0B     LDA  #$0B
 935D  4C 7D AC  JMP  $AC7D
 9360  18        CLC  
 9361  B5 00     LDA  $00, X
 9363  75 04     ADC  $04, X
 9365  95 04     STA  $04, X
 9367  B5 01     LDA  $01, X
 9369  75 05     ADC  $05, X
 936B  95 05     STA  $05, X
 936D  38        SEC  
 936E  B5 02     LDA  $02, X
 9370  F5 00     SBC  $00, X
 9372  95 02     STA  $02, X
 9374  B5 03     LDA  $03, X
 9376  F5 01     SBC  $01, X
 9378  95 03     STA  $03, X
 937A  E8        INX  
 937B  E8        INX  
 937C  60        RTS  
 937D  E0 75     CPX  #$75
 937F  30 05     BMI  $9386
 9381  A9 0B     LDA  #$0B
 9383  4C 7D AC  JMP  $AC7D
 9386  B5 00     LDA  $00, X
 9388  85 26     STA  $26
 938A  B5 01     LDA  $01, X
 938C  85 27     STA  $27
 938E  B5 02     LDA  $02, X
 9390  85 1E     STA  $1E
 9392  B5 03     LDA  $03, X
 9394  85 1F     STA  $1F
 9396  A9 4C     LDA  #$4C
 9398  92 00     STA  ($00)
 939A  E6 00     INC  $00
 939C  D0 02     BNE  $93A0
 939E  E6 01     INC  $01
 93A0  A5 26     LDA  $26
 93A2  18        CLC  
 93A3  65 00     ADC  $00
 93A5  69 02     ADC  #$02
 93A7  92 00     STA  ($00)
 93A9  A5 27     LDA  $27
 93AB  65 01     ADC  $01
 93AD  A0 01     LDY  #$01
 93AF  91 00     STA  ($00), Y
 93B1  18        CLC  
 93B2  A5 00     LDA  $00
 93B4  69 02     ADC  #$02
 93B6  85 00     STA  $00
 93B8  A5 01     LDA  $01
 93BA  69 00     ADC  #$00
 93BC  85 01     STA  $01
 93BE  A4 26     LDY  $26
 93C0  88        DEY  
 93C1  B1 1E     LDA  ($1E), Y
 93C3  91 00     STA  ($00), Y
 93C5  88        DEY  
 93C6  10 F9     BPL  $93C1
 93C8  A5 00     LDA  $00
 93CA  85 22     STA  $22
 93CC  A5 01     LDA  $01
 93CE  85 23     STA  $23
 93D0  18        CLC  
 93D1  A5 00     LDA  $00
 93D3  65 26     ADC  $26
 93D5  85 00     STA  $00
 93D7  A5 01     LDA  $01
 93D9  65 27     ADC  $27
 93DB  85 01     STA  $01
 93DD  A9 93     LDA  #$93
 93DF  48        PHA  
 93E0  A9 FD     LDA  #$FD
 93E2  48        PHA  
 93E3  20 5A AB  JSR  $AB5A
 93E6  A5 23     LDA  $23
 93E8  48        PHA  
 93E9  A5 22     LDA  $22
 93EB  48        PHA  
 93EC  20 68 AB  JSR  $AB68
 93EF  A5 27     LDA  $27
 93F1  48        PHA  
 93F2  A5 26     LDA  $26
 93F4  48        PHA  
 93F5  20 68 AB  JSR  $AB68
 93F8  E8        INX  
 93F9  E8        INX  
 93FA  E8        INX  
 93FB  E8        INX  
 93FC  60        RTS  
 93FD  CA        DEX  
 93FE  CA        DEX  
 93FF  CA        DEX  
 9400  CA        DEX  
 9401  68        PLA  
 9402  85 1E     STA  $1E
 9404  68        PLA  
 9405  85 1F     STA  $1F
 9407  A0 01     LDY  #$01
 9409  B1 1E     LDA  ($1E), Y
 940B  95 02     STA  $02, X
 940D  C8        INY  
 940E  B1 1E     LDA  ($1E), Y
 9410  95 03     STA  $03, X
 9412  C8        INY  
 9413  B1 1E     LDA  ($1E), Y
 9415  95 00     STA  $00, X
 9417  C8        INY  
 9418  B1 1E     LDA  ($1E), Y
 941A  95 01     STA  $01, X
 941C  18        CLC  
 941D  A5 1E     LDA  $1E
 941F  69 04     ADC  #$04
 9421  A8        TAY  
 9422  A5 1F     LDA  $1F
 9424  69 00     ADC  #$00
 9426  48        PHA  
 9427  5A        PHY  
 9428  60        RTS  
 9429  E0 73     CPX  #$73
 942B  30 05     BMI  $9432
 942D  A9 0B     LDA  #$0B
 942F  4C 7D AC  JMP  $AC7D
 9432  B5 03     LDA  $03, X
 9434  48        PHA  
 9435  B5 01     LDA  $01, X
 9437  55 03     EOR  $03, X
 9439  48        PHA  
 943A  20 EE 80  JSR  $80EE
 943D  E8        INX  
 943E  E8        INX  
 943F  20 F6 85  JSR  $85F6
 9442  CA        DEX  
 9443  CA        DEX  
 9444  20 D8 97  JSR  $97D8
 9447  68        PLA  
 9448  10 03     BPL  $944D
 944A  20 30 8E  JSR  $8E30
 944D  68        PLA  
 944E  10 07     BPL  $9457
 9450  E8        INX  
 9451  E8        INX  
 9452  20 30 8E  JSR  $8E30
 9455  CA        DEX  
 9456  CA        DEX  
 9457  60        RTS  
 9458  CA        DEX  
 9459  CA        DEX  
 945A  A5 08     LDA  $08
 945C  95 00     STA  $00, X
 945E  A5 09     LDA  $09
 9460  95 01     STA  $01, X
 9462  CA        DEX  
 9463  CA        DEX  
 9464  A5 0A     LDA  $0A
 9466  95 00     STA  $00, X
 9468  A5 0B     LDA  $0B
 946A  95 01     STA  $01, X
 946C  60        RTS  
 946D  CA        DEX  
 946E  CA        DEX  
 946F  A5 06     LDA  $06
 9471  95 00     STA  $00, X
 9473  A5 07     LDA  $07
 9475  95 01     STA  $01, X
 9477  60        RTS  
 9478  A9 20     LDA  #$20
 947A  20 98 88  JSR  $8898
 947D  60        RTS  
 947E  E0 77     CPX  #$77
 9480  30 05     BMI  $9487
 9482  A9 0B     LDA  #$0B
 9484  4C 7D AC  JMP  $AC7D
 9487  B5 00     LDA  $00, X
 9489  15 01     ORA  $01, X
 948B  F0 26     BEQ  $94B3
 948D  A9 20     LDA  #$20
 948F  B4 01     LDY  $01, X
 9491  D0 0A     BNE  $949D
 9493  B4 00     LDY  $00, X
 9495  20 98 88  JSR  $8898
 9498  88        DEY  
 9499  F0 18     BEQ  $94B3
 949B  80 F8     BRA  $9495
 949D  B4 00     LDY  $00, X
 949F  F0 06     BEQ  $94A7
 94A1  20 98 88  JSR  $8898
 94A4  88        DEY  
 94A5  80 F8     BRA  $949F
 94A7  A0 00     LDY  #$00
 94A9  20 98 88  JSR  $8898
 94AC  88        DEY  
 94AD  D0 FA     BNE  $94A9
 94AF  D6 01     DEC  $01, X
 94B1  D0 F4     BNE  $94A7
 94B3  E8        INX  
 94B4  E8        INX  
 94B5  60        RTS  
 94B6  E0 75     CPX  #$75
 94B8  30 05     BMI  $94BF
 94BA  A9 0B     LDA  #$0B
 94BC  4C 7D AC  JMP  $AC7D
 94BF  20 20 98  JSR  $9820
 94C2  E8        INX  
 94C3  E8        INX  
 94C4  60        RTS  
 94C5  CA        DEX  
 94C6  CA        DEX  
 94C7  A9 16     LDA  #$16
 94C9  95 00     STA  $00, X
 94CB  A9 00     LDA  #$00
 94CD  95 01     STA  $01, X
 94CF  60        RTS  
 94D0  E0 75     CPX  #$75
 94D2  30 05     BMI  $94D9
 94D4  A9 0B     LDA  #$0B
 94D6  4C 7D AC  JMP  $AC7D
 94D9  B5 02     LDA  $02, X
 94DB  81 00     STA  ($00, X)
 94DD  F6 00     INC  $00, X
 94DF  D0 02     BNE  $94E3
 94E1  F6 01     INC  $01, X
 94E3  B5 03     LDA  $03, X
 94E5  81 00     STA  ($00, X)
 94E7  E8        INX  
 94E8  E8        INX  
 94E9  E8        INX  
 94EA  E8        INX  
 94EB  60        RTS  
 94EC  E0 75     CPX  #$75
 94EE  30 05     BMI  $94F5
 94F0  A9 0B     LDA  #$0B
 94F2  20 7D AC  JSR  $AC7D
 94F5  B5 00     LDA  $00, X
 94F7  B4 02     LDY  $02, X
 94F9  95 02     STA  $02, X
 94FB  94 00     STY  $00, X
 94FD  B5 01     LDA  $01, X
 94FF  B4 03     LDY  $03, X
 9501  95 03     STA  $03, X
 9503  94 01     STY  $01, X
 9505  60        RTS  
 9506  20 2D 90  JSR  $902D
 9509  B5 00     LDA  $00, X
 950B  15 01     ORA  $01, X
 950D  D0 05     BNE  $9514
 950F  A9 06     LDA  #$06
 9511  4C 7D AC  JMP  $AC7D
 9514  20 05 8A  JSR  $8A05
 9517  B5 00     LDA  $00, X
 9519  15 01     ORA  $01, X
 951B  D0 05     BNE  $9522
 951D  A9 0C     LDA  #$0C
 951F  4C 7D AC  JMP  $AC7D
 9522  20 E2 8D  JSR  $8DE2
 9525  60        RTS  
 9526  E0 77     CPX  #$77
 9528  30 05     BMI  $952F
 952A  A9 0B     LDA  #$0B
 952C  4C 7D AC  JMP  $AC7D
 952F  A1 00     LDA  ($00, X)
 9531  C9 20     CMP  #$20
 9533  D0 4E     BNE  $9583
 9535  B5 00     LDA  $00, X
 9537  85 1E     STA  $1E
 9539  B5 01     LDA  $01, X
 953B  85 1F     STA  $1F
 953D  A0 01     LDY  #$01
 953F  B1 1E     LDA  ($1E), Y
 9541  C9 D0     CMP  #$D0
 9543  D0 08     BNE  $954D
 9545  C8        INY  
 9546  B1 1E     LDA  ($1E), Y
 9548  C9 AB     CMP  #$AB
 954A  F0 2A     BEQ  $9576
 954C  88        DEY  
 954D  B1 1E     LDA  ($1E), Y
 954F  C9 89     CMP  #$89
 9551  D0 08     BNE  $955B
 9553  C8        INY  
 9554  B1 1E     LDA  ($1E), Y
 9556  C9 AB     CMP  #$AB
 9558  F0 1C     BEQ  $9576
 955A  88        DEY  
 955B  B1 1E     LDA  ($1E), Y
 955D  C9 9D     CMP  #$9D
 955F  D0 08     BNE  $9569
 9561  C8        INY  
 9562  B1 1E     LDA  ($1E), Y
 9564  C9 AB     CMP  #$AB
 9566  F0 0E     BEQ  $9576
 9568  88        DEY  
 9569  B1 1E     LDA  ($1E), Y
 956B  C9 B6     CMP  #$B6
 956D  D0 14     BNE  $9583
 956F  C8        INY  
 9570  B1 1E     LDA  ($1E), Y
 9572  C9 AB     CMP  #$AB
 9574  D0 0D     BNE  $9583
 9576  18        CLC  
 9577  B5 00     LDA  $00, X
 9579  69 03     ADC  #$03
 957B  95 00     STA  $00, X
 957D  B5 01     LDA  $01, X
 957F  69 00     ADC  #$00
 9581  95 01     STA  $01, X
 9583  60        RTS  
 9584  CA        DEX  
 9585  CA        DEX  
 9586  A9 0C     LDA  #$0C
 9588  95 00     STA  $00, X
 958A  A9 00     LDA  #$00
 958C  95 01     STA  $01, X
 958E  60        RTS  
 958F  E0 71     CPX  #$71
 9591  30 05     BMI  $9598
 9593  A9 0B     LDA  #$0B
 9595  4C 7D AC  JMP  $AC7D
 9598  B5 06     LDA  $06, X
 959A  85 2A     STA  $2A
 959C  B5 07     LDA  $07, X
 959E  85 2B     STA  $2B
 95A0  B5 04     LDA  $04, X
 95A2  85 2C     STA  $2C
 95A4  B5 05     LDA  $05, X
 95A6  85 2D     STA  $2D
 95A8  CA        DEX  
 95A9  CA        DEX  
 95AA  A1 04     LDA  ($04, X)
 95AC  95 00     STA  $00, X
 95AE  74 01     STZ  $01, X
 95B0  20 64 86  JSR  $8664
 95B3  B5 00     LDA  $00, X
 95B5  D0 04     BNE  $95BB
 95B7  E8        INX  
 95B8  E8        INX  
 95B9  80 67     BRA  $9622
 95BB  B5 02     LDA  $02, X
 95BD  85 2E     STA  $2E
 95BF  B5 03     LDA  $03, X
 95C1  85 2F     STA  $2F
 95C3  A5 2C     LDA  $2C
 95C5  95 02     STA  $02, X
 95C7  A5 2D     LDA  $2D
 95C9  95 03     STA  $03, X
 95CB  A5 18     LDA  $18
 95CD  95 00     STA  $00, X
 95CF  74 01     STZ  $01, X
 95D1  20 20 98  JSR  $9820
 95D4  B5 02     LDA  $02, X
 95D6  85 30     STA  $30
 95D8  B5 03     LDA  $03, X
 95DA  85 31     STA  $31
 95DC  A5 2A     LDA  $2A
 95DE  95 02     STA  $02, X
 95E0  A5 2B     LDA  $2B
 95E2  95 03     STA  $03, X
 95E4  A5 18     LDA  $18
 95E6  95 00     STA  $00, X
 95E8  74 01     STZ  $01, X
 95EA  20 20 98  JSR  $9820
 95ED  B5 00     LDA  $00, X
 95EF  85 2C     STA  $2C
 95F1  B5 01     LDA  $01, X
 95F3  85 2D     STA  $2D
 95F5  B5 02     LDA  $02, X
 95F7  85 2A     STA  $2A
 95F9  B5 03     LDA  $03, X
 95FB  85 2B     STA  $2B
 95FD  18        CLC  
 95FE  A5 2A     LDA  $2A
 9600  65 2E     ADC  $2E
 9602  85 2A     STA  $2A
 9604  A5 2B     LDA  $2B
 9606  65 2F     ADC  $2F
 9608  85 2B     STA  $2B
 960A  A5 2C     LDA  $2C
 960C  65 30     ADC  $30
 960E  85 2C     STA  $2C
 9610  A5 2D     LDA  $2D
 9612  65 31     ADC  $31
 9614  85 2D     STA  $2D
 9616  E8        INX  
 9617  E8        INX  
 9618  F6 04     INC  $04, X
 961A  D0 02     BNE  $961E
 961C  F6 05     INC  $05, X
 961E  D6 02     DEC  $02, X
 9620  D0 88     BNE  $95AA
 9622  E8        INX  
 9623  E8        INX  
 9624  A5 2A     LDA  $2A
 9626  95 06     STA  $06, X
 9628  A5 2B     LDA  $2B
 962A  95 07     STA  $07, X
 962C  A5 2C     LDA  $2C
 962E  95 04     STA  $04, X
 9630  A5 2D     LDA  $2D
 9632  95 05     STA  $05, X
 9634  60        RTS  
 9635  68        PLA  
 9636  85 26     STA  $26
 9638  7A        PLY  
 9639  E0 77     CPX  #$77
 963B  30 05     BMI  $9642
 963D  A9 0B     LDA  #$0B
 963F  4C 7D AC  JMP  $AC7D
 9642  B5 01     LDA  $01, X
 9644  48        PHA  
 9645  B5 00     LDA  $00, X
 9647  48        PHA  
 9648  5A        PHY  
 9649  A5 26     LDA  $26
 964B  48        PHA  
 964C  E8        INX  
 964D  E8        INX  
 964E  60        RTS  
 964F  CA        DEX  
 9650  CA        DEX  
 9651  A9 FF     LDA  #$FF
 9653  95 00     STA  $00, X
 9655  95 01     STA  $01, X
 9657  60        RTS  
 9658  E0 75     CPX  #$75
 965A  30 05     BMI  $9661
 965C  A9 0B     LDA  #$0B
 965E  4C 7D AC  JMP  $AC7D
 9661  CA        DEX  
 9662  CA        DEX  
 9663  B5 02     LDA  $02, X
 9665  95 00     STA  $00, X
 9667  B5 03     LDA  $03, X
 9669  95 01     STA  $01, X
 966B  B4 04     LDY  $04, X
 966D  94 02     STY  $02, X
 966F  B4 05     LDY  $05, X
 9671  94 03     STY  $03, X
 9673  95 05     STA  $05, X
 9675  B5 00     LDA  $00, X
 9677  95 04     STA  $04, X
 9679  60        RTS  
 967A  CA        DEX  
 967B  CA        DEX  
 967C  A9 02     LDA  #$02
 967E  95 00     STA  $00, X
 9680  74 01     STZ  $01, X
 9682  60        RTS  
 9683  E0 75     CPX  #$75
 9685  30 05     BMI  $968C
 9687  A9 0B     LDA  #$0B
 9689  4C 7D AC  JMP  $AC7D
 968C  E8        INX  
 968D  E8        INX  
 968E  E8        INX  
 968F  E8        INX  
 9690  60        RTS  
 9691  E0 75     CPX  #$75
 9693  30 05     BMI  $969A
 9695  A9 0B     LDA  #$0B
 9697  4C 7D AC  JMP  $AC7D
 969A  CA        DEX  
 969B  CA        DEX  
 969C  CA        DEX  
 969D  CA        DEX  
 969E  B5 04     LDA  $04, X
 96A0  95 00     STA  $00, X
 96A2  B5 05     LDA  $05, X
 96A4  95 01     STA  $01, X
 96A6  B5 06     LDA  $06, X
 96A8  95 02     STA  $02, X
 96AA  B5 07     LDA  $07, X
 96AC  95 03     STA  $03, X
 96AE  60        RTS  
 96AF  E0 71     CPX  #$71
 96B1  30 05     BMI  $96B8
 96B3  A9 0B     LDA  #$0B
 96B5  4C 7D AC  JMP  $AC7D
 96B8  CA        DEX  
 96B9  CA        DEX  
 96BA  CA        DEX  
 96BB  CA        DEX  
 96BC  B5 08     LDA  $08, X
 96BE  95 00     STA  $00, X
 96C0  B5 09     LDA  $09, X
 96C2  95 01     STA  $01, X
 96C4  B5 0A     LDA  $0A, X
 96C6  95 02     STA  $02, X
 96C8  B5 0B     LDA  $0B, X
 96CA  95 03     STA  $03, X
 96CC  60        RTS  
 96CD  CA        DEX  
 96CE  CA        DEX  
 96CF  CA        DEX  
 96D0  CA        DEX  
 96D1  8A        TXA  
 96D2  BA        TSX  
 96D3  DA        PHX  
 96D4  7A        PLY  
 96D5  AA        TAX  
 96D6  B9 03 01  LDA  $0103, Y
 96D9  95 00     STA  $00, X
 96DB  B9 04 01  LDA  $0104, Y
 96DE  95 01     STA  $01, X
 96E0  B9 05 01  LDA  $0105, Y
 96E3  95 02     STA  $02, X
 96E5  B9 06 01  LDA  $0106, Y
 96E8  95 03     STA  $03, X
 96EA  60        RTS  
 96EB  68        PLA  
 96EC  85 1E     STA  $1E
 96EE  68        PLA  
 96EF  85 1F     STA  $1F
 96F1  CA        DEX  
 96F2  CA        DEX  
 96F3  CA        DEX  
 96F4  CA        DEX  
 96F5  68        PLA  
 96F6  95 00     STA  $00, X
 96F8  68        PLA  
 96F9  95 01     STA  $01, X
 96FB  68        PLA  
 96FC  95 02     STA  $02, X
 96FE  68        PLA  
 96FF  95 03     STA  $03, X
 9701  A5 1F     LDA  $1F
 9703  48        PHA  
 9704  A5 1E     LDA  $1E
 9706  48        PHA  
 9707  60        RTS  
 9708  E0 77     CPX  #$77
 970A  30 05     BMI  $9711
 970C  A9 0B     LDA  #$0B
 970E  4C 7D AC  JMP  $AC7D
 9711  16 00     ASL  $00, X
 9713  36 01     ROL  $01, X
 9715  60        RTS  
 9716  E0 71     CPX  #$71
 9718  30 05     BMI  $971F
 971A  A9 0B     LDA  #$0B
 971C  4C 7D AC  JMP  $AC7D
 971F  B5 00     LDA  $00, X
 9721  B4 04     LDY  $04, X
 9723  95 04     STA  $04, X
 9725  94 00     STY  $00, X
 9727  B5 01     LDA  $01, X
 9729  B4 05     LDY  $05, X
 972B  95 05     STA  $05, X
 972D  94 01     STY  $01, X
 972F  B5 02     LDA  $02, X
 9731  B4 06     LDY  $06, X
 9733  95 06     STA  $06, X
 9735  94 02     STY  $02, X
 9737  B5 03     LDA  $03, X
 9739  B4 07     LDY  $07, X
 973B  95 07     STA  $07, X
 973D  94 03     STY  $03, X
 973F  60        RTS  
 9740  68        PLA  
 9741  85 1E     STA  $1E
 9743  68        PLA  
 9744  85 1F     STA  $1F
 9746  E0 75     CPX  #$75
 9748  30 05     BMI  $974F
 974A  A9 0B     LDA  #$0B
 974C  4C 7D AC  JMP  $AC7D
 974F  B5 03     LDA  $03, X
 9751  48        PHA  
 9752  B5 02     LDA  $02, X
 9754  48        PHA  
 9755  B5 01     LDA  $01, X
 9757  48        PHA  
 9758  B5 00     LDA  $00, X
 975A  48        PHA  
 975B  E8        INX  
 975C  E8        INX  
 975D  E8        INX  
 975E  E8        INX  
 975F  A5 1F     LDA  $1F
 9761  48        PHA  
 9762  A5 1E     LDA  $1E
 9764  48        PHA  
 9765  60        RTS  
 9766  20 0D 85  JSR  $850D
 9769  CA        DEX  
 976A  CA        DEX  
 976B  A9 04     LDA  #$04
 976D  95 00     STA  $00, X
 976F  74 01     STZ  $01, X
 9771  20 9D 81  JSR  $819D
 9774  60        RTS  
 9775  E0 75     CPX  #$75
 9777  30 05     BMI  $977E
 9779  A9 0B     LDA  #$0B
 977B  4C 7D AC  JMP  $AC7D
 977E  B5 00     LDA  $00, X
 9780  15 01     ORA  $01, X
 9782  F0 18     BEQ  $979C
 9784  B5 02     LDA  $02, X
 9786  85 1E     STA  $1E
 9788  B5 03     LDA  $03, X
 978A  85 1F     STA  $1F
 978C  A0 00     LDY  #$00
 978E  B5 00     LDA  $00, X
 9790  85 20     STA  $20
 9792  B1 1E     LDA  ($1E), Y
 9794  20 98 88  JSR  $8898
 9797  C8        INY  
 9798  C4 20     CPY  $20
 979A  D0 F6     BNE  $9792
 979C  E8        INX  
 979D  E8        INX  
 979E  E8        INX  
 979F  E8        INX  
 97A0  60        RTS  
 97A1  E0 77     CPX  #$77
 97A3  30 05     BMI  $97AA
 97A5  A9 0B     LDA  #$0B
 97A7  4C 7D AC  JMP  $AC7D
 97AA  20 AF AC  JSR  $ACAF
 97AD  A9 20     LDA  #$20
 97AF  20 98 88  JSR  $8898
 97B2  60        RTS  
 97B3  E0 73     CPX  #$73
 97B5  30 05     BMI  $97BC
 97B7  A9 0B     LDA  #$0B
 97B9  4C 7D AC  JMP  $AC7D
 97BC  20 35 96  JSR  $9635
 97BF  20 5F 99  JSR  $995F
 97C2  20 D9 91  JSR  $91D9
 97C5  20 D8 97  JSR  $97D8
 97C8  20 71 92  JSR  $9271
 97CB  20 71 92  JSR  $9271
 97CE  20 EE 91  JSR  $91EE
 97D1  20 D8 97  JSR  $97D8
 97D4  20 71 92  JSR  $9271
 97D7  60        RTS  
 97D8  E0 73     CPX  #$73
 97DA  30 05     BMI  $97E1
 97DC  A9 0B     LDA  #$0B
 97DE  4C 7D AC  JMP  $AC7D
 97E1  B5 00     LDA  $00, X
 97E3  15 01     ORA  $01, X
 97E5  D0 05     BNE  $97EC
 97E7  A9 03     LDA  #$03
 97E9  4C 7D AC  JMP  $AC7D
 97EC  A9 11     LDA  #$11
 97EE  85 26     STA  $26
 97F0  36 04     ROL  $04, X
 97F2  36 05     ROL  $05, X
 97F4  C6 26     DEC  $26
 97F6  F0 22     BEQ  $981A
 97F8  36 02     ROL  $02, X
 97FA  36 03     ROL  $03, X
 97FC  64 1E     STZ  $1E
 97FE  26 1E     ROL  $1E
 9800  38        SEC  
 9801  B5 02     LDA  $02, X
 9803  F5 00     SBC  $00, X
 9805  85 1F     STA  $1F
 9807  B5 03     LDA  $03, X
 9809  F5 01     SBC  $01, X
 980B  A8        TAY  
 980C  A5 1E     LDA  $1E
 980E  E9 00     SBC  #$00
 9810  90 DE     BCC  $97F0
 9812  A5 1F     LDA  $1F
 9814  95 02     STA  $02, X
 9816  94 03     STY  $03, X
 9818  80 D6     BRA  $97F0
 981A  E8        INX  
 981B  E8        INX  
 981C  20 EC 94  JSR  $94EC
 981F  60        RTS  
 9820  E0 75     CPX  #$75
 9822  30 05     BMI  $9829
 9824  A9 0B     LDA  #$0B
 9826  4C 7D AC  JMP  $AC7D
 9829  18        CLC  
 982A  B5 00     LDA  $00, X
 982C  E9 00     SBC  #$00
 982E  85 20     STA  $20
 9830  B5 01     LDA  $01, X
 9832  E9 00     SBC  #$00
 9834  90 31     BCC  $9867
 9836  85 21     STA  $21
 9838  A9 00     LDA  #$00
 983A  85 1E     STA  $1E
 983C  86 22     STX  $22
 983E  CA        DEX  
 983F  CA        DEX  
 9840  A0 08     LDY  #$08
 9842  56 04     LSR  $04, X
 9844  90 0C     BCC  $9852
 9846  85 1F     STA  $1F
 9848  A5 1E     LDA  $1E
 984A  65 20     ADC  $20
 984C  85 1E     STA  $1E
 984E  A5 1F     LDA  $1F
 9850  65 21     ADC  $21
 9852  6A        ROR  
 9853  66 1E     ROR  $1E
 9855  76 04     ROR  $04, X
 9857  88        DEY  
 9858  D0 EA     BNE  $9844
 985A  E8        INX  
 985B  E4 22     CPX  $22
 985D  D0 E1     BNE  $9840
 985F  95 01     STA  $01, X
 9861  A5 1E     LDA  $1E
 9863  95 00     STA  $00, X
 9865  80 04     BRA  $986B
 9867  74 02     STZ  $02, X
 9869  74 03     STZ  $03, X
 986B  60        RTS  
 986C  68        PLA  
 986D  68        PLA  
 986E  68        PLA  
 986F  68        PLA  
 9870  68        PLA  
 9871  68        PLA  
 9872  60        RTS  
 9873  CA        DEX  
 9874  CA        DEX  
 9875  A9 FF     LDA  #$FF
 9877  38        SEC  
 9878  E5 00     SBC  $00
 987A  95 00     STA  $00, X
 987C  A9 7F     LDA  #$7F
 987E  E5 01     SBC  $01
 9880  95 01     STA  $01, X
 9882  60        RTS  
 9883  20 0D 85  JSR  $850D
 9886  A9 00     LDA  #$00
 9888  92 00     STA  ($00)
 988A  E6 00     INC  $00
 988C  D0 02     BNE  $9890
 988E  E6 01     INC  $01
 9890  92 00     STA  ($00)
 9892  E6 00     INC  $00
 9894  D0 00     BNE  $9896
 9896  E6 01     INC  $01
 9898  20 C3 84  JSR  $84C3
 989B  60        RTS  
 989C  E0 77     CPX  #$77
 989E  30 05     BMI  $98A5
 98A0  A9 0B     LDA  #$0B
 98A2  4C 7D AC  JMP  $AC7D
 98A5  A4 0C     LDY  $0C
 98A7  C4 0A     CPY  $0A
 98A9  F0 09     BEQ  $98B4
 98AB  B1 08     LDA  ($08), Y
 98AD  D5 00     CMP  $00, X
 98AF  D0 03     BNE  $98B4
 98B1  C8        INY  
 98B2  80 F3     BRA  $98A7
 98B4  84 0C     STY  $0C
 98B6  20 89 90  JSR  $9089
 98B9  B5 00     LDA  $00, X
 98BB  92 00     STA  ($00)
 98BD  48        PHA  
 98BE  20 77 88  JSR  $8877
 98C1  A5 00     LDA  $00
 98C3  18        CLC  
 98C4  69 01     ADC  #$01
 98C6  95 02     STA  $02, X
 98C8  A5 01     LDA  $01
 98CA  69 00     ADC  #$00
 98CC  95 03     STA  $03, X
 98CE  20 C3 8D  JSR  $8DC3
 98D1  CA        DEX  
 98D2  CA        DEX  
 98D3  A5 00     LDA  $00
 98D5  95 00     STA  $00, X
 98D7  A5 01     LDA  $01
 98D9  95 01     STA  $01, X
 98DB  68        PLA  
 98DC  18        CLC  
 98DD  65 00     ADC  $00
 98DF  85 00     STA  $00
 98E1  A5 01     LDA  $01
 98E3  69 00     ADC  #$00
 98E5  85 01     STA  $01
 98E7  20 07 85  JSR  $8507
 98EA  20 BB 8B  JSR  $8BBB
 98ED  A9 00     LDA  #$00
 98EF  48        PHA  
 98F0  20 77 88  JSR  $8877
 98F3  20 05 8E  JSR  $8E05
 98F6  68        PLA  
 98F7  18        CLC  
 98F8  75 00     ADC  $00, X
 98FA  1A        INC  
 98FB  C9 4F     CMP  #$4F
 98FD  90 05     BCC  $9904
 98FF  20 07 85  JSR  $8507
 9902  A9 00     LDA  #$00
 9904  48        PHA  
 9905  20 75 97  JSR  $9775
 9908  A9 20     LDA  #$20
 990A  20 98 88  JSR  $8898
 990D  20 B8 8F  JSR  $8FB8
 9910  20 B8 8F  JSR  $8FB8
 9913  20 9D 89  JSR  $899D
 9916  B5 00     LDA  $00, X
 9918  15 01     ORA  $01, X
 991A  D0 D4     BNE  $98F0
 991C  68        PLA  
 991D  E8        INX  
 991E  E8        INX  
 991F  60        RTS  
 9920  E0 77     CPX  #$77
 9922  30 05     BMI  $9929
 9924  A9 0B     LDA  #$0B
 9926  4C 7D AC  JMP  $AC7D
 9929  B5 00     LDA  $00, X
 992B  85 1E     STA  $1E
 992D  B5 01     LDA  $01, X
 992F  85 1F     STA  $1F
 9931  A0 06     LDY  #$06
 9933  B1 1E     LDA  ($1E), Y
 9935  88        DEY  
 9936  88        DEY  
 9937  38        SEC  
 9938  F1 1E     SBC  ($1E), Y
 993A  95 00     STA  $00, X
 993C  A0 07     LDY  #$07
 993E  B1 1E     LDA  ($1E), Y
 9940  88        DEY  
 9941  88        DEY  
 9942  F1 1E     SBC  ($1E), Y
 9944  95 01     STA  $01, X
 9946  60        RTS  
 9947  E0 75     CPX  #$75
 9949  30 05     BMI  $9950
 994B  A9 0B     LDA  #$0B
 994D  4C 7D AC  JMP  $AC7D
 9950  B5 00     LDA  $00, X
 9952  55 02     EOR  $02, X
 9954  95 02     STA  $02, X
 9956  B5 01     LDA  $01, X
 9958  55 03     EOR  $03, X
 995A  95 03     STA  $03, X
 995C  E8        INX  
 995D  E8        INX  
 995E  60        RTS  
 995F  CA        DEX  
 9960  CA        DEX  
 9961  74 00     STZ  $00, X
 9963  74 01     STZ  $01, X
 9965  60        RTS  
 9966  A9 99     LDA  #$99
 9968  48        PHA  
 9969  A9 70     LDA  #$70
 996B  48        PHA  
 996C  20 5A AB  JSR  $AB5A
 996F  60        RTS  
 9970  68        PLA  
 9971  85 1C     STA  $1C
 9973  68        PLA  
 9974  85 1D     STA  $1D
 9976  B5 00     LDA  $00, X
 9978  15 01     ORA  $01, X
 997A  F0 13     BEQ  $998F
 997C  A5 1C     LDA  $1C
 997E  18        CLC  
 997F  69 02     ADC  #$02
 9981  85 1E     STA  $1E
 9983  A5 1D     LDA  $1D
 9985  90 02     BCC  $9989
 9987  E6 1F     INC  $1F
 9989  A5 1D     LDA  $1D
 998B  85 1F     STA  $1F
 998D  80 13     BRA  $99A2
 998F  A0 01     LDY  #$01
 9991  B1 1C     LDA  ($1C), Y
 9993  85 1E     STA  $1E
 9995  C8        INY  
 9996  B1 1C     LDA  ($1C), Y
 9998  85 1F     STA  $1F
 999A  A5 1E     LDA  $1E
 999C  D0 02     BNE  $99A0
 999E  C6 1F     DEC  $1F
 99A0  C6 1E     DEC  $1E
 99A2  A5 1F     LDA  $1F
 99A4  48        PHA  
 99A5  A5 1E     LDA  $1E
 99A7  48        PHA  
 99A8  E8        INX  
 99A9  E8        INX  
 99AA  60        RTS  
 99AB  E0 77     CPX  #$77
 99AD  30 05     BMI  $99B4
 99AF  A9 0B     LDA  #$0B
 99B1  4C 7D AC  JMP  $AC7D
 99B4  B5 00     LDA  $00, X
 99B6  15 01     ORA  $01, X
 99B8  F0 04     BEQ  $99BE
 99BA  A9 00     LDA  #$00
 99BC  80 02     BRA  $99C0
 99BE  A9 FF     LDA  #$FF
 99C0  95 00     STA  $00, X
 99C2  95 01     STA  $01, X
 99C4  60        RTS  
 99C5  E0 77     CPX  #$77
 99C7  30 05     BMI  $99CE
 99C9  A9 0B     LDA  #$0B
 99CB  4C 7D AC  JMP  $AC7D
 99CE  A0 00     LDY  #$00
 99D0  B5 01     LDA  $01, X
 99D2  30 05     BMI  $99D9
 99D4  15 00     ORA  $00, X
 99D6  F0 01     BEQ  $99D9
 99D8  88        DEY  
 99D9  98        TYA  
 99DA  95 00     STA  $00, X
 99DC  95 01     STA  $01, X
 99DE  60        RTS  
 99DF  E0 77     CPX  #$77
 99E1  30 05     BMI  $99E8
 99E3  A9 0B     LDA  #$0B
 99E5  4C 7D AC  JMP  $AC7D
 99E8  A0 00     LDY  #$00
 99EA  B5 01     LDA  $01, X
 99EC  10 01     BPL  $99EF
 99EE  88        DEY  
 99EF  98        TYA  
 99F0  95 00     STA  $00, X
 99F2  95 01     STA  $01, X
 99F4  60        RTS  
 99F5  E0 77     CPX  #$77
 99F7  30 05     BMI  $99FE
 99F9  A9 0B     LDA  #$0B
 99FB  4C 7D AC  JMP  $AC7D
 99FE  A0 00     LDY  #$00
 9A00  B5 00     LDA  $00, X
 9A02  15 01     ORA  $01, X
 9A04  F0 01     BEQ  $9A07
 9A06  88        DEY  
 9A07  98        TYA  
 9A08  95 00     STA  $00, X
 9A0A  95 01     STA  $01, X
 9A0C  60        RTS  
 9A0D  20 3A 20 28 20 5B 63 68 61 72 5D 20 29 20 70 61  | : ( [char] ) pa|
 9A1D  72 73 65 20 32 64 72 6F 70 20 3B 20 69 6D 6D 65  |rse 2drop ; imme|
 9A2D  64 69 61 74 65 20 3A 20 2E 28 20 5B 63 68 61 72  |diate : .( [char|
 9A3D  5D 20 29 20 70 61 72 73 65 20 74 79 70 65 20 3B  |] ) parse type ;|
 9A4D  20 69 6D 6D 65 64 69 61 74 65 20 3A 20 69 66 20  | immediate : if |
 9A5D  70 6F 73 74 70 6F 6E 65 20 30 62 72 61 6E 63 68  |postpone 0branch|
 9A6D  20 68 65 72 65 20 30 20 2C 20 3B 20 69 6D 6D 65  | here 0 , ; imme|
 9A7D  64 69 61 74 65 20 63 6F 6D 70 69 6C 65 2D 6F 6E  |diate compile-on|
 9A8D  6C 79 20 3A 20 74 68 65 6E 20 68 65 72 65 20 73  |ly : then here s|
 9A9D  77 61 70 20 21 20 3B 20 69 6D 6D 65 64 69 61 74  |wap ! ; immediat|
 9AAD  65 20 63 6F 6D 70 69 6C 65 2D 6F 6E 6C 79 20 3A  |e compile-only :|
 9ABD  20 65 6C 73 65 20 70 6F 73 74 70 6F 6E 65 20 62  | else postpone b|
 9ACD  72 61 6E 63 68 20 68 65 72 65 20 30 20 2C 20 68  |ranch here 0 , h|
 9ADD  65 72 65 20 72 6F 74 20 21 20 3B 20 69 6D 6D 65  |ere rot ! ; imme|
 9AED  64 69 61 74 65 20 63 6F 6D 70 69 6C 65 2D 6F 6E  |diate compile-on|
 9AFD  6C 79 20 3A 20 72 65 70 65 61 74 20 70 6F 73 74  |ly : repeat post|
 9B0D  70 6F 6E 65 20 61 67 61 69 6E 20 68 65 72 65 20  |pone again here |
 9B1D  73 77 61 70 20 21 20 3B 20 69 6D 6D 65 64 69 61  |swap ! ; immedia|
 9B2D  74 65 20 63 6F 6D 70 69 6C 65 2D 6F 6E 6C 79 20  |te compile-only |
 9B3D  3A 20 75 6E 74 69 6C 20 70 6F 73 74 70 6F 6E 65  |: until postpone|
 9B4D  20 30 62 72 61 6E 63 68 20 2C 20 3B 20 69 6D 6D  | 0branch , ; imm|
 9B5D  65 64 69 61 74 65 20 63 6F 6D 70 69 6C 65 2D 6F  |ediate compile-o|
 9B6D  6E 6C 79 20 3A 20 77 68 69 6C 65 20 70 6F 73 74  |nly : while post|
 9B7D  70 6F 6E 65 20 30 62 72 61 6E 63 68 20 68 65 72  |pone 0branch her|
 9B8D  65 20 30 20 2C 20 73 77 61 70 20 3B 20 69 6D 6D  |e 0 , swap ; imm|
 9B9D  65 64 69 61 74 65 20 63 6F 6D 70 69 6C 65 2D 6F  |ediate compile-o|
 9BAD  6E 6C 79 20 3A 20 64 65 66 65 72 21 20 3E 62 6F  |nly : defer! >bo|
 9BBD  64 79 20 21 20 3B 20 3A 20 64 65 66 65 72 40 20  |dy ! ; : defer@ |
 9BCD  3E 62 6F 64 79 20 40 20 3B 20 3A 20 69 73 20 73  |>body @ ; : is s|
 9BDD  74 61 74 65 20 40 20 69 66 20 70 6F 73 74 70 6F  |tate @ if postpo|
 9BED  6E 65 20 5B 27 5D 20 70 6F 73 74 70 6F 6E 65 20  |ne ['] postpone |
 9BFD  64 65 66 65 72 21 20 65 6C 73 65 20 27 20 64 65  |defer! else ' de|
 9C0D  66 65 72 21 20 74 68 65 6E 20 3B 20 69 6D 6D 65  |fer! then ; imme|
 9C1D  64 69 61 74 65 20 3A 20 61 63 74 69 6F 6E 2D 6F  |diate : action-o|
 9C2D  66 20 73 74 61 74 65 20 40 20 69 66 20 70 6F 73  |f state @ if pos|
 9C3D  74 70 6F 6E 65 20 5B 27 5D 20 70 6F 73 74 70 6F  |tpone ['] postpo|
 9C4D  6E 65 20 64 65 66 65 72 40 20 65 6C 73 65 20 27  |ne defer@ else '|
 9C5D  20 64 65 66 65 72 40 20 74 68 65 6E 20 3B 20 69  | defer@ then ; i|
 9C6D  6D 6D 65 64 69 61 74 65 20 3A 20 2F 20 3E 72 20  |mmediate : / >r |
 9C7D  73 3E 64 20 72 3E 20 73 6D 2F 72 65 6D 20 73 77  |s>d r> sm/rem sw|
 9C8D  61 70 20 64 72 6F 70 20 3B 20 3A 20 2F 6D 6F 64  |ap drop ; : /mod|
 9C9D  20 3E 72 20 73 3E 64 20 72 3E 20 73 6D 2F 72 65  | >r s>d r> sm/re|
 9CAD  6D 20 3B 20 3A 20 6D 6F 64 20 2F 6D 6F 64 20 64  |m ; : mod /mod d|
 9CBD  72 6F 70 20 3B 20 3A 20 2A 2F 20 3E 72 20 6D 2A  |rop ; : */ >r m*|
 9CCD  20 72 3E 20 73 6D 2F 72 65 6D 20 73 77 61 70 20  | r> sm/rem swap |
 9CDD  64 72 6F 70 20 3B 20 3A 20 2A 2F 6D 6F 64 20 3E  |drop ; : */mod >|
 9CED  72 20 6D 2A 20 72 3E 20 73 6D 2F 72 65 6D 20 3B  |r m* r> sm/rem ;|
 9CFD  20 3A 20 75 2E 72 20 3E 72 20 30 20 3C 23 20 23  | : u.r >r 0 <# #|
 9D0D  73 20 23 3E 20 72 3E 20 6F 76 65 72 20 2D 20 73  |s #> r> over - s|
 9D1D  70 61 63 65 73 20 74 79 70 65 20 3B 20 3A 20 2E  |paces type ; : .|
 9D2D  72 20 3E 72 20 64 75 70 20 61 62 73 20 30 20 3C  |r >r dup abs 0 <|
 9D3D  23 20 23 73 20 72 6F 74 20 73 69 67 6E 20 23 3E  |# #s rot sign #>|
 9D4D  20 72 3E 20 6F 76 65 72 20 2D 20 73 70 61 63 65  | r> over - space|
 9D5D  73 20 74 79 70 65 20 3B 20 3A 20 75 64 2E 20 3C  |s type ; : ud. <|
 9D6D  23 20 23 73 20 23 3E 20 74 79 70 65 20 73 70 61  |# #s #> type spa|
 9D7D  63 65 20 3B 20 3A 20 75 64 2E 72 20 3E 72 20 3C  |ce ; : ud.r >r <|
 9D8D  23 20 23 73 20 23 3E 20 72 3E 20 6F 76 65 72 20  |# #s #> r> over |
 9D9D  2D 20 73 70 61 63 65 73 20 74 79 70 65 20 3B 20  |- spaces type ; |
 9DAD  3A 20 64 2E 20 74 75 63 6B 20 64 61 62 73 20 3C  |: d. tuck dabs <|
 9DBD  23 20 23 73 20 72 6F 74 20 73 69 67 6E 20 23 3E  |# #s rot sign #>|
 9DCD  20 74 79 70 65 20 73 70 61 63 65 20 3B 20 3A 20  | type space ; : |
 9DDD  64 2E 72 20 3E 72 20 74 75 63 6B 20 64 61 62 73  |d.r >r tuck dabs|
 9DED  20 3C 23 20 23 73 20 72 6F 74 20 73 69 67 6E 20  | <# #s rot sign |
 9DFD  23 3E 20 72 3E 20 6F 76 65 72 20 2D 20 73 70 61  |#> r> over - spa|
 9E0D  63 65 73 20 74 79 70 65 20 3B 20 3A 20 74 6F 20  |ces type ; : to |
 9E1D  27 20 3E 62 6F 64 79 20 21 20 3B 20 3A 20 77 69  |' >body ! ; : wi|
 9E2D  74 68 69 6E 20 72 6F 74 20 74 75 63 6B 20 3E 20  |thin rot tuck > |
 9E3D  2D 72 6F 74 20 3E 20 69 6E 76 65 72 74 20 61 6E  |-rot > invert an|
 9E4D  64 20 3B 20 2E 28 20 54 61 6C 69 20 46 6F 72 74  |d ; .( Tali Fort|
 9E5D  68 20 32 20 66 6F 72 20 74 68 65 20 36 35 63 30  |h 2 for the 65c0|
 9E6D  32 29 20 63 72 20 2E 28 20 56 65 72 73 69 6F 6E  |2) cr .( Version|
 9E7D  20 41 4C 50 48 41 20 30 37 2E 20 4D 61 72 20 32  | ALPHA 07. Mar 2|
 9E8D  30 31 38 20 29 20 63 72 20 2E 28 20 43 6F 70 79  |018 ) cr .( Copy|
 9E9D  72 69 67 68 74 20 32 30 31 34 2D 32 30 31 38 20  |right 2014-2018 |
 9EAD  53 63 6F 74 20 57 2E 20 53 74 65 76 65 6E 73 6F  |Scot W. Stevenso|
 9EBD  6E 29 20 63 72 20 2E 28 20 54 61 6C 69 20 46 6F  |n) cr .( Tali Fo|
 9ECD  72 74 68 20 32 20 63 6F 6D 65 73 20 77 69 74 68  |rth 2 comes with|
 9EDD  20 61 62 73 6F 6C 75 74 65 6C 79 20 4E 4F 20 57  | absolutely NO W|
 9EED  41 52 52 41 4E 54 59 29 20 63 72 20 2E 28 20 54  |ARRANTY) cr .( T|
 9EFD  79 70 65 20 27 62 79 65 27 20 74 6F 20 65 78 69  |ype 'bye' to exi|
 9F0D  74 29 20 63 72 20 20 3A 20 73 65 65 20 70 61 72  |t) cr  : see par|
 9F1D  73 65 2D 6E 61 6D 65 20 66 69 6E 64 2D 6E 61 6D  |se-name find-nam|
 9F2D  65 20 64 75 70 20 30 3D 20 61 62 6F 72 74 22 20  |e dup 0= abort" |
 9F3D  4E 6F 20 73 75 63 68 20 6E 61 6D 65 22 20 62 61  |No such name" ba|
 9F4D  73 65 20 40 20 3E 72 20 68 65 78 20 64 75 70 20  |se @ >r hex dup |
 9F5D  63 72 20 73 70 61 63 65 20 2E 22 20 6E 74 3A 20  |cr space ." nt: |
 9F6D  22 20 75 2E 20 64 75 70 20 34 20 2B 20 40 20 73  |" u. dup 4 + @ s|
 9F7D  70 61 63 65 20 2E 22 20 78 74 3A 20 22 20 75 2E  |pace ." xt: " u.|
 9F8D  20 64 75 70 20 31 2B 20 63 40 20 31 20 61 6E 64  | dup 1+ c@ 1 and|
 9F9D  20 69 66 20 73 70 61 63 65 20 2E 22 20 43 4F 20  | if space ." CO |
 9FAD  22 20 74 68 65 6E 20 64 75 70 20 31 2B 20 63 40  |" then dup 1+ c@|
 9FBD  20 32 20 61 6E 64 20 69 66 20 73 70 61 63 65 20  | 2 and if space |
 9FCD  2E 22 20 41 4E 20 22 20 74 68 65 6E 20 64 75 70  |." AN " then dup|
 9FDD  20 31 2B 20 63 40 20 34 20 61 6E 64 20 69 66 20  | 1+ c@ 4 and if |
 9FED  73 70 61 63 65 20 2E 22 20 49 4D 20 22 20 74 68  |space ." IM " th|
 9FFD  65 6E 20 64 75 70 20 31 2B 20 63 40 20 38 20 61  |en dup 1+ c@ 8 a|
 A00D  6E 64 20 69 66 20 73 70 61 63 65 20 2E 22 20 4E  |nd if space ." N|
 A01D  4E 20 22 20 74 68 65 6E 20 64 75 70 20 63 72 20  |N " then dup cr |
 A02D  73 70 61 63 65 20 2E 22 20 73 69 7A 65 20 28 64  |space ." size (d|
 A03D  65 63 69 6D 61 6C 29 3A 20 22 20 64 65 63 69 6D  |ecimal): " decim|
 A04D  61 6C 20 77 6F 72 64 73 69 7A 65 20 64 75 70 20  |al wordsize dup |
 A05D  2E 20 73 77 61 70 20 6E 61 6D 65 3E 69 6E 74 20  |. swap name>int |
 A06D  73 77 61 70 20 68 65 78 20 63 72 20 73 70 61 63  |swap hex cr spac|
 A07D  65 20 64 75 6D 70 20 72 3E 20 62 61 73 65 20 21  |e dump r> base !|
 A08D  20 3B 20 03 00 00 00 B6 82 B7 82 62 79 65 04 00  | ; ........bye..|
 A09D  90 A0 00 80 CC 80 63 6F 6C 64 04 00 9B A0 9C 98  |......cold......|
 A0AD  E7 98 77 6F 72 64 04 00 A7 A0 B7 89 04 8A 66 69  |..word........fi|
 A0BD  6E 64 02 00 B3 A0 DC 87 1F 88 2E 73 04 00 BF A0  |nd.........s....|
 A0CD  2C 88 76 88 64 75 6D 70 04 00 C9 A0 5C 82 61 82  |,.v.dump....\.a.|
 A0DD  62 65 6C 6C 05 00 D5 A0 9C 81 9C 81 61 6C 69 67  |bell........alig|
 A0ED  6E 07 00 E1 A0 9C 81 9C 81 61 6C 69 67 6E 65 64  |n........aligned|
 A0FD  08 00 EE A0 20 99 46 99 77 6F 72 64 73 69 7A 65  |.... .F.wordsize|
 A10D  05 00 FD A0 E7 98 1F 99 77 6F 72 64 73 06 04 0D  |........words...|
 A11D  A1 F1 8C 39 8D 6D 61 72 6B 65 72 05 00 1A A1 19  |...9.marker.....|
 A12D  82 3C 82 61 74 2D 78 79 04 00 28 A1 0F 90 2C 90  |.<.at-xy..(...,.|
 A13D  70 61 67 65 02 00 35 A1 07 85 0C 85 63 72 05 00  |page..5.....cr..|
 A14D  41 A1 1A 8B 24 8B 69 6E 70 75 74 06 00 4B A1 E0  |A...$.input..K..|
 A15D  8F EA 8F 6F 75 74 70 75 74 04 00 58 A1 3C 93 56  |...output..X.<.V|
 A16D  93 73 69 67 6E 04 00 66 A1 DC 8A F3 8A 68 6F 6C  |.sign..f.....hol|
 A17D  64 02 00 72 A1 5E 8F 85 8F 23 3E 02 00 7E A1 86  |d..r.^...#>..~..|
 A18D  8F 9C 8F 23 73 01 00 88 A1 3B 8F 5D 8F 23 02 00  |...#s....;.].#..|
 A19D  92 A1 D7 8B E4 8B 3C 23 03 00 9B A1 84 95 8E 95  |......<#........|
 A1AD  3E 69 6E 03 00 A5 A1 FF 8F 0E 90 70 61 64 05 00  |>in........pad..|
 A1BD  B0 A1 27 83 67 83 63 6D 6F 76 65 06 00 BB A1 68  |..'.g.cmove....h|
 A1CD  83 A8 83 63 6D 6F 76 65 3E 04 08 C8 A1 C3 8D E1  |...cmove>.......|
 A1DD  8D 6D 6F 76 65 01 00 D6 A1 3D 82 45 82 5C 06 00  |.move....=.E.\..|
 A1ED  E2 A1 72 8A AE 8A 66 6D 2F 6D 6F 64 06 00 EB A1  |..r...fm/mod....|
 A1FD  29 94 57 94 73 6D 2F 72 65 6D 06 00 F9 A1 B3 97  |).W.sm/rem......|
 A20D  D7 97 75 64 2F 6D 6F 64 06 00 07 A2 D8 97 1F 98  |..ud/mod........|
 A21D  75 6D 2F 6D 6F 64 01 00 15 A2 B6 94 C4 94 2A 03  |um/mod........*.|
 A22D  00 23 A2 20 98 6B 98 75 6D 2A 02 00 2C A2 D0 8C  |.#. .k.um*..,...|
 A23D  F0 8C 6D 2A 05 00 37 A2 ED 84 06 85 63 6F 75 6E  |..m*..7.....coun|
 A24D  74 07 00 41 A2 1B 86 21 86 64 65 63 69 6D 61 6C  |t..A...!.decimal|
 A25D  03 00 4E A2 D5 8A DB 8A 68 65 78 07 00 5D A2 8F  |..N.....hex..]..|
 A26D  95 34 96 3E 6E 75 6D 62 65 72 06 00 68 A2 AE 8E  |.4.>number..h...|
 A27D  3A 8F 6E 75 6D 62 65 72 06 00 77 A2 64 86 9E 86  |:.number..w.d...|
 A28D  64 69 67 69 74 3F 04 00 85 A2 46 82 50 82 62 61  |digit?....F.P.ba|
 A29D  73 65 08 00 93 A2 16 89 76 89 65 76 61 6C 75 61  |se......v.evalua|
 A2AD  74 65 05 00 9F A2 C5 94 CF 94 73 74 61 74 65 05  |te........state.|
 A2BD  07 AF A2 75 81 9B 81 61 67 61 69 6E 05 07 BC A2  |...u...again....|
 A2CD  51 82 5B 82 62 65 67 69 6E 04 00 C9 A2 84 80 CC  |Q.[.begin.......|
 A2DD  80 71 75 69 74 07 0D D6 A2 FF 91 2B 92 72 65 63  |.quit......+.rec|
 A2ED  75 72 73 65 05 03 E2 A2 CD 8B D2 8B 6C 65 61 76  |urse........leav|
 A2FD  65 06 03 F1 A2 6C 98 72 98 75 6E 6C 6F 6F 70 04  |e....l.r.unloop.|
 A30D  03 FE A2 95 89 96 89 65 78 69 74 05 05 0C A3 3E  |.......exit....>|
 A31D  8C A4 8C 2B 6C 6F 6F 70 04 05 18 A3 35 8C A4 8C  |...+loop....5...|
 A32D  6C 6F 6F 70 01 03 25 A3 91 8B AD 8B 6A 01 03 31  |loop..%.....j..1|
 A33D  A3 F4 8A 10 8B 69 03 0D 3A A3 CA 86 2A 87 3F 64  |.....i..:...*.?d|
 A34D  6F 02 0D 43 A3 D0 86 2A 87 64 6F 06 05 4E A3 CC  |o..C...*.do..N..|
 A35D  80 D8 80 61 62 6F 72 74 22 05 00 58 A3 82 80 CC  |...abort"..X....|
 A36D  80 61 62 6F 72 74 08 00 66 A3 25 8E 2F 8E 6E 63  |.abort..f.%./.nc|
 A37D  2D 6C 69 6D 69 74 0D 00 73 A3 F8 81 00 82 61 6C  |-limit..s.....al|
 A38D  77 61 79 73 2D 6E 61 74 69 76 65 0C 00 83 A3 47  |ways-native....G|
 A39D  8E 4F 8E 6E 65 76 65 72 2D 6E 61 74 69 76 65 0C  |.O.never-native.|
 A3AD  00 98 A3 91 84 99 84 63 6F 6D 70 69 6C 65 2D 6F  |.......compile-o|
 A3BD  6E 6C 79 09 00 AC A3 11 8B 19 8B 69 6D 6D 65 64  |nly........immed|
 A3CD  69 61 74 65 08 05 C0 A3 6E 91 B7 91 70 6F 73 74  |iate....n...post|
 A3DD  70 6F 6E 65 02 04 D1 A3 B1 92 01 93 73 22 02 05  |pone........s"..|
 A3ED  E1 A3 CF 87 DB 87 2E 22 08 05 EB A3 7D 93 FC 93  |......."....}...|
 A3FD  73 6C 69 74 65 72 61 6C 07 05 F5 A3 00 8C 15 8C  |sliteral........|
 A40D  6C 69 74 65 72 61 6C 06 0D 05 A4 98 82 A1 82 62  |literal........b|
 A41D  72 61 6E 63 68 07 0D 14 A4 66 99 6F 99 30 62 72  |ranch....f.o.0br|
 A42D  61 6E 63 68 01 04 22 A4 6A 92 70 92 5D 01 05 31  |anch..".j.p.]..1|
 A43D  A4 D2 8B D6 8B 5B 08 00 3A A4 FB 83 90 84 63 6F  |.....[..:.....co|
 A44D  6D 70 69 6C 65 2C 01 05 43 A4 1A 93 3B 93 3B 01  |mpile,..C...;.;.|
 A45D  00 53 A4 A9 83 DA 83 3A 09 00 5C A4 6D 94 77 94  |.S.....:..\.m.w.|
 A46D  73 6F 75 72 63 65 2D 69 64 06 00 65 A4 58 94 6C  |source-id..e.X.l|
 A47D  94 73 6F 75 72 63 65 05 00 76 A4 89 90 19 91 70  |.source..v.....p|
 A48D  61 72 73 65 0A 00 84 A4 2D 90 19 91 70 61 72 73  |arse....-...pars|
 A49D  65 2D 6E 61 6D 65 08 00 91 A4 BB 8B C5 8B 6C 61  |e-name........la|
 A4AD  74 65 73 74 6E 74 08 00 A3 A4 C6 8B CC 8B 6C 61  |testnt........la|
 A4BD  74 65 73 74 78 74 05 00 B3 A4 22 86 54 86 64 65  |testxt....".T.de|
 A4CD  66 65 72 05 00 C3 A4 26 95 83 95 3E 62 6F 64 79  |fer....&...>body|
 A4DD  0B 00 D0 A4 05 8E 24 8E 6E 61 6D 65 3E 73 74 72  |......$.name>str|
 A4ED  69 6E 67 08 00 DD A4 25 8B 7A 8B 69 6E 74 3E 6E  |ing....%.z.int>n|
 A4FD  61 6D 65 08 00 F0 A4 E2 8D 04 8E 6E 61 6D 65 3E  |ame........name>|
 A50D  69 6E 74 03 05 00 A5 91 82 97 82 5B 27 5D 01 00  |int........[']..|
 A51D  10 A5 06 95 25 95 27 09 00 1B A5 05 8A 71 8A 66  |....%.'......q.f|
 A52D  69 6E 64 2D 6E 61 6D 65 04 00 24 A5 CD 88 15 89  |ind-name..$.....|
 A53D  66 69 6C 6C 05 00 35 A5 BD 88 15 89 62 6C 61 6E  |fill..5.....blan|
 A54D  6B 05 00 41 A5 C7 88 15 89 65 72 61 73 65 02 00  |k..A.....erase..|
 A55D  4E A5 C3 85 E9 85 64 2B 02 00 5B A5 9C 85 C2 85  |N.....d+..[.....|
 A56D  64 2D 03 00 65 A5 EA 85 F5 85 64 3E 73 03 00 6F  |d-..e.....d>s..o|
 A57D  A5 02 93 19 93 73 3E 64 05 00 7A A5 9A 84 EC 84  |.....s>d..z.....|
 A58D  76 61 6C 75 65 08 00 85 A5 9A 84 EC 84 63 6F 6E  |value........con|
 A59D  73 74 61 6E 74 08 00 92 A5 83 98 9B 98 76 61 72  |stant........var|
 A5AD  69 61 62 6C 65 05 05 A2 A5 65 87 77 87 64 6F 65  |iable....e.w.doe|
 A5BD  73 3E 06 00 B2 A5 0D 85 9B 85 63 72 65 61 74 65  |s>........create|
 A5CD  05 00 BF A5 9D 81 F7 81 61 6C 6C 6F 74 03 00 CD  |........allot...|
 A5DD  A5 AE 8B BB 8B 6B 65 79 05 00 DA A5 55 86 63 86  |.....key....U.c.|
 A5ED  64 65 70 74 68 06 00 E5 A5 73 98 82 98 75 6E 75  |depth....s...unu|
 A5FD  73 65 64 06 00 F2 A5 09 81 74 81 61 63 63 65 70  |sed......t.accep|
 A60D  74 06 00 00 A6 2C 92 69 92 72 65 66 69 6C 6C 07  |t....,.i.refill.|
 A61D  00 0E A6 57 93 7C 93 2F 73 74 72 69 6E 67 09 00  |...W.|./string..|
 A62D  1C A6 97 8D C2 8D 2D 74 72 61 69 6C 69 6E 67 02  |......-trailing.|
 A63D  00 2B A6 62 82 6A 82 62 6C 06 00 3C A6 7E 94 B5  |.+.b.j.bl..<.~..|
 A64D  94 73 70 61 63 65 73 06 00 46 A6 6B 82 89 82 62  |.spaces..F.k...b|
 A65D  6F 75 6E 64 73 02 00 54 A6 B8 82 CD 82 63 2C 07  |ounds..T.....c,.|
 A66D  00 62 A6 9F 86 C9 86 64 6E 65 67 61 74 65 06 00  |.b.....dnegate..|
 A67D  6C A6 30 8E 46 8E 6E 65 67 61 74 65 06 00 7B A6  |l.0.F.negate..{.|
 A68D  7B 8B 90 8B 69 6E 76 65 72 74 03 09 89 A6 40 97  |{...invert....@.|
 A69D  65 97 32 3E 72 03 09 97 A6 EB 96 07 97 32 72 3E  |e.2>r........2r>|
 A6AD  03 09 A2 A6 CD 96 EA 96 32 72 40 09 00 AD A6 66  |........2r@....f|
 A6BD  97 74 97 32 76 61 72 69 61 62 6C 65 05 00 B8 A6  |.t.2variable....|
 A6CD  AF 96 CC 96 32 6F 76 65 72 05 00 C9 A6 16 97 3F  |....2over......?|
 A6DD  97 32 73 77 61 70 05 00 D6 A6 83 96 90 96 32 64  |.2swap........2d|
 A6ED  72 6F 70 03 00 E3 A6 3A 8D 5B 8D 6D 61 78 03 00  |rop....:.[.max..|
 A6FD  F0 A6 5C 8D 7D 8D 6D 69 6E 02 00 FB A6 DF 99 F4  |..\.}.min.......|
 A70D  99 30 3C 02 00 06 A7 C5 99 DE 99 30 3E 03 00 10  |.0<........0>...|
 A71D  A7 F5 99 0C 9A 30 3C 3E 02 00 1A A7 AB 99 C4 99  |.....0<>........|
 A72D  30 3D 01 00 25 A7 AF 8A C9 8A 3E 01 00 2F A7 E5  |0=..%.....>../..|
 A73D  8B FF 8B 3C 02 00 38 A7 64 8E 87 8E 3C 3E 01 00  |...<..8.d...<>..|
 A74D  41 A7 9B 88 BC 88 3D 02 00 4B A7 08 97 15 97 32  |A.....=..K.....2|
 A75D  2A 02 00 54 A7 B8 8F C7 8F 31 2B 02 00 5E A7 A6  |*..T.....1+..^..|
 A76D  8F B7 8F 31 2D 04 00 68 A7 CA 8A D4 8A 68 65 72  |...1-..h.....her|
 A77D  65 05 00 72 A7 F0 82 05 83 63 65 6C 6C 2B 05 00  |e..r.....cell+..|
 A78D  7E A7 08 97 15 97 63 65 6C 6C 73 05 02 8B A7 1D  |~.....cells.....|
 A79D  83 26 83 63 68 61 72 73 05 00 98 A7 B8 8F C7 8F  |.&.chars........|
 A7AD  63 68 61 72 2B 06 05 A5 A7 8A 82 90 82 5B 63 68  |char+........[ch|
 A7BD  61 72 5D 04 00 B2 A7 06 83 1C 83 63 68 61 72 04  |ar]........char.|
 A7CD  00 C0 A7 1A 91 2E 91 70 69 63 6B 06 00 CC A7 B6  |.......pick.....|
 A7DD  8C CF 8C 6C 73 68 69 66 74 06 00 D8 A7 97 92 B0  |...lshift.......|
 A7ED  92 72 73 68 69 66 74 03 00 E6 A7 47 99 5E 99 78  |.rshift....G.^.x|
 A7FD  6F 72 02 00 F4 A7 C8 8F DF 8F 6F 72 03 00 FF A7  |or........or....|
 A80D  01 82 18 82 61 6E 64 04 00 09 A8 F6 85 1A 86 64  |....and........d|
 A81D  61 62 73 03 00 14 A8 EE 80 08 81 61 62 73 01 00  |abs........abs..|
 A82D  20 A8 7E 8D 96 8D 2D 01 00 2B A8 2F 91 47 91 2B  | .~...-..+./.G.+|
 A83D  04 00 34 A8 BF 91 D8 91 3F 64 75 70 04 00 3D A8  |..4.....?dup..=.|
 A84D  91 96 AE 96 32 64 75 70 01 00 49 A8 7A 96 82 96  |....2dup..I.z...|
 A85D  32 01 00 55 A8 9D 8F A5 8F 31 01 00 5E A8 5F 99  |2..U.....1..^._.|
 A86D  65 99 30 05 00 67 A8 78 94 7D 94 73 70 61 63 65  |e.0..g.x.}.space|
 A87D  04 00 70 A8 4F 96 57 96 74 72 75 65 05 00 7D A8  |..p.O.W.true..}.|
 A88D  96 89 9C 89 66 61 6C 73 65 01 00 89 A8 B8 91 BE  |....false.......|
 A89D  91 3F 02 00 96 A8 A1 97 B2 97 75 2E 01 00 9F A8  |.?........u.....|
 A8AD  A7 87 CE 87 2E 04 00 A9 A8 75 97 A0 97 74 79 70  |.........u...typ|
 A8BD  65 04 08 B2 A8 8B 88 9B 88 65 6D 69 74 07 00 BE  |e........emit...|
 A8CD  A8 77 89 94 89 65 78 65 63 75 74 65 02 00 CA A8  |.w...execute....|
 A8DD  48 91 6D 91 2B 21 02 00 D9 A8 DE 82 EF 82 63 21  |H.m.+!........c!|
 A8ED  02 00 E3 A8 CE 82 DD 82 63 40 01 00 ED A8 DB 83  |........c@......|
 A8FD  FA 83 2C 04 00 F7 A8 58 96 79 96 74 75 63 6B 04  |..,....X.y.tuck.|
 A90D  00 00 A9 88 8E AD 8E 2D 72 6F 74 03 00 0C A9 71  |.......-rot....q|
 A91D  92 96 92 72 6F 74 03 00 18 A9 50 8E 63 8E 6E 69  |...rot....P.c.ni|
 A92D  70 02 08 23 A9 D9 91 ED 91 72 40 02 08 2E A9 EE  |p..#.....r@.....|
 A93D  91 FE 91 72 3E 02 01 38 A9 35 96 4E 96 3E 72 04  |...r>..8.5.N.>r.|
 A94D  00 42 A9 EB 8F FE 8F 6F 76 65 72 01 00 4C A9 9D  |.B.....over..L..|
 A95D  89 B6 89 40 01 00 58 A9 D0 94 EB 94 21 04 00 61  |...@..X.....!..a|
 A96D  A9 EC 94 05 95 73 77 61 70 03 00 6A A9 77 88 8A  |.....swap..j.w..|
 A97D  88 64 75 70 04 00 76 A9 20 88 2B 88 64 72 6F 70  |.dup..v. .+.drop|
 A98D  99 A9 9D A9 00 00 00 00 A7 A9 CA A9 20 6F 6B 00  |............ ok.|
 A99D  20 63 6F 6D 70 69 6C 65 64 00 30 31 32 33 34 35  | compiled.012345|
 A9AD  36 37 38 39 61 62 63 64 65 66 67 68 69 6A 6B 6C  |6789abcdefghijkl|
 A9BD  6D 6E 6F 70 71 72 73 74 75 76 77 79 7A 30 31 32  |mnopqrstuvwyz012|
 A9CD  33 34 35 36 37 38 39 41 42 43 44 45 46 47 48 49  |3456789ABCDEFGHI|
 A9DD  4A 4B 4C 4D 4E 4F 50 51 52 53 54 55 56 57 59 5A  |JKLMNOPQRSTUVWYZ|
 A9ED  09 AA 2A AA 4B AA 68 AA 00 00 79 AA 8F AA BE AA  |..*.K.h...y.....|
 A9FD  D5 AA 03 AB 23 AB 4A AB 3B AB 9F AA 41 4C 4C 4F  |....#.J.;...ALLO|
 AA0D  54 20 75 73 69 6E 67 20 61 6C 6C 20 61 76 61 69  |T using all avai|
 AA1D  6C 61 62 6C 65 20 6D 65 6D 6F 72 79 00 49 6E 74  |lable memory.Int|
 AA2D  65 72 70 72 65 74 69 6E 67 20 61 20 63 6F 6D 70  |erpreting a comp|
 AA3D  69 6C 65 2D 6F 6E 6C 79 20 77 6F 72 64 00 44 45  |ile-only word.DE|
 AA4D  46 45 52 65 64 20 77 6F 72 64 20 6E 6F 74 20 64  |FERed word not d|
 AA5D  65 66 69 6E 65 64 20 79 65 74 00 44 69 76 69 73  |efined yet.Divis|
 AA6D  69 6F 6E 20 62 79 20 7A 65 72 6F 00 4E 6F 74 20  |ion by zero.Not |
 AA7D  69 6E 20 69 6E 74 65 72 70 72 65 74 20 6D 6F 64  |in interpret mod|
 AA8D  65 00 50 61 72 73 69 6E 67 20 66 61 69 6C 75 72  |e.Parsing failur|
 AA9D  65 00 4E 6F 20 73 75 63 68 20 78 74 20 66 6F 75  |e.No such xt fou|
 AAAD  6E 64 20 69 6E 20 44 69 63 74 69 6F 6E 61 72 79  |nd in Dictionary|
 AABD  00 44 69 67 69 74 20 6C 61 72 67 65 72 20 74 68  |.Digit larger th|
 AACD  61 6E 20 62 61 73 65 00 51 55 49 54 20 63 6F 75  |an base.QUIT cou|
 AADD  6C 64 20 6E 6F 74 20 67 65 74 20 69 6E 70 75 74  |ld not get input|
 AAED  20 28 52 45 46 49 4C 4C 20 72 65 74 75 72 6E 65  | (REFILL returne|
 AAFD  64 20 2D 31 29 00 49 6C 6C 65 67 61 6C 20 53 4F  |d -1).Illegal SO|
 AB0D  55 52 43 45 2D 49 44 20 64 75 72 69 6E 67 20 52  |URCE-ID during R|
 AB1D  45 46 49 4C 4C 00 41 6C 72 65 61 64 79 20 69 6E  |EFILL.Already in|
 AB2D  20 63 6F 6D 70 69 6C 65 20 6D 6F 64 65 00 55 6E  | compile mode.Un|
 AB3D  64 65 66 69 6E 65 64 20 77 6F 72 64 00 53 74 61  |defined word.Sta|
 AB4D  63 6B 20 75 6E 64 65 72 66 6C 6F 77 00           |ck underflow.   |
 AB5A  A9 20     LDA  #$20
 AB5C  80 02     BRA  $AB60
 AB5E  A9 4C     LDA  #$4C
 AB60  92 00     STA  ($00)
 AB62  E6 00     INC  $00
 AB64  D0 02     BNE  $AB68
 AB66  E6 01     INC  $01
 AB68  68        PLA  
 AB69  85 1E     STA  $1E
 AB6B  68        PLA  
 AB6C  85 1F     STA  $1F
 AB6E  A0 00     LDY  #$00
 AB70  68        PLA  
 AB71  91 00     STA  ($00), Y
 AB73  C8        INY  
 AB74  68        PLA  
 AB75  91 00     STA  ($00), Y
 AB77  A5 00     LDA  $00
 AB79  18        CLC  
 AB7A  69 02     ADC  #$02
 AB7C  85 00     STA  $00
 AB7E  90 02     BCC  $AB82
 AB80  E6 01     INC  $01
 AB82  A5 1F     LDA  $1F
 AB84  48        PHA  
 AB85  A5 1E     LDA  $1E
 AB87  48        PHA  
 AB88  60        RTS  
 AB89  CA        DEX  
 AB8A  CA        DEX  
 AB8B  68        PLA  
 AB8C  85 1E     STA  $1E
 AB8E  68        PLA  
 AB8F  85 1F     STA  $1F
 AB91  A0 01     LDY  #$01
 AB93  B1 1E     LDA  ($1E), Y
 AB95  95 00     STA  $00, X
 AB97  C8        INY  
 AB98  B1 1E     LDA  ($1E), Y
 AB9A  95 01     STA  $01, X
 AB9C  60        RTS  
 AB9D  68        PLA  
 AB9E  85 1E     STA  $1E
 ABA0  68        PLA  
 ABA1  85 1F     STA  $1F
 ABA3  A0 01     LDY  #$01
 ABA5  B1 1E     LDA  ($1E), Y
 ABA7  85 20     STA  $20
 ABA9  C8        INY  
 ABAA  B1 1E     LDA  ($1E), Y
 ABAC  85 21     STA  $21
 ABAE  6C 20 00  JMP  ($0020)
 ABB1  A9 02     LDA  #$02
 ABB3  4C 7D AC  JMP  $AC7D
 ABB6  7A        PLY  
 ABB7  68        PLA  
 ABB8  C8        INY  
 ABB9  D0 01     BNE  $ABBC
 ABBB  1A        INC  
 ABBC  84 20     STY  $20
 ABBE  85 21     STA  $21
 ABC0  CA        DEX  
 ABC1  CA        DEX  
 ABC2  7A        PLY  
 ABC3  68        PLA  
 ABC4  C8        INY  
 ABC5  18        CLC  
 ABC6  D0 01     BNE  $ABC9
 ABC8  1A        INC  
 ABC9  94 00     STY  $00, X
 ABCB  95 01     STA  $01, X
 ABCD  6C 20 00  JMP  ($0020)
 ABD0  7A        PLY  
 ABD1  68        PLA  
 ABD2  C8        INY  
 ABD3  D0 01     BNE  $ABD6
 ABD5  1A        INC  
 ABD6  CA        DEX  
 ABD7  CA        DEX  
 ABD8  95 01     STA  $01, X
 ABDA  98        TYA  
 ABDB  95 00     STA  $00, X
 ABDD  60        RTS  
 ABDE  48        PHA  
 ABDF  4A        LSR  
 ABE0  4A        LSR  
 ABE1  4A        LSR  
 ABE2  4A        LSR  
 ABE3  20 E7 AB  JSR  $ABE7
 ABE6  68        PLA  
 ABE7  29 0F     AND  #$0F
 ABE9  09 30     ORA  #$30
 ABEB  C9 3A     CMP  #$3A
 ABED  90 02     BCC  $ABF1
 ABEF  69 06     ADC  #$06
 ABF1  4C 98 88  JMP  $8898
 ABF4  60        RTS  
 ABF5  B5 00     LDA  $00, X
 ABF7  D5 02     CMP  $02, X
 ABF9  F0 0A     BEQ  $AC05
 ABFB  B5 01     LDA  $01, X
 ABFD  F5 03     SBC  $03, X
 ABFF  09 01     ORA  #$01
 AC01  70 08     BVS  $AC0B
 AC03  80 08     BRA  $AC0D
 AC05  B5 01     LDA  $01, X
 AC07  F5 03     SBC  $03, X
 AC09  50 04     BVC  $AC0F
 AC0B  49 80     EOR  #$80
 AC0D  09 01     ORA  #$01
 AC0F  60        RTS  
 AC10  20 2D 90  JSR  $902D
 AC13  B5 00     LDA  $00, X
 AC15  15 01     ORA  $01, X
 AC17  F0 5F     BEQ  $AC78
 AC19  20 91 96  JSR  $9691
 AC1C  20 05 8A  JSR  $8A05
 AC1F  B5 00     LDA  $00, X
 AC21  15 01     ORA  $01, X
 AC23  D0 17     BNE  $AC3C
 AC25  E8        INX  
 AC26  E8        INX  
 AC27  20 AE 8E  JSR  $8EAE
 AC2A  A5 16     LDA  $16
 AC2C  F0 E2     BEQ  $AC10
 AC2E  A9 8C     LDA  #$8C
 AC30  48        PHA  
 AC31  A9 16     LDA  #$16
 AC33  48        PHA  
 AC34  20 5A AB  JSR  $AB5A
 AC37  20 DB 83  JSR  $83DB
 AC3A  80 D4     BRA  $AC10
 AC3C  B5 00     LDA  $00, X
 AC3E  95 04     STA  $04, X
 AC40  B5 01     LDA  $01, X
 AC42  95 05     STA  $05, X
 AC44  E8        INX  
 AC45  E8        INX  
 AC46  E8        INX  
 AC47  E8        INX  
 AC48  B5 00     LDA  $00, X
 AC4A  85 1C     STA  $1C
 AC4C  B5 01     LDA  $01, X
 AC4E  85 1D     STA  $1D
 AC50  20 E2 8D  JSR  $8DE2
 AC53  A5 16     LDA  $16
 AC55  D0 13     BNE  $AC6A
 AC57  A0 01     LDY  #$01
 AC59  B1 1C     LDA  ($1C), Y
 AC5B  29 01     AND  #$01
 AC5D  F0 05     BEQ  $AC64
 AC5F  A9 01     LDA  #$01
 AC61  4C 7D AC  JMP  $AC7D
 AC64  20 77 89  JSR  $8977
 AC67  4C 10 AC  JMP  $AC10
 AC6A  A0 01     LDY  #$01
 AC6C  B1 1C     LDA  ($1C), Y
 AC6E  29 04     AND  #$04
 AC70  D0 F2     BNE  $AC64
 AC72  20 FB 83  JSR  $83FB
 AC75  4C 10 AC  JMP  $AC10
 AC78  E8        INX  
 AC79  E8        INX  
 AC7A  E8        INX  
 AC7B  E8        INX  
 AC7C  60        RTS  
 AC7D  0A        ASL  
 AC7E  A8        TAY  
 AC7F  B9 ED A9  LDA  $A9ED, Y
 AC82  85 22     STA  $22
 AC84  C8        INY  
 AC85  B9 ED A9  LDA  $A9ED, Y
 AC88  85 23     STA  $23
 AC8A  20 9D AC  JSR  $AC9D
 AC8D  4C 82 80  JMP  $8082
 AC90  0A        ASL  
 AC91  A8        TAY  
 AC92  B9 8D A9  LDA  $A98D, Y
 AC95  85 22     STA  $22
 AC97  C8        INY  
 AC98  B9 8D A9  LDA  $A98D, Y
 AC9B  85 23     STA  $23
 AC9D  A0 00     LDY  #$00
 AC9F  B1 22     LDA  ($22), Y
 ACA1  F0 06     BEQ  $ACA9
 ACA3  20 98 88  JSR  $8898
 ACA6  C8        INY  
 ACA7  80 F6     BRA  $AC9F
 ACA9  A9 0A     LDA  #$0A
 ACAB  20 98 88  JSR  $8898
 ACAE  60        RTS  
 ACAF  CA        DEX  
 ACB0  CA        DEX  
 ACB1  74 00     STZ  $00, X
 ACB3  74 01     STZ  $01, X
 ACB5  20 D7 8B  JSR  $8BD7
 ACB8  20 86 8F  JSR  $8F86
 ACBB  20 5E 8F  JSR  $8F5E
 ACBE  20 75 97  JSR  $9775
 ACC1  60        RTS  
 ACC2  00 00 00 00 00 00 00 00 00 00 00 00 00 00 00 00  |................|
 ACD2  00 00 00 00 00 00 00 00 00 00 00 00 00 00 00 00  |................|
 ACE2  00 00 00 00 00 00 00 00 00 00 00 00 00 00 00 00  |................|
 ACF2  00 00 00 00 00 00 00 00 00 00 00 00 00 00 00 00  |................|
 AD02  00 00 00 00 00 00 00 00 00 00 00 00 00 00 00 00  |................|
 AD12  00 00 00 00 00 00 00 00 00 00 00 00 00 00 00 00  |................|
 AD22  00 00 00 00 00 00 00 00 00 00 00 00 00 00 00 00  |................|
 AD32  00 00 00 00 00 00 00 00 00 00 00 00 00 00 00 00  |................|
 AD42  00 00 00 00 00 00 00 00 00 00 00 00 00 00 00 00  |................|
 AD52  00 00 00 00 00 00 00 00 00 00 00 00 00 00 00 00  |................|
 AD62  00 00 00 00 00 00 00 00 00 00 00 00 00 00 00 00  |................|
 AD72  00 00 00 00 00 00 00 00 00 00 00 00 00 00 00 00  |................|
 AD82  00 00 00 00 00 00 00 00 00 00 00 00 00 00 00 00  |................|
 AD92  00 00 00 00 00 00 00 00 00 00 00 00 00 00 00 00  |................|
 ADA2  00 00 00 00 00 00 00 00 00 00 00 00 00 00 00 00  |................|
 ADB2  00 00 00 00 00 00 00 00 00 00 00 00 00 00 00 00  |................|
 ADC2  00 00 00 00 00 00 00 00 00 00 00 00 00 00 00 00  |................|
 ADD2  00 00 00 00 00 00 00 00 00 00 00 00 00 00 00 00  |................|
 ADE2  00 00 00 00 00 00 00 00 00 00 00 00 00 00 00 00  |................|
 ADF2  00 00 00 00 00 00 00 00 00 00 00 00 00 00 00 00  |................|
 AE02  00 00 00 00 00 00 00 00 00 00 00 00 00 00 00 00  |................|
 AE12  00 00 00 00 00 00 00 00 00 00 00 00 00 00 00 00  |................|
 AE22  00 00 00 00 00 00 00 00 00 00 00 00 00 00 00 00  |................|
 AE32  00 00 00 00 00 00 00 00 00 00 00 00 00 00 00 00  |................|
 AE42  00 00 00 00 00 00 00 00 00 00 00 00 00 00 00 00  |................|
 AE52  00 00 00 00 00 00 00 00 00 00 00 00 00 00 00 00  |................|
 AE62  00 00 00 00 00 00 00 00 00 00 00 00 00 00 00 00  |................|
 AE72  00 00 00 00 00 00 00 00 00 00 00 00 00 00 00 00  |................|
 AE82  00 00 00 00 00 00 00 00 00 00 00 00 00 00 00 00  |................|
 AE92  00 00 00 00 00 00 00 00 00 00 00 00 00 00 00 00  |................|
 AEA2  00 00 00 00 00 00 00 00 00 00 00 00 00 00 00 00  |................|
 AEB2  00 00 00 00 00 00 00 00 00 00 00 00 00 00 00 00  |................|
 AEC2  00 00 00 00 00 00 00 00 00 00 00 00 00 00 00 00  |................|
 AED2  00 00 00 00 00 00 00 00 00 00 00 00 00 00 00 00  |................|
 AEE2  00 00 00 00 00 00 00 00 00 00 00 00 00 00 00 00  |................|
 AEF2  00 00 00 00 00 00 00 00 00 00 00 00 00 00 00 00  |................|
 AF02  00 00 00 00 00 00 00 00 00 00 00 00 00 00 00 00  |................|
 AF12  00 00 00 00 00 00 00 00 00 00 00 00 00 00 00 00  |................|
 AF22  00 00 00 00 00 00 00 00 00 00 00 00 00 00 00 00  |................|
 AF32  00 00 00 00 00 00 00 00 00 00 00 00 00 00 00 00  |................|
 AF42  00 00 00 00 00 00 00 00 00 00 00 00 00 00 00 00  |................|
 AF52  00 00 00 00 00 00 00 00 00 00 00 00 00 00 00 00  |................|
 AF62  00 00 00 00 00 00 00 00 00 00 00 00 00 00 00 00  |................|
 AF72  00 00 00 00 00 00 00 00 00 00 00 00 00 00 00 00  |................|
 AF82  00 00 00 00 00 00 00 00 00 00 00 00 00 00 00 00  |................|
 AF92  00 00 00 00 00 00 00 00 00 00 00 00 00 00 00 00  |................|
 AFA2  00 00 00 00 00 00 00 00 00 00 00 00 00 00 00 00  |................|
 AFB2  00 00 00 00 00 00 00 00 00 00 00 00 00 00 00 00  |................|
 AFC2  00 00 00 00 00 00 00 00 00 00 00 00 00 00 00 00  |................|
 AFD2  00 00 00 00 00 00 00 00 00 00 00 00 00 00 00 00  |................|
 AFE2  00 00 00 00 00 00 00 00 00 00 00 00 00 00 00 00  |................|
 AFF2  00 00 00 00 00 00 00 00 00 00 00 00 00 00 00 00  |................|
 B002  00 00 00 00 00 00 00 00 00 00 00 00 00 00 00 00  |................|
 B012  00 00 00 00 00 00 00 00 00 00 00 00 00 00 00 00  |................|
 B022  00 00 00 00 00 00 00 00 00 00 00 00 00 00 00 00  |................|
 B032  00 00 00 00 00 00 00 00 00 00 00 00 00 00 00 00  |................|
 B042  00 00 00 00 00 00 00 00 00 00 00 00 00 00 00 00  |................|
 B052  00 00 00 00 00 00 00 00 00 00 00 00 00 00 00 00  |................|
 B062  00 00 00 00 00 00 00 00 00 00 00 00 00 00 00 00  |................|
 B072  00 00 00 00 00 00 00 00 00 00 00 00 00 00 00 00  |................|
 B082  00 00 00 00 00 00 00 00 00 00 00 00 00 00 00 00  |................|
 B092  00 00 00 00 00 00 00 00 00 00 00 00 00 00 00 00  |................|
 B0A2  00 00 00 00 00 00 00 00 00 00 00 00 00 00 00 00  |................|
 B0B2  00 00 00 00 00 00 00 00 00 00 00 00 00 00 00 00  |................|
 B0C2  00 00 00 00 00 00 00 00 00 00 00 00 00 00 00 00  |................|
 B0D2  00 00 00 00 00 00 00 00 00 00 00 00 00 00 00 00  |................|
 B0E2  00 00 00 00 00 00 00 00 00 00 00 00 00 00 00 00  |................|
 B0F2  00 00 00 00 00 00 00 00 00 00 00 00 00 00 00 00  |................|
 B102  00 00 00 00 00 00 00 00 00 00 00 00 00 00 00 00  |................|
 B112  00 00 00 00 00 00 00 00 00 00 00 00 00 00 00 00  |................|
 B122  00 00 00 00 00 00 00 00 00 00 00 00 00 00 00 00  |................|
 B132  00 00 00 00 00 00 00 00 00 00 00 00 00 00 00 00  |................|
 B142  00 00 00 00 00 00 00 00 00 00 00 00 00 00 00 00  |................|
 B152  00 00 00 00 00 00 00 00 00 00 00 00 00 00 00 00  |................|
 B162  00 00 00 00 00 00 00 00 00 00 00 00 00 00 00 00  |................|
 B172  00 00 00 00 00 00 00 00 00 00 00 00 00 00 00 00  |................|
 B182  00 00 00 00 00 00 00 00 00 00 00 00 00 00 00 00  |................|
 B192  00 00 00 00 00 00 00 00 00 00 00 00 00 00 00 00  |................|
 B1A2  00 00 00 00 00 00 00 00 00 00 00 00 00 00 00 00  |................|
 B1B2  00 00 00 00 00 00 00 00 00 00 00 00 00 00 00 00  |................|
 B1C2  00 00 00 00 00 00 00 00 00 00 00 00 00 00 00 00  |................|
 B1D2  00 00 00 00 00 00 00 00 00 00 00 00 00 00 00 00  |................|
 B1E2  00 00 00 00 00 00 00 00 00 00 00 00 00 00 00 00  |................|
 B1F2  00 00 00 00 00 00 00 00 00 00 00 00 00 00 00 00  |................|
 B202  00 00 00 00 00 00 00 00 00 00 00 00 00 00 00 00  |................|
 B212  00 00 00 00 00 00 00 00 00 00 00 00 00 00 00 00  |................|
 B222  00 00 00 00 00 00 00 00 00 00 00 00 00 00 00 00  |................|
 B232  00 00 00 00 00 00 00 00 00 00 00 00 00 00 00 00  |................|
 B242  00 00 00 00 00 00 00 00 00 00 00 00 00 00 00 00  |................|
 B252  00 00 00 00 00 00 00 00 00 00 00 00 00 00 00 00  |................|
 B262  00 00 00 00 00 00 00 00 00 00 00 00 00 00 00 00  |................|
 B272  00 00 00 00 00 00 00 00 00 00 00 00 00 00 00 00  |................|
 B282  00 00 00 00 00 00 00 00 00 00 00 00 00 00 00 00  |................|
 B292  00 00 00 00 00 00 00 00 00 00 00 00 00 00 00 00  |................|
 B2A2  00 00 00 00 00 00 00 00 00 00 00 00 00 00 00 00  |................|
 B2B2  00 00 00 00 00 00 00 00 00 00 00 00 00 00 00 00  |................|
 B2C2  00 00 00 00 00 00 00 00 00 00 00 00 00 00 00 00  |................|
 B2D2  00 00 00 00 00 00 00 00 00 00 00 00 00 00 00 00  |................|
 B2E2  00 00 00 00 00 00 00 00 00 00 00 00 00 00 00 00  |................|
 B2F2  00 00 00 00 00 00 00 00 00 00 00 00 00 00 00 00  |................|
 B302  00 00 00 00 00 00 00 00 00 00 00 00 00 00 00 00  |................|
 B312  00 00 00 00 00 00 00 00 00 00 00 00 00 00 00 00  |................|
 B322  00 00 00 00 00 00 00 00 00 00 00 00 00 00 00 00  |................|
 B332  00 00 00 00 00 00 00 00 00 00 00 00 00 00 00 00  |................|
 B342  00 00 00 00 00 00 00 00 00 00 00 00 00 00 00 00  |................|
 B352  00 00 00 00 00 00 00 00 00 00 00 00 00 00 00 00  |................|
 B362  00 00 00 00 00 00 00 00 00 00 00 00 00 00 00 00  |................|
 B372  00 00 00 00 00 00 00 00 00 00 00 00 00 00 00 00  |................|
 B382  00 00 00 00 00 00 00 00 00 00 00 00 00 00 00 00  |................|
 B392  00 00 00 00 00 00 00 00 00 00 00 00 00 00 00 00  |................|
 B3A2  00 00 00 00 00 00 00 00 00 00 00 00 00 00 00 00  |................|
 B3B2  00 00 00 00 00 00 00 00 00 00 00 00 00 00 00 00  |................|
 B3C2  00 00 00 00 00 00 00 00 00 00 00 00 00 00 00 00  |................|
 B3D2  00 00 00 00 00 00 00 00 00 00 00 00 00 00 00 00  |................|
 B3E2  00 00 00 00 00 00 00 00 00 00 00 00 00 00 00 00  |................|
 B3F2  00 00 00 00 00 00 00 00 00 00 00 00 00 00 00 00  |................|
 B402  00 00 00 00 00 00 00 00 00 00 00 00 00 00 00 00  |................|
 B412  00 00 00 00 00 00 00 00 00 00 00 00 00 00 00 00  |................|
 B422  00 00 00 00 00 00 00 00 00 00 00 00 00 00 00 00  |................|
 B432  00 00 00 00 00 00 00 00 00 00 00 00 00 00 00 00  |................|
 B442  00 00 00 00 00 00 00 00 00 00 00 00 00 00 00 00  |................|
 B452  00 00 00 00 00 00 00 00 00 00 00 00 00 00 00 00  |................|
 B462  00 00 00 00 00 00 00 00 00 00 00 00 00 00 00 00  |................|
 B472  00 00 00 00 00 00 00 00 00 00 00 00 00 00 00 00  |................|
 B482  00 00 00 00 00 00 00 00 00 00 00 00 00 00 00 00  |................|
 B492  00 00 00 00 00 00 00 00 00 00 00 00 00 00 00 00  |................|
 B4A2  00 00 00 00 00 00 00 00 00 00 00 00 00 00 00 00  |................|
 B4B2  00 00 00 00 00 00 00 00 00 00 00 00 00 00 00 00  |................|
 B4C2  00 00 00 00 00 00 00 00 00 00 00 00 00 00 00 00  |................|
 B4D2  00 00 00 00 00 00 00 00 00 00 00 00 00 00 00 00  |................|
 B4E2  00 00 00 00 00 00 00 00 00 00 00 00 00 00 00 00  |................|
 B4F2  00 00 00 00 00 00 00 00 00 00 00 00 00 00 00 00  |................|
 B502  00 00 00 00 00 00 00 00 00 00 00 00 00 00 00 00  |................|
 B512  00 00 00 00 00 00 00 00 00 00 00 00 00 00 00 00  |................|
 B522  00 00 00 00 00 00 00 00 00 00 00 00 00 00 00 00  |................|
 B532  00 00 00 00 00 00 00 00 00 00 00 00 00 00 00 00  |................|
 B542  00 00 00 00 00 00 00 00 00 00 00 00 00 00 00 00  |................|
 B552  00 00 00 00 00 00 00 00 00 00 00 00 00 00 00 00  |................|
 B562  00 00 00 00 00 00 00 00 00 00 00 00 00 00 00 00  |................|
 B572  00 00 00 00 00 00 00 00 00 00 00 00 00 00 00 00  |................|
 B582  00 00 00 00 00 00 00 00 00 00 00 00 00 00 00 00  |................|
 B592  00 00 00 00 00 00 00 00 00 00 00 00 00 00 00 00  |................|
 B5A2  00 00 00 00 00 00 00 00 00 00 00 00 00 00 00 00  |................|
 B5B2  00 00 00 00 00 00 00 00 00 00 00 00 00 00 00 00  |................|
 B5C2  00 00 00 00 00 00 00 00 00 00 00 00 00 00 00 00  |................|
 B5D2  00 00 00 00 00 00 00 00 00 00 00 00 00 00 00 00  |................|
 B5E2  00 00 00 00 00 00 00 00 00 00 00 00 00 00 00 00  |................|
 B5F2  00 00 00 00 00 00 00 00 00 00 00 00 00 00 00 00  |................|
 B602  00 00 00 00 00 00 00 00 00 00 00 00 00 00 00 00  |................|
 B612  00 00 00 00 00 00 00 00 00 00 00 00 00 00 00 00  |................|
 B622  00 00 00 00 00 00 00 00 00 00 00 00 00 00 00 00  |................|
 B632  00 00 00 00 00 00 00 00 00 00 00 00 00 00 00 00  |................|
 B642  00 00 00 00 00 00 00 00 00 00 00 00 00 00 00 00  |................|
 B652  00 00 00 00 00 00 00 00 00 00 00 00 00 00 00 00  |................|
 B662  00 00 00 00 00 00 00 00 00 00 00 00 00 00 00 00  |................|
 B672  00 00 00 00 00 00 00 00 00 00 00 00 00 00 00 00  |................|
 B682  00 00 00 00 00 00 00 00 00 00 00 00 00 00 00 00  |................|
 B692  00 00 00 00 00 00 00 00 00 00 00 00 00 00 00 00  |................|
 B6A2  00 00 00 00 00 00 00 00 00 00 00 00 00 00 00 00  |................|
 B6B2  00 00 00 00 00 00 00 00 00 00 00 00 00 00 00 00  |................|
 B6C2  00 00 00 00 00 00 00 00 00 00 00 00 00 00 00 00  |................|
 B6D2  00 00 00 00 00 00 00 00 00 00 00 00 00 00 00 00  |................|
 B6E2  00 00 00 00 00 00 00 00 00 00 00 00 00 00 00 00  |................|
 B6F2  00 00 00 00 00 00 00 00 00 00 00 00 00 00 00 00  |................|
 B702  00 00 00 00 00 00 00 00 00 00 00 00 00 00 00 00  |................|
 B712  00 00 00 00 00 00 00 00 00 00 00 00 00 00 00 00  |................|
 B722  00 00 00 00 00 00 00 00 00 00 00 00 00 00 00 00  |................|
 B732  00 00 00 00 00 00 00 00 00 00 00 00 00 00 00 00  |................|
 B742  00 00 00 00 00 00 00 00 00 00 00 00 00 00 00 00  |................|
 B752  00 00 00 00 00 00 00 00 00 00 00 00 00 00 00 00  |................|
 B762  00 00 00 00 00 00 00 00 00 00 00 00 00 00 00 00  |................|
 B772  00 00 00 00 00 00 00 00 00 00 00 00 00 00 00 00  |................|
 B782  00 00 00 00 00 00 00 00 00 00 00 00 00 00 00 00  |................|
 B792  00 00 00 00 00 00 00 00 00 00 00 00 00 00 00 00  |................|
 B7A2  00 00 00 00 00 00 00 00 00 00 00 00 00 00 00 00  |................|
 B7B2  00 00 00 00 00 00 00 00 00 00 00 00 00 00 00 00  |................|
 B7C2  00 00 00 00 00 00 00 00 00 00 00 00 00 00 00 00  |................|
 B7D2  00 00 00 00 00 00 00 00 00 00 00 00 00 00 00 00  |................|
 B7E2  00 00 00 00 00 00 00 00 00 00 00 00 00 00 00 00  |................|
 B7F2  00 00 00 00 00 00 00 00 00 00 00 00 00 00 00 00  |................|
 B802  00 00 00 00 00 00 00 00 00 00 00 00 00 00 00 00  |................|
 B812  00 00 00 00 00 00 00 00 00 00 00 00 00 00 00 00  |................|
 B822  00 00 00 00 00 00 00 00 00 00 00 00 00 00 00 00  |................|
 B832  00 00 00 00 00 00 00 00 00 00 00 00 00 00 00 00  |................|
 B842  00 00 00 00 00 00 00 00 00 00 00 00 00 00 00 00  |................|
 B852  00 00 00 00 00 00 00 00 00 00 00 00 00 00 00 00  |................|
 B862  00 00 00 00 00 00 00 00 00 00 00 00 00 00 00 00  |................|
 B872  00 00 00 00 00 00 00 00 00 00 00 00 00 00 00 00  |................|
 B882  00 00 00 00 00 00 00 00 00 00 00 00 00 00 00 00  |................|
 B892  00 00 00 00 00 00 00 00 00 00 00 00 00 00 00 00  |................|
 B8A2  00 00 00 00 00 00 00 00 00 00 00 00 00 00 00 00  |................|
 B8B2  00 00 00 00 00 00 00 00 00 00 00 00 00 00 00 00  |................|
 B8C2  00 00 00 00 00 00 00 00 00 00 00 00 00 00 00 00  |................|
 B8D2  00 00 00 00 00 00 00 00 00 00 00 00 00 00 00 00  |................|
 B8E2  00 00 00 00 00 00 00 00 00 00 00 00 00 00 00 00  |................|
 B8F2  00 00 00 00 00 00 00 00 00 00 00 00 00 00 00 00  |................|
 B902  00 00 00 00 00 00 00 00 00 00 00 00 00 00 00 00  |................|
 B912  00 00 00 00 00 00 00 00 00 00 00 00 00 00 00 00  |................|
 B922  00 00 00 00 00 00 00 00 00 00 00 00 00 00 00 00  |................|
 B932  00 00 00 00 00 00 00 00 00 00 00 00 00 00 00 00  |................|
 B942  00 00 00 00 00 00 00 00 00 00 00 00 00 00 00 00  |................|
 B952  00 00 00 00 00 00 00 00 00 00 00 00 00 00 00 00  |................|
 B962  00 00 00 00 00 00 00 00 00 00 00 00 00 00 00 00  |................|
 B972  00 00 00 00 00 00 00 00 00 00 00 00 00 00 00 00  |................|
 B982  00 00 00 00 00 00 00 00 00 00 00 00 00 00 00 00  |................|
 B992  00 00 00 00 00 00 00 00 00 00 00 00 00 00 00 00  |................|
 B9A2  00 00 00 00 00 00 00 00 00 00 00 00 00 00 00 00  |................|
 B9B2  00 00 00 00 00 00 00 00 00 00 00 00 00 00 00 00  |................|
 B9C2  00 00 00 00 00 00 00 00 00 00 00 00 00 00 00 00  |................|
 B9D2  00 00 00 00 00 00 00 00 00 00 00 00 00 00 00 00  |................|
 B9E2  00 00 00 00 00 00 00 00 00 00 00 00 00 00 00 00  |................|
 B9F2  00 00 00 00 00 00 00 00 00 00 00 00 00 00 00 00  |................|
 BA02  00 00 00 00 00 00 00 00 00 00 00 00 00 00 00 00  |................|
 BA12  00 00 00 00 00 00 00 00 00 00 00 00 00 00 00 00  |................|
 BA22  00 00 00 00 00 00 00 00 00 00 00 00 00 00 00 00  |................|
 BA32  00 00 00 00 00 00 00 00 00 00 00 00 00 00 00 00  |................|
 BA42  00 00 00 00 00 00 00 00 00 00 00 00 00 00 00 00  |................|
 BA52  00 00 00 00 00 00 00 00 00 00 00 00 00 00 00 00  |................|
 BA62  00 00 00 00 00 00 00 00 00 00 00 00 00 00 00 00  |................|
 BA72  00 00 00 00 00 00 00 00 00 00 00 00 00 00 00 00  |................|
 BA82  00 00 00 00 00 00 00 00 00 00 00 00 00 00 00 00  |................|
 BA92  00 00 00 00 00 00 00 00 00 00 00 00 00 00 00 00  |................|
 BAA2  00 00 00 00 00 00 00 00 00 00 00 00 00 00 00 00  |................|
 BAB2  00 00 00 00 00 00 00 00 00 00 00 00 00 00 00 00  |................|
 BAC2  00 00 00 00 00 00 00 00 00 00 00 00 00 00 00 00  |................|
 BAD2  00 00 00 00 00 00 00 00 00 00 00 00 00 00 00 00  |................|
 BAE2  00 00 00 00 00 00 00 00 00 00 00 00 00 00 00 00  |................|
 BAF2  00 00 00 00 00 00 00 00 00 00 00 00 00 00 00 00  |................|
 BB02  00 00 00 00 00 00 00 00 00 00 00 00 00 00 00 00  |................|
 BB12  00 00 00 00 00 00 00 00 00 00 00 00 00 00 00 00  |................|
 BB22  00 00 00 00 00 00 00 00 00 00 00 00 00 00 00 00  |................|
 BB32  00 00 00 00 00 00 00 00 00 00 00 00 00 00 00 00  |................|
 BB42  00 00 00 00 00 00 00 00 00 00 00 00 00 00 00 00  |................|
 BB52  00 00 00 00 00 00 00 00 00 00 00 00 00 00 00 00  |................|
 BB62  00 00 00 00 00 00 00 00 00 00 00 00 00 00 00 00  |................|
 BB72  00 00 00 00 00 00 00 00 00 00 00 00 00 00 00 00  |................|
 BB82  00 00 00 00 00 00 00 00 00 00 00 00 00 00 00 00  |................|
 BB92  00 00 00 00 00 00 00 00 00 00 00 00 00 00 00 00  |................|
 BBA2  00 00 00 00 00 00 00 00 00 00 00 00 00 00 00 00  |................|
 BBB2  00 00 00 00 00 00 00 00 00 00 00 00 00 00 00 00  |................|
 BBC2  00 00 00 00 00 00 00 00 00 00 00 00 00 00 00 00  |................|
 BBD2  00 00 00 00 00 00 00 00 00 00 00 00 00 00 00 00  |................|
 BBE2  00 00 00 00 00 00 00 00 00 00 00 00 00 00 00 00  |................|
 BBF2  00 00 00 00 00 00 00 00 00 00 00 00 00 00 00 00  |................|
 BC02  00 00 00 00 00 00 00 00 00 00 00 00 00 00 00 00  |................|
 BC12  00 00 00 00 00 00 00 00 00 00 00 00 00 00 00 00  |................|
 BC22  00 00 00 00 00 00 00 00 00 00 00 00 00 00 00 00  |................|
 BC32  00 00 00 00 00 00 00 00 00 00 00 00 00 00 00 00  |................|
 BC42  00 00 00 00 00 00 00 00 00 00 00 00 00 00 00 00  |................|
 BC52  00 00 00 00 00 00 00 00 00 00 00 00 00 00 00 00  |................|
 BC62  00 00 00 00 00 00 00 00 00 00 00 00 00 00 00 00  |................|
 BC72  00 00 00 00 00 00 00 00 00 00 00 00 00 00 00 00  |................|
 BC82  00 00 00 00 00 00 00 00 00 00 00 00 00 00 00 00  |................|
 BC92  00 00 00 00 00 00 00 00 00 00 00 00 00 00 00 00  |................|
 BCA2  00 00 00 00 00 00 00 00 00 00 00 00 00 00 00 00  |................|
 BCB2  00 00 00 00 00 00 00 00 00 00 00 00 00 00 00 00  |................|
 BCC2  00 00 00 00 00 00 00 00 00 00 00 00 00 00 00 00  |................|
 BCD2  00 00 00 00 00 00 00 00 00 00 00 00 00 00 00 00  |................|
 BCE2  00 00 00 00 00 00 00 00 00 00 00 00 00 00 00 00  |................|
 BCF2  00 00 00 00 00 00 00 00 00 00 00 00 00 00 00 00  |................|
 BD02  00 00 00 00 00 00 00 00 00 00 00 00 00 00 00 00  |................|
 BD12  00 00 00 00 00 00 00 00 00 00 00 00 00 00 00 00  |................|
 BD22  00 00 00 00 00 00 00 00 00 00 00 00 00 00 00 00  |................|
 BD32  00 00 00 00 00 00 00 00 00 00 00 00 00 00 00 00  |................|
 BD42  00 00 00 00 00 00 00 00 00 00 00 00 00 00 00 00  |................|
 BD52  00 00 00 00 00 00 00 00 00 00 00 00 00 00 00 00  |................|
 BD62  00 00 00 00 00 00 00 00 00 00 00 00 00 00 00 00  |................|
 BD72  00 00 00 00 00 00 00 00 00 00 00 00 00 00 00 00  |................|
 BD82  00 00 00 00 00 00 00 00 00 00 00 00 00 00 00 00  |................|
 BD92  00 00 00 00 00 00 00 00 00 00 00 00 00 00 00 00  |................|
 BDA2  00 00 00 00 00 00 00 00 00 00 00 00 00 00 00 00  |................|
 BDB2  00 00 00 00 00 00 00 00 00 00 00 00 00 00 00 00  |................|
 BDC2  00 00 00 00 00 00 00 00 00 00 00 00 00 00 00 00  |................|
 BDD2  00 00 00 00 00 00 00 00 00 00 00 00 00 00 00 00  |................|
 BDE2  00 00 00 00 00 00 00 00 00 00 00 00 00 00 00 00  |................|
 BDF2  00 00 00 00 00 00 00 00 00 00 00 00 00 00 00 00  |................|
 BE02  00 00 00 00 00 00 00 00 00 00 00 00 00 00 00 00  |................|
 BE12  00 00 00 00 00 00 00 00 00 00 00 00 00 00 00 00  |................|
 BE22  00 00 00 00 00 00 00 00 00 00 00 00 00 00 00 00  |................|
 BE32  00 00 00 00 00 00 00 00 00 00 00 00 00 00 00 00  |................|
 BE42  00 00 00 00 00 00 00 00 00 00 00 00 00 00 00 00  |................|
 BE52  00 00 00 00 00 00 00 00 00 00 00 00 00 00 00 00  |................|
 BE62  00 00 00 00 00 00 00 00 00 00 00 00 00 00 00 00  |................|
 BE72  00 00 00 00 00 00 00 00 00 00 00 00 00 00 00 00  |................|
 BE82  00 00 00 00 00 00 00 00 00 00 00 00 00 00 00 00  |................|
 BE92  00 00 00 00 00 00 00 00 00 00 00 00 00 00 00 00  |................|
 BEA2  00 00 00 00 00 00 00 00 00 00 00 00 00 00 00 00  |................|
 BEB2  00 00 00 00 00 00 00 00 00 00 00 00 00 00 00 00  |................|
 BEC2  00 00 00 00 00 00 00 00 00 00 00 00 00 00 00 00  |................|
 BED2  00 00 00 00 00 00 00 00 00 00 00 00 00 00 00 00  |................|
 BEE2  00 00 00 00 00 00 00 00 00 00 00 00 00 00 00 00  |................|
 BEF2  00 00 00 00 00 00 00 00 00 00 00 00 00 00 00 00  |................|
 BF02  00 00 00 00 00 00 00 00 00 00 00 00 00 00 00 00  |................|
 BF12  00 00 00 00 00 00 00 00 00 00 00 00 00 00 00 00  |................|
 BF22  00 00 00 00 00 00 00 00 00 00 00 00 00 00 00 00  |................|
 BF32  00 00 00 00 00 00 00 00 00 00 00 00 00 00 00 00  |................|
 BF42  00 00 00 00 00 00 00 00 00 00 00 00 00 00 00 00  |................|
 BF52  00 00 00 00 00 00 00 00 00 00 00 00 00 00 00 00  |................|
 BF62  00 00 00 00 00 00 00 00 00 00 00 00 00 00 00 00  |................|
 BF72  00 00 00 00 00 00 00 00 00 00 00 00 00 00 00 00  |................|
 BF82  00 00 00 00 00 00 00 00 00 00 00 00 00 00 00 00  |................|
 BF92  00 00 00 00 00 00 00 00 00 00 00 00 00 00 00 00  |................|
 BFA2  00 00 00 00 00 00 00 00 00 00 00 00 00 00 00 00  |................|
 BFB2  00 00 00 00 00 00 00 00 00 00 00 00 00 00 00 00  |................|
 BFC2  00 00 00 00 00 00 00 00 00 00 00 00 00 00 00 00  |................|
 BFD2  00 00 00 00 00 00 00 00 00 00 00 00 00 00 00 00  |................|
 BFE2  00 00 00 00 00 00 00 00 00 00 00 00 00 00 00 00  |................|
 BFF2  00 00 00 00 00 00 00 00 00 00 00 00 00 00 00 00  |................|
 C002  00 00 00 00 00 00 00 00 00 00 00 00 00 00 00 00  |................|
 C012  00 00 00 00 00 00 00 00 00 00 00 00 00 00 00 00  |................|
 C022  00 00 00 00 00 00 00 00 00 00 00 00 00 00 00 00  |................|
 C032  00 00 00 00 00 00 00 00 00 00 00 00 00 00 00 00  |................|
 C042  00 00 00 00 00 00 00 00 00 00 00 00 00 00 00 00  |................|
 C052  00 00 00 00 00 00 00 00 00 00 00 00 00 00 00 00  |................|
 C062  00 00 00 00 00 00 00 00 00 00 00 00 00 00 00 00  |................|
 C072  00 00 00 00 00 00 00 00 00 00 00 00 00 00 00 00  |................|
 C082  00 00 00 00 00 00 00 00 00 00 00 00 00 00 00 00  |................|
 C092  00 00 00 00 00 00 00 00 00 00 00 00 00 00 00 00  |................|
 C0A2  00 00 00 00 00 00 00 00 00 00 00 00 00 00 00 00  |................|
 C0B2  00 00 00 00 00 00 00 00 00 00 00 00 00 00 00 00  |................|
 C0C2  00 00 00 00 00 00 00 00 00 00 00 00 00 00 00 00  |................|
 C0D2  00 00 00 00 00 00 00 00 00 00 00 00 00 00 00 00  |................|
 C0E2  00 00 00 00 00 00 00 00 00 00 00 00 00 00 00 00  |................|
 C0F2  00 00 00 00 00 00 00 00 00 00 00 00 00 00 00 00  |................|
 C102  00 00 00 00 00 00 00 00 00 00 00 00 00 00 00 00  |................|
 C112  00 00 00 00 00 00 00 00 00 00 00 00 00 00 00 00  |................|
 C122  00 00 00 00 00 00 00 00 00 00 00 00 00 00 00 00  |................|
 C132  00 00 00 00 00 00 00 00 00 00 00 00 00 00 00 00  |................|
 C142  00 00 00 00 00 00 00 00 00 00 00 00 00 00 00 00  |................|
 C152  00 00 00 00 00 00 00 00 00 00 00 00 00 00 00 00  |................|
 C162  00 00 00 00 00 00 00 00 00 00 00 00 00 00 00 00  |................|
 C172  00 00 00 00 00 00 00 00 00 00 00 00 00 00 00 00  |................|
 C182  00 00 00 00 00 00 00 00 00 00 00 00 00 00 00 00  |................|
 C192  00 00 00 00 00 00 00 00 00 00 00 00 00 00 00 00  |................|
 C1A2  00 00 00 00 00 00 00 00 00 00 00 00 00 00 00 00  |................|
 C1B2  00 00 00 00 00 00 00 00 00 00 00 00 00 00 00 00  |................|
 C1C2  00 00 00 00 00 00 00 00 00 00 00 00 00 00 00 00  |................|
 C1D2  00 00 00 00 00 00 00 00 00 00 00 00 00 00 00 00  |................|
 C1E2  00 00 00 00 00 00 00 00 00 00 00 00 00 00 00 00  |................|
 C1F2  00 00 00 00 00 00 00 00 00 00 00 00 00 00 00 00  |................|
 C202  00 00 00 00 00 00 00 00 00 00 00 00 00 00 00 00  |................|
 C212  00 00 00 00 00 00 00 00 00 00 00 00 00 00 00 00  |................|
 C222  00 00 00 00 00 00 00 00 00 00 00 00 00 00 00 00  |................|
 C232  00 00 00 00 00 00 00 00 00 00 00 00 00 00 00 00  |................|
 C242  00 00 00 00 00 00 00 00 00 00 00 00 00 00 00 00  |................|
 C252  00 00 00 00 00 00 00 00 00 00 00 00 00 00 00 00  |................|
 C262  00 00 00 00 00 00 00 00 00 00 00 00 00 00 00 00  |................|
 C272  00 00 00 00 00 00 00 00 00 00 00 00 00 00 00 00  |................|
 C282  00 00 00 00 00 00 00 00 00 00 00 00 00 00 00 00  |................|
 C292  00 00 00 00 00 00 00 00 00 00 00 00 00 00 00 00  |................|
 C2A2  00 00 00 00 00 00 00 00 00 00 00 00 00 00 00 00  |................|
 C2B2  00 00 00 00 00 00 00 00 00 00 00 00 00 00 00 00  |................|
 C2C2  00 00 00 00 00 00 00 00 00 00 00 00 00 00 00 00  |................|
 C2D2  00 00 00 00 00 00 00 00 00 00 00 00 00 00 00 00  |................|
 C2E2  00 00 00 00 00 00 00 00 00 00 00 00 00 00 00 00  |................|
 C2F2  00 00 00 00 00 00 00 00 00 00 00 00 00 00 00 00  |................|
 C302  00 00 00 00 00 00 00 00 00 00 00 00 00 00 00 00  |................|
 C312  00 00 00 00 00 00 00 00 00 00 00 00 00 00 00 00  |................|
 C322  00 00 00 00 00 00 00 00 00 00 00 00 00 00 00 00  |................|
 C332  00 00 00 00 00 00 00 00 00 00 00 00 00 00 00 00  |................|
 C342  00 00 00 00 00 00 00 00 00 00 00 00 00 00 00 00  |................|
 C352  00 00 00 00 00 00 00 00 00 00 00 00 00 00 00 00  |................|
 C362  00 00 00 00 00 00 00 00 00 00 00 00 00 00 00 00  |................|
 C372  00 00 00 00 00 00 00 00 00 00 00 00 00 00 00 00  |................|
 C382  00 00 00 00 00 00 00 00 00 00 00 00 00 00 00 00  |................|
 C392  00 00 00 00 00 00 00 00 00 00 00 00 00 00 00 00  |................|
 C3A2  00 00 00 00 00 00 00 00 00 00 00 00 00 00 00 00  |................|
 C3B2  00 00 00 00 00 00 00 00 00 00 00 00 00 00 00 00  |................|
 C3C2  00 00 00 00 00 00 00 00 00 00 00 00 00 00 00 00  |................|
 C3D2  00 00 00 00 00 00 00 00 00 00 00 00 00 00 00 00  |................|
 C3E2  00 00 00 00 00 00 00 00 00 00 00 00 00 00 00 00  |................|
 C3F2  00 00 00 00 00 00 00 00 00 00 00 00 00 00 00 00  |................|
 C402  00 00 00 00 00 00 00 00 00 00 00 00 00 00 00 00  |................|
 C412  00 00 00 00 00 00 00 00 00 00 00 00 00 00 00 00  |................|
 C422  00 00 00 00 00 00 00 00 00 00 00 00 00 00 00 00  |................|
 C432  00 00 00 00 00 00 00 00 00 00 00 00 00 00 00 00  |................|
 C442  00 00 00 00 00 00 00 00 00 00 00 00 00 00 00 00  |................|
 C452  00 00 00 00 00 00 00 00 00 00 00 00 00 00 00 00  |................|
 C462  00 00 00 00 00 00 00 00 00 00 00 00 00 00 00 00  |................|
 C472  00 00 00 00 00 00 00 00 00 00 00 00 00 00 00 00  |................|
 C482  00 00 00 00 00 00 00 00 00 00 00 00 00 00 00 00  |................|
 C492  00 00 00 00 00 00 00 00 00 00 00 00 00 00 00 00  |................|
 C4A2  00 00 00 00 00 00 00 00 00 00 00 00 00 00 00 00  |................|
 C4B2  00 00 00 00 00 00 00 00 00 00 00 00 00 00 00 00  |................|
 C4C2  00 00 00 00 00 00 00 00 00 00 00 00 00 00 00 00  |................|
 C4D2  00 00 00 00 00 00 00 00 00 00 00 00 00 00 00 00  |................|
 C4E2  00 00 00 00 00 00 00 00 00 00 00 00 00 00 00 00  |................|
 C4F2  00 00 00 00 00 00 00 00 00 00 00 00 00 00 00 00  |................|
 C502  00 00 00 00 00 00 00 00 00 00 00 00 00 00 00 00  |................|
 C512  00 00 00 00 00 00 00 00 00 00 00 00 00 00 00 00  |................|
 C522  00 00 00 00 00 00 00 00 00 00 00 00 00 00 00 00  |................|
 C532  00 00 00 00 00 00 00 00 00 00 00 00 00 00 00 00  |................|
 C542  00 00 00 00 00 00 00 00 00 00 00 00 00 00 00 00  |................|
 C552  00 00 00 00 00 00 00 00 00 00 00 00 00 00 00 00  |................|
 C562  00 00 00 00 00 00 00 00 00 00 00 00 00 00 00 00  |................|
 C572  00 00 00 00 00 00 00 00 00 00 00 00 00 00 00 00  |................|
 C582  00 00 00 00 00 00 00 00 00 00 00 00 00 00 00 00  |................|
 C592  00 00 00 00 00 00 00 00 00 00 00 00 00 00 00 00  |................|
 C5A2  00 00 00 00 00 00 00 00 00 00 00 00 00 00 00 00  |................|
 C5B2  00 00 00 00 00 00 00 00 00 00 00 00 00 00 00 00  |................|
 C5C2  00 00 00 00 00 00 00 00 00 00 00 00 00 00 00 00  |................|
 C5D2  00 00 00 00 00 00 00 00 00 00 00 00 00 00 00 00  |................|
 C5E2  00 00 00 00 00 00 00 00 00 00 00 00 00 00 00 00  |................|
 C5F2  00 00 00 00 00 00 00 00 00 00 00 00 00 00 00 00  |................|
 C602  00 00 00 00 00 00 00 00 00 00 00 00 00 00 00 00  |................|
 C612  00 00 00 00 00 00 00 00 00 00 00 00 00 00 00 00  |................|
 C622  00 00 00 00 00 00 00 00 00 00 00 00 00 00 00 00  |................|
 C632  00 00 00 00 00 00 00 00 00 00 00 00 00 00 00 00  |................|
 C642  00 00 00 00 00 00 00 00 00 00 00 00 00 00 00 00  |................|
 C652  00 00 00 00 00 00 00 00 00 00 00 00 00 00 00 00  |................|
 C662  00 00 00 00 00 00 00 00 00 00 00 00 00 00 00 00  |................|
 C672  00 00 00 00 00 00 00 00 00 00 00 00 00 00 00 00  |................|
 C682  00 00 00 00 00 00 00 00 00 00 00 00 00 00 00 00  |................|
 C692  00 00 00 00 00 00 00 00 00 00 00 00 00 00 00 00  |................|
 C6A2  00 00 00 00 00 00 00 00 00 00 00 00 00 00 00 00  |................|
 C6B2  00 00 00 00 00 00 00 00 00 00 00 00 00 00 00 00  |................|
 C6C2  00 00 00 00 00 00 00 00 00 00 00 00 00 00 00 00  |................|
 C6D2  00 00 00 00 00 00 00 00 00 00 00 00 00 00 00 00  |................|
 C6E2  00 00 00 00 00 00 00 00 00 00 00 00 00 00 00 00  |................|
 C6F2  00 00 00 00 00 00 00 00 00 00 00 00 00 00 00 00  |................|
 C702  00 00 00 00 00 00 00 00 00 00 00 00 00 00 00 00  |................|
 C712  00 00 00 00 00 00 00 00 00 00 00 00 00 00 00 00  |................|
 C722  00 00 00 00 00 00 00 00 00 00 00 00 00 00 00 00  |................|
 C732  00 00 00 00 00 00 00 00 00 00 00 00 00 00 00 00  |................|
 C742  00 00 00 00 00 00 00 00 00 00 00 00 00 00 00 00  |................|
 C752  00 00 00 00 00 00 00 00 00 00 00 00 00 00 00 00  |................|
 C762  00 00 00 00 00 00 00 00 00 00 00 00 00 00 00 00  |................|
 C772  00 00 00 00 00 00 00 00 00 00 00 00 00 00 00 00  |................|
 C782  00 00 00 00 00 00 00 00 00 00 00 00 00 00 00 00  |................|
 C792  00 00 00 00 00 00 00 00 00 00 00 00 00 00 00 00  |................|
 C7A2  00 00 00 00 00 00 00 00 00 00 00 00 00 00 00 00  |................|
 C7B2  00 00 00 00 00 00 00 00 00 00 00 00 00 00 00 00  |................|
 C7C2  00 00 00 00 00 00 00 00 00 00 00 00 00 00 00 00  |................|
 C7D2  00 00 00 00 00 00 00 00 00 00 00 00 00 00 00 00  |................|
 C7E2  00 00 00 00 00 00 00 00 00 00 00 00 00 00 00 00  |................|
 C7F2  00 00 00 00 00 00 00 00 00 00 00 00 00 00 00 00  |................|
 C802  00 00 00 00 00 00 00 00 00 00 00 00 00 00 00 00  |................|
 C812  00 00 00 00 00 00 00 00 00 00 00 00 00 00 00 00  |................|
 C822  00 00 00 00 00 00 00 00 00 00 00 00 00 00 00 00  |................|
 C832  00 00 00 00 00 00 00 00 00 00 00 00 00 00 00 00  |................|
 C842  00 00 00 00 00 00 00 00 00 00 00 00 00 00 00 00  |................|
 C852  00 00 00 00 00 00 00 00 00 00 00 00 00 00 00 00  |................|
 C862  00 00 00 00 00 00 00 00 00 00 00 00 00 00 00 00  |................|
 C872  00 00 00 00 00 00 00 00 00 00 00 00 00 00 00 00  |................|
 C882  00 00 00 00 00 00 00 00 00 00 00 00 00 00 00 00  |................|
 C892  00 00 00 00 00 00 00 00 00 00 00 00 00 00 00 00  |................|
 C8A2  00 00 00 00 00 00 00 00 00 00 00 00 00 00 00 00  |................|
 C8B2  00 00 00 00 00 00 00 00 00 00 00 00 00 00 00 00  |................|
 C8C2  00 00 00 00 00 00 00 00 00 00 00 00 00 00 00 00  |................|
 C8D2  00 00 00 00 00 00 00 00 00 00 00 00 00 00 00 00  |................|
 C8E2  00 00 00 00 00 00 00 00 00 00 00 00 00 00 00 00  |................|
 C8F2  00 00 00 00 00 00 00 00 00 00 00 00 00 00 00 00  |................|
 C902  00 00 00 00 00 00 00 00 00 00 00 00 00 00 00 00  |................|
 C912  00 00 00 00 00 00 00 00 00 00 00 00 00 00 00 00  |................|
 C922  00 00 00 00 00 00 00 00 00 00 00 00 00 00 00 00  |................|
 C932  00 00 00 00 00 00 00 00 00 00 00 00 00 00 00 00  |................|
 C942  00 00 00 00 00 00 00 00 00 00 00 00 00 00 00 00  |................|
 C952  00 00 00 00 00 00 00 00 00 00 00 00 00 00 00 00  |................|
 C962  00 00 00 00 00 00 00 00 00 00 00 00 00 00 00 00  |................|
 C972  00 00 00 00 00 00 00 00 00 00 00 00 00 00 00 00  |................|
 C982  00 00 00 00 00 00 00 00 00 00 00 00 00 00 00 00  |................|
 C992  00 00 00 00 00 00 00 00 00 00 00 00 00 00 00 00  |................|
 C9A2  00 00 00 00 00 00 00 00 00 00 00 00 00 00 00 00  |................|
 C9B2  00 00 00 00 00 00 00 00 00 00 00 00 00 00 00 00  |................|
 C9C2  00 00 00 00 00 00 00 00 00 00 00 00 00 00 00 00  |................|
 C9D2  00 00 00 00 00 00 00 00 00 00 00 00 00 00 00 00  |................|
 C9E2  00 00 00 00 00 00 00 00 00 00 00 00 00 00 00 00  |................|
 C9F2  00 00 00 00 00 00 00 00 00 00 00 00 00 00 00 00  |................|
 CA02  00 00 00 00 00 00 00 00 00 00 00 00 00 00 00 00  |................|
 CA12  00 00 00 00 00 00 00 00 00 00 00 00 00 00 00 00  |................|
 CA22  00 00 00 00 00 00 00 00 00 00 00 00 00 00 00 00  |................|
 CA32  00 00 00 00 00 00 00 00 00 00 00 00 00 00 00 00  |................|
 CA42  00 00 00 00 00 00 00 00 00 00 00 00 00 00 00 00  |................|
 CA52  00 00 00 00 00 00 00 00 00 00 00 00 00 00 00 00  |................|
 CA62  00 00 00 00 00 00 00 00 00 00 00 00 00 00 00 00  |................|
 CA72  00 00 00 00 00 00 00 00 00 00 00 00 00 00 00 00  |................|
 CA82  00 00 00 00 00 00 00 00 00 00 00 00 00 00 00 00  |................|
 CA92  00 00 00 00 00 00 00 00 00 00 00 00 00 00 00 00  |................|
 CAA2  00 00 00 00 00 00 00 00 00 00 00 00 00 00 00 00  |................|
 CAB2  00 00 00 00 00 00 00 00 00 00 00 00 00 00 00 00  |................|
 CAC2  00 00 00 00 00 00 00 00 00 00 00 00 00 00 00 00  |................|
 CAD2  00 00 00 00 00 00 00 00 00 00 00 00 00 00 00 00  |................|
 CAE2  00 00 00 00 00 00 00 00 00 00 00 00 00 00 00 00  |................|
 CAF2  00 00 00 00 00 00 00 00 00 00 00 00 00 00 00 00  |................|
 CB02  00 00 00 00 00 00 00 00 00 00 00 00 00 00 00 00  |................|
 CB12  00 00 00 00 00 00 00 00 00 00 00 00 00 00 00 00  |................|
 CB22  00 00 00 00 00 00 00 00 00 00 00 00 00 00 00 00  |................|
 CB32  00 00 00 00 00 00 00 00 00 00 00 00 00 00 00 00  |................|
 CB42  00 00 00 00 00 00 00 00 00 00 00 00 00 00 00 00  |................|
 CB52  00 00 00 00 00 00 00 00 00 00 00 00 00 00 00 00  |................|
 CB62  00 00 00 00 00 00 00 00 00 00 00 00 00 00 00 00  |................|
 CB72  00 00 00 00 00 00 00 00 00 00 00 00 00 00 00 00  |................|
 CB82  00 00 00 00 00 00 00 00 00 00 00 00 00 00 00 00  |................|
 CB92  00 00 00 00 00 00 00 00 00 00 00 00 00 00 00 00  |................|
 CBA2  00 00 00 00 00 00 00 00 00 00 00 00 00 00 00 00  |................|
 CBB2  00 00 00 00 00 00 00 00 00 00 00 00 00 00 00 00  |................|
 CBC2  00 00 00 00 00 00 00 00 00 00 00 00 00 00 00 00  |................|
 CBD2  00 00 00 00 00 00 00 00 00 00 00 00 00 00 00 00  |................|
 CBE2  00 00 00 00 00 00 00 00 00 00 00 00 00 00 00 00  |................|
 CBF2  00 00 00 00 00 00 00 00 00 00 00 00 00 00 00 00  |................|
 CC02  00 00 00 00 00 00 00 00 00 00 00 00 00 00 00 00  |................|
 CC12  00 00 00 00 00 00 00 00 00 00 00 00 00 00 00 00  |................|
 CC22  00 00 00 00 00 00 00 00 00 00 00 00 00 00 00 00  |................|
 CC32  00 00 00 00 00 00 00 00 00 00 00 00 00 00 00 00  |................|
 CC42  00 00 00 00 00 00 00 00 00 00 00 00 00 00 00 00  |................|
 CC52  00 00 00 00 00 00 00 00 00 00 00 00 00 00 00 00  |................|
 CC62  00 00 00 00 00 00 00 00 00 00 00 00 00 00 00 00  |................|
 CC72  00 00 00 00 00 00 00 00 00 00 00 00 00 00 00 00  |................|
 CC82  00 00 00 00 00 00 00 00 00 00 00 00 00 00 00 00  |................|
 CC92  00 00 00 00 00 00 00 00 00 00 00 00 00 00 00 00  |................|
 CCA2  00 00 00 00 00 00 00 00 00 00 00 00 00 00 00 00  |................|
 CCB2  00 00 00 00 00 00 00 00 00 00 00 00 00 00 00 00  |................|
 CCC2  00 00 00 00 00 00 00 00 00 00 00 00 00 00 00 00  |................|
 CCD2  00 00 00 00 00 00 00 00 00 00 00 00 00 00 00 00  |................|
 CCE2  00 00 00 00 00 00 00 00 00 00 00 00 00 00 00 00  |................|
 CCF2  00 00 00 00 00 00 00 00 00 00 00 00 00 00 00 00  |................|
 CD02  00 00 00 00 00 00 00 00 00 00 00 00 00 00 00 00  |................|
 CD12  00 00 00 00 00 00 00 00 00 00 00 00 00 00 00 00  |................|
 CD22  00 00 00 00 00 00 00 00 00 00 00 00 00 00 00 00  |................|
 CD32  00 00 00 00 00 00 00 00 00 00 00 00 00 00 00 00  |................|
 CD42  00 00 00 00 00 00 00 00 00 00 00 00 00 00 00 00  |................|
 CD52  00 00 00 00 00 00 00 00 00 00 00 00 00 00 00 00  |................|
 CD62  00 00 00 00 00 00 00 00 00 00 00 00 00 00 00 00  |................|
 CD72  00 00 00 00 00 00 00 00 00 00 00 00 00 00 00 00  |................|
 CD82  00 00 00 00 00 00 00 00 00 00 00 00 00 00 00 00  |................|
 CD92  00 00 00 00 00 00 00 00 00 00 00 00 00 00 00 00  |................|
 CDA2  00 00 00 00 00 00 00 00 00 00 00 00 00 00 00 00  |................|
 CDB2  00 00 00 00 00 00 00 00 00 00 00 00 00 00 00 00  |................|
 CDC2  00 00 00 00 00 00 00 00 00 00 00 00 00 00 00 00  |................|
 CDD2  00 00 00 00 00 00 00 00 00 00 00 00 00 00 00 00  |................|
 CDE2  00 00 00 00 00 00 00 00 00 00 00 00 00 00 00 00  |................|
 CDF2  00 00 00 00 00 00 00 00 00 00 00 00 00 00 00 00  |................|
 CE02  00 00 00 00 00 00 00 00 00 00 00 00 00 00 00 00  |................|
 CE12  00 00 00 00 00 00 00 00 00 00 00 00 00 00 00 00  |................|
 CE22  00 00 00 00 00 00 00 00 00 00 00 00 00 00 00 00  |................|
 CE32  00 00 00 00 00 00 00 00 00 00 00 00 00 00 00 00  |................|
 CE42  00 00 00 00 00 00 00 00 00 00 00 00 00 00 00 00  |................|
 CE52  00 00 00 00 00 00 00 00 00 00 00 00 00 00 00 00  |................|
 CE62  00 00 00 00 00 00 00 00 00 00 00 00 00 00 00 00  |................|
 CE72  00 00 00 00 00 00 00 00 00 00 00 00 00 00 00 00  |................|
 CE82  00 00 00 00 00 00 00 00 00 00 00 00 00 00 00 00  |................|
 CE92  00 00 00 00 00 00 00 00 00 00 00 00 00 00 00 00  |................|
 CEA2  00 00 00 00 00 00 00 00 00 00 00 00 00 00 00 00  |................|
 CEB2  00 00 00 00 00 00 00 00 00 00 00 00 00 00 00 00  |................|
 CEC2  00 00 00 00 00 00 00 00 00 00 00 00 00 00 00 00  |................|
 CED2  00 00 00 00 00 00 00 00 00 00 00 00 00 00 00 00  |................|
 CEE2  00 00 00 00 00 00 00 00 00 00 00 00 00 00 00 00  |................|
 CEF2  00 00 00 00 00 00 00 00 00 00 00 00 00 00 00 00  |................|
 CF02  00 00 00 00 00 00 00 00 00 00 00 00 00 00 00 00  |................|
 CF12  00 00 00 00 00 00 00 00 00 00 00 00 00 00 00 00  |................|
 CF22  00 00 00 00 00 00 00 00 00 00 00 00 00 00 00 00  |................|
 CF32  00 00 00 00 00 00 00 00 00 00 00 00 00 00 00 00  |................|
 CF42  00 00 00 00 00 00 00 00 00 00 00 00 00 00 00 00  |................|
 CF52  00 00 00 00 00 00 00 00 00 00 00 00 00 00 00 00  |................|
 CF62  00 00 00 00 00 00 00 00 00 00 00 00 00 00 00 00  |................|
 CF72  00 00 00 00 00 00 00 00 00 00 00 00 00 00 00 00  |................|
 CF82  00 00 00 00 00 00 00 00 00 00 00 00 00 00 00 00  |................|
 CF92  00 00 00 00 00 00 00 00 00 00 00 00 00 00 00 00  |................|
 CFA2  00 00 00 00 00 00 00 00 00 00 00 00 00 00 00 00  |................|
 CFB2  00 00 00 00 00 00 00 00 00 00 00 00 00 00 00 00  |................|
 CFC2  00 00 00 00 00 00 00 00 00 00 00 00 00 00 00 00  |................|
 CFD2  00 00 00 00 00 00 00 00 00 00 00 00 00 00 00 00  |................|
 CFE2  00 00 00 00 00 00 00 00 00 00 00 00 00 00 00 00  |................|
 CFF2  00 00 00 00 00 00 00 00 00 00 00 00 00 00 00 00  |................|
 D002  00 00 00 00 00 00 00 00 00 00 00 00 00 00 00 00  |................|
 D012  00 00 00 00 00 00 00 00 00 00 00 00 00 00 00 00  |................|
 D022  00 00 00 00 00 00 00 00 00 00 00 00 00 00 00 00  |................|
 D032  00 00 00 00 00 00 00 00 00 00 00 00 00 00 00 00  |................|
 D042  00 00 00 00 00 00 00 00 00 00 00 00 00 00 00 00  |................|
 D052  00 00 00 00 00 00 00 00 00 00 00 00 00 00 00 00  |................|
 D062  00 00 00 00 00 00 00 00 00 00 00 00 00 00 00 00  |................|
 D072  00 00 00 00 00 00 00 00 00 00 00 00 00 00 00 00  |................|
 D082  00 00 00 00 00 00 00 00 00 00 00 00 00 00 00 00  |................|
 D092  00 00 00 00 00 00 00 00 00 00 00 00 00 00 00 00  |................|
 D0A2  00 00 00 00 00 00 00 00 00 00 00 00 00 00 00 00  |................|
 D0B2  00 00 00 00 00 00 00 00 00 00 00 00 00 00 00 00  |................|
 D0C2  00 00 00 00 00 00 00 00 00 00 00 00 00 00 00 00  |................|
 D0D2  00 00 00 00 00 00 00 00 00 00 00 00 00 00 00 00  |................|
 D0E2  00 00 00 00 00 00 00 00 00 00 00 00 00 00 00 00  |................|
 D0F2  00 00 00 00 00 00 00 00 00 00 00 00 00 00 00 00  |................|
 D102  00 00 00 00 00 00 00 00 00 00 00 00 00 00 00 00  |................|
 D112  00 00 00 00 00 00 00 00 00 00 00 00 00 00 00 00  |................|
 D122  00 00 00 00 00 00 00 00 00 00 00 00 00 00 00 00  |................|
 D132  00 00 00 00 00 00 00 00 00 00 00 00 00 00 00 00  |................|
 D142  00 00 00 00 00 00 00 00 00 00 00 00 00 00 00 00  |................|
 D152  00 00 00 00 00 00 00 00 00 00 00 00 00 00 00 00  |................|
 D162  00 00 00 00 00 00 00 00 00 00 00 00 00 00 00 00  |................|
 D172  00 00 00 00 00 00 00 00 00 00 00 00 00 00 00 00  |................|
 D182  00 00 00 00 00 00 00 00 00 00 00 00 00 00 00 00  |................|
 D192  00 00 00 00 00 00 00 00 00 00 00 00 00 00 00 00  |................|
 D1A2  00 00 00 00 00 00 00 00 00 00 00 00 00 00 00 00  |................|
 D1B2  00 00 00 00 00 00 00 00 00 00 00 00 00 00 00 00  |................|
 D1C2  00 00 00 00 00 00 00 00 00 00 00 00 00 00 00 00  |................|
 D1D2  00 00 00 00 00 00 00 00 00 00 00 00 00 00 00 00  |................|
 D1E2  00 00 00 00 00 00 00 00 00 00 00 00 00 00 00 00  |................|
 D1F2  00 00 00 00 00 00 00 00 00 00 00 00 00 00 00 00  |................|
 D202  00 00 00 00 00 00 00 00 00 00 00 00 00 00 00 00  |................|
 D212  00 00 00 00 00 00 00 00 00 00 00 00 00 00 00 00  |................|
 D222  00 00 00 00 00 00 00 00 00 00 00 00 00 00 00 00  |................|
 D232  00 00 00 00 00 00 00 00 00 00 00 00 00 00 00 00  |................|
 D242  00 00 00 00 00 00 00 00 00 00 00 00 00 00 00 00  |................|
 D252  00 00 00 00 00 00 00 00 00 00 00 00 00 00 00 00  |................|
 D262  00 00 00 00 00 00 00 00 00 00 00 00 00 00 00 00  |................|
 D272  00 00 00 00 00 00 00 00 00 00 00 00 00 00 00 00  |................|
 D282  00 00 00 00 00 00 00 00 00 00 00 00 00 00 00 00  |................|
 D292  00 00 00 00 00 00 00 00 00 00 00 00 00 00 00 00  |................|
 D2A2  00 00 00 00 00 00 00 00 00 00 00 00 00 00 00 00  |................|
 D2B2  00 00 00 00 00 00 00 00 00 00 00 00 00 00 00 00  |................|
 D2C2  00 00 00 00 00 00 00 00 00 00 00 00 00 00 00 00  |................|
 D2D2  00 00 00 00 00 00 00 00 00 00 00 00 00 00 00 00  |................|
 D2E2  00 00 00 00 00 00 00 00 00 00 00 00 00 00 00 00  |................|
 D2F2  00 00 00 00 00 00 00 00 00 00 00 00 00 00 00 00  |................|
 D302  00 00 00 00 00 00 00 00 00 00 00 00 00 00 00 00  |................|
 D312  00 00 00 00 00 00 00 00 00 00 00 00 00 00 00 00  |................|
 D322  00 00 00 00 00 00 00 00 00 00 00 00 00 00 00 00  |................|
 D332  00 00 00 00 00 00 00 00 00 00 00 00 00 00 00 00  |................|
 D342  00 00 00 00 00 00 00 00 00 00 00 00 00 00 00 00  |................|
 D352  00 00 00 00 00 00 00 00 00 00 00 00 00 00 00 00  |................|
 D362  00 00 00 00 00 00 00 00 00 00 00 00 00 00 00 00  |................|
 D372  00 00 00 00 00 00 00 00 00 00 00 00 00 00 00 00  |................|
 D382  00 00 00 00 00 00 00 00 00 00 00 00 00 00 00 00  |................|
 D392  00 00 00 00 00 00 00 00 00 00 00 00 00 00 00 00  |................|
 D3A2  00 00 00 00 00 00 00 00 00 00 00 00 00 00 00 00  |................|
 D3B2  00 00 00 00 00 00 00 00 00 00 00 00 00 00 00 00  |................|
 D3C2  00 00 00 00 00 00 00 00 00 00 00 00 00 00 00 00  |................|
 D3D2  00 00 00 00 00 00 00 00 00 00 00 00 00 00 00 00  |................|
 D3E2  00 00 00 00 00 00 00 00 00 00 00 00 00 00 00 00  |................|
 D3F2  00 00 00 00 00 00 00 00 00 00 00 00 00 00 00 00  |................|
 D402  00 00 00 00 00 00 00 00 00 00 00 00 00 00 00 00  |................|
 D412  00 00 00 00 00 00 00 00 00 00 00 00 00 00 00 00  |................|
 D422  00 00 00 00 00 00 00 00 00 00 00 00 00 00 00 00  |................|
 D432  00 00 00 00 00 00 00 00 00 00 00 00 00 00 00 00  |................|
 D442  00 00 00 00 00 00 00 00 00 00 00 00 00 00 00 00  |................|
 D452  00 00 00 00 00 00 00 00 00 00 00 00 00 00 00 00  |................|
 D462  00 00 00 00 00 00 00 00 00 00 00 00 00 00 00 00  |................|
 D472  00 00 00 00 00 00 00 00 00 00 00 00 00 00 00 00  |................|
 D482  00 00 00 00 00 00 00 00 00 00 00 00 00 00 00 00  |................|
 D492  00 00 00 00 00 00 00 00 00 00 00 00 00 00 00 00  |................|
 D4A2  00 00 00 00 00 00 00 00 00 00 00 00 00 00 00 00  |................|
 D4B2  00 00 00 00 00 00 00 00 00 00 00 00 00 00 00 00  |................|
 D4C2  00 00 00 00 00 00 00 00 00 00 00 00 00 00 00 00  |................|
 D4D2  00 00 00 00 00 00 00 00 00 00 00 00 00 00 00 00  |................|
 D4E2  00 00 00 00 00 00 00 00 00 00 00 00 00 00 00 00  |................|
 D4F2  00 00 00 00 00 00 00 00 00 00 00 00 00 00 00 00  |................|
 D502  00 00 00 00 00 00 00 00 00 00 00 00 00 00 00 00  |................|
 D512  00 00 00 00 00 00 00 00 00 00 00 00 00 00 00 00  |................|
 D522  00 00 00 00 00 00 00 00 00 00 00 00 00 00 00 00  |................|
 D532  00 00 00 00 00 00 00 00 00 00 00 00 00 00 00 00  |................|
 D542  00 00 00 00 00 00 00 00 00 00 00 00 00 00 00 00  |................|
 D552  00 00 00 00 00 00 00 00 00 00 00 00 00 00 00 00  |................|
 D562  00 00 00 00 00 00 00 00 00 00 00 00 00 00 00 00  |................|
 D572  00 00 00 00 00 00 00 00 00 00 00 00 00 00 00 00  |................|
 D582  00 00 00 00 00 00 00 00 00 00 00 00 00 00 00 00  |................|
 D592  00 00 00 00 00 00 00 00 00 00 00 00 00 00 00 00  |................|
 D5A2  00 00 00 00 00 00 00 00 00 00 00 00 00 00 00 00  |................|
 D5B2  00 00 00 00 00 00 00 00 00 00 00 00 00 00 00 00  |................|
 D5C2  00 00 00 00 00 00 00 00 00 00 00 00 00 00 00 00  |................|
 D5D2  00 00 00 00 00 00 00 00 00 00 00 00 00 00 00 00  |................|
 D5E2  00 00 00 00 00 00 00 00 00 00 00 00 00 00 00 00  |................|
 D5F2  00 00 00 00 00 00 00 00 00 00 00 00 00 00 00 00  |................|
 D602  00 00 00 00 00 00 00 00 00 00 00 00 00 00 00 00  |................|
 D612  00 00 00 00 00 00 00 00 00 00 00 00 00 00 00 00  |................|
 D622  00 00 00 00 00 00 00 00 00 00 00 00 00 00 00 00  |................|
 D632  00 00 00 00 00 00 00 00 00 00 00 00 00 00 00 00  |................|
 D642  00 00 00 00 00 00 00 00 00 00 00 00 00 00 00 00  |................|
 D652  00 00 00 00 00 00 00 00 00 00 00 00 00 00 00 00  |................|
 D662  00 00 00 00 00 00 00 00 00 00 00 00 00 00 00 00  |................|
 D672  00 00 00 00 00 00 00 00 00 00 00 00 00 00 00 00  |................|
 D682  00 00 00 00 00 00 00 00 00 00 00 00 00 00 00 00  |................|
 D692  00 00 00 00 00 00 00 00 00 00 00 00 00 00 00 00  |................|
 D6A2  00 00 00 00 00 00 00 00 00 00 00 00 00 00 00 00  |................|
 D6B2  00 00 00 00 00 00 00 00 00 00 00 00 00 00 00 00  |................|
 D6C2  00 00 00 00 00 00 00 00 00 00 00 00 00 00 00 00  |................|
 D6D2  00 00 00 00 00 00 00 00 00 00 00 00 00 00 00 00  |................|
 D6E2  00 00 00 00 00 00 00 00 00 00 00 00 00 00 00 00  |................|
 D6F2  00 00 00 00 00 00 00 00 00 00 00 00 00 00 00 00  |................|
 D702  00 00 00 00 00 00 00 00 00 00 00 00 00 00 00 00  |................|
 D712  00 00 00 00 00 00 00 00 00 00 00 00 00 00 00 00  |................|
 D722  00 00 00 00 00 00 00 00 00 00 00 00 00 00 00 00  |................|
 D732  00 00 00 00 00 00 00 00 00 00 00 00 00 00 00 00  |................|
 D742  00 00 00 00 00 00 00 00 00 00 00 00 00 00 00 00  |................|
 D752  00 00 00 00 00 00 00 00 00 00 00 00 00 00 00 00  |................|
 D762  00 00 00 00 00 00 00 00 00 00 00 00 00 00 00 00  |................|
 D772  00 00 00 00 00 00 00 00 00 00 00 00 00 00 00 00  |................|
 D782  00 00 00 00 00 00 00 00 00 00 00 00 00 00 00 00  |................|
 D792  00 00 00 00 00 00 00 00 00 00 00 00 00 00 00 00  |................|
 D7A2  00 00 00 00 00 00 00 00 00 00 00 00 00 00 00 00  |................|
 D7B2  00 00 00 00 00 00 00 00 00 00 00 00 00 00 00 00  |................|
 D7C2  00 00 00 00 00 00 00 00 00 00 00 00 00 00 00 00  |................|
 D7D2  00 00 00 00 00 00 00 00 00 00 00 00 00 00 00 00  |................|
 D7E2  00 00 00 00 00 00 00 00 00 00 00 00 00 00 00 00  |................|
 D7F2  00 00 00 00 00 00 00 00 00 00 00 00 00 00 00 00  |................|
 D802  00 00 00 00 00 00 00 00 00 00 00 00 00 00 00 00  |................|
 D812  00 00 00 00 00 00 00 00 00 00 00 00 00 00 00 00  |................|
 D822  00 00 00 00 00 00 00 00 00 00 00 00 00 00 00 00  |................|
 D832  00 00 00 00 00 00 00 00 00 00 00 00 00 00 00 00  |................|
 D842  00 00 00 00 00 00 00 00 00 00 00 00 00 00 00 00  |................|
 D852  00 00 00 00 00 00 00 00 00 00 00 00 00 00 00 00  |................|
 D862  00 00 00 00 00 00 00 00 00 00 00 00 00 00 00 00  |................|
 D872  00 00 00 00 00 00 00 00 00 00 00 00 00 00 00 00  |................|
 D882  00 00 00 00 00 00 00 00 00 00 00 00 00 00 00 00  |................|
 D892  00 00 00 00 00 00 00 00 00 00 00 00 00 00 00 00  |................|
 D8A2  00 00 00 00 00 00 00 00 00 00 00 00 00 00 00 00  |................|
 D8B2  00 00 00 00 00 00 00 00 00 00 00 00 00 00 00 00  |................|
 D8C2  00 00 00 00 00 00 00 00 00 00 00 00 00 00 00 00  |................|
 D8D2  00 00 00 00 00 00 00 00 00 00 00 00 00 00 00 00  |................|
 D8E2  00 00 00 00 00 00 00 00 00 00 00 00 00 00 00 00  |................|
 D8F2  00 00 00 00 00 00 00 00 00 00 00 00 00 00 00 00  |................|
 D902  00 00 00 00 00 00 00 00 00 00 00 00 00 00 00 00  |................|
 D912  00 00 00 00 00 00 00 00 00 00 00 00 00 00 00 00  |................|
 D922  00 00 00 00 00 00 00 00 00 00 00 00 00 00 00 00  |................|
 D932  00 00 00 00 00 00 00 00 00 00 00 00 00 00 00 00  |................|
 D942  00 00 00 00 00 00 00 00 00 00 00 00 00 00 00 00  |................|
 D952  00 00 00 00 00 00 00 00 00 00 00 00 00 00 00 00  |................|
 D962  00 00 00 00 00 00 00 00 00 00 00 00 00 00 00 00  |................|
 D972  00 00 00 00 00 00 00 00 00 00 00 00 00 00 00 00  |................|
 D982  00 00 00 00 00 00 00 00 00 00 00 00 00 00 00 00  |................|
 D992  00 00 00 00 00 00 00 00 00 00 00 00 00 00 00 00  |................|
 D9A2  00 00 00 00 00 00 00 00 00 00 00 00 00 00 00 00  |................|
 D9B2  00 00 00 00 00 00 00 00 00 00 00 00 00 00 00 00  |................|
 D9C2  00 00 00 00 00 00 00 00 00 00 00 00 00 00 00 00  |................|
 D9D2  00 00 00 00 00 00 00 00 00 00 00 00 00 00 00 00  |................|
 D9E2  00 00 00 00 00 00 00 00 00 00 00 00 00 00 00 00  |................|
 D9F2  00 00 00 00 00 00 00 00 00 00 00 00 00 00 00 00  |................|
 DA02  00 00 00 00 00 00 00 00 00 00 00 00 00 00 00 00  |................|
 DA12  00 00 00 00 00 00 00 00 00 00 00 00 00 00 00 00  |................|
 DA22  00 00 00 00 00 00 00 00 00 00 00 00 00 00 00 00  |................|
 DA32  00 00 00 00 00 00 00 00 00 00 00 00 00 00 00 00  |................|
 DA42  00 00 00 00 00 00 00 00 00 00 00 00 00 00 00 00  |................|
 DA52  00 00 00 00 00 00 00 00 00 00 00 00 00 00 00 00  |................|
 DA62  00 00 00 00 00 00 00 00 00 00 00 00 00 00 00 00  |................|
 DA72  00 00 00 00 00 00 00 00 00 00 00 00 00 00 00 00  |................|
 DA82  00 00 00 00 00 00 00 00 00 00 00 00 00 00 00 00  |................|
 DA92  00 00 00 00 00 00 00 00 00 00 00 00 00 00 00 00  |................|
 DAA2  00 00 00 00 00 00 00 00 00 00 00 00 00 00 00 00  |................|
 DAB2  00 00 00 00 00 00 00 00 00 00 00 00 00 00 00 00  |................|
 DAC2  00 00 00 00 00 00 00 00 00 00 00 00 00 00 00 00  |................|
 DAD2  00 00 00 00 00 00 00 00 00 00 00 00 00 00 00 00  |................|
 DAE2  00 00 00 00 00 00 00 00 00 00 00 00 00 00 00 00  |................|
 DAF2  00 00 00 00 00 00 00 00 00 00 00 00 00 00 00 00  |................|
 DB02  00 00 00 00 00 00 00 00 00 00 00 00 00 00 00 00  |................|
 DB12  00 00 00 00 00 00 00 00 00 00 00 00 00 00 00 00  |................|
 DB22  00 00 00 00 00 00 00 00 00 00 00 00 00 00 00 00  |................|
 DB32  00 00 00 00 00 00 00 00 00 00 00 00 00 00 00 00  |................|
 DB42  00 00 00 00 00 00 00 00 00 00 00 00 00 00 00 00  |................|
 DB52  00 00 00 00 00 00 00 00 00 00 00 00 00 00 00 00  |................|
 DB62  00 00 00 00 00 00 00 00 00 00 00 00 00 00 00 00  |................|
 DB72  00 00 00 00 00 00 00 00 00 00 00 00 00 00 00 00  |................|
 DB82  00 00 00 00 00 00 00 00 00 00 00 00 00 00 00 00  |................|
 DB92  00 00 00 00 00 00 00 00 00 00 00 00 00 00 00 00  |................|
 DBA2  00 00 00 00 00 00 00 00 00 00 00 00 00 00 00 00  |................|
 DBB2  00 00 00 00 00 00 00 00 00 00 00 00 00 00 00 00  |................|
 DBC2  00 00 00 00 00 00 00 00 00 00 00 00 00 00 00 00  |................|
 DBD2  00 00 00 00 00 00 00 00 00 00 00 00 00 00 00 00  |................|
 DBE2  00 00 00 00 00 00 00 00 00 00 00 00 00 00 00 00  |................|
 DBF2  00 00 00 00 00 00 00 00 00 00 00 00 00 00 00 00  |................|
 DC02  00 00 00 00 00 00 00 00 00 00 00 00 00 00 00 00  |................|
 DC12  00 00 00 00 00 00 00 00 00 00 00 00 00 00 00 00  |................|
 DC22  00 00 00 00 00 00 00 00 00 00 00 00 00 00 00 00  |................|
 DC32  00 00 00 00 00 00 00 00 00 00 00 00 00 00 00 00  |................|
 DC42  00 00 00 00 00 00 00 00 00 00 00 00 00 00 00 00  |................|
 DC52  00 00 00 00 00 00 00 00 00 00 00 00 00 00 00 00  |................|
 DC62  00 00 00 00 00 00 00 00 00 00 00 00 00 00 00 00  |................|
 DC72  00 00 00 00 00 00 00 00 00 00 00 00 00 00 00 00  |................|
 DC82  00 00 00 00 00 00 00 00 00 00 00 00 00 00 00 00  |................|
 DC92  00 00 00 00 00 00 00 00 00 00 00 00 00 00 00 00  |................|
 DCA2  00 00 00 00 00 00 00 00 00 00 00 00 00 00 00 00  |................|
 DCB2  00 00 00 00 00 00 00 00 00 00 00 00 00 00 00 00  |................|
 DCC2  00 00 00 00 00 00 00 00 00 00 00 00 00 00 00 00  |................|
 DCD2  00 00 00 00 00 00 00 00 00 00 00 00 00 00 00 00  |................|
 DCE2  00 00 00 00 00 00 00 00 00 00 00 00 00 00 00 00  |................|
 DCF2  00 00 00 00 00 00 00 00 00 00 00 00 00 00 00 00  |................|
 DD02  00 00 00 00 00 00 00 00 00 00 00 00 00 00 00 00  |................|
 DD12  00 00 00 00 00 00 00 00 00 00 00 00 00 00 00 00  |................|
 DD22  00 00 00 00 00 00 00 00 00 00 00 00 00 00 00 00  |................|
 DD32  00 00 00 00 00 00 00 00 00 00 00 00 00 00 00 00  |................|
 DD42  00 00 00 00 00 00 00 00 00 00 00 00 00 00 00 00  |................|
 DD52  00 00 00 00 00 00 00 00 00 00 00 00 00 00 00 00  |................|
 DD62  00 00 00 00 00 00 00 00 00 00 00 00 00 00 00 00  |................|
 DD72  00 00 00 00 00 00 00 00 00 00 00 00 00 00 00 00  |................|
 DD82  00 00 00 00 00 00 00 00 00 00 00 00 00 00 00 00  |................|
 DD92  00 00 00 00 00 00 00 00 00 00 00 00 00 00 00 00  |................|
 DDA2  00 00 00 00 00 00 00 00 00 00 00 00 00 00 00 00  |................|
 DDB2  00 00 00 00 00 00 00 00 00 00 00 00 00 00 00 00  |................|
 DDC2  00 00 00 00 00 00 00 00 00 00 00 00 00 00 00 00  |................|
 DDD2  00 00 00 00 00 00 00 00 00 00 00 00 00 00 00 00  |................|
 DDE2  00 00 00 00 00 00 00 00 00 00 00 00 00 00 00 00  |................|
 DDF2  00 00 00 00 00 00 00 00 00 00 00 00 00 00 00 00  |................|
 DE02  00 00 00 00 00 00 00 00 00 00 00 00 00 00 00 00  |................|
 DE12  00 00 00 00 00 00 00 00 00 00 00 00 00 00 00 00  |................|
 DE22  00 00 00 00 00 00 00 00 00 00 00 00 00 00 00 00  |................|
 DE32  00 00 00 00 00 00 00 00 00 00 00 00 00 00 00 00  |................|
 DE42  00 00 00 00 00 00 00 00 00 00 00 00 00 00 00 00  |................|
 DE52  00 00 00 00 00 00 00 00 00 00 00 00 00 00 00 00  |................|
 DE62  00 00 00 00 00 00 00 00 00 00 00 00 00 00 00 00  |................|
 DE72  00 00 00 00 00 00 00 00 00 00 00 00 00 00 00 00  |................|
 DE82  00 00 00 00 00 00 00 00 00 00 00 00 00 00 00 00  |................|
 DE92  00 00 00 00 00 00 00 00 00 00 00 00 00 00 00 00  |................|
 DEA2  00 00 00 00 00 00 00 00 00 00 00 00 00 00 00 00  |................|
 DEB2  00 00 00 00 00 00 00 00 00 00 00 00 00 00 00 00  |................|
 DEC2  00 00 00 00 00 00 00 00 00 00 00 00 00 00 00 00  |................|
 DED2  00 00 00 00 00 00 00 00 00 00 00 00 00 00 00 00  |................|
 DEE2  00 00 00 00 00 00 00 00 00 00 00 00 00 00 00 00  |................|
 DEF2  00 00 00 00 00 00 00 00 00 00 00 00 00 00 00 00  |................|
 DF02  00 00 00 00 00 00 00 00 00 00 00 00 00 00 00 00  |................|
 DF12  00 00 00 00 00 00 00 00 00 00 00 00 00 00 00 00  |................|
 DF22  00 00 00 00 00 00 00 00 00 00 00 00 00 00 00 00  |................|
 DF32  00 00 00 00 00 00 00 00 00 00 00 00 00 00 00 00  |................|
 DF42  00 00 00 00 00 00 00 00 00 00 00 00 00 00 00 00  |................|
 DF52  00 00 00 00 00 00 00 00 00 00 00 00 00 00 00 00  |................|
 DF62  00 00 00 00 00 00 00 00 00 00 00 00 00 00 00 00  |................|
 DF72  00 00 00 00 00 00 00 00 00 00 00 00 00 00 00 00  |................|
 DF82  00 00 00 00 00 00 00 00 00 00 00 00 00 00 00 00  |................|
 DF92  00 00 00 00 00 00 00 00 00 00 00 00 00 00 00 00  |................|
 DFA2  00 00 00 00 00 00 00 00 00 00 00 00 00 00 00 00  |................|
 DFB2  00 00 00 00 00 00 00 00 00 00 00 00 00 00 00 00  |................|
 DFC2  00 00 00 00 00 00 00 00 00 00 00 00 00 00 00 00  |................|
 DFD2  00 00 00 00 00 00 00 00 00 00 00 00 00 00 00 00  |................|
 DFE2  00 00 00 00 00 00 00 00 00 00 00 00 00 00 00 00  |................|
 DFF2  00 00 00 00 00 00 00 00 00 00 00 00 00 00 00 00  |................|
 E002  00 00 00 00 00 00 00 00 00 00 00 00 00 00 00 00  |................|
 E012  00 00 00 00 00 00 00 00 00 00 00 00 00 00 00 00  |................|
 E022  00 00 00 00 00 00 00 00 00 00 00 00 00 00 00 00  |................|
 E032  00 00 00 00 00 00 00 00 00 00 00 00 00 00 00 00  |................|
 E042  00 00 00 00 00 00 00 00 00 00 00 00 00 00 00 00  |................|
 E052  00 00 00 00 00 00 00 00 00 00 00 00 00 00 00 00  |................|
 E062  00 00 00 00 00 00 00 00 00 00 00 00 00 00 00 00  |................|
 E072  00 00 00 00 00 00 00 00 00 00 00 00 00 00 00 00  |................|
 E082  00 00 00 00 00 00 00 00 00 00 00 00 00 00 00 00  |................|
 E092  00 00 00 00 00 00 00 00 00 00 00 00 00 00 00 00  |................|
 E0A2  00 00 00 00 00 00 00 00 00 00 00 00 00 00 00 00  |................|
 E0B2  00 00 00 00 00 00 00 00 00 00 00 00 00 00 00 00  |................|
 E0C2  00 00 00 00 00 00 00 00 00 00 00 00 00 00 00 00  |................|
 E0D2  00 00 00 00 00 00 00 00 00 00 00 00 00 00 00 00  |................|
 E0E2  00 00 00 00 00 00 00 00 00 00 00 00 00 00 00 00  |................|
 E0F2  00 00 00 00 00 00 00 00 00 00 00 00 00 00 00 00  |................|
 E102  00 00 00 00 00 00 00 00 00 00 00 00 00 00 00 00  |................|
 E112  00 00 00 00 00 00 00 00 00 00 00 00 00 00 00 00  |................|
 E122  00 00 00 00 00 00 00 00 00 00 00 00 00 00 00 00  |................|
 E132  00 00 00 00 00 00 00 00 00 00 00 00 00 00 00 00  |................|
 E142  00 00 00 00 00 00 00 00 00 00 00 00 00 00 00 00  |................|
 E152  00 00 00 00 00 00 00 00 00 00 00 00 00 00 00 00  |................|
 E162  00 00 00 00 00 00 00 00 00 00 00 00 00 00 00 00  |................|
 E172  00 00 00 00 00 00 00 00 00 00 00 00 00 00 00 00  |................|
 E182  00 00 00 00 00 00 00 00 00 00 00 00 00 00 00 00  |................|
 E192  00 00 00 00 00 00 00 00 00 00 00 00 00 00 00 00  |................|
 E1A2  00 00 00 00 00 00 00 00 00 00 00 00 00 00 00 00  |................|
 E1B2  00 00 00 00 00 00 00 00 00 00 00 00 00 00 00 00  |................|
 E1C2  00 00 00 00 00 00 00 00 00 00 00 00 00 00 00 00  |................|
 E1D2  00 00 00 00 00 00 00 00 00 00 00 00 00 00 00 00  |................|
 E1E2  00 00 00 00 00 00 00 00 00 00 00 00 00 00 00 00  |................|
 E1F2  00 00 00 00 00 00 00 00 00 00 00 00 00 00 00 00  |................|
 E202  00 00 00 00 00 00 00 00 00 00 00 00 00 00 00 00  |................|
 E212  00 00 00 00 00 00 00 00 00 00 00 00 00 00 00 00  |................|
 E222  00 00 00 00 00 00 00 00 00 00 00 00 00 00 00 00  |................|
 E232  00 00 00 00 00 00 00 00 00 00 00 00 00 00 00 00  |................|
 E242  00 00 00 00 00 00 00 00 00 00 00 00 00 00 00 00  |................|
 E252  00 00 00 00 00 00 00 00 00 00 00 00 00 00 00 00  |................|
 E262  00 00 00 00 00 00 00 00 00 00 00 00 00 00 00 00  |................|
 E272  00 00 00 00 00 00 00 00 00 00 00 00 00 00 00 00  |................|
 E282  00 00 00 00 00 00 00 00 00 00 00 00 00 00 00 00  |................|
 E292  00 00 00 00 00 00 00 00 00 00 00 00 00 00 00 00  |................|
 E2A2  00 00 00 00 00 00 00 00 00 00 00 00 00 00 00 00  |................|
 E2B2  00 00 00 00 00 00 00 00 00 00 00 00 00 00 00 00  |................|
 E2C2  00 00 00 00 00 00 00 00 00 00 00 00 00 00 00 00  |................|
 E2D2  00 00 00 00 00 00 00 00 00 00 00 00 00 00 00 00  |................|
 E2E2  00 00 00 00 00 00 00 00 00 00 00 00 00 00 00 00  |................|
 E2F2  00 00 00 00 00 00 00 00 00 00 00 00 00 00 00 00  |................|
 E302  00 00 00 00 00 00 00 00 00 00 00 00 00 00 00 00  |................|
 E312  00 00 00 00 00 00 00 00 00 00 00 00 00 00 00 00  |................|
 E322  00 00 00 00 00 00 00 00 00 00 00 00 00 00 00 00  |................|
 E332  00 00 00 00 00 00 00 00 00 00 00 00 00 00 00 00  |................|
 E342  00 00 00 00 00 00 00 00 00 00 00 00 00 00 00 00  |................|
 E352  00 00 00 00 00 00 00 00 00 00 00 00 00 00 00 00  |................|
 E362  00 00 00 00 00 00 00 00 00 00 00 00 00 00 00 00  |................|
 E372  00 00 00 00 00 00 00 00 00 00 00 00 00 00 00 00  |................|
 E382  00 00 00 00 00 00 00 00 00 00 00 00 00 00 00 00  |................|
 E392  00 00 00 00 00 00 00 00 00 00 00 00 00 00 00 00  |................|
 E3A2  00 00 00 00 00 00 00 00 00 00 00 00 00 00 00 00  |................|
 E3B2  00 00 00 00 00 00 00 00 00 00 00 00 00 00 00 00  |................|
 E3C2  00 00 00 00 00 00 00 00 00 00 00 00 00 00 00 00  |................|
 E3D2  00 00 00 00 00 00 00 00 00 00 00 00 00 00 00 00  |................|
 E3E2  00 00 00 00 00 00 00 00 00 00 00 00 00 00 00 00  |................|
 E3F2  00 00 00 00 00 00 00 00 00 00 00 00 00 00 00 00  |................|
 E402  00 00 00 00 00 00 00 00 00 00 00 00 00 00 00 00  |................|
 E412  00 00 00 00 00 00 00 00 00 00 00 00 00 00 00 00  |................|
 E422  00 00 00 00 00 00 00 00 00 00 00 00 00 00 00 00  |................|
 E432  00 00 00 00 00 00 00 00 00 00 00 00 00 00 00 00  |................|
 E442  00 00 00 00 00 00 00 00 00 00 00 00 00 00 00 00  |................|
 E452  00 00 00 00 00 00 00 00 00 00 00 00 00 00 00 00  |................|
 E462  00 00 00 00 00 00 00 00 00 00 00 00 00 00 00 00  |................|
 E472  00 00 00 00 00 00 00 00 00 00 00 00 00 00 00 00  |................|
 E482  00 00 00 00 00 00 00 00 00 00 00 00 00 00 00 00  |................|
 E492  00 00 00 00 00 00 00 00 00 00 00 00 00 00 00 00  |................|
 E4A2  00 00 00 00 00 00 00 00 00 00 00 00 00 00 00 00  |................|
 E4B2  00 00 00 00 00 00 00 00 00 00 00 00 00 00 00 00  |................|
 E4C2  00 00 00 00 00 00 00 00 00 00 00 00 00 00 00 00  |................|
 E4D2  00 00 00 00 00 00 00 00 00 00 00 00 00 00 00 00  |................|
 E4E2  00 00 00 00 00 00 00 00 00 00 00 00 00 00 00 00  |................|
 E4F2  00 00 00 00 00 00 00 00 00 00 00 00 00 00 00 00  |................|
 E502  00 00 00 00 00 00 00 00 00 00 00 00 00 00 00 00  |................|
 E512  00 00 00 00 00 00 00 00 00 00 00 00 00 00 00 00  |................|
 E522  00 00 00 00 00 00 00 00 00 00 00 00 00 00 00 00  |................|
 E532  00 00 00 00 00 00 00 00 00 00 00 00 00 00 00 00  |................|
 E542  00 00 00 00 00 00 00 00 00 00 00 00 00 00 00 00  |................|
 E552  00 00 00 00 00 00 00 00 00 00 00 00 00 00 00 00  |................|
 E562  00 00 00 00 00 00 00 00 00 00 00 00 00 00 00 00  |................|
 E572  00 00 00 00 00 00 00 00 00 00 00 00 00 00 00 00  |................|
 E582  00 00 00 00 00 00 00 00 00 00 00 00 00 00 00 00  |................|
 E592  00 00 00 00 00 00 00 00 00 00 00 00 00 00 00 00  |................|
 E5A2  00 00 00 00 00 00 00 00 00 00 00 00 00 00 00 00  |................|
 E5B2  00 00 00 00 00 00 00 00 00 00 00 00 00 00 00 00  |................|
 E5C2  00 00 00 00 00 00 00 00 00 00 00 00 00 00 00 00  |................|
 E5D2  00 00 00 00 00 00 00 00 00 00 00 00 00 00 00 00  |................|
 E5E2  00 00 00 00 00 00 00 00 00 00 00 00 00 00 00 00  |................|
 E5F2  00 00 00 00 00 00 00 00 00 00 00 00 00 00 00 00  |................|
 E602  00 00 00 00 00 00 00 00 00 00 00 00 00 00 00 00  |................|
 E612  00 00 00 00 00 00 00 00 00 00 00 00 00 00 00 00  |................|
 E622  00 00 00 00 00 00 00 00 00 00 00 00 00 00 00 00  |................|
 E632  00 00 00 00 00 00 00 00 00 00 00 00 00 00 00 00  |................|
 E642  00 00 00 00 00 00 00 00 00 00 00 00 00 00 00 00  |................|
 E652  00 00 00 00 00 00 00 00 00 00 00 00 00 00 00 00  |................|
 E662  00 00 00 00 00 00 00 00 00 00 00 00 00 00 00 00  |................|
 E672  00 00 00 00 00 00 00 00 00 00 00 00 00 00 00 00  |................|
 E682  00 00 00 00 00 00 00 00 00 00 00 00 00 00 00 00  |................|
 E692  00 00 00 00 00 00 00 00 00 00 00 00 00 00 00 00  |................|
 E6A2  00 00 00 00 00 00 00 00 00 00 00 00 00 00 00 00  |................|
 E6B2  00 00 00 00 00 00 00 00 00 00 00 00 00 00 00 00  |................|
 E6C2  00 00 00 00 00 00 00 00 00 00 00 00 00 00 00 00  |................|
 E6D2  00 00 00 00 00 00 00 00 00 00 00 00 00 00 00 00  |................|
 E6E2  00 00 00 00 00 00 00 00 00 00 00 00 00 00 00 00  |................|
 E6F2  00 00 00 00 00 00 00 00 00 00 00 00 00 00 00 00  |................|
 E702  00 00 00 00 00 00 00 00 00 00 00 00 00 00 00 00  |................|
 E712  00 00 00 00 00 00 00 00 00 00 00 00 00 00 00 00  |................|
 E722  00 00 00 00 00 00 00 00 00 00 00 00 00 00 00 00  |................|
 E732  00 00 00 00 00 00 00 00 00 00 00 00 00 00 00 00  |................|
 E742  00 00 00 00 00 00 00 00 00 00 00 00 00 00 00 00  |................|
 E752  00 00 00 00 00 00 00 00 00 00 00 00 00 00 00 00  |................|
 E762  00 00 00 00 00 00 00 00 00 00 00 00 00 00 00 00  |................|
 E772  00 00 00 00 00 00 00 00 00 00 00 00 00 00 00 00  |................|
 E782  00 00 00 00 00 00 00 00 00 00 00 00 00 00 00 00  |................|
 E792  00 00 00 00 00 00 00 00 00 00 00 00 00 00 00 00  |................|
 E7A2  00 00 00 00 00 00 00 00 00 00 00 00 00 00 00 00  |................|
 E7B2  00 00 00 00 00 00 00 00 00 00 00 00 00 00 00 00  |................|
 E7C2  00 00 00 00 00 00 00 00 00 00 00 00 00 00 00 00  |................|
 E7D2  00 00 00 00 00 00 00 00 00 00 00 00 00 00 00 00  |................|
 E7E2  00 00 00 00 00 00 00 00 00 00 00 00 00 00 00 00  |................|
 E7F2  00 00 00 00 00 00 00 00 00 00 00 00 00 00 00 00  |................|
 E802  00 00 00 00 00 00 00 00 00 00 00 00 00 00 00 00  |................|
 E812  00 00 00 00 00 00 00 00 00 00 00 00 00 00 00 00  |................|
 E822  00 00 00 00 00 00 00 00 00 00 00 00 00 00 00 00  |................|
 E832  00 00 00 00 00 00 00 00 00 00 00 00 00 00 00 00  |................|
 E842  00 00 00 00 00 00 00 00 00 00 00 00 00 00 00 00  |................|
 E852  00 00 00 00 00 00 00 00 00 00 00 00 00 00 00 00  |................|
 E862  00 00 00 00 00 00 00 00 00 00 00 00 00 00 00 00  |................|
 E872  00 00 00 00 00 00 00 00 00 00 00 00 00 00 00 00  |................|
 E882  00 00 00 00 00 00 00 00 00 00 00 00 00 00 00 00  |................|
 E892  00 00 00 00 00 00 00 00 00 00 00 00 00 00 00 00  |................|
 E8A2  00 00 00 00 00 00 00 00 00 00 00 00 00 00 00 00  |................|
 E8B2  00 00 00 00 00 00 00 00 00 00 00 00 00 00 00 00  |................|
 E8C2  00 00 00 00 00 00 00 00 00 00 00 00 00 00 00 00  |................|
 E8D2  00 00 00 00 00 00 00 00 00 00 00 00 00 00 00 00  |................|
 E8E2  00 00 00 00 00 00 00 00 00 00 00 00 00 00 00 00  |................|
 E8F2  00 00 00 00 00 00 00 00 00 00 00 00 00 00 00 00  |................|
 E902  00 00 00 00 00 00 00 00 00 00 00 00 00 00 00 00  |................|
 E912  00 00 00 00 00 00 00 00 00 00 00 00 00 00 00 00  |................|
 E922  00 00 00 00 00 00 00 00 00 00 00 00 00 00 00 00  |................|
 E932  00 00 00 00 00 00 00 00 00 00 00 00 00 00 00 00  |................|
 E942  00 00 00 00 00 00 00 00 00 00 00 00 00 00 00 00  |................|
 E952  00 00 00 00 00 00 00 00 00 00 00 00 00 00 00 00  |................|
 E962  00 00 00 00 00 00 00 00 00 00 00 00 00 00 00 00  |................|
 E972  00 00 00 00 00 00 00 00 00 00 00 00 00 00 00 00  |................|
 E982  00 00 00 00 00 00 00 00 00 00 00 00 00 00 00 00  |................|
 E992  00 00 00 00 00 00 00 00 00 00 00 00 00 00 00 00  |................|
 E9A2  00 00 00 00 00 00 00 00 00 00 00 00 00 00 00 00  |................|
 E9B2  00 00 00 00 00 00 00 00 00 00 00 00 00 00 00 00  |................|
 E9C2  00 00 00 00 00 00 00 00 00 00 00 00 00 00 00 00  |................|
 E9D2  00 00 00 00 00 00 00 00 00 00 00 00 00 00 00 00  |................|
 E9E2  00 00 00 00 00 00 00 00 00 00 00 00 00 00 00 00  |................|
 E9F2  00 00 00 00 00 00 00 00 00 00 00 00 00 00 00 00  |................|
 EA02  00 00 00 00 00 00 00 00 00 00 00 00 00 00 00 00  |................|
 EA12  00 00 00 00 00 00 00 00 00 00 00 00 00 00 00 00  |................|
 EA22  00 00 00 00 00 00 00 00 00 00 00 00 00 00 00 00  |................|
 EA32  00 00 00 00 00 00 00 00 00 00 00 00 00 00 00 00  |................|
 EA42  00 00 00 00 00 00 00 00 00 00 00 00 00 00 00 00  |................|
 EA52  00 00 00 00 00 00 00 00 00 00 00 00 00 00 00 00  |................|
 EA62  00 00 00 00 00 00 00 00 00 00 00 00 00 00 00 00  |................|
 EA72  00 00 00 00 00 00 00 00 00 00 00 00 00 00 00 00  |................|
 EA82  00 00 00 00 00 00 00 00 00 00 00 00 00 00 00 00  |................|
 EA92  00 00 00 00 00 00 00 00 00 00 00 00 00 00 00 00  |................|
 EAA2  00 00 00 00 00 00 00 00 00 00 00 00 00 00 00 00  |................|
 EAB2  00 00 00 00 00 00 00 00 00 00 00 00 00 00 00 00  |................|
 EAC2  00 00 00 00 00 00 00 00 00 00 00 00 00 00 00 00  |................|
 EAD2  00 00 00 00 00 00 00 00 00 00 00 00 00 00 00 00  |................|
 EAE2  00 00 00 00 00 00 00 00 00 00 00 00 00 00 00 00  |................|
 EAF2  00 00 00 00 00 00 00 00 00 00 00 00 00 00 00 00  |................|
 EB02  00 00 00 00 00 00 00 00 00 00 00 00 00 00 00 00  |................|
 EB12  00 00 00 00 00 00 00 00 00 00 00 00 00 00 00 00  |................|
 EB22  00 00 00 00 00 00 00 00 00 00 00 00 00 00 00 00  |................|
 EB32  00 00 00 00 00 00 00 00 00 00 00 00 00 00 00 00  |................|
 EB42  00 00 00 00 00 00 00 00 00 00 00 00 00 00 00 00  |................|
 EB52  00 00 00 00 00 00 00 00 00 00 00 00 00 00 00 00  |................|
 EB62  00 00 00 00 00 00 00 00 00 00 00 00 00 00 00 00  |................|
 EB72  00 00 00 00 00 00 00 00 00 00 00 00 00 00 00 00  |................|
 EB82  00 00 00 00 00 00 00 00 00 00 00 00 00 00 00 00  |................|
 EB92  00 00 00 00 00 00 00 00 00 00 00 00 00 00 00 00  |................|
 EBA2  00 00 00 00 00 00 00 00 00 00 00 00 00 00 00 00  |................|
 EBB2  00 00 00 00 00 00 00 00 00 00 00 00 00 00 00 00  |................|
 EBC2  00 00 00 00 00 00 00 00 00 00 00 00 00 00 00 00  |................|
 EBD2  00 00 00 00 00 00 00 00 00 00 00 00 00 00 00 00  |................|
 EBE2  00 00 00 00 00 00 00 00 00 00 00 00 00 00 00 00  |................|
 EBF2  00 00 00 00 00 00 00 00 00 00 00 00 00 00 00 00  |................|
 EC02  00 00 00 00 00 00 00 00 00 00 00 00 00 00 00 00  |................|
 EC12  00 00 00 00 00 00 00 00 00 00 00 00 00 00 00 00  |................|
 EC22  00 00 00 00 00 00 00 00 00 00 00 00 00 00 00 00  |................|
 EC32  00 00 00 00 00 00 00 00 00 00 00 00 00 00 00 00  |................|
 EC42  00 00 00 00 00 00 00 00 00 00 00 00 00 00 00 00  |................|
 EC52  00 00 00 00 00 00 00 00 00 00 00 00 00 00 00 00  |................|
 EC62  00 00 00 00 00 00 00 00 00 00 00 00 00 00 00 00  |................|
 EC72  00 00 00 00 00 00 00 00 00 00 00 00 00 00 00 00  |................|
 EC82  00 00 00 00 00 00 00 00 00 00 00 00 00 00 00 00  |................|
 EC92  00 00 00 00 00 00 00 00 00 00 00 00 00 00 00 00  |................|
 ECA2  00 00 00 00 00 00 00 00 00 00 00 00 00 00 00 00  |................|
 ECB2  00 00 00 00 00 00 00 00 00 00 00 00 00 00 00 00  |................|
 ECC2  00 00 00 00 00 00 00 00 00 00 00 00 00 00 00 00  |................|
 ECD2  00 00 00 00 00 00 00 00 00 00 00 00 00 00 00 00  |................|
 ECE2  00 00 00 00 00 00 00 00 00 00 00 00 00 00 00 00  |................|
 ECF2  00 00 00 00 00 00 00 00 00 00 00 00 00 00 00 00  |................|
 ED02  00 00 00 00 00 00 00 00 00 00 00 00 00 00 00 00  |................|
 ED12  00 00 00 00 00 00 00 00 00 00 00 00 00 00 00 00  |................|
 ED22  00 00 00 00 00 00 00 00 00 00 00 00 00 00 00 00  |................|
 ED32  00 00 00 00 00 00 00 00 00 00 00 00 00 00 00 00  |................|
 ED42  00 00 00 00 00 00 00 00 00 00 00 00 00 00 00 00  |................|
 ED52  00 00 00 00 00 00 00 00 00 00 00 00 00 00 00 00  |................|
 ED62  00 00 00 00 00 00 00 00 00 00 00 00 00 00 00 00  |................|
 ED72  00 00 00 00 00 00 00 00 00 00 00 00 00 00 00 00  |................|
 ED82  00 00 00 00 00 00 00 00 00 00 00 00 00 00 00 00  |................|
 ED92  00 00 00 00 00 00 00 00 00 00 00 00 00 00 00 00  |................|
 EDA2  00 00 00 00 00 00 00 00 00 00 00 00 00 00 00 00  |................|
 EDB2  00 00 00 00 00 00 00 00 00 00 00 00 00 00 00 00  |................|
 EDC2  00 00 00 00 00 00 00 00 00 00 00 00 00 00 00 00  |................|
 EDD2  00 00 00 00 00 00 00 00 00 00 00 00 00 00 00 00  |................|
 EDE2  00 00 00 00 00 00 00 00 00 00 00 00 00 00 00 00  |................|
 EDF2  00 00 00 00 00 00 00 00 00 00 00 00 00 00 00 00  |................|
 EE02  00 00 00 00 00 00 00 00 00 00 00 00 00 00 00 00  |................|
 EE12  00 00 00 00 00 00 00 00 00 00 00 00 00 00 00 00  |................|
 EE22  00 00 00 00 00 00 00 00 00 00 00 00 00 00 00 00  |................|
 EE32  00 00 00 00 00 00 00 00 00 00 00 00 00 00 00 00  |................|
 EE42  00 00 00 00 00 00 00 00 00 00 00 00 00 00 00 00  |................|
 EE52  00 00 00 00 00 00 00 00 00 00 00 00 00 00 00 00  |................|
 EE62  00 00 00 00 00 00 00 00 00 00 00 00 00 00 00 00  |................|
 EE72  00 00 00 00 00 00 00 00 00 00 00 00 00 00 00 00  |................|
 EE82  00 00 00 00 00 00 00 00 00 00 00 00 00 00 00 00  |................|
 EE92  00 00 00 00 00 00 00 00 00 00 00 00 00 00 00 00  |................|
 EEA2  00 00 00 00 00 00 00 00 00 00 00 00 00 00 00 00  |................|
 EEB2  00 00 00 00 00 00 00 00 00 00 00 00 00 00 00 00  |................|
 EEC2  00 00 00 00 00 00 00 00 00 00 00 00 00 00 00 00  |................|
 EED2  00 00 00 00 00 00 00 00 00 00 00 00 00 00 00 00  |................|
 EEE2  00 00 00 00 00 00 00 00 00 00 00 00 00 00 00 00  |................|
 EEF2  00 00 00 00 00 00 00 00 00 00 00 00 00 00 00 00  |................|
 EF02  00 00 00 00 00 00 00 00 00 00 00 00 00 00 00 00  |................|
 EF12  00 00 00 00 00 00 00 00 00 00 00 00 00 00 00 00  |................|
 EF22  00 00 00 00 00 00 00 00 00 00 00 00 00 00 00 00  |................|
 EF32  00 00 00 00 00 00 00 00 00 00 00 00 00 00 00 00  |................|
 EF42  00 00 00 00 00 00 00 00 00 00 00 00 00 00 00 00  |................|
 EF52  00 00 00 00 00 00 00 00 00 00 00 00 00 00 00 00  |................|
 EF62  00 00 00 00 00 00 00 00 00 00 00 00 00 00 00 00  |................|
 EF72  00 00 00 00 00 00 00 00 00 00 00 00 00 00 00 00  |................|
 EF82  00 00 00 00 00 00 00 00 00 00 00 00 00 00 00 00  |................|
 EF92  00 00 00 00 00 00 00 00 00 00 00 00 00 00 00 00  |................|
 EFA2  00 00 00 00 00 00 00 00 00 00 00 00 00 00 00 00  |................|
 EFB2  00 00 00 00 00 00 00 00 00 00 00 00 00 00 00 00  |................|
 EFC2  00 00 00 00 00 00 00 00 00 00 00 00 00 00 00 00  |................|
 EFD2  00 00 00 00 00 00 00 00 00 00 00 00 00 00 00 00  |................|
 EFE2  00 00 00 00 00 00 00 00 00 00 00 00 00 00 00 00  |................|
 EFF2  00 00 00 00 00 00 00 00 00 00 00 00 00 00 00 00  |................|
 F002  00 00 00 00                                      |....            |
 F006  A2 00     LDX  #$00
 F008  BD 20 F0  LDA  $F020, X
 F00B  F0 06     BEQ  $F013
 F00D  20 1C F0  JSR  $F01C
 F010  E8        INX  
 F011  80 F5     BRA  $F008
 F013  4C 00 80  JMP  $8000
 F016  AD 04 F0  LDA  $F004
 F019  F0 FB     BEQ  $F016
 F01B  60        RTS  
 F01C  8D 01 F0  STA  $F001
 F01F  60        RTS  
 F020  54 61 6C 69 20 46 6F 72 74 68 20 32 20 64 65 66  |Tali Forth 2 def|
 F030  61 75 6C 74 20 6B 65 72 6E 65 6C 20 66 6F 72 20  |ault kernel for |
 F040  70 79 36 35 6D 6F 6E 20 28 31 38 2E 20 46 65 62  |py65mon (18. Feb|
 F050  20 32 30 31 38 29 0A 00 00 00 00 00 00 00 00 00  | 2018)..........|
 F060  00 00 00 00 00 00 00 00 00 00 00 00 00 00 00 00  |................|
 F070  00 00 00 00 00 00 00 00 00 00 00 00 00 00 00 00  |................|
 F080  00 00 00 00 00 00 00 00 00 00 00 00 00 00 00 00  |................|
 F090  00 00 00 00 00 00 00 00 00 00 00 00 00 00 00 00  |................|
 F0A0  00 00 00 00 00 00 00 00 00 00 00 00 00 00 00 00  |................|
 F0B0  00 00 00 00 00 00 00 00 00 00 00 00 00 00 00 00  |................|
 F0C0  00 00 00 00 00 00 00 00 00 00 00 00 00 00 00 00  |................|
 F0D0  00 00 00 00 00 00 00 00 00 00 00 00 00 00 00 00  |................|
 F0E0  00 00 00 00 00 00 00 00 00 00 00 00 00 00 00 00  |................|
 F0F0  00 00 00 00 00 00 00 00 00 00 00 00 00 00 00 00  |................|
 F100  00 00 00 00 00 00 00 00 00 00 00 00 00 00 00 00  |................|
 F110  00 00 00 00 00 00 00 00 00 00 00 00 00 00 00 00  |................|
 F120  00 00 00 00 00 00 00 00 00 00 00 00 00 00 00 00  |................|
 F130  00 00 00 00 00 00 00 00 00 00 00 00 00 00 00 00  |................|
 F140  00 00 00 00 00 00 00 00 00 00 00 00 00 00 00 00  |................|
 F150  00 00 00 00 00 00 00 00 00 00 00 00 00 00 00 00  |................|
 F160  00 00 00 00 00 00 00 00 00 00 00 00 00 00 00 00  |................|
 F170  00 00 00 00 00 00 00 00 00 00 00 00 00 00 00 00  |................|
 F180  00 00 00 00 00 00 00 00 00 00 00 00 00 00 00 00  |................|
 F190  00 00 00 00 00 00 00 00 00 00 00 00 00 00 00 00  |................|
 F1A0  00 00 00 00 00 00 00 00 00 00 00 00 00 00 00 00  |................|
 F1B0  00 00 00 00 00 00 00 00 00 00 00 00 00 00 00 00  |................|
 F1C0  00 00 00 00 00 00 00 00 00 00 00 00 00 00 00 00  |................|
 F1D0  00 00 00 00 00 00 00 00 00 00 00 00 00 00 00 00  |................|
 F1E0  00 00 00 00 00 00 00 00 00 00 00 00 00 00 00 00  |................|
 F1F0  00 00 00 00 00 00 00 00 00 00 00 00 00 00 00 00  |................|
 F200  00 00 00 00 00 00 00 00 00 00 00 00 00 00 00 00  |................|
 F210  00 00 00 00 00 00 00 00 00 00 00 00 00 00 00 00  |................|
 F220  00 00 00 00 00 00 00 00 00 00 00 00 00 00 00 00  |................|
 F230  00 00 00 00 00 00 00 00 00 00 00 00 00 00 00 00  |................|
 F240  00 00 00 00 00 00 00 00 00 00 00 00 00 00 00 00  |................|
 F250  00 00 00 00 00 00 00 00 00 00 00 00 00 00 00 00  |................|
 F260  00 00 00 00 00 00 00 00 00 00 00 00 00 00 00 00  |................|
 F270  00 00 00 00 00 00 00 00 00 00 00 00 00 00 00 00  |................|
 F280  00 00 00 00 00 00 00 00 00 00 00 00 00 00 00 00  |................|
 F290  00 00 00 00 00 00 00 00 00 00 00 00 00 00 00 00  |................|
 F2A0  00 00 00 00 00 00 00 00 00 00 00 00 00 00 00 00  |................|
 F2B0  00 00 00 00 00 00 00 00 00 00 00 00 00 00 00 00  |................|
 F2C0  00 00 00 00 00 00 00 00 00 00 00 00 00 00 00 00  |................|
 F2D0  00 00 00 00 00 00 00 00 00 00 00 00 00 00 00 00  |................|
 F2E0  00 00 00 00 00 00 00 00 00 00 00 00 00 00 00 00  |................|
 F2F0  00 00 00 00 00 00 00 00 00 00 00 00 00 00 00 00  |................|
 F300  00 00 00 00 00 00 00 00 00 00 00 00 00 00 00 00  |................|
 F310  00 00 00 00 00 00 00 00 00 00 00 00 00 00 00 00  |................|
 F320  00 00 00 00 00 00 00 00 00 00 00 00 00 00 00 00  |................|
 F330  00 00 00 00 00 00 00 00 00 00 00 00 00 00 00 00  |................|
 F340  00 00 00 00 00 00 00 00 00 00 00 00 00 00 00 00  |................|
 F350  00 00 00 00 00 00 00 00 00 00 00 00 00 00 00 00  |................|
 F360  00 00 00 00 00 00 00 00 00 00 00 00 00 00 00 00  |................|
 F370  00 00 00 00 00 00 00 00 00 00 00 00 00 00 00 00  |................|
 F380  00 00 00 00 00 00 00 00 00 00 00 00 00 00 00 00  |................|
 F390  00 00 00 00 00 00 00 00 00 00 00 00 00 00 00 00  |................|
 F3A0  00 00 00 00 00 00 00 00 00 00 00 00 00 00 00 00  |................|
 F3B0  00 00 00 00 00 00 00 00 00 00 00 00 00 00 00 00  |................|
 F3C0  00 00 00 00 00 00 00 00 00 00 00 00 00 00 00 00  |................|
 F3D0  00 00 00 00 00 00 00 00 00 00 00 00 00 00 00 00  |................|
 F3E0  00 00 00 00 00 00 00 00 00 00 00 00 00 00 00 00  |................|
 F3F0  00 00 00 00 00 00 00 00 00 00 00 00 00 00 00 00  |................|
 F400  00 00 00 00 00 00 00 00 00 00 00 00 00 00 00 00  |................|
 F410  00 00 00 00 00 00 00 00 00 00 00 00 00 00 00 00  |................|
 F420  00 00 00 00 00 00 00 00 00 00 00 00 00 00 00 00  |................|
 F430  00 00 00 00 00 00 00 00 00 00 00 00 00 00 00 00  |................|
 F440  00 00 00 00 00 00 00 00 00 00 00 00 00 00 00 00  |................|
 F450  00 00 00 00 00 00 00 00 00 00 00 00 00 00 00 00  |................|
 F460  00 00 00 00 00 00 00 00 00 00 00 00 00 00 00 00  |................|
 F470  00 00 00 00 00 00 00 00 00 00 00 00 00 00 00 00  |................|
 F480  00 00 00 00 00 00 00 00 00 00 00 00 00 00 00 00  |................|
 F490  00 00 00 00 00 00 00 00 00 00 00 00 00 00 00 00  |................|
 F4A0  00 00 00 00 00 00 00 00 00 00 00 00 00 00 00 00  |................|
 F4B0  00 00 00 00 00 00 00 00 00 00 00 00 00 00 00 00  |................|
 F4C0  00 00 00 00 00 00 00 00 00 00 00 00 00 00 00 00  |................|
 F4D0  00 00 00 00 00 00 00 00 00 00 00 00 00 00 00 00  |................|
 F4E0  00 00 00 00 00 00 00 00 00 00 00 00 00 00 00 00  |................|
 F4F0  00 00 00 00 00 00 00 00 00 00 00 00 00 00 00 00  |................|
 F500  00 00 00 00 00 00 00 00 00 00 00 00 00 00 00 00  |................|
 F510  00 00 00 00 00 00 00 00 00 00 00 00 00 00 00 00  |................|
 F520  00 00 00 00 00 00 00 00 00 00 00 00 00 00 00 00  |................|
 F530  00 00 00 00 00 00 00 00 00 00 00 00 00 00 00 00  |................|
 F540  00 00 00 00 00 00 00 00 00 00 00 00 00 00 00 00  |................|
 F550  00 00 00 00 00 00 00 00 00 00 00 00 00 00 00 00  |................|
 F560  00 00 00 00 00 00 00 00 00 00 00 00 00 00 00 00  |................|
 F570  00 00 00 00 00 00 00 00 00 00 00 00 00 00 00 00  |................|
 F580  00 00 00 00 00 00 00 00 00 00 00 00 00 00 00 00  |................|
 F590  00 00 00 00 00 00 00 00 00 00 00 00 00 00 00 00  |................|
 F5A0  00 00 00 00 00 00 00 00 00 00 00 00 00 00 00 00  |................|
 F5B0  00 00 00 00 00 00 00 00 00 00 00 00 00 00 00 00  |................|
 F5C0  00 00 00 00 00 00 00 00 00 00 00 00 00 00 00 00  |................|
 F5D0  00 00 00 00 00 00 00 00 00 00 00 00 00 00 00 00  |................|
 F5E0  00 00 00 00 00 00 00 00 00 00 00 00 00 00 00 00  |................|
 F5F0  00 00 00 00 00 00 00 00 00 00 00 00 00 00 00 00  |................|
 F600  00 00 00 00 00 00 00 00 00 00 00 00 00 00 00 00  |................|
 F610  00 00 00 00 00 00 00 00 00 00 00 00 00 00 00 00  |................|
 F620  00 00 00 00 00 00 00 00 00 00 00 00 00 00 00 00  |................|
 F630  00 00 00 00 00 00 00 00 00 00 00 00 00 00 00 00  |................|
 F640  00 00 00 00 00 00 00 00 00 00 00 00 00 00 00 00  |................|
 F650  00 00 00 00 00 00 00 00 00 00 00 00 00 00 00 00  |................|
 F660  00 00 00 00 00 00 00 00 00 00 00 00 00 00 00 00  |................|
 F670  00 00 00 00 00 00 00 00 00 00 00 00 00 00 00 00  |................|
 F680  00 00 00 00 00 00 00 00 00 00 00 00 00 00 00 00  |................|
 F690  00 00 00 00 00 00 00 00 00 00 00 00 00 00 00 00  |................|
 F6A0  00 00 00 00 00 00 00 00 00 00 00 00 00 00 00 00  |................|
 F6B0  00 00 00 00 00 00 00 00 00 00 00 00 00 00 00 00  |................|
 F6C0  00 00 00 00 00 00 00 00 00 00 00 00 00 00 00 00  |................|
 F6D0  00 00 00 00 00 00 00 00 00 00 00 00 00 00 00 00  |................|
 F6E0  00 00 00 00 00 00 00 00 00 00 00 00 00 00 00 00  |................|
 F6F0  00 00 00 00 00 00 00 00 00 00 00 00 00 00 00 00  |................|
 F700  00 00 00 00 00 00 00 00 00 00 00 00 00 00 00 00  |................|
 F710  00 00 00 00 00 00 00 00 00 00 00 00 00 00 00 00  |................|
 F720  00 00 00 00 00 00 00 00 00 00 00 00 00 00 00 00  |................|
 F730  00 00 00 00 00 00 00 00 00 00 00 00 00 00 00 00  |................|
 F740  00 00 00 00 00 00 00 00 00 00 00 00 00 00 00 00  |................|
 F750  00 00 00 00 00 00 00 00 00 00 00 00 00 00 00 00  |................|
 F760  00 00 00 00 00 00 00 00 00 00 00 00 00 00 00 00  |................|
 F770  00 00 00 00 00 00 00 00 00 00 00 00 00 00 00 00  |................|
 F780  00 00 00 00 00 00 00 00 00 00 00 00 00 00 00 00  |................|
 F790  00 00 00 00 00 00 00 00 00 00 00 00 00 00 00 00  |................|
 F7A0  00 00 00 00 00 00 00 00 00 00 00 00 00 00 00 00  |................|
 F7B0  00 00 00 00 00 00 00 00 00 00 00 00 00 00 00 00  |................|
 F7C0  00 00 00 00 00 00 00 00 00 00 00 00 00 00 00 00  |................|
 F7D0  00 00 00 00 00 00 00 00 00 00 00 00 00 00 00 00  |................|
 F7E0  00 00 00 00 00 00 00 00 00 00 00 00 00 00 00 00  |................|
 F7F0  00 00 00 00 00 00 00 00 00 00 00 00 00 00 00 00  |................|
 F800  00 00 00 00 00 00 00 00 00 00 00 00 00 00 00 00  |................|
 F810  00 00 00 00 00 00 00 00 00 00 00 00 00 00 00 00  |................|
 F820  00 00 00 00 00 00 00 00 00 00 00 00 00 00 00 00  |................|
 F830  00 00 00 00 00 00 00 00 00 00 00 00 00 00 00 00  |................|
 F840  00 00 00 00 00 00 00 00 00 00 00 00 00 00 00 00  |................|
 F850  00 00 00 00 00 00 00 00 00 00 00 00 00 00 00 00  |................|
 F860  00 00 00 00 00 00 00 00 00 00 00 00 00 00 00 00  |................|
 F870  00 00 00 00 00 00 00 00 00 00 00 00 00 00 00 00  |................|
 F880  00 00 00 00 00 00 00 00 00 00 00 00 00 00 00 00  |................|
 F890  00 00 00 00 00 00 00 00 00 00 00 00 00 00 00 00  |................|
 F8A0  00 00 00 00 00 00 00 00 00 00 00 00 00 00 00 00  |................|
 F8B0  00 00 00 00 00 00 00 00 00 00 00 00 00 00 00 00  |................|
 F8C0  00 00 00 00 00 00 00 00 00 00 00 00 00 00 00 00  |................|
 F8D0  00 00 00 00 00 00 00 00 00 00 00 00 00 00 00 00  |................|
 F8E0  00 00 00 00 00 00 00 00 00 00 00 00 00 00 00 00  |................|
 F8F0  00 00 00 00 00 00 00 00 00 00 00 00 00 00 00 00  |................|
 F900  00 00 00 00 00 00 00 00 00 00 00 00 00 00 00 00  |................|
 F910  00 00 00 00 00 00 00 00 00 00 00 00 00 00 00 00  |................|
 F920  00 00 00 00 00 00 00 00 00 00 00 00 00 00 00 00  |................|
 F930  00 00 00 00 00 00 00 00 00 00 00 00 00 00 00 00  |................|
 F940  00 00 00 00 00 00 00 00 00 00 00 00 00 00 00 00  |................|
 F950  00 00 00 00 00 00 00 00 00 00 00 00 00 00 00 00  |................|
 F960  00 00 00 00 00 00 00 00 00 00 00 00 00 00 00 00  |................|
 F970  00 00 00 00 00 00 00 00 00 00 00 00 00 00 00 00  |................|
 F980  00 00 00 00 00 00 00 00 00 00 00 00 00 00 00 00  |................|
 F990  00 00 00 00 00 00 00 00 00 00 00 00 00 00 00 00  |................|
 F9A0  00 00 00 00 00 00 00 00 00 00 00 00 00 00 00 00  |................|
 F9B0  00 00 00 00 00 00 00 00 00 00 00 00 00 00 00 00  |................|
 F9C0  00 00 00 00 00 00 00 00 00 00 00 00 00 00 00 00  |................|
 F9D0  00 00 00 00 00 00 00 00 00 00 00 00 00 00 00 00  |................|
 F9E0  00 00 00 00 00 00 00 00 00 00 00 00 00 00 00 00  |................|
 F9F0  00 00 00 00 00 00 00 00 00 00 00 00 00 00 00 00  |................|
 FA00  00 00 00 00 00 00 00 00 00 00 00 00 00 00 00 00  |................|
 FA10  00 00 00 00 00 00 00 00 00 00 00 00 00 00 00 00  |................|
 FA20  00 00 00 00 00 00 00 00 00 00 00 00 00 00 00 00  |................|
 FA30  00 00 00 00 00 00 00 00 00 00 00 00 00 00 00 00  |................|
 FA40  00 00 00 00 00 00 00 00 00 00 00 00 00 00 00 00  |................|
 FA50  00 00 00 00 00 00 00 00 00 00 00 00 00 00 00 00  |................|
 FA60  00 00 00 00 00 00 00 00 00 00 00 00 00 00 00 00  |................|
 FA70  00 00 00 00 00 00 00 00 00 00 00 00 00 00 00 00  |................|
 FA80  00 00 00 00 00 00 00 00 00 00 00 00 00 00 00 00  |................|
 FA90  00 00 00 00 00 00 00 00 00 00 00 00 00 00 00 00  |................|
 FAA0  00 00 00 00 00 00 00 00 00 00 00 00 00 00 00 00  |................|
 FAB0  00 00 00 00 00 00 00 00 00 00 00 00 00 00 00 00  |................|
 FAC0  00 00 00 00 00 00 00 00 00 00 00 00 00 00 00 00  |................|
 FAD0  00 00 00 00 00 00 00 00 00 00 00 00 00 00 00 00  |................|
 FAE0  00 00 00 00 00 00 00 00 00 00 00 00 00 00 00 00  |................|
 FAF0  00 00 00 00 00 00 00 00 00 00 00 00 00 00 00 00  |................|
 FB00  00 00 00 00 00 00 00 00 00 00 00 00 00 00 00 00  |................|
 FB10  00 00 00 00 00 00 00 00 00 00 00 00 00 00 00 00  |................|
 FB20  00 00 00 00 00 00 00 00 00 00 00 00 00 00 00 00  |................|
 FB30  00 00 00 00 00 00 00 00 00 00 00 00 00 00 00 00  |................|
 FB40  00 00 00 00 00 00 00 00 00 00 00 00 00 00 00 00  |................|
 FB50  00 00 00 00 00 00 00 00 00 00 00 00 00 00 00 00  |................|
 FB60  00 00 00 00 00 00 00 00 00 00 00 00 00 00 00 00  |................|
 FB70  00 00 00 00 00 00 00 00 00 00 00 00 00 00 00 00  |................|
 FB80  00 00 00 00 00 00 00 00 00 00 00 00 00 00 00 00  |................|
 FB90  00 00 00 00 00 00 00 00 00 00 00 00 00 00 00 00  |................|
 FBA0  00 00 00 00 00 00 00 00 00 00 00 00 00 00 00 00  |................|
 FBB0  00 00 00 00 00 00 00 00 00 00 00 00 00 00 00 00  |................|
 FBC0  00 00 00 00 00 00 00 00 00 00 00 00 00 00 00 00  |................|
 FBD0  00 00 00 00 00 00 00 00 00 00 00 00 00 00 00 00  |................|
 FBE0  00 00 00 00 00 00 00 00 00 00 00 00 00 00 00 00  |................|
 FBF0  00 00 00 00 00 00 00 00 00 00 00 00 00 00 00 00  |................|
 FC00  00 00 00 00 00 00 00 00 00 00 00 00 00 00 00 00  |................|
 FC10  00 00 00 00 00 00 00 00 00 00 00 00 00 00 00 00  |................|
 FC20  00 00 00 00 00 00 00 00 00 00 00 00 00 00 00 00  |................|
 FC30  00 00 00 00 00 00 00 00 00 00 00 00 00 00 00 00  |................|
 FC40  00 00 00 00 00 00 00 00 00 00 00 00 00 00 00 00  |................|
 FC50  00 00 00 00 00 00 00 00 00 00 00 00 00 00 00 00  |................|
 FC60  00 00 00 00 00 00 00 00 00 00 00 00 00 00 00 00  |................|
 FC70  00 00 00 00 00 00 00 00 00 00 00 00 00 00 00 00  |................|
 FC80  00 00 00 00 00 00 00 00 00 00 00 00 00 00 00 00  |................|
 FC90  00 00 00 00 00 00 00 00 00 00 00 00 00 00 00 00  |................|
 FCA0  00 00 00 00 00 00 00 00 00 00 00 00 00 00 00 00  |................|
 FCB0  00 00 00 00 00 00 00 00 00 00 00 00 00 00 00 00  |................|
 FCC0  00 00 00 00 00 00 00 00 00 00 00 00 00 00 00 00  |................|
 FCD0  00 00 00 00 00 00 00 00 00 00 00 00 00 00 00 00  |................|
 FCE0  00 00 00 00 00 00 00 00 00 00 00 00 00 00 00 00  |................|
 FCF0  00 00 00 00 00 00 00 00 00 00 00 00 00 00 00 00  |................|
 FD00  00 00 00 00 00 00 00 00 00 00 00 00 00 00 00 00  |................|
 FD10  00 00 00 00 00 00 00 00 00 00 00 00 00 00 00 00  |................|
 FD20  00 00 00 00 00 00 00 00 00 00 00 00 00 00 00 00  |................|
 FD30  00 00 00 00 00 00 00 00 00 00 00 00 00 00 00 00  |................|
 FD40  00 00 00 00 00 00 00 00 00 00 00 00 00 00 00 00  |................|
 FD50  00 00 00 00 00 00 00 00 00 00 00 00 00 00 00 00  |................|
 FD60  00 00 00 00 00 00 00 00 00 00 00 00 00 00 00 00  |................|
 FD70  00 00 00 00 00 00 00 00 00 00 00 00 00 00 00 00  |................|
 FD80  00 00 00 00 00 00 00 00 00 00 00 00 00 00 00 00  |................|
 FD90  00 00 00 00 00 00 00 00 00 00 00 00 00 00 00 00  |................|
 FDA0  00 00 00 00 00 00 00 00 00 00 00 00 00 00 00 00  |................|
 FDB0  00 00 00 00 00 00 00 00 00 00 00 00 00 00 00 00  |................|
 FDC0  00 00 00 00 00 00 00 00 00 00 00 00 00 00 00 00  |................|
 FDD0  00 00 00 00 00 00 00 00 00 00 00 00 00 00 00 00  |................|
 FDE0  00 00 00 00 00 00 00 00 00 00 00 00 00 00 00 00  |................|
 FDF0  00 00 00 00 00 00 00 00 00 00 00 00 00 00 00 00  |................|
 FE00  00 00 00 00 00 00 00 00 00 00 00 00 00 00 00 00  |................|
 FE10  00 00 00 00 00 00 00 00 00 00 00 00 00 00 00 00  |................|
 FE20  00 00 00 00 00 00 00 00 00 00 00 00 00 00 00 00  |................|
 FE30  00 00 00 00 00 00 00 00 00 00 00 00 00 00 00 00  |................|
 FE40  00 00 00 00 00 00 00 00 00 00 00 00 00 00 00 00  |................|
 FE50  00 00 00 00 00 00 00 00 00 00 00 00 00 00 00 00  |................|
 FE60  00 00 00 00 00 00 00 00 00 00 00 00 00 00 00 00  |................|
 FE70  00 00 00 00 00 00 00 00 00 00 00 00 00 00 00 00  |................|
 FE80  00 00 00 00 00 00 00 00 00 00 00 00 00 00 00 00  |................|
 FE90  00 00 00 00 00 00 00 00 00 00 00 00 00 00 00 00  |................|
 FEA0  00 00 00 00 00 00 00 00 00 00 00 00 00 00 00 00  |................|
 FEB0  00 00 00 00 00 00 00 00 00 00 00 00 00 00 00 00  |................|
 FEC0  00 00 00 00 00 00 00 00 00 00 00 00 00 00 00 00  |................|
 FED0  00 00 00 00 00 00 00 00 00 00 00 00 00 00 00 00  |................|
 FEE0  00 00 00 00 00 00 00 00 00 00 00 00 00 00 00 00  |................|
 FEF0  00 00 00 00 00 00 00 00 00 00 00 00 00 00 00 00  |................|
 FF00  00 00 00 00 00 00 00 00 00 00 00 00 00 00 00 00  |................|
 FF10  00 00 00 00 00 00 00 00 00 00 00 00 00 00 00 00  |................|
 FF20  00 00 00 00 00 00 00 00 00 00 00 00 00 00 00 00  |................|
 FF30  00 00 00 00 00 00 00 00 00 00 00 00 00 00 00 00  |................|
 FF40  00 00 00 00 00 00 00 00 00 00 00 00 00 00 00 00  |................|
 FF50  00 00 00 00 00 00 00 00 00 00 00 00 00 00 00 00  |................|
 FF60  00 00 00 00 00 00 00 00 00 00 00 00 00 00 00 00  |................|
 FF70  00 00 00 00 00 00 00 00 00 00 00 00 00 00 00 00  |................|
 FF80  00 00 00 00 00 00 00 00 00 00 00 00 00 00 00 00  |................|
 FF90  00 00 00 00 00 00 00 00 00 00 00 00 00 00 00 00  |................|
 FFA0  00 00 00 00 00 00 00 00 00 00 00 00 00 00 00 00  |................|
 FFB0  00 00 00 00 00 00 00 00 00 00 00 00 00 00 00 00  |................|
 FFC0  00 00 00 00 00 00 00 00 00 00 00 00 00 00 00 00  |................|
 FFD0  00 00 00 00 00 00 00 00 00 00 00 00 00 00 00 00  |................|
 FFE0  00 00 00 00 00 00 00 00 00 00 00 00 00 00 00 00  |................|
 FFF0  00 00 00 00 00 00 00 00 00 00 06 F0 06 F0 06 F0  |................|
