 8000  78        SEI  
 8001  A2 FF     LDX  #$FF
 8003  9A        TXS  
 8004  A2 78     LDX  #$78
 8006  A9 0A     LDA  #$0A
 8008  85 18     STA  $18
 800A  64 19     STZ  $19
 800C  A9 14     LDA  #$14
 800E  85 1A     STA  $1A
 8010  64 1B     STZ  $1B
 8012  A9 1C     LDA  #$1C
 8014  85 10     STA  $10
 8016  A9 F0     LDA  #$F0
 8018  85 11     STA  $11
 801A  A9 16     LDA  #$16
 801C  85 12     STA  $12
 801E  A9 F0     LDA  #$F0
 8020  85 13     STA  $13
 8022  A9 16     LDA  #$16
 8024  85 14     STA  $14
 8026  A9 F0     LDA  #$F0
 8028  85 15     STA  $15
 802A  A9 FF     LDA  #$FF
 802C  85 00     STA  $00
 802E  A9 02     LDA  #$02
 8030  85 01     STA  $01
 8032  A9 00     LDA  #$00
 8034  85 08     STA  $08
 8036  A9 02     LDA  #$02
 8038  85 09     STA  $09
 803A  64 0A     STZ  $0A
 803C  64 0B     STZ  $0B
 803E  64 06     STZ  $06
 8040  64 07     STZ  $07
 8042  64 16     STZ  $16
 8044  64 17     STZ  $17
 8046  A9 D5     LDA  #$D5
 8048  85 02     STA  $02
 804A  A9 96     LDA  #$96
 804C  85 03     STA  $03
 804E  20 C7 86  JSR  $86C7
 8051  A2 78     LDX  #$78
 8053  A2 FF     LDX  #$FF
 8055  9A        TXS  
 8056  64 0E     STZ  $0E
 8058  64 0F     STZ  $0F
 805A  64 06     STZ  $06
 805C  64 07     STZ  $07
 805E  64 16     STZ  $16
 8060  64 17     STZ  $17
 8062  64 0A     STZ  $0A
 8064  64 0B     STZ  $0B
 8066  20 90 87  JSR  $8790
 8069  B5 00     LDA  $00, X
 806B  D0 05     BNE  $8072
 806D  A9 08     LDA  #$08
 806F  4C 75 9E  JMP  $9E75
 8072  E8        INX  
 8073  E8        INX  
 8074  64 0C     STZ  $0C
 8076  64 0D     STZ  $0D
 8078  20 0A 9E  JSR  $9E0A
 807B  A5 16     LDA  $16
 807D  D0 04     BNE  $8083
 807F  A9 00     LDA  #$00
 8081  80 02     BRA  $8085
 8083  A9 01     LDA  #$01
 8085  20 88 9E  JSR  $9E88
 8088  80 D8     BRA  $8062
 808A  EA        NOP  
 808B  60        RTS  
 808C  B5 01     LDA  $01, X
 808E  10 0D     BPL  $809D
 8090  38        SEC  
 8091  A9 00     LDA  #$00
 8093  F5 00     SBC  $00, X
 8095  95 00     STA  $00, X
 8097  A9 00     LDA  #$00
 8099  F5 01     SBC  $01, X
 809B  95 01     STA  $01, X
 809D  60        RTS  
 809E  B5 00     LDA  $00, X
 80A0  15 01     ORA  $01, X
 80A2  D0 08     BNE  $80AC
 80A4  E8        INX  
 80A5  E8        INX  
 80A6  74 00     STZ  $00, X
 80A8  74 01     STZ  $01, X
 80AA  80 5B     BRA  $8107
 80AC  B5 00     LDA  $00, X
 80AE  85 20     STA  $20
 80B0  64 21     STZ  $21
 80B2  B5 02     LDA  $02, X
 80B4  85 1E     STA  $1E
 80B6  B5 03     LDA  $03, X
 80B8  85 1F     STA  $1F
 80BA  E8        INX  
 80BB  E8        INX  
 80BC  A0 00     LDY  #$00
 80BE  20 D4 84  JSR  $84D4
 80C1  C9 0A     CMP  #$0A
 80C3  F0 1D     BEQ  $80E2
 80C5  C9 0D     CMP  #$0D
 80C7  F0 19     BEQ  $80E2
 80C9  C9 08     CMP  #$08
 80CB  F0 1E     BEQ  $80EB
 80CD  C9 7F     CMP  #$7F
 80CF  F0 1A     BEQ  $80EB
 80D1  C9 03     CMP  #$03
 80D3  D0 03     BNE  $80D8
 80D5  4C 51 80  JMP  $8051
 80D8  20 D9 83  JSR  $83D9
 80DB  91 1E     STA  ($1E), Y
 80DD  C8        INY  
 80DE  C4 20     CPY  $20
 80E0  D0 DC     BNE  $80BE
 80E2  94 00     STY  $00, X
 80E4  74 01     STZ  $01, X
 80E6  20 3E 88  JSR  $883E
 80E9  80 1C     BRA  $8107
 80EB  C0 00     CPY  #$00
 80ED  D0 06     BNE  $80F5
 80EF  A9 07     LDA  #$07
 80F1  20 D9 83  JSR  $83D9
 80F4  C8        INY  
 80F5  88        DEY  
 80F6  A9 08     LDA  #$08
 80F8  20 D9 83  JSR  $83D9
 80FB  A9 20     LDA  #$20
 80FD  20 D9 83  JSR  $83D9
 8100  A9 08     LDA  #$08
 8102  20 D9 83  JSR  $83D9
 8105  80 B7     BRA  $80BE
 8107  60        RTS  
 8108  EA        NOP  
 8109  60        RTS  
 810A  EA        NOP  
 810B  60        RTS  
 810C  EA        NOP  
 810D  60        RTS  
 810E  B5 00     LDA  $00, X
 8110  15 01     ORA  $01, X
 8112  F0 49     BEQ  $815D
 8114  B5 01     LDA  $01, X
 8116  30 25     BMI  $813D
 8118  18        CLC  
 8119  B5 00     LDA  $00, X
 811B  65 00     ADC  $00
 811D  85 00     STA  $00
 811F  B5 01     LDA  $01, X
 8121  65 01     ADC  $01
 8123  85 01     STA  $01
 8125  38        SEC  
 8126  A9 FF     LDA  #$FF
 8128  E5 00     SBC  $00
 812A  A9 7F     LDA  #$7F
 812C  E5 01     SBC  $01
 812E  10 2D     BPL  $815D
 8130  A9 FF     LDA  #$FF
 8132  85 00     STA  $00
 8134  A9 7F     LDA  #$7F
 8136  85 01     STA  $01
 8138  A9 01     LDA  #$01
 813A  4C 75 9E  JMP  $9E75
 813D  18        CLC  
 813E  A5 00     LDA  $00
 8140  75 00     ADC  $00, X
 8142  85 00     STA  $00
 8144  A5 01     LDA  $01
 8146  75 01     ADC  $01, X
 8148  85 01     STA  $01
 814A  38        SEC  
 814B  A9 FF     LDA  #$FF
 814D  E5 00     SBC  $00
 814F  A9 02     LDA  #$02
 8151  E5 01     SBC  $01
 8153  30 08     BMI  $815D
 8155  A9 FF     LDA  #$FF
 8157  85 00     STA  $00
 8159  A9 02     LDA  #$02
 815B  85 01     STA  $01
 815D  E8        INX  
 815E  E8        INX  
 815F  60        RTS  
 8160  B5 00     LDA  $00, X
 8162  35 02     AND  $02, X
 8164  95 02     STA  $02, X
 8166  B5 01     LDA  $01, X
 8168  35 03     AND  $03, X
 816A  95 03     STA  $03, X
 816C  E8        INX  
 816D  E8        INX  
 816E  60        RTS  
 816F  A9 1B     LDA  #$1B
 8171  20 D9 83  JSR  $83D9
 8174  A9 5B     LDA  #$5B
 8176  20 D9 83  JSR  $83D9
 8179  B5 03     LDA  $03, X
 817B  20 F3 9D  JSR  $9DF3
 817E  A9 3B     LDA  #$3B
 8180  20 D9 83  JSR  $83D9
 8183  B5 01     LDA  $01, X
 8185  20 F3 9D  JSR  $9DF3
 8188  A9 48     LDA  #$48
 818A  20 D9 83  JSR  $83D9
 818D  E8        INX  
 818E  E8        INX  
 818F  E8        INX  
 8190  E8        INX  
 8191  60        RTS  
 8192  A5 0A     LDA  $0A
 8194  85 0C     STA  $0C
 8196  A5 0B     LDA  $0B
 8198  85 0D     STA  $0D
 819A  60        RTS  
 819B  CA        DEX  
 819C  CA        DEX  
 819D  A9 18     LDA  #$18
 819F  95 00     STA  $00, X
 81A1  A9 00     LDA  #$00
 81A3  95 01     STA  $01, X
 81A5  60        RTS  
 81A6  EA        NOP  
 81A7  60        RTS  
 81A8  A9 07     LDA  #$07
 81AA  20 D9 83  JSR  $83D9
 81AD  60        RTS  
 81AE  CA        DEX  
 81AF  CA        DEX  
 81B0  A9 20     LDA  #$20
 81B2  95 00     STA  $00, X
 81B4  74 01     STZ  $01, X
 81B6  60        RTS  
 81B7  B5 00     LDA  $00, X
 81B9  85 1E     STA  $1E
 81BB  B5 01     LDA  $01, X
 81BD  85 1F     STA  $1F
 81BF  B5 03     LDA  $03, X
 81C1  95 01     STA  $01, X
 81C3  B5 02     LDA  $02, X
 81C5  95 00     STA  $00, X
 81C7  18        CLC  
 81C8  65 1E     ADC  $1E
 81CA  95 02     STA  $02, X
 81CC  B5 03     LDA  $03, X
 81CE  65 1F     ADC  $1F
 81D0  95 03     STA  $03, X
 81D2  60        RTS  
 81D3  EA        NOP  
 81D4  60        RTS  
 81D5  EA        NOP  
 81D6  60        RTS  
 81D7  EA        NOP  
 81D8  60        RTS  
 81D9  00        BRK  
 81DA  60        RTS  
 81DB  B5 00     LDA  $00, X
 81DD  92 00     STA  ($00)
 81DF  E6 00     INC  $00
 81E1  D0 02     BNE  $81E5
 81E3  E6 01     INC  $01
 81E5  E8        INX  
 81E6  E8        INX  
 81E7  60        RTS  
 81E8  A1 00     LDA  ($00, X)
 81EA  95 00     STA  $00, X
 81EC  74 01     STZ  $01, X
 81EE  60        RTS  
 81EF  B5 02     LDA  $02, X
 81F1  81 00     STA  ($00, X)
 81F3  E8        INX  
 81F4  E8        INX  
 81F5  E8        INX  
 81F6  E8        INX  
 81F7  60        RTS  
 81F8  B5 00     LDA  $00, X
 81FA  18        CLC  
 81FB  69 02     ADC  #$02
 81FD  95 00     STA  $00, X
 81FF  B5 01     LDA  $01, X
 8201  69 00     ADC  #$00
 8203  95 01     STA  $01, X
 8205  60        RTS  
 8206  20 ED 86  JSR  $86ED
 8209  B5 00     LDA  $00, X
 820B  15 01     ORA  $01, X
 820D  D0 05     BNE  $8214
 820F  A9 06     LDA  #$06
 8211  4C 75 9E  JMP  $9E75
 8214  E8        INX  
 8215  E8        INX  
 8216  A1 00     LDA  ($00, X)
 8218  95 00     STA  $00, X
 821A  74 01     STZ  $01, X
 821C  60        RTS  
 821D  EA        NOP  
 821E  60        RTS  
 821F  EA        NOP  
 8220  60        RTS  
 8221  EA        NOP  
 8222  60        RTS  
 8223  EA        NOP  
 8224  60        RTS  
 8225  B5 00     LDA  $00, X
 8227  92 00     STA  ($00)
 8229  E6 00     INC  $00
 822B  D0 02     BNE  $822F
 822D  E6 01     INC  $01
 822F  B5 01     LDA  $01, X
 8231  92 00     STA  ($00)
 8233  E6 00     INC  $00
 8235  D0 02     BNE  $8239
 8237  E6 01     INC  $01
 8239  E8        INX  
 823A  E8        INX  
 823B  60        RTS  
 823C  EA        NOP  
 823D  60        RTS  
 823E  EA        NOP  
 823F  60        RTS  
 8240  20 A1 82  JSR  $82A1
 8243  A5 00     LDA  $00
 8245  E9 02     SBC  #$02
 8247  85 1E     STA  $1E
 8249  A5 01     LDA  $01
 824B  E9 00     SBC  #$00
 824D  85 1F     STA  $1F
 824F  A9 CF     LDA  #$CF
 8251  92 1E     STA  ($1E)
 8253  E6 1E     INC  $1E
 8255  D0 02     BNE  $8259
 8257  E6 1F     INC  $1F
 8259  A9 9D     LDA  #$9D
 825B  92 1E     STA  ($1E)
 825D  20 25 82  JSR  $8225
 8260  20 D9 84  JSR  $84D9
 8263  B5 00     LDA  $00, X
 8265  18        CLC  
 8266  69 06     ADC  #$06
 8268  85 1E     STA  $1E
 826A  B5 01     LDA  $01, X
 826C  69 00     ADC  #$00
 826E  85 1F     STA  $1F
 8270  B2 1E     LDA  ($1E)
 8272  18        CLC  
 8273  69 02     ADC  #$02
 8275  85 20     STA  $20
 8277  A0 01     LDY  #$01
 8279  B1 1E     LDA  ($1E), Y
 827B  69 00     ADC  #$00
 827D  A8        TAY  
 827E  E6 1E     INC  $1E
 8280  D0 02     BNE  $8284
 8282  E6 1E     INC  $1E
 8284  98        TYA  
 8285  92 1E     STA  ($1E)
 8287  E8        INX  
 8288  E8        INX  
 8289  60        RTS  
 828A  A1 00     LDA  ($00, X)
 828C  A8        TAY  
 828D  F6 00     INC  $00, X
 828F  D0 02     BNE  $8293
 8291  F6 01     INC  $01, X
 8293  98        TYA  
 8294  CA        DEX  
 8295  CA        DEX  
 8296  95 00     STA  $00, X
 8298  74 01     STZ  $01, X
 829A  60        RTS  
 829B  A9 0A     LDA  #$0A
 829D  20 D9 83  JSR  $83D9
 82A0  60        RTS  
 82A1  20 ED 86  JSR  $86ED
 82A4  B5 00     LDA  $00, X
 82A6  15 01     ORA  $01, X
 82A8  D0 05     BNE  $82AF
 82AA  A9 06     LDA  #$06
 82AC  4C 75 9E  JMP  $9E75
 82AF  74 01     STZ  $01, X
 82B1  B5 00     LDA  $00, X
 82B3  85 20     STA  $20
 82B5  A5 00     LDA  $00
 82B7  85 1E     STA  $1E
 82B9  A5 01     LDA  $01
 82BB  85 1F     STA  $1F
 82BD  B5 00     LDA  $00, X
 82BF  18        CLC  
 82C0  69 08     ADC  #$08
 82C2  85 22     STA  $22
 82C4  18        CLC  
 82C5  69 03     ADC  #$03
 82C7  95 00     STA  $00, X
 82C9  74 01     STZ  $01, X
 82CB  20 0E 81  JSR  $810E
 82CE  A0 00     LDY  #$00
 82D0  A5 20     LDA  $20
 82D2  91 1E     STA  ($1E), Y
 82D4  98        TYA  
 82D5  C8        INY  
 82D6  91 1E     STA  ($1E), Y
 82D8  C8        INY  
 82D9  A5 02     LDA  $02
 82DB  91 1E     STA  ($1E), Y
 82DD  C8        INY  
 82DE  A5 03     LDA  $03
 82E0  91 1E     STA  ($1E), Y
 82E2  C8        INY  
 82E3  A5 1F     LDA  $1F
 82E5  85 03     STA  $03
 82E7  A5 1E     LDA  $1E
 82E9  85 02     STA  $02
 82EB  18        CLC  
 82EC  65 22     ADC  $22
 82EE  91 1E     STA  ($1E), Y
 82F0  48        PHA  
 82F1  C8        INY  
 82F2  A5 1F     LDA  $1F
 82F4  69 00     ADC  #$00
 82F6  91 1E     STA  ($1E), Y
 82F8  C8        INY  
 82F9  68        PLA  
 82FA  18        CLC  
 82FB  69 03     ADC  #$03
 82FD  91 1E     STA  ($1E), Y
 82FF  88        DEY  
 8300  B1 1E     LDA  ($1E), Y
 8302  69 00     ADC  #$00
 8304  C8        INY  
 8305  C8        INY  
 8306  91 1E     STA  ($1E), Y
 8308  C8        INY  
 8309  B5 00     LDA  $00, X
 830B  38        SEC  
 830C  E9 08     SBC  #$08
 830E  85 26     STA  $26
 8310  B5 01     LDA  $01, X
 8312  E9 00     SBC  #$00
 8314  85 27     STA  $27
 8316  B1 26     LDA  ($26), Y
 8318  91 1E     STA  ($1E), Y
 831A  C8        INY  
 831B  C6 20     DEC  $20
 831D  D0 F7     BNE  $8316
 831F  A9 20     LDA  #$20
 8321  91 1E     STA  ($1E), Y
 8323  C8        INY  
 8324  A9 E5     LDA  #$E5
 8326  91 1E     STA  ($1E), Y
 8328  C8        INY  
 8329  A9 9D     LDA  #$9D
 832B  91 1E     STA  ($1E), Y
 832D  E8        INX  
 832E  E8        INX  
 832F  60        RTS  
 8330  EA        NOP  
 8331  60        RTS  
 8332  EA        NOP  
 8333  60        RTS  
 8334  EA        NOP  
 8335  60        RTS  
 8336  EA        NOP  
 8337  60        RTS  
 8338  EA        NOP  
 8339  60        RTS  
 833A  EA        NOP  
 833B  60        RTS  
 833C  A9 0A     LDA  #$0A
 833E  85 18     STA  $18
 8340  64 19     STZ  $19
 8342  60        RTS  
 8343  EA        NOP  
 8344  60        RTS  
 8345  86 24     STX  $24
 8347  A5 78     LDA  $78
 8349  38        SEC  
 834A  E5 24     SBC  $24
 834C  4A        LSR  
 834D  CA        DEX  
 834E  CA        DEX  
 834F  95 00     STA  $00, X
 8351  74 01     STZ  $01, X
 8353  60        RTS  
 8354  CA        DEX  
 8355  CA        DEX  
 8356  74 00     STZ  $00, X
 8358  74 01     STZ  $01, X
 835A  74 03     STZ  $03, X
 835C  B5 02     LDA  $02, X
 835E  C9 30     CMP  #$30
 8360  90 23     BCC  $8385
 8362  C9 3A     CMP  #$3A
 8364  90 12     BCC  $8378
 8366  C9 40     CMP  #$40
 8368  90 1B     BCC  $8385
 836A  C9 61     CMP  #$61
 836C  90 07     BCC  $8375
 836E  C9 7B     CMP  #$7B
 8370  B0 03     BCS  $8375
 8372  18        CLC  
 8373  69 E0     ADC  #$E0
 8375  38        SEC  
 8376  E9 07     SBC  #$07
 8378  38        SEC  
 8379  E9 30     SBC  #$30
 837B  C5 18     CMP  $18
 837D  B0 06     BCS  $8385
 837F  95 02     STA  $02, X
 8381  D6 00     DEC  $00, X
 8383  D6 01     DEC  $01, X
 8385  60        RTS  
 8386  B5 02     LDA  $02, X
 8388  49 FF     EOR  #$FF
 838A  18        CLC  
 838B  69 01     ADC  #$01
 838D  95 02     STA  $02, X
 838F  B5 03     LDA  $03, X
 8391  49 FF     EOR  #$FF
 8393  69 00     ADC  #$00
 8395  95 03     STA  $03, X
 8397  B5 00     LDA  $00, X
 8399  49 FF     EOR  #$FF
 839B  69 00     ADC  #$00
 839D  95 00     STA  $00, X
 839F  B5 01     LDA  $01, X
 83A1  49 FF     EOR  #$FF
 83A3  69 00     ADC  #$00
 83A5  95 01     STA  $01, X
 83A7  60        RTS  
 83A8  EA        NOP  
 83A9  60        RTS  
 83AA  EA        NOP  
 83AB  60        RTS  
 83AC  B5 01     LDA  $01, X
 83AE  20 F3 9D  JSR  $9DF3
 83B1  B5 00     LDA  $00, X
 83B3  20 F3 9D  JSR  $9DF3
 83B6  E8        INX  
 83B7  E8        INX  
 83B8  60        RTS  
 83B9  EA        NOP  
 83BA  60        RTS  
 83BB  EA        NOP  
 83BC  60        RTS  
 83BD  EA        NOP  
 83BE  60        RTS  
 83BF  EA        NOP  
 83C0  60        RTS  
 83C1  EA        NOP  
 83C2  60        RTS  
 83C3  E8        INX  
 83C4  E8        INX  
 83C5  60        RTS  
 83C6  EA        NOP  
 83C7  60        RTS  
 83C8  CA        DEX  
 83C9  CA        DEX  
 83CA  B5 02     LDA  $02, X
 83CC  95 00     STA  $00, X
 83CE  B5 03     LDA  $03, X
 83D0  95 01     STA  $01, X
 83D2  60        RTS  
 83D3  EA        NOP  
 83D4  60        RTS  
 83D5  B5 00     LDA  $00, X
 83D7  E8        INX  
 83D8  E8        INX  
 83D9  6C 10 00  JMP  ($0010)
 83DC  B5 00     LDA  $00, X
 83DE  D5 02     CMP  $02, X
 83E0  D0 0A     BNE  $83EC
 83E2  B5 01     LDA  $01, X
 83E4  D5 03     CMP  $03, X
 83E6  D0 04     BNE  $83EC
 83E8  A9 FF     LDA  #$FF
 83EA  80 02     BRA  $83EE
 83EC  A9 00     LDA  #$00
 83EE  95 02     STA  $02, X
 83F0  95 03     STA  $03, X
 83F2  E8        INX  
 83F3  E8        INX  
 83F4  60        RTS  
 83F5  EA        NOP  
 83F6  60        RTS  
 83F7  EA        NOP  
 83F8  60        RTS  
 83F9  B5 00     LDA  $00, X
 83FB  85 0E     STA  $0E
 83FD  B5 01     LDA  $01, X
 83FF  85 0F     STA  $0F
 8401  E8        INX  
 8402  E8        INX  
 8403  A9 84     LDA  #$84
 8405  48        PHA  
 8406  A9 0C     LDA  #$0C
 8408  48        PHA  
 8409  6C 0E 00  JMP  ($000E)
 840C  EA        NOP  
 840D  60        RTS  
 840E  EA        NOP  
 840F  60        RTS  
 8410  CA        DEX  
 8411  CA        DEX  
 8412  74 00     STZ  $00, X
 8414  74 01     STZ  $01, X
 8416  60        RTS  
 8417  A1 00     LDA  ($00, X)
 8419  A8        TAY  
 841A  F6 00     INC  $00, X
 841C  D0 02     BNE  $8420
 841E  F6 01     INC  $01, X
 8420  A1 00     LDA  ($00, X)
 8422  95 01     STA  $01, X
 8424  98        TYA  
 8425  95 00     STA  $00, X
 8427  60        RTS  
 8428  EA        NOP  
 8429  60        RTS  
 842A  EA        NOP  
 842B  60        RTS  
 842C  B5 00     LDA  $00, X
 842E  15 01     ORA  $01, X
 8430  F0 57     BEQ  $8489
 8432  A5 02     LDA  $02
 8434  85 1E     STA  $1E
 8436  A5 03     LDA  $03
 8438  85 1F     STA  $1F
 843A  B5 02     LDA  $02, X
 843C  85 20     STA  $20
 843E  B5 03     LDA  $03, X
 8440  85 21     STA  $21
 8442  B2 1E     LDA  ($1E)
 8444  D5 00     CMP  $00, X
 8446  D0 30     BNE  $8478
 8448  A0 08     LDY  #$08
 844A  B1 1E     LDA  ($1E), Y
 844C  D2 20     CMP  ($20)
 844E  D0 28     BNE  $8478
 8450  B5 00     LDA  $00, X
 8452  3A        DEC  
 8453  F0 19     BEQ  $846E
 8455  A5 1E     LDA  $1E
 8457  18        CLC  
 8458  69 08     ADC  #$08
 845A  85 22     STA  $22
 845C  A5 1F     LDA  $1F
 845E  69 00     ADC  #$00
 8460  85 23     STA  $23
 8462  B4 00     LDY  $00, X
 8464  88        DEY  
 8465  B1 20     LDA  ($20), Y
 8467  D1 22     CMP  ($22), Y
 8469  D0 0D     BNE  $8478
 846B  88        DEY  
 846C  D0 F7     BNE  $8465
 846E  A5 1E     LDA  $1E
 8470  95 02     STA  $02, X
 8472  A5 1F     LDA  $1F
 8474  95 03     STA  $03, X
 8476  80 15     BRA  $848D
 8478  A0 02     LDY  #$02
 847A  B1 1E     LDA  ($1E), Y
 847C  48        PHA  
 847D  C8        INY  
 847E  B1 1E     LDA  ($1E), Y
 8480  85 1F     STA  $1F
 8482  68        PLA  
 8483  85 1E     STA  $1E
 8485  05 1F     ORA  $1F
 8487  D0 B9     BNE  $8442
 8489  74 02     STZ  $02, X
 848B  74 03     STZ  $03, X
 848D  E8        INX  
 848E  E8        INX  
 848F  60        RTS  
 8490  EA        NOP  
 8491  60        RTS  
 8492  EA        NOP  
 8493  60        RTS  
 8494  CA        DEX  
 8495  CA        DEX  
 8496  A5 00     LDA  $00
 8498  95 00     STA  $00, X
 849A  A5 01     LDA  $01
 849C  95 01     STA  $01, X
 849E  60        RTS  
 849F  A9 10     LDA  #$10
 84A1  85 18     STA  $18
 84A3  64 19     STZ  $19
 84A5  60        RTS  
 84A6  C6 28     DEC  $28
 84A8  D0 02     BNE  $84AC
 84AA  C6 29     DEC  $29
 84AC  92 28     STA  ($28)
 84AE  E8        INX  
 84AF  E8        INX  
 84B0  60        RTS  
 84B1  EA        NOP  
 84B2  60        RTS  
 84B3  EA        NOP  
 84B4  60        RTS  
 84B5  EA        NOP  
 84B6  60        RTS  
 84B7  EA        NOP  
 84B8  60        RTS  
 84B9  EA        NOP  
 84BA  60        RTS  
 84BB  A9 FF     LDA  #$FF
 84BD  A8        TAY  
 84BE  55 00     EOR  $00, X
 84C0  95 00     STA  $00, X
 84C2  98        TYA  
 84C3  55 01     EOR  $01, X
 84C5  95 01     STA  $01, X
 84C7  60        RTS  
 84C8  EA        NOP  
 84C9  60        RTS  
 84CA  20 D4 84  JSR  $84D4
 84CD  CA        DEX  
 84CE  CA        DEX  
 84CF  95 00     STA  $00, X
 84D1  74 01     STZ  $01, X
 84D3  60        RTS  
 84D4  6C 12 00  JMP  ($0012)
 84D7  EA        NOP  
 84D8  60        RTS  
 84D9  CA        DEX  
 84DA  CA        DEX  
 84DB  A5 02     LDA  $02
 84DD  95 00     STA  $00, X
 84DF  A5 03     LDA  $03
 84E1  95 01     STA  $01, X
 84E3  60        RTS  
 84E4  20 D9 84  JSR  $84D9
 84E7  20 76 85  JSR  $8576
 84EA  60        RTS  
 84EB  EA        NOP  
 84EC  60        RTS  
 84ED  EA        NOP  
 84EE  60        RTS  
 84EF  20 B7 86  JSR  $86B7
 84F2  B5 00     LDA  $00, X
 84F4  85 28     STA  $28
 84F6  B5 01     LDA  $01, X
 84F8  85 29     STA  $29
 84FA  E8        INX  
 84FB  E8        INX  
 84FC  60        RTS  
 84FD  EA        NOP  
 84FE  60        RTS  
 84FF  EA        NOP  
 8500  60        RTS  
 8501  EA        NOP  
 8502  60        RTS  
 8503  B5 00     LDA  $00, X
 8505  29 0F     AND  #$0F
 8507  F0 08     BEQ  $8511
 8509  A8        TAY  
 850A  16 02     ASL  $02, X
 850C  36 03     ROL  $03, X
 850E  88        DEY  
 850F  D0 F9     BNE  $850A
 8511  E8        INX  
 8512  E8        INX  
 8513  60        RTS  
 8514  B5 01     LDA  $01, X
 8516  55 03     EOR  $03, X
 8518  48        PHA  
 8519  20 8C 80  JSR  $808C
 851C  20 97 88  JSR  $8897
 851F  20 8C 80  JSR  $808C
 8522  20 45 8A  JSR  $8A45
 8525  68        PLA  
 8526  10 03     BPL  $852B
 8528  20 86 83  JSR  $8386
 852B  60        RTS  
 852C  EA        NOP  
 852D  60        RTS  
 852E  B5 00     LDA  $00, X
 8530  D5 02     CMP  $02, X
 8532  B5 01     LDA  $01, X
 8534  F5 03     SBC  $03, X
 8536  50 02     BVC  $853A
 8538  49 80     EOR  #$80
 853A  30 08     BMI  $8544
 853C  B5 00     LDA  $00, X
 853E  95 02     STA  $02, X
 8540  B5 01     LDA  $01, X
 8542  95 03     STA  $03, X
 8544  E8        INX  
 8545  E8        INX  
 8546  60        RTS  
 8547  B5 00     LDA  $00, X
 8549  D5 02     CMP  $02, X
 854B  B5 01     LDA  $01, X
 854D  F5 03     SBC  $03, X
 854F  50 02     BVC  $8553
 8551  49 80     EOR  #$80
 8553  10 08     BPL  $855D
 8555  B5 00     LDA  $00, X
 8557  95 02     STA  $02, X
 8559  B5 01     LDA  $01, X
 855B  95 03     STA  $03, X
 855D  E8        INX  
 855E  E8        INX  
 855F  60        RTS  
 8560  38        SEC  
 8561  B5 02     LDA  $02, X
 8563  F5 00     SBC  $00, X
 8565  95 02     STA  $02, X
 8567  B5 03     LDA  $03, X
 8569  F5 01     SBC  $01, X
 856B  95 03     STA  $03, X
 856D  E8        INX  
 856E  E8        INX  
 856F  60        RTS  
 8570  EA        NOP  
 8571  60        RTS  
 8572  EA        NOP  
 8573  60        RTS  
 8574  EA        NOP  
 8575  60        RTS  
 8576  B5 00     LDA  $00, X
 8578  18        CLC  
 8579  69 04     ADC  #$04
 857B  85 22     STA  $22
 857D  B5 01     LDA  $01, X
 857F  90 01     BCC  $8582
 8581  1A        INC  
 8582  85 23     STA  $23
 8584  A0 00     LDY  #$00
 8586  B1 22     LDA  ($22), Y
 8588  95 00     STA  $00, X
 858A  C8        INY  
 858B  B1 22     LDA  ($22), Y
 858D  95 01     STA  $01, X
 858F  60        RTS  
 8590  CA        DEX  
 8591  CA        DEX  
 8592  A1 02     LDA  ($02, X)
 8594  95 00     STA  $00, X
 8596  74 01     STZ  $01, X
 8598  B5 02     LDA  $02, X
 859A  18        CLC  
 859B  69 08     ADC  #$08
 859D  A8        TAY  
 859E  B5 03     LDA  $03, X
 85A0  69 00     ADC  #$00
 85A2  95 03     STA  $03, X
 85A4  94 02     STY  $02, X
 85A6  60        RTS  
 85A7  EA        NOP  
 85A8  60        RTS  
 85A9  B5 00     LDA  $00, X
 85AB  49 FF     EOR  #$FF
 85AD  18        CLC  
 85AE  69 01     ADC  #$01
 85B0  95 00     STA  $00, X
 85B2  B5 01     LDA  $01, X
 85B4  49 FF     EOR  #$FF
 85B6  69 00     ADC  #$00
 85B8  95 01     STA  $01, X
 85BA  60        RTS  
 85BB  EA        NOP  
 85BC  60        RTS  
 85BD  B5 00     LDA  $00, X
 85BF  95 02     STA  $02, X
 85C1  B5 01     LDA  $01, X
 85C3  95 03     STA  $03, X
 85C5  E8        INX  
 85C6  E8        INX  
 85C7  60        RTS  
 85C8  EA        NOP  
 85C9  60        RTS  
 85CA  EA        NOP  
 85CB  60        RTS  
 85CC  64 24     STZ  $24
 85CE  64 25     STZ  $25
 85D0  A1 02     LDA  ($02, X)
 85D2  C9 2D     CMP  #$2D
 85D4  D0 0A     BNE  $85E0
 85D6  C6 25     DEC  $25
 85D8  F6 02     INC  $02, X
 85DA  D0 02     BNE  $85DE
 85DC  F6 03     INC  $03, X
 85DE  D6 00     DEC  $00, X
 85E0  B5 02     LDA  $02, X
 85E2  18        CLC  
 85E3  75 00     ADC  $00, X
 85E5  85 26     STA  $26
 85E7  B5 03     LDA  $03, X
 85E9  69 00     ADC  #$00
 85EB  85 27     STA  $27
 85ED  A5 26     LDA  $26
 85EF  D0 02     BNE  $85F3
 85F1  C6 27     DEC  $27
 85F3  C6 26     DEC  $26
 85F5  B2 26     LDA  ($26)
 85F7  C9 2E     CMP  #$2E
 85F9  D0 04     BNE  $85FF
 85FB  C6 24     DEC  $24
 85FD  D6 00     DEC  $00, X
 85FF  CA        DEX  
 8600  CA        DEX  
 8601  CA        DEX  
 8602  CA        DEX  
 8603  B5 04     LDA  $04, X
 8605  95 00     STA  $00, X
 8607  74 01     STZ  $01, X
 8609  B5 06     LDA  $06, X
 860B  95 02     STA  $02, X
 860D  B5 07     LDA  $07, X
 860F  95 03     STA  $03, X
 8611  74 04     STZ  $04, X
 8613  74 05     STZ  $05, X
 8615  74 06     STZ  $06, X
 8617  74 07     STZ  $07, X
 8619  20 BB 88  JSR  $88BB
 861C  B5 00     LDA  $00, X
 861E  F0 05     BEQ  $8625
 8620  A9 0C     LDA  #$0C
 8622  4C 75 9E  JMP  $9E75
 8625  E8        INX  
 8626  E8        INX  
 8627  E8        INX  
 8628  E8        INX  
 8629  A5 24     LDA  $24
 862B  F0 09     BEQ  $8636
 862D  A5 25     LDA  $25
 862F  F0 0E     BEQ  $863F
 8631  20 86 83  JSR  $8386
 8634  80 09     BRA  $863F
 8636  E8        INX  
 8637  E8        INX  
 8638  A5 25     LDA  $25
 863A  F0 03     BEQ  $863F
 863C  20 A9 85  JSR  $85A9
 863F  60        RTS  
 8640  20 9B 81  JSR  $819B
 8643  20 17 84  JSR  $8417
 8646  20 EA 89  JSR  $89EA
 8649  20 CE 87  JSR  $87CE
 864C  B5 00     LDA  $00, X
 864E  A8        TAY  
 864F  B9 53 9C  LDA  $9C53, Y
 8652  95 00     STA  $00, X
 8654  74 01     STZ  $01, X
 8656  20 A6 84  JSR  $84A6
 8659  60        RTS  
 865A  A5 28     LDA  $28
 865C  95 02     STA  $02, X
 865E  A5 29     LDA  $29
 8660  95 03     STA  $03, X
 8662  20 B7 86  JSR  $86B7
 8665  B5 00     LDA  $00, X
 8667  38        SEC  
 8668  F5 04     SBC  $04, X
 866A  95 02     STA  $02, X
 866C  B5 01     LDA  $01, X
 866E  F5 04     SBC  $04, X
 8670  95 03     STA  $03, X
 8672  E8        INX  
 8673  E8        INX  
 8674  60        RTS  
 8675  20 40 86  JSR  $8640
 8678  B5 00     LDA  $00, X
 867A  15 01     ORA  $01, X
 867C  15 02     ORA  $02, X
 867E  15 03     ORA  $03, X
 8680  D0 F3     BNE  $8675
 8682  60        RTS  
 8683  CA        DEX  
 8684  CA        DEX  
 8685  A9 01     LDA  #$01
 8687  95 00     STA  $00, X
 8689  74 01     STZ  $01, X
 868B  60        RTS  
 868C  B5 00     LDA  $00, X
 868E  D0 02     BNE  $8692
 8690  D6 01     DEC  $01, X
 8692  D6 00     DEC  $00, X
 8694  60        RTS  
 8695  F6 00     INC  $00, X
 8697  D0 02     BNE  $869B
 8699  F6 01     INC  $01, X
 869B  60        RTS  
 869C  B5 00     LDA  $00, X
 869E  15 02     ORA  $02, X
 86A0  95 02     STA  $02, X
 86A2  B5 01     LDA  $01, X
 86A4  15 03     ORA  $03, X
 86A6  95 03     STA  $03, X
 86A8  E8        INX  
 86A9  E8        INX  
 86AA  60        RTS  
 86AB  60        RTS  
 86AC  CA        DEX  
 86AD  CA        DEX  
 86AE  B5 04     LDA  $04, X
 86B0  95 00     STA  $00, X
 86B2  B5 05     LDA  $05, X
 86B4  95 01     STA  $01, X
 86B6  60        RTS  
 86B7  CA        DEX  
 86B8  CA        DEX  
 86B9  A5 00     LDA  $00
 86BB  18        CLC  
 86BC  69 FF     ADC  #$FF
 86BE  95 00     STA  $00, X
 86C0  A5 01     LDA  $01
 86C2  69 00     ADC  #$00
 86C4  95 01     STA  $01, X
 86C6  60        RTS  
 86C7  A9 1B     LDA  #$1B
 86C9  20 D9 83  JSR  $83D9
 86CC  A9 5B     LDA  #$5B
 86CE  20 D9 83  JSR  $83D9
 86D1  A9 32     LDA  #$32
 86D3  20 D9 83  JSR  $83D9
 86D6  A9 4A     LDA  #$4A
 86D8  20 D9 83  JSR  $83D9
 86DB  20 F2 8A  JSR  $8AF2
 86DE  20 F2 8A  JSR  $8AF2
 86E1  20 6F 81  JSR  $816F
 86E4  60        RTS  
 86E5  EA        NOP  
 86E6  60        RTS  
 86E7  EA        NOP  
 86E8  60        RTS  
 86E9  EA        NOP  
 86EA  60        RTS  
 86EB  EA        NOP  
 86EC  60        RTS  
 86ED  A4 0C     LDY  $0C
 86EF  C4 0A     CPY  $0A
 86F1  F0 09     BEQ  $86FC
 86F3  B1 08     LDA  ($08), Y
 86F5  C9 20     CMP  #$20
 86F7  D0 0E     BNE  $8707
 86F9  C8        INY  
 86FA  80 F3     BRA  $86EF
 86FC  CA        DEX  
 86FD  CA        DEX  
 86FE  CA        DEX  
 86FF  CA        DEX  
 8700  74 00     STZ  $00, X
 8702  74 01     STZ  $01, X
 8704  4C 49 87  JMP  $8749
 8707  84 0C     STY  $0C
 8709  CA        DEX  
 870A  CA        DEX  
 870B  A9 20     LDA  #$20
 870D  95 00     STA  $00, X
 870F  74 01     STZ  $01, X
 8711  B5 00     LDA  $00, X
 8713  85 1E     STA  $1E
 8715  A5 0C     LDA  $0C
 8717  85 20     STA  $20
 8719  CA        DEX  
 871A  CA        DEX  
 871B  18        CLC  
 871C  65 08     ADC  $08
 871E  95 02     STA  $02, X
 8720  A5 09     LDA  $09
 8722  69 00     ADC  #$00
 8724  95 03     STA  $03, X
 8726  64 22     STZ  $22
 8728  A4 0C     LDY  $0C
 872A  C4 0A     CPY  $0A
 872C  F0 0B     BEQ  $8739
 872E  B1 08     LDA  ($08), Y
 8730  C5 1E     CMP  $1E
 8732  F0 03     BEQ  $8737
 8734  C8        INY  
 8735  80 F3     BRA  $872A
 8737  E6 22     INC  $22
 8739  98        TYA  
 873A  38        SEC  
 873B  E5 20     SBC  $20
 873D  95 00     STA  $00, X
 873F  74 01     STZ  $01, X
 8741  98        TYA  
 8742  18        CLC  
 8743  65 22     ADC  $22
 8745  85 0C     STA  $0C
 8747  64 0D     STZ  $0D
 8749  60        RTS  
 874A  EA        NOP  
 874B  60        RTS  
 874C  18        CLC  
 874D  B5 00     LDA  $00, X
 874F  75 02     ADC  $02, X
 8751  95 02     STA  $02, X
 8753  B5 01     LDA  $01, X
 8755  75 03     ADC  $03, X
 8757  95 03     STA  $03, X
 8759  E8        INX  
 875A  E8        INX  
 875B  60        RTS  
 875C  EA        NOP  
 875D  60        RTS  
 875E  60        RTS  
 875F  EA        NOP  
 8760  60        RTS  
 8761  20 17 84  JSR  $8417
 8764  20 AC 83  JSR  $83AC
 8767  60        RTS  
 8768  EA        NOP  
 8769  60        RTS  
 876A  EA        NOP  
 876B  60        RTS  
 876C  CA        DEX  
 876D  CA        DEX  
 876E  7A        PLY  
 876F  84 1E     STY  $1E
 8771  7A        PLY  
 8772  68        PLA  
 8773  95 00     STA  $00, X
 8775  68        PLA  
 8776  95 01     STA  $01, X
 8778  5A        PHY  
 8779  A4 1E     LDY  $1E
 877B  5A        PHY  
 877C  60        RTS  
 877D  CA        DEX  
 877E  CA        DEX  
 877F  68        PLA  
 8780  85 26     STA  $26
 8782  7A        PLY  
 8783  68        PLA  
 8784  95 00     STA  $00, X
 8786  68        PLA  
 8787  95 01     STA  $01, X
 8789  5A        PHY  
 878A  A5 26     LDA  $26
 878C  48        PHA  
 878D  60        RTS  
 878E  EA        NOP  
 878F  60        RTS  
 8790  A5 06     LDA  $06
 8792  D0 23     BNE  $87B7
 8794  CA        DEX  
 8795  CA        DEX  
 8796  CA        DEX  
 8797  CA        DEX  
 8798  A5 08     LDA  $08
 879A  95 02     STA  $02, X
 879C  A5 09     LDA  $09
 879E  95 03     STA  $03, X
 87A0  A9 FF     LDA  #$FF
 87A2  95 00     STA  $00, X
 87A4  74 01     STZ  $01, X
 87A6  20 9E 80  JSR  $809E
 87A9  B5 00     LDA  $00, X
 87AB  85 0A     STA  $0A
 87AD  64 0B     STZ  $0B
 87AF  A9 FF     LDA  #$FF
 87B1  95 00     STA  $00, X
 87B3  95 01     STA  $01, X
 87B5  80 10     BRA  $87C7
 87B7  1A        INC  
 87B8  D0 08     BNE  $87C2
 87BA  CA        DEX  
 87BB  CA        DEX  
 87BC  74 00     STZ  $00, X
 87BE  74 01     STZ  $01, X
 87C0  80 05     BRA  $87C7
 87C2  A9 09     LDA  #$09
 87C4  4C 75 9E  JMP  $9E75
 87C7  60        RTS  
 87C8  EA        NOP  
 87C9  60        RTS  
 87CA  EA        NOP  
 87CB  60        RTS  
 87CC  EA        NOP  
 87CD  60        RTS  
 87CE  B5 05     LDA  $05, X
 87D0  A8        TAY  
 87D1  B5 03     LDA  $03, X
 87D3  95 05     STA  $05, X
 87D5  B5 01     LDA  $01, X
 87D7  95 03     STA  $03, X
 87D9  98        TYA  
 87DA  95 01     STA  $01, X
 87DC  B5 04     LDA  $04, X
 87DE  A8        TAY  
 87DF  B5 02     LDA  $02, X
 87E1  95 04     STA  $04, X
 87E3  B5 00     LDA  $00, X
 87E5  95 02     STA  $02, X
 87E7  98        TYA  
 87E8  95 00     STA  $00, X
 87EA  60        RTS  
 87EB  B5 00     LDA  $00, X
 87ED  29 0F     AND  #$0F
 87EF  F0 08     BEQ  $87F9
 87F1  A8        TAY  
 87F2  56 03     LSR  $03, X
 87F4  76 02     ROR  $02, X
 87F6  88        DEY  
 87F7  D0 F9     BNE  $87F2
 87F9  E8        INX  
 87FA  E8        INX  
 87FB  60        RTS  
 87FC  EA        NOP  
 87FD  60        RTS  
 87FE  EA        NOP  
 87FF  60        RTS  
 8800  EA        NOP  
 8801  60        RTS  
 8802  B5 01     LDA  $01, X
 8804  30 04     BMI  $880A
 8806  E8        INX  
 8807  E8        INX  
 8808  80 09     BRA  $8813
 880A  A9 2D     LDA  #$2D
 880C  95 00     STA  $00, X
 880E  74 01     STZ  $01, X
 8810  20 A6 84  JSR  $84A6
 8813  60        RTS  
 8814  EA        NOP  
 8815  60        RTS  
 8816  EA        NOP  
 8817  60        RTS  
 8818  EA        NOP  
 8819  60        RTS  
 881A  EA        NOP  
 881B  60        RTS  
 881C  EA        NOP  
 881D  60        RTS  
 881E  CA        DEX  
 881F  CA        DEX  
 8820  A5 08     LDA  $08
 8822  95 00     STA  $00, X
 8824  A5 09     LDA  $09
 8826  95 01     STA  $01, X
 8828  CA        DEX  
 8829  CA        DEX  
 882A  A5 0A     LDA  $0A
 882C  95 00     STA  $00, X
 882E  A5 0B     LDA  $0B
 8830  95 01     STA  $01, X
 8832  60        RTS  
 8833  CA        DEX  
 8834  CA        DEX  
 8835  A5 06     LDA  $06
 8837  95 00     STA  $00, X
 8839  A5 07     LDA  $07
 883B  95 01     STA  $01, X
 883D  60        RTS  
 883E  A9 20     LDA  #$20
 8840  20 D9 83  JSR  $83D9
 8843  60        RTS  
 8844  B5 00     LDA  $00, X
 8846  15 01     ORA  $01, X
 8848  F0 26     BEQ  $8870
 884A  A9 20     LDA  #$20
 884C  B4 01     LDY  $01, X
 884E  D0 0A     BNE  $885A
 8850  B4 00     LDY  $00, X
 8852  20 D9 83  JSR  $83D9
 8855  88        DEY  
 8856  F0 18     BEQ  $8870
 8858  80 F8     BRA  $8852
 885A  B4 00     LDY  $00, X
 885C  F0 06     BEQ  $8864
 885E  20 D9 83  JSR  $83D9
 8861  88        DEY  
 8862  80 F8     BRA  $885C
 8864  A0 00     LDY  #$00
 8866  20 D9 83  JSR  $83D9
 8869  88        DEY  
 886A  D0 FA     BNE  $8866
 886C  D6 01     DEC  $01, X
 886E  D0 F4     BNE  $8864
 8870  E8        INX  
 8871  E8        INX  
 8872  60        RTS  
 8873  EA        NOP  
 8874  60        RTS  
 8875  EA        NOP  
 8876  60        RTS  
 8877  EA        NOP  
 8878  60        RTS  
 8879  CA        DEX  
 887A  CA        DEX  
 887B  A9 16     LDA  #$16
 887D  95 00     STA  $00, X
 887F  A9 00     LDA  #$00
 8881  95 01     STA  $01, X
 8883  60        RTS  
 8884  B5 02     LDA  $02, X
 8886  81 00     STA  ($00, X)
 8888  F6 00     INC  $00, X
 888A  D0 02     BNE  $888E
 888C  F6 01     INC  $01, X
 888E  B5 03     LDA  $03, X
 8890  81 00     STA  ($00, X)
 8892  E8        INX  
 8893  E8        INX  
 8894  E8        INX  
 8895  E8        INX  
 8896  60        RTS  
 8897  B5 00     LDA  $00, X
 8899  B4 02     LDY  $02, X
 889B  95 02     STA  $02, X
 889D  94 00     STY  $00, X
 889F  B5 01     LDA  $01, X
 88A1  B4 03     LDY  $03, X
 88A3  95 03     STA  $03, X
 88A5  94 01     STY  $01, X
 88A7  60        RTS  
 88A8  EA        NOP  
 88A9  60        RTS  
 88AA  EA        NOP  
 88AB  60        RTS  
 88AC  EA        NOP  
 88AD  60        RTS  
 88AE  EA        NOP  
 88AF  60        RTS  
 88B0  CA        DEX  
 88B1  CA        DEX  
 88B2  A9 0C     LDA  #$0C
 88B4  95 00     STA  $00, X
 88B6  A9 00     LDA  #$00
 88B8  95 01     STA  $01, X
 88BA  60        RTS  
 88BB  B5 06     LDA  $06, X
 88BD  85 2A     STA  $2A
 88BF  B5 07     LDA  $07, X
 88C1  85 2B     STA  $2B
 88C3  B5 04     LDA  $04, X
 88C5  85 2C     STA  $2C
 88C7  B5 05     LDA  $05, X
 88C9  85 2D     STA  $2D
 88CB  CA        DEX  
 88CC  CA        DEX  
 88CD  A1 04     LDA  ($04, X)
 88CF  95 00     STA  $00, X
 88D1  74 01     STZ  $01, X
 88D3  20 54 83  JSR  $8354
 88D6  B5 00     LDA  $00, X
 88D8  D0 04     BNE  $88DE
 88DA  E8        INX  
 88DB  E8        INX  
 88DC  80 67     BRA  $8945
 88DE  B5 02     LDA  $02, X
 88E0  85 2E     STA  $2E
 88E2  B5 03     LDA  $03, X
 88E4  85 2F     STA  $2F
 88E6  A5 2C     LDA  $2C
 88E8  95 02     STA  $02, X
 88EA  A5 2D     LDA  $2D
 88EC  95 03     STA  $03, X
 88EE  A5 18     LDA  $18
 88F0  95 00     STA  $00, X
 88F2  74 01     STZ  $01, X
 88F4  20 45 8A  JSR  $8A45
 88F7  B5 02     LDA  $02, X
 88F9  85 30     STA  $30
 88FB  B5 03     LDA  $03, X
 88FD  85 31     STA  $31
 88FF  A5 2A     LDA  $2A
 8901  95 02     STA  $02, X
 8903  A5 2B     LDA  $2B
 8905  95 03     STA  $03, X
 8907  A5 18     LDA  $18
 8909  95 00     STA  $00, X
 890B  74 01     STZ  $01, X
 890D  20 45 8A  JSR  $8A45
 8910  B5 00     LDA  $00, X
 8912  85 2C     STA  $2C
 8914  B5 01     LDA  $01, X
 8916  85 2D     STA  $2D
 8918  B5 02     LDA  $02, X
 891A  85 2A     STA  $2A
 891C  B5 03     LDA  $03, X
 891E  85 2B     STA  $2B
 8920  18        CLC  
 8921  A5 2A     LDA  $2A
 8923  65 2E     ADC  $2E
 8925  85 2A     STA  $2A
 8927  A5 2B     LDA  $2B
 8929  65 2F     ADC  $2F
 892B  85 2B     STA  $2B
 892D  A5 2C     LDA  $2C
 892F  65 30     ADC  $30
 8931  85 2C     STA  $2C
 8933  A5 2D     LDA  $2D
 8935  65 31     ADC  $31
 8937  85 2D     STA  $2D
 8939  E8        INX  
 893A  E8        INX  
 893B  F6 04     INC  $04, X
 893D  D0 02     BNE  $8941
 893F  F6 05     INC  $05, X
 8941  D6 02     DEC  $02, X
 8943  D0 88     BNE  $88CD
 8945  E8        INX  
 8946  E8        INX  
 8947  A5 2A     LDA  $2A
 8949  95 06     STA  $06, X
 894B  A5 2B     LDA  $2B
 894D  95 07     STA  $07, X
 894F  A5 2C     LDA  $2C
 8951  95 04     STA  $04, X
 8953  A5 2D     LDA  $2D
 8955  95 05     STA  $05, X
 8957  60        RTS  
 8958  68        PLA  
 8959  85 26     STA  $26
 895B  7A        PLY  
 895C  B5 01     LDA  $01, X
 895E  48        PHA  
 895F  B5 00     LDA  $00, X
 8961  48        PHA  
 8962  5A        PHY  
 8963  A5 26     LDA  $26
 8965  48        PHA  
 8966  E8        INX  
 8967  E8        INX  
 8968  60        RTS  
 8969  CA        DEX  
 896A  CA        DEX  
 896B  A9 FF     LDA  #$FF
 896D  95 00     STA  $00, X
 896F  95 01     STA  $01, X
 8971  60        RTS  
 8972  CA        DEX  
 8973  CA        DEX  
 8974  B5 02     LDA  $02, X
 8976  95 00     STA  $00, X
 8978  B5 03     LDA  $03, X
 897A  95 01     STA  $01, X
 897C  B4 04     LDY  $04, X
 897E  94 02     STY  $02, X
 8980  B4 05     LDY  $05, X
 8982  94 03     STY  $03, X
 8984  95 05     STA  $05, X
 8986  B5 00     LDA  $00, X
 8988  95 04     STA  $04, X
 898A  60        RTS  
 898B  CA        DEX  
 898C  CA        DEX  
 898D  A9 02     LDA  #$02
 898F  95 00     STA  $00, X
 8991  74 01     STZ  $01, X
 8993  60        RTS  
 8994  E8        INX  
 8995  E8        INX  
 8996  E8        INX  
 8997  E8        INX  
 8998  60        RTS  
 8999  CA        DEX  
 899A  CA        DEX  
 899B  CA        DEX  
 899C  CA        DEX  
 899D  B5 04     LDA  $04, X
 899F  95 00     STA  $00, X
 89A1  B5 05     LDA  $05, X
 89A3  95 01     STA  $01, X
 89A5  B5 06     LDA  $06, X
 89A7  95 02     STA  $02, X
 89A9  B5 07     LDA  $07, X
 89AB  95 03     STA  $03, X
 89AD  60        RTS  
 89AE  EA        NOP  
 89AF  60        RTS  
 89B0  EA        NOP  
 89B1  60        RTS  
 89B2  EA        NOP  
 89B3  60        RTS  
 89B4  16 00     ASL  $00, X
 89B6  36 01     ROL  $01, X
 89B8  60        RTS  
 89B9  EA        NOP  
 89BA  60        RTS  
 89BB  EA        NOP  
 89BC  60        RTS  
 89BD  EA        NOP  
 89BE  60        RTS  
 89BF  B5 00     LDA  $00, X
 89C1  15 01     ORA  $01, X
 89C3  F0 18     BEQ  $89DD
 89C5  B5 02     LDA  $02, X
 89C7  85 1E     STA  $1E
 89C9  B5 03     LDA  $03, X
 89CB  85 1F     STA  $1F
 89CD  A0 00     LDY  #$00
 89CF  B5 00     LDA  $00, X
 89D1  85 20     STA  $20
 89D3  B1 1E     LDA  ($1E), Y
 89D5  20 D9 83  JSR  $83D9
 89D8  C8        INY  
 89D9  C4 20     CPY  $20
 89DB  D0 F6     BNE  $89D3
 89DD  E8        INX  
 89DE  E8        INX  
 89DF  E8        INX  
 89E0  E8        INX  
 89E1  60        RTS  
 89E2  EA        NOP  
 89E3  60        RTS  
 89E4  EA        NOP  
 89E5  60        RTS  
 89E6  EA        NOP  
 89E7  60        RTS  
 89E8  EA        NOP  
 89E9  60        RTS  
 89EA  20 58 89  JSR  $8958
 89ED  20 F2 8A  JSR  $8AF2
 89F0  20 6C 87  JSR  $876C
 89F3  20 06 8A  JSR  $8A06
 89F6  20 CE 87  JSR  $87CE
 89F9  20 CE 87  JSR  $87CE
 89FC  20 7D 87  JSR  $877D
 89FF  20 06 8A  JSR  $8A06
 8A02  20 CE 87  JSR  $87CE
 8A05  60        RTS  
 8A06  B5 00     LDA  $00, X
 8A08  15 01     ORA  $01, X
 8A0A  D0 05     BNE  $8A11
 8A0C  A9 03     LDA  #$03
 8A0E  4C 75 9E  JMP  $9E75
 8A11  A9 11     LDA  #$11
 8A13  85 26     STA  $26
 8A15  36 04     ROL  $04, X
 8A17  36 05     ROL  $05, X
 8A19  C6 26     DEC  $26
 8A1B  F0 22     BEQ  $8A3F
 8A1D  36 02     ROL  $02, X
 8A1F  36 03     ROL  $03, X
 8A21  64 1E     STZ  $1E
 8A23  26 1E     ROL  $1E
 8A25  38        SEC  
 8A26  B5 02     LDA  $02, X
 8A28  F5 00     SBC  $00, X
 8A2A  85 1F     STA  $1F
 8A2C  B5 03     LDA  $03, X
 8A2E  F5 01     SBC  $01, X
 8A30  A8        TAY  
 8A31  A5 1E     LDA  $1E
 8A33  E9 00     SBC  #$00
 8A35  90 DE     BCC  $8A15
 8A37  A5 1F     LDA  $1F
 8A39  95 02     STA  $02, X
 8A3B  94 03     STY  $03, X
 8A3D  80 D6     BRA  $8A15
 8A3F  E8        INX  
 8A40  E8        INX  
 8A41  20 97 88  JSR  $8897
 8A44  60        RTS  
 8A45  18        CLC  
 8A46  B5 00     LDA  $00, X
 8A48  E9 00     SBC  #$00
 8A4A  85 20     STA  $20
 8A4C  B5 01     LDA  $01, X
 8A4E  E9 00     SBC  #$00
 8A50  90 31     BCC  $8A83
 8A52  85 21     STA  $21
 8A54  A9 00     LDA  #$00
 8A56  85 1E     STA  $1E
 8A58  86 22     STX  $22
 8A5A  CA        DEX  
 8A5B  CA        DEX  
 8A5C  A0 08     LDY  #$08
 8A5E  56 04     LSR  $04, X
 8A60  90 0C     BCC  $8A6E
 8A62  85 1F     STA  $1F
 8A64  A5 1E     LDA  $1E
 8A66  65 20     ADC  $20
 8A68  85 1E     STA  $1E
 8A6A  A5 1F     LDA  $1F
 8A6C  65 21     ADC  $21
 8A6E  6A        ROR  
 8A6F  66 1E     ROR  $1E
 8A71  76 04     ROR  $04, X
 8A73  88        DEY  
 8A74  D0 EA     BNE  $8A60
 8A76  E8        INX  
 8A77  E4 22     CPX  $22
 8A79  D0 E1     BNE  $8A5C
 8A7B  95 01     STA  $01, X
 8A7D  A5 1E     LDA  $1E
 8A7F  95 00     STA  $00, X
 8A81  80 04     BRA  $8A87
 8A83  74 02     STZ  $02, X
 8A85  74 03     STZ  $03, X
 8A87  60        RTS  
 8A88  EA        NOP  
 8A89  60        RTS  
 8A8A  CA        DEX  
 8A8B  CA        DEX  
 8A8C  A9 FF     LDA  #$FF
 8A8E  38        SEC  
 8A8F  E5 00     SBC  $00
 8A91  95 00     STA  $00, X
 8A93  A9 7F     LDA  #$7F
 8A95  E5 01     SBC  $01
 8A97  95 01     STA  $01, X
 8A99  60        RTS  
 8A9A  EA        NOP  
 8A9B  60        RTS  
 8A9C  20 A1 82  JSR  $82A1
 8A9F  A9 00     LDA  #$00
 8AA1  92 00     STA  ($00)
 8AA3  E6 00     INC  $00
 8AA5  D0 02     BNE  $8AA9
 8AA7  E6 01     INC  $01
 8AA9  92 00     STA  ($00)
 8AAB  E6 00     INC  $00
 8AAD  D0 00     BNE  $8AAF
 8AAF  E6 01     INC  $01
 8AB1  20 60 82  JSR  $8260
 8AB4  60        RTS  
 8AB5  EA        NOP  
 8AB6  60        RTS  
 8AB7  EA        NOP  
 8AB8  60        RTS  
 8AB9  20 9B 82  JSR  $829B
 8ABC  20 D9 84  JSR  $84D9
 8ABF  20 C8 83  JSR  $83C8
 8AC2  20 90 85  JSR  $8590
 8AC5  20 BF 89  JSR  $89BF
 8AC8  A9 20     LDA  #$20
 8ACA  20 D9 83  JSR  $83D9
 8ACD  20 95 86  JSR  $8695
 8AD0  20 95 86  JSR  $8695
 8AD3  20 17 84  JSR  $8417
 8AD6  B5 00     LDA  $00, X
 8AD8  15 01     ORA  $01, X
 8ADA  D0 E3     BNE  $8ABF
 8ADC  E8        INX  
 8ADD  E8        INX  
 8ADE  60        RTS  
 8ADF  EA        NOP  
 8AE0  60        RTS  
 8AE1  EA        NOP  
 8AE2  60        RTS  
 8AE3  B5 00     LDA  $00, X
 8AE5  55 02     EOR  $02, X
 8AE7  95 02     STA  $02, X
 8AE9  B5 01     LDA  $01, X
 8AEB  55 03     EOR  $03, X
 8AED  95 03     STA  $03, X
 8AEF  E8        INX  
 8AF0  E8        INX  
 8AF1  60        RTS  
 8AF2  CA        DEX  
 8AF3  CA        DEX  
 8AF4  74 00     STZ  $00, X
 8AF6  74 01     STZ  $01, X
 8AF8  60        RTS  
 8AF9  EA        NOP  
 8AFA  60        RTS  
 8AFB  B5 00     LDA  $00, X
 8AFD  15 01     ORA  $01, X
 8AFF  F0 04     BEQ  $8B05
 8B01  A9 00     LDA  #$00
 8B03  80 02     BRA  $8B07
 8B05  A9 FF     LDA  #$FF
 8B07  95 00     STA  $00, X
 8B09  95 01     STA  $01, X
 8B0B  60        RTS  
 8B0C  EA        NOP  
 8B0D  60        RTS  
 8B0E  EA        NOP  
 8B0F  60        RTS  
 8B10  EA        NOP  
 8B11  60        RTS  
 8B12  3A 20 28 20 5B 63 68 61 72 5D 20 29 20 70 61 72  |: ( [char] ) par|
 8B22  73 65 20 32 64 72 6F 70 20 3B 20 69 6D 6D 65 64  |se 2drop ; immed|
 8B32  69 61 74 65 20 3A 20 2E 28 20 5B 63 68 61 72 5D  |iate : .( [char]|
 8B42  20 29 20 70 61 72 73 65 20 74 79 70 65 20 3B 20  | ) parse type ; |
 8B52  69 6D 6D 65 64 69 61 74 65 20 3A 20 69 66 20 70  |immediate : if p|
 8B62  6F 73 74 70 6F 6E 65 20 30 62 72 61 6E 63 68 20  |ostpone 0branch |
 8B72  68 65 72 65 20 30 20 2C 20 3B 20 69 6D 6D 65 64  |here 0 , ; immed|
 8B82  69 61 74 65 20 63 6F 6D 70 69 6C 65 2D 6F 6E 6C  |iate compile-onl|
 8B92  79 20 3A 20 74 68 65 6E 20 68 65 72 65 20 73 77  |y : then here sw|
 8BA2  61 70 20 21 20 3B 20 69 6D 6D 65 64 69 61 74 65  |ap ! ; immediate|
 8BB2  20 63 6F 6D 70 69 6C 65 2D 6F 6E 6C 79 20 3A 20  | compile-only : |
 8BC2  65 6C 73 65 20 70 6F 73 74 70 6F 6E 65 20 62 72  |else postpone br|
 8BD2  61 6E 63 68 20 68 65 72 65 20 30 20 2C 20 68 65  |anch here 0 , he|
 8BE2  72 65 20 72 6F 74 20 21 20 3B 20 69 6D 6D 65 64  |re rot ! ; immed|
 8BF2  69 61 74 65 20 63 6F 6D 70 69 6C 65 2D 6F 6E 6C  |iate compile-onl|
 8C02  79 20 3A 20 72 65 70 65 61 74 20 70 6F 73 74 70  |y : repeat postp|
 8C12  6F 6E 65 20 61 67 61 69 6E 20 68 65 72 65 20 73  |one again here s|
 8C22  77 61 70 20 21 20 3B 20 69 6D 6D 65 64 69 61 74  |wap ! ; immediat|
 8C32  65 20 63 6F 6D 70 69 6C 65 2D 6F 6E 6C 79 20 3A  |e compile-only :|
 8C42  20 75 6E 74 69 6C 20 70 6F 73 74 70 6F 6E 65 20  | until postpone |
 8C52  30 62 72 61 6E 63 68 20 2C 20 3B 20 69 6D 6D 65  |0branch , ; imme|
 8C62  64 69 61 74 65 20 63 6F 6D 70 69 6C 65 2D 6F 6E  |diate compile-on|
 8C72  6C 79 20 3A 20 77 68 69 6C 65 20 70 6F 73 74 70  |ly : while postp|
 8C82  6F 6E 65 20 30 62 72 61 6E 63 68 20 68 65 72 65  |one 0branch here|
 8C92  20 30 20 2C 20 73 77 61 70 20 3B 20 69 6D 6D 65  | 0 , swap ; imme|
 8CA2  64 69 61 74 65 20 63 6F 6D 70 69 6C 65 2D 6F 6E  |diate compile-on|
 8CB2  6C 79 20 3A 20 64 65 66 65 72 21 20 3E 62 6F 64  |ly : defer! >bod|
 8CC2  79 20 21 20 3B 20 3A 20 64 65 66 65 72 40 20 3E  |y ! ; : defer@ >|
 8CD2  62 6F 64 79 20 40 20 3B 20 3A 20 69 73 20 73 74  |body @ ; : is st|
 8CE2  61 74 65 20 40 20 69 66 20 70 6F 73 74 70 6F 6E  |ate @ if postpon|
 8CF2  65 20 5B 27 5D 20 70 6F 73 74 70 6F 6E 65 20 64  |e ['] postpone d|
 8D02  65 66 65 72 21 20 65 6C 73 65 20 27 20 64 65 66  |efer! else ' def|
 8D12  65 72 21 20 74 68 65 6E 20 3B 20 69 6D 6D 65 64  |er! then ; immed|
 8D22  69 61 74 65 20 3A 20 61 63 74 69 6F 6E 2D 6F 66  |iate : action-of|
 8D32  20 73 74 61 74 65 20 40 20 69 66 20 70 6F 73 74  | state @ if post|
 8D42  70 6F 6E 65 20 5B 27 5D 20 70 6F 73 74 70 6F 6E  |pone ['] postpon|
 8D52  65 20 64 65 66 65 72 40 20 65 6C 73 65 20 27 20  |e defer@ else ' |
 8D62  64 65 66 65 72 40 20 74 68 65 6E 20 3B 20 69 6D  |defer@ then ; im|
 8D72  6D 65 64 69 61 74 65 20 3A 20 2F 20 3E 72 20 73  |mediate : / >r s|
 8D82  3E 64 20 72 3E 20 73 6D 2F 72 65 6D 20 73 77 61  |>d r> sm/rem swa|
 8D92  70 20 64 72 6F 70 20 3B 20 3A 20 2F 6D 6F 64 20  |p drop ; : /mod |
 8DA2  3E 72 20 73 3E 64 20 72 3E 20 73 6D 2F 72 65 6D  |>r s>d r> sm/rem|
 8DB2  20 3B 20 3A 20 6D 6F 64 20 2F 6D 6F 64 20 64 72  | ; : mod /mod dr|
 8DC2  6F 70 20 3B 20 3A 20 2A 2F 20 3E 72 20 6D 2A 20  |op ; : */ >r m* |
 8DD2  72 3E 20 73 6D 2F 72 65 6D 20 73 77 61 70 20 64  |r> sm/rem swap d|
 8DE2  72 6F 70 20 3B 20 3A 20 2A 2F 6D 6F 64 20 3E 72  |rop ; : */mod >r|
 8DF2  20 6D 2A 20 72 3E 20 73 6D 2F 72 65 6D 20 3B 20  | m* r> sm/rem ; |
 8E02  3A 20 75 2E 72 20 3E 72 20 30 20 3C 23 20 23 73  |: u.r >r 0 <# #s|
 8E12  20 23 3E 20 72 3E 20 6F 76 65 72 20 2D 20 73 70  | #> r> over - sp|
 8E22  61 63 65 73 20 74 79 70 65 20 3B 20 3A 20 2E 72  |aces type ; : .r|
 8E32  20 3E 72 20 64 75 70 20 61 62 73 20 30 20 3C 23  | >r dup abs 0 <#|
 8E42  20 23 73 20 72 6F 74 20 73 69 67 6E 20 23 3E 20  | #s rot sign #> |
 8E52  72 3E 20 6F 76 65 72 20 2D 20 73 70 61 63 65 73  |r> over - spaces|
 8E62  20 74 79 70 65 20 3B 20 3A 20 75 64 2E 20 3C 23  | type ; : ud. <#|
 8E72  20 23 73 20 23 3E 20 74 79 70 65 20 73 70 61 63  | #s #> type spac|
 8E82  65 20 3B 20 3A 20 75 64 2E 72 20 3E 72 20 3C 23  |e ; : ud.r >r <#|
 8E92  20 23 73 20 23 3E 20 72 3E 20 6F 76 65 72 20 2D  | #s #> r> over -|
 8EA2  20 73 70 61 63 65 73 20 74 79 70 65 20 3B 20 3A  | spaces type ; :|
 8EB2  20 64 2E 20 74 75 63 6B 20 64 61 62 73 20 3C 23  | d. tuck dabs <#|
 8EC2  20 23 73 20 72 6F 74 20 73 69 67 6E 20 23 3E 20  | #s rot sign #> |
 8ED2  74 79 70 65 20 73 70 61 63 65 20 3B 20 3A 20 64  |type space ; : d|
 8EE2  2E 72 20 3E 72 20 74 75 63 6B 20 64 61 62 73 20  |.r >r tuck dabs |
 8EF2  3C 23 20 23 73 20 72 6F 74 20 73 69 67 6E 20 23  |<# #s rot sign #|
 8F02  3E 20 72 3E 20 6F 76 65 72 20 2D 20 73 70 61 63  |> r> over - spac|
 8F12  65 73 20 74 79 70 65 20 3B 20 3A 20 77 69 74 68  |es type ; : with|
 8F22  69 6E 20 28 20 6E 31 20 6E 32 20 6E 33 20 2D 2D  |in ( n1 n2 n3 --|
 8F32  20 66 20 29 20 72 6F 74 20 74 75 63 6B 20 3E 20  | f ) rot tuck > |
 8F42  2D 72 6F 74 20 3E 20 69 6E 76 65 72 74 20 61 6E  |-rot > invert an|
 8F52  64 20 3B 20 3A 20 64 75 6D 70 20 28 20 61 64 64  |d ; : dump ( add|
 8F62  72 20 75 20 2D 2D 20 29 20 62 6F 75 6E 64 73 20  |r u -- ) bounds |
 8F72  3F 64 6F 20 63 72 20 69 20 34 20 75 2E 72 20 73  |?do cr i 4 u.r s|
 8F82  70 61 63 65 20 31 36 20 30 20 64 6F 20 69 20 6A  |pace 16 0 do i j|
 8F92  20 2B 20 63 40 20 30 20 3C 23 20 23 20 23 73 20  | + c@ 0 <# # #s |
 8FA2  23 3E 20 74 79 70 65 20 73 70 61 63 65 20 6C 6F  |#> type space lo|
 8FB2  6F 70 20 31 36 20 2B 6C 6F 6F 70 20 3B 20 3A 20  |op 16 +loop ; : |
 8FC2  73 65 65 20 70 61 72 73 65 2D 6E 61 6D 65 20 66  |see parse-name f|
 8FD2  69 6E 64 2D 6E 61 6D 65 20 64 75 70 20 30 3D 20  |ind-name dup 0= |
 8FE2  61 62 6F 72 74 22 20 4E 6F 20 73 75 63 68 20 6E  |abort" No such n|
 8FF2  61 6D 65 22 20 62 61 73 65 20 40 20 3E 72 20 20  |ame" base @ >r  |
 9002  68 65 78 20 20 64 75 70 20 63 72 20 73 70 61 63  |hex  dup cr spac|
 9012  65 20 2E 22 20 6E 74 3A 20 22 20 2E 20 64 75 70  |e ." nt: " . dup|
 9022  20 34 20 2B 20 40 20 73 70 61 63 65 20 2E 22 20  | 4 + @ space ." |
 9032  78 74 3A 20 22 20 2E 20 64 75 70 20 31 2B 20 63  |xt: " . dup 1+ c|
 9042  40 20 31 20 61 6E 64 20 69 66 20 73 70 61 63 65  |@ 1 and if space|
 9052  20 2E 22 20 43 4F 22 20 74 68 65 6E 20 64 75 70  | ." CO" then dup|
 9062  20 31 2B 20 63 40 20 32 20 61 6E 64 20 69 66 20  | 1+ c@ 2 and if |
 9072  73 70 61 63 65 20 2E 22 20 41 4E 22 20 74 68 65  |space ." AN" the|
 9082  6E 20 64 75 70 20 31 2B 20 63 40 20 34 20 61 6E  |n dup 1+ c@ 4 an|
 9092  64 20 69 66 20 73 70 61 63 65 20 2E 22 20 49 4D  |d if space ." IM|
 90A2  22 20 74 68 65 6E 20 64 75 70 20 31 2B 20 63 40  |" then dup 1+ c@|
 90B2  20 38 20 61 6E 64 20 69 66 20 73 70 61 63 65 20  | 8 and if space |
 90C2  2E 22 20 4E 4E 22 20 74 68 65 6E 20 64 75 70 20  |." NN" then dup |
 90D2  63 72 20 73 70 61 63 65 20 2E 22 20 73 69 7A 65  |cr space ." size|
 90E2  20 28 64 65 63 69 6D 61 6C 29 3A 20 22 20 64 65  | (decimal): " de|
 90F2  63 69 6D 61 6C 20 77 6F 72 64 73 69 7A 65 20 64  |cimal wordsize d|
 9102  75 70 20 2E 20 73 77 61 70 20 6E 61 6D 65 3E 69  |up . swap name>i|
 9112  6E 74 20 73 77 61 70 20 68 65 78 20 63 72 20 73  |nt swap hex cr s|
 9122  70 61 63 65 20 64 75 6D 70 20 20 72 3E 20 62 61  |pace dump  r> ba|
 9132  73 65 20 21 20 3B 20 2E 28 20 54 61 6C 69 20 46  |se ! ; .( Tali F|
 9142  6F 72 74 68 20 32 20 66 6F 72 20 74 68 65 20 36  |orth 2 for the 6|
 9152  35 63 30 32 29 63 72 20 2E 28 20 56 65 72 73 69  |5c02)cr .( Versi|
 9162  6F 6E 20 50 52 45 2D 41 4C 50 48 41 20 20 32 36  |on PRE-ALPHA  26|
 9172  2E 20 4E 6F 76 20 32 30 31 37 29 63 72 20 2E 28  |. Nov 2017)cr .(|
 9182  20 53 63 6F 74 20 57 2E 20 53 74 65 76 65 6E 73  | Scot W. Stevens|
 9192  6F 6E 20 3C 73 63 6F 74 2E 73 74 65 76 65 6E 73  |on <scot.stevens|
 91A2  6F 6E 40 67 6D 61 69 6C 2E 63 6F 6D 3E 29 63 72  |on@gmail.com>)cr|
 91B2  20 2E 28 20 54 61 6C 69 20 46 6F 72 74 68 20 32  | .( Tali Forth 2|
 91C2  20 63 6F 6D 65 73 20 77 69 74 68 20 61 62 73 6F  | comes with abso|
 91D2  6C 75 74 65 6C 79 20 4E 4F 20 57 41 52 52 41 4E  |lutely NO WARRAN|
 91E2  54 59 29 63 72 20 2E 28 20 54 79 70 65 20 27 62  |TY)cr .( Type 'b|
 91F2  79 65 27 20 74 6F 20 65 78 69 74 29 20 63 72 03  |ye' to exit) cr.|
 9202  00 00 00 D9 81 DA 81 62 79 65 04 00 01 92 00 80  |.......bye......|
 9212  8A 80 63 6F 6C 64 04 00 0C 92 A8 81 AD 81 62 65  |..cold........be|
 9222  6C 6C 05 00 18 92 B9 8A DE 8A 77 6F 72 64 73 05  |ll........words.|
 9232  00 24 92 6F 81 91 81 61 74 2D 78 79 04 00 31 92  |.$.o...at-xy..1.|
 9242  C7 86 E4 86 70 61 67 65 02 00 3E 92 9B 82 A0 82  |....page..>.....|
 9252  63 72 04 00 4A 92 02 88 13 88 73 69 67 6E 04 00  |cr..J.....sign..|
 9262  54 92 A6 84 B0 84 68 6F 6C 64 02 00 60 92 5A 86  |T.....hold..`.Z.|
 9272  74 86 23 3E 02 00 6C 92 75 86 82 86 23 73 01 00  |t.#>..l.u...#s..|
 9282  76 92 40 86 59 86 23 02 00 80 92 EF 84 FC 84 3C  |v.@.Y.#........<|
 9292  23 03 00 89 92 B0 88 BA 88 3E 69 6E 03 00 93 92  |#........>in....|
 92A2  B7 86 C6 86 70 61 64 01 00 9E 92 92 81 9A 81 5C  |....pad........\|
 92B2  06 00 A9 92 EA 89 05 8A 75 64 2F 6D 6F 64 06 00  |........ud/mod..|
 92C2  B2 92 06 8A 44 8A 75 6D 2F 6D 6F 64 03 00 C0 92  |....D.um/mod....|
 92D2  45 8A 87 8A 75 6D 2A 02 00 CE 92 14 85 2B 85 6D  |E...um*......+.m|
 92E2  2A 05 00 D9 92 8A 82 9A 82 63 6F 75 6E 74 07 00  |*........count..|
 92F2  E3 92 3C 83 42 83 64 65 63 69 6D 61 6C 03 00 F0  |..<.B.decimal...|
 9302  92 9F 84 A5 84 68 65 78 07 00 FF 92 BB 88 57 89  |.....hex......W.|
 9312  3E 6E 75 6D 62 65 72 06 00 0A 93 CC 85 3F 86 6E  |>number......?.n|
 9322  75 6D 62 65 72 06 00 19 93 54 83 85 83 64 69 67  |umber....T...dig|
 9332  69 74 3F 04 00 27 93 9B 81 A5 81 62 61 73 65 04  |it?..'.....base.|
 9342  00 35 93 53 80 8A 80 71 75 69 74 05 00 41 93 51  |.5.S...quit..A.Q|
 9352  80 8A 80 61 62 6F 72 74 09 00 4D 93 33 88 3D 88  |...abort..M.3.=.|
 9362  73 6F 75 72 63 65 2D 69 64 06 00 5A 93 1E 88 32  |source-id..Z...2|
 9372  88 73 6F 75 72 63 65 05 00 6B 93 11 87 49 87 70  |.source..k...I.p|
 9382  61 72 73 65 0A 00 79 93 ED 86 49 87 70 61 72 73  |arse..y...I.pars|
 9392  65 2D 6E 61 6D 65 08 00 86 93 D9 84 E3 84 6C 61  |e-name........la|
 93A2  74 65 73 74 6E 74 08 00 98 93 E4 84 EA 84 6C 61  |testnt........la|
 93B2  74 65 73 74 78 74 0B 00 A8 93 90 85 A6 85 6E 61  |testxt........na|
 93C2  6D 65 3E 73 74 72 69 6E 67 08 00 B8 93 76 85 8F  |me>string....v..|
 93D2  85 6E 61 6D 65 3E 69 6E 74 09 00 CB 93 2C 84 8F  |.name>int....,..|
 93E2  84 66 69 6E 64 2D 6E 61 6D 65 08 00 DB 93 40 82  |.find-name....@.|
 93F2  89 82 63 6F 6E 73 74 61 6E 74 08 00 EC 93 9C 8A  |..constant......|
 9402  B4 8A 76 61 72 69 61 62 6C 65 06 00 FC 93 A1 82  |..variable......|
 9412  2F 83 63 72 65 61 74 65 05 00 0C 94 0E 81 5F 81  |/.create......_.|
 9422  61 6C 6C 6F 74 03 00 1A 94 CA 84 D7 84 6B 65 79  |allot........key|
 9432  05 00 27 94 45 83 53 83 64 65 70 74 68 06 00 32  |..'.E.S.depth..2|
 9442  94 8A 8A 99 8A 75 6E 75 73 65 64 06 00 3F 94 9E  |.....unused..?..|
 9452  80 07 81 61 63 63 65 70 74 06 00 4D 94 90 87 C7  |...accept..M....|
 9462  87 72 65 66 69 6C 6C 02 00 5B 94 AE 81 B6 81 62  |.refill..[.....b|
 9472  6C 06 00 69 94 44 88 72 88 73 70 61 63 65 73 06  |l..i.D.r.spaces.|
 9482  00 73 94 B7 81 D2 81 62 6F 75 6E 64 73 02 00 81  |.s.....bounds...|
 9492  94 DB 81 E7 81 63 2C 07 00 8F 94 86 83 A7 83 64  |.....c,........d|
 94A2  6E 65 67 61 74 65 06 00 99 94 A9 85 BA 85 6E 65  |negate........ne|
 94B2  67 61 74 65 06 00 A8 94 BB 84 C7 84 69 6E 76 65  |gate........inve|
 94C2  72 74 05 00 B6 94 94 89 98 89 32 64 72 6F 70 03  |rt........2drop.|
 94D2  00 C4 94 2E 85 46 85 6D 61 78 03 00 D1 94 47 85  |.....F.max....G.|
 94E2  5F 85 6D 69 6E 02 00 DC 94 FB 8A 0B 8B 30 3D 01  |_.min........0=.|
 94F2  00 E7 94 DC 83 F4 83 3D 02 00 F1 94 B4 89 B8 89  |.......=........|
 9502  32 2A 02 00 FA 94 95 86 9B 86 31 2B 02 00 04 95  |2*........1+....|
 9512  8C 86 94 86 31 2D 04 00 0E 95 94 84 9E 84 68 65  |....1-........he|
 9522  72 65 05 00 18 95 F8 81 05 82 63 65 6C 6C 2B 05  |re........cell+.|
 9532  00 24 95 B4 89 B8 89 63 65 6C 6C 73 05 02 31 95  |.$.....cells..1.|
 9542  1D 82 1E 82 63 68 61 72 73 05 00 3E 95 95 86 9B  |....chars..>....|
 9552  86 63 68 61 72 2B 04 00 4B 95 06 82 1C 82 63 68  |.char+..K.....ch|
 9562  61 72 06 00 58 95 03 85 13 85 6C 73 68 69 66 74  |ar..X.....lshift|
 9572  06 00 64 95 EB 87 FB 87 72 73 68 69 66 74 03 00  |..d.....rshift..|
 9582  72 95 E3 8A F1 8A 78 6F 72 02 00 80 95 9C 86 AA  |r.....xor.......|
 9592  86 6F 72 03 00 8B 95 60 81 6E 81 61 6E 64 03 00  |.or....`.n.and..|
 95A2  95 95 8C 80 9D 80 61 62 73 01 00 A0 95 60 85 6F  |......abs....`.o|
 95B2  85 2D 01 00 AB 95 4C 87 5B 87 2B 04 00 B4 95 99  |.-....L.[.+.....|
 95C2  89 AD 89 32 64 75 70 01 00 BD 95 8B 89 93 89 32  |...2dup........2|
 95D2  01 00 C9 95 83 86 8B 86 31 01 00 D2 95 F2 8A F8  |........1.......|
 95E2  8A 30 05 00 DB 95 3E 88 43 88 73 70 61 63 65 04  |.0....>.C.space.|
 95F2  00 E4 95 69 89 71 89 74 72 75 65 05 00 F1 95 10  |...i.q.true.....|
 9602  84 16 84 66 61 6C 73 65 01 00 FD 95 61 87 67 87  |...false....a.g.|
 9612  3F 01 00 0A 96 AC 83 B8 83 2E 04 00 13 96 BF 89  |?...............|
 9622  E1 89 74 79 70 65 04 08 1C 96 D5 83 DC 83 65 6D  |..type........em|
 9632  69 74 07 00 28 96 F9 83 0D 84 65 78 65 63 75 74  |it..(.....execut|
 9642  65 02 00 34 96 EF 81 F7 81 63 21 02 00 43 96 E8  |e..4.....c!..C..|
 9652  81 EE 81 63 40 01 00 4D 96 25 82 3B 82 2C 04 00  |...c@..M.%.;.,..|
 9662  57 96 72 89 8A 89 74 75 63 6B 03 00 60 96 CE 87  |W.r...tuck..`...|
 9672  EA 87 72 6F 74 03 00 6C 96 BD 85 C7 85 6E 69 70  |..rot..l.....nip|
 9682  02 00 77 96 6C 87 7C 87 72 40 02 08 82 96 7D 87  |..w.l.|.r@....}.|
 9692  8D 87 72 3E 02 01 8C 96 58 89 68 89 3E 72 04 00  |..r>....X.h.>r..|
 96A2  96 96 AC 86 B6 86 6F 76 65 72 01 00 A0 96 17 84  |......over......|
 96B2  27 84 40 01 00 AC 96 84 88 96 88 21 04 00 B5 96  |'.@........!....|
 96C2  97 88 A7 88 73 77 61 70 03 00 BE 96 C8 83 D2 83  |....swap........|
 96D2  64 75 70 04 00 CA 96 C3 83 C5 83 64 72 6F 70 01  |dup........drop.|
 96E2  00 00 00 AA 88 AB 88 27 01 00 00 00 E5 86 E6 86  |.......'........|
 96F2  28 07 00 00 00 E9 86 EA 86 28 2B 6C 6F 6F 70 29  |(........(+loop)|
 9702  05 00 00 00 EB 86 EC 86 28 3F 64 6F 29 04 00 00  |........(?do)...|
 9712  00 E7 86 E8 86 28 64 6F 29 01 00 00 00 CC 87 CD  |.....(do).......|
 9722  87 29 01 00 00 00 73 88 74 88 2A 02 00 00 00 75  |.)....s.t.*....u|
 9732  88 76 88 2A 2F 05 00 00 00 77 88 78 88 2A 2F 6D  |.v.*/....w.x.*/m|
 9742  6F 64 02 00 00 00 5E 87 5E 87 2B 21 05 00 00 00  |od....^.^.+!....|
 9752  5C 87 5D 87 2B 6C 6F 6F 70 04 00 00 00 CA 85 CB  |\.].+loop.......|
 9762  85 2D 72 6F 74 09 00 00 00 70 85 71 85 2D 74 72  |.-rot....p.q.-tr|
 9772  61 69 6C 69 6E 67 02 00 00 00 BD 83 BE 83 2E 22  |ailing........."|
 9782  02 00 00 00 BB 83 BC 83 2E 28 05 00 00 00 B9 83  |.........(......|
 9792  BA 83 2E 62 79 74 65 02 00 00 00 BF 83 C0 83 2E  |...byte.........|
 97A2  72 02 00 00 00 C1 83 C2 83 2E 73 01 00 00 00 14  |r.........s.....|
 97B2  88 15 88 2F 04 00 00 00 16 88 17 88 2F 6D 6F 64  |.../......../mod|
 97C2  07 00 00 00 18 88 19 88 2F 73 74 72 69 6E 67 02  |......../string.|
 97D2  00 00 00 0E 8B 0F 8B 30 3C 03 00 00 00 10 8B 11  |.......0<.......|
 97E2  8B 30 3C 3E 02 00 00 00 0C 8B 0D 8B 30 3E 07 00  |.0<>........0>..|
 97F2  00 00 F9 8A FA 8A 30 62 72 61 6E 63 68 03 00 00  |......0branch...|
 9802  00 BB 89 BC 89 32 3E 72 05 00 00 00 AE 89 AF 89  |.....2>r........|
 9812  32 6F 76 65 72 03 00 00 00 B2 89 B3 89 32 72 3E  |2over........2r>|
 9822  03 00 00 00 B0 89 B1 89 32 72 40 05 00 00 00 B9  |........2r@.....|
 9832  89 BA 89 32 73 77 61 70 09 00 00 00 BD 89 BE 89  |...2swap........|
 9842  32 76 61 72 69 61 62 6C 65 01 00 00 00 23 82 24  |2variable....#.$|
 9852  82 3A 01 00 00 00 00 88 01 88 3B 01 00 00 00 FD  |.:........;.....|
 9862  84 FE 84 3C 02 00 00 00 C8 85 C9 85 3C 3E 01 00  |...<........<>..|
 9872  00 00 92 84 93 84 3E 05 00 00 00 AE 88 AF 88 3E  |......>........>|
 9882  62 6F 64 79 03 00 00 00 68 87 69 87 3F 64 6F 04  |body....h.i.?do.|
 9892  00 00 00 6A 87 6B 87 3F 64 75 70 01 00 00 00 ED  |...j.k.?dup.....|
 98A2  84 EE 84 5B 03 00 00 00 D5 81 D6 81 5B 27 5D 06  |...[........['].|
 98B2  00 00 00 D3 81 D4 81 5B 63 68 61 72 5D 01 00 00  |.......[char]...|
 98C2  00 CA 87 CB 87 5D 06 00 00 00 8A 80 8B 80 61 62  |.....]........ab|
 98D2  6F 72 74 22 05 00 00 00 08 81 09 81 61 67 61 69  |ort"........agai|
 98E2  6E 05 00 00 00 0A 81 0B 81 61 6C 69 67 6E 07 00  |n........align..|
 98F2  00 00 0C 81 0D 81 61 6C 69 67 6E 65 64 05 00 00  |......aligned...|
 9902  00 A6 81 A7 81 62 65 67 69 6E 06 00 00 00 D7 81  |.....begin......|
 9912  D8 81 62 72 61 6E 63 68 05 00 00 00 1F 82 20 82  |..branch...... .|
 9922  63 6D 6F 76 65 06 00 00 00 21 82 22 82 63 6D 6F  |cmove....!.".cmo|
 9932  76 65 3E 08 00 00 00 3C 82 3D 82 63 6F 6D 70 69  |ve>....<.=.compi|
 9942  6C 65 2C 0C 00 00 00 3E 82 3F 82 63 6F 6D 70 69  |le,....>.?.compi|
 9952  6C 65 2D 6F 6E 6C 79 02 00 00 00 34 83 35 83 64  |le-only....4.5.d|
 9962  2B 02 00 00 00 32 83 33 83 64 2D 02 00 00 00 30  |+....2.3.d-....0|
 9972  83 31 83 64 2E 03 00 00 00 36 83 37 83 64 2E 72  |.1.d.....6.7.d.r|
 9982  03 00 00 00 38 83 39 83 64 3E 73 04 00 00 00 3A  |....8.9.d>s....:|
 9992  83 3B 83 64 61 62 73 05 00 00 00 43 83 44 83 64  |.;.dabs....C.D.d|
 99A2  65 66 65 72 02 00 00 00 A8 83 A9 83 64 6F 05 00  |efer........do..|
 99B2  00 00 AA 83 AB 83 64 6F 65 73 3E 04 00 00 00 C6  |......does>.....|
 99C2  83 C7 83 64 75 6D 70 04 00 00 00 D3 83 D4 83 65  |...dump........e|
 99D2  6C 73 65 05 00 00 00 F5 83 F6 83 65 72 61 73 65  |lse........erase|
 99E2  08 00 00 00 F7 83 F8 83 65 76 61 6C 75 61 74 65  |........evaluate|
 99F2  04 00 00 00 0E 84 0F 84 65 78 69 74 04 00 00 00  |........exit....|
 9A02  28 84 29 84 66 69 6C 6C 04 00 00 00 2A 84 2B 84  |(.).fill....*.+.|
 9A12  66 69 6E 64 06 00 00 00 90 84 91 84 66 6D 2F 6D  |find........fm/m|
 9A22  6F 64 01 00 00 00 B1 84 B2 84 69 02 00 00 00 B3  |od........i.....|
 9A32  84 B4 84 69 66 09 00 00 00 B5 84 B6 84 69 6D 6D  |...if........imm|
 9A42  65 64 69 61 74 65 05 00 00 00 B7 84 B8 84 69 6E  |ediate........in|
 9A52  70 75 74 08 00 00 00 B9 84 BA 84 69 6E 74 3E 6E  |put........int>n|
 9A62  61 6D 65 01 00 00 00 C8 84 C9 84 6A 04 00 00 00  |ame........j....|
 9A72  D7 84 D8 84 6B 65 79 3F 05 00 00 00 EB 84 EC 84  |....key?........|
 9A82  6C 65 61 76 65 07 00 00 00 FF 84 00 85 6C 69 74  |leave........lit|
 9A92  65 72 61 6C 04 00 00 00 01 85 02 85 6C 6F 6F 70  |eral........loop|
 9AA2  06 00 00 00 2C 85 2D 85 6D 61 72 6B 65 72 03 00  |....,.-.marker..|
 9AB2  00 00 72 85 73 85 6D 6F 64 04 00 00 00 74 85 75  |..r.s.mod....t.u|
 9AC2  85 6D 6F 76 65 08 00 00 00 A7 85 A8 85 6E 63 2D  |.move........nc-|
 9AD2  6C 69 6D 69 74 0D 00 00 00 BB 85 BC 85 6E 65 76  |limit........nev|
 9AE2  65 72 2D 63 6F 6D 70 69 6C 65 06 00 00 00 AB 86  |er-compile......|
 9AF2  AB 86 6F 75 74 70 75 74 04 00 00 00 4A 87 4B 87  |..output....J.K.|
 9B02  70 69 63 6B 08 00 00 00 5F 87 60 87 70 6F 73 74  |pick...._.`.post|
 9B12  70 6F 6E 65 07 00 00 00 8E 87 8F 87 72 65 63 75  |pone........recu|
 9B22  72 73 65 06 00 00 00 C8 87 C9 87 72 65 70 65 61  |rse........repea|
 9B32  74 02 00 00 00 FC 87 FD 87 73 22 03 00 00 00 FE  |t........s".....|
 9B42  87 FF 87 73 3E 64 08 00 00 00 1A 88 1B 88 73 6C  |...s>d........sl|
 9B52  69 74 65 72 61 6C 06 00 00 00 1C 88 1D 88 73 6D  |iteral........sm|
 9B62  2F 72 65 6D 05 00 00 00 79 88 83 88 73 74 61 74  |/rem....y...stat|
 9B72  65 04 00 00 00 A8 88 A9 88 74 68 65 6E 02 00 00  |e........then...|
 9B82  00 AC 88 AD 88 74 6F 02 00 00 00 E2 89 E3 89 75  |.....to........u|
 9B92  2E 03 00 00 00 E4 89 E5 89 75 2E 72 03 00 00 00  |.........u.r....|
 9BA2  E6 89 E7 89 75 64 2E 04 00 00 00 E8 89 E9 89 75  |....ud.........u|
 9BB2  64 2E 72 06 00 00 00 88 8A 89 8A 75 6E 6C 6F 6F  |d.r........unloo|
 9BC2  70 05 00 00 00 9A 8A 9B 8A 76 61 6C 75 65 06 00  |p........value..|
 9BD2  00 00 B5 8A B6 8A 77 69 74 68 69 6E 04 00 00 00  |......within....|
 9BE2  B7 8A B8 8A 77 6F 72 64 0B 00 00 00 DF 8A E0 8A  |....word........|
 9BF2  77 6F 72 64 73 26 73 69 7A 65 73 08 00 00 00 E1  |words&sizes.....|
 9C02  8A E2 8A 77 6F 72 64 73 69 7A 65 19 9C 1D 9C 27  |...wordsize....'|
 9C12  9C 2C 9C 30 9C 53 9C 20 6F 6B 00 20 63 6F 6D 70  |.,.0.S. ok. comp|
 9C22  69 6C 65 64 00 1B 5B 32 4A 00 1B 5B 48 00 30 31  |iled..[2J..[H.01|
 9C32  32 33 34 35 36 37 38 39 61 62 63 64 65 66 67 68  |23456789abcdefgh|
 9C42  69 6A 6B 6C 6D 6E 6F 70 71 72 73 74 75 76 77 79  |ijklmnopqrstuvwy|
 9C52  7A 30 31 32 33 34 35 36 37 38 39 41 42 43 44 45  |z0123456789ABCDE|
 9C62  46 47 48 49 4A 4B 4C 4D 4E 4F 50 51 52 53 54 55  |FGHIJKLMNOPQRSTU|
 9C72  56 57 59 5A 90 9C B1 9C D2 9C EF 9C 00 9D 0C 9D  |VWYZ............|
 9C82  22 9D 32 9D 49 9D 77 9D 97 9D AF 9D BF 9D 41 4C  |".2.I.w.......AL|
 9C92  4C 4F 54 20 75 73 69 6E 67 20 61 6C 6C 20 61 76  |LOT using all av|
 9CA2  61 69 6C 61 62 6C 65 20 6D 65 6D 6F 72 79 00 49  |ailable memory.I|
 9CB2  6E 74 65 72 70 72 65 74 69 6E 67 20 61 20 63 6F  |nterpreting a co|
 9CC2  6D 70 69 6C 65 2D 6F 6E 6C 79 20 77 6F 72 64 00  |mpile-only word.|
 9CD2  44 45 46 45 52 65 64 20 77 6F 72 64 20 6E 6F 74  |DEFERed word not|
 9CE2  20 64 65 66 69 6E 65 64 20 79 65 74 00 44 69 76  | defined yet.Div|
 9CF2  69 73 69 6F 6E 20 62 79 20 7A 65 72 6F 00 3E 3E  |ision by zero.>>|
 9D02  3E 45 72 72 6F 72 3C 3C 3C 00 4E 6F 74 20 69 6E  |>Error<<<.Not in|
 9D12  20 69 6E 74 65 72 70 72 65 74 20 6D 6F 64 65 00  | interpret mode.|
 9D22  50 61 72 73 69 6E 67 20 66 61 69 6C 75 72 65 00  |Parsing failure.|
 9D32  44 69 67 69 74 20 6C 61 72 67 65 72 20 74 68 61  |Digit larger tha|
 9D42  6E 20 62 61 73 65 00 51 55 49 54 20 63 6F 75 6C  |n base.QUIT coul|
 9D52  64 20 6E 6F 74 20 67 65 74 20 69 6E 70 75 74 20  |d not get input |
 9D62  28 52 45 46 49 4C 4C 20 72 65 74 75 72 6E 65 64  |(REFILL returned|
 9D72  20 2D 31 29 00 49 6C 6C 65 67 61 6C 20 53 4F 55  | -1).Illegal SOU|
 9D82  52 43 45 2D 49 44 20 64 75 72 69 6E 67 20 52 45  |RCE-ID during RE|
 9D92  46 49 4C 4C 00 41 6C 72 65 61 64 79 20 69 6E 20  |FILL.Already in |
 9DA2  63 6F 6D 70 69 6C 65 20 6D 6F 64 65 00 53 74 61  |compile mode.Sta|
 9DB2  63 6B 20 75 6E 64 65 72 66 6C 6F 77 00 55 6E 64  |ck underflow.Und|
 9DC2  65 66 69 6E 65 64 20 77 6F 72 64 00              |efined word.    |
 9DCE  60        RTS  
 9DCF  CA        DEX  
 9DD0  CA        DEX  
 9DD1  68        PLA  
 9DD2  85 1E     STA  $1E
 9DD4  68        PLA  
 9DD5  85 1F     STA  $1F
 9DD7  A0 01     LDY  #$01
 9DD9  B1 1E     LDA  ($1E), Y
 9DDB  95 00     STA  $00, X
 9DDD  C8        INY  
 9DDE  B1 1E     LDA  ($1E), Y
 9DE0  95 01     STA  $01, X
 9DE2  60        RTS  
 9DE3  60        RTS  
 9DE4  60        RTS  
 9DE5  7A        PLY  
 9DE6  68        PLA  
 9DE7  C8        INY  
 9DE8  D0 01     BNE  $9DEB
 9DEA  1A        INC  
 9DEB  CA        DEX  
 9DEC  CA        DEX  
 9DED  95 01     STA  $01, X
 9DEF  98        TYA  
 9DF0  95 00     STA  $00, X
 9DF2  60        RTS  
 9DF3  48        PHA  
 9DF4  4A        LSR  
 9DF5  4A        LSR  
 9DF6  4A        LSR  
 9DF7  4A        LSR  
 9DF8  20 FC 9D  JSR  $9DFC
 9DFB  68        PLA  
 9DFC  29 0F     AND  #$0F
 9DFE  09 30     ORA  #$30
 9E00  C9 3A     CMP  #$3A
 9E02  90 02     BCC  $9E06
 9E04  69 06     ADC  #$06
 9E06  4C D9 83  JMP  $83D9
 9E09  60        RTS  
 9E0A  20 ED 86  JSR  $86ED
 9E0D  B5 00     LDA  $00, X
 9E0F  F0 5F     BEQ  $9E70
 9E11  20 99 89  JSR  $8999
 9E14  20 2C 84  JSR  $842C
 9E17  B5 00     LDA  $00, X
 9E19  15 01     ORA  $01, X
 9E1B  D0 17     BNE  $9E34
 9E1D  E8        INX  
 9E1E  E8        INX  
 9E1F  20 CC 85  JSR  $85CC
 9E22  A5 16     LDA  $16
 9E24  F0 E4     BEQ  $9E0A
 9E26  A9 01     LDA  #$01
 9E28  48        PHA  
 9E29  A9 85     LDA  #$85
 9E2B  48        PHA  
 9E2C  20 CE 9D  JSR  $9DCE
 9E2F  20 25 82  JSR  $8225
 9E32  80 D6     BRA  $9E0A
 9E34  B5 00     LDA  $00, X
 9E36  95 04     STA  $04, X
 9E38  B5 01     LDA  $01, X
 9E3A  95 05     STA  $05, X
 9E3C  E8        INX  
 9E3D  E8        INX  
 9E3E  E8        INX  
 9E3F  E8        INX  
 9E40  B5 00     LDA  $00, X
 9E42  85 1C     STA  $1C
 9E44  B5 01     LDA  $01, X
 9E46  85 1D     STA  $1D
 9E48  20 76 85  JSR  $8576
 9E4B  A5 16     LDA  $16
 9E4D  D0 13     BNE  $9E62
 9E4F  A0 01     LDY  #$01
 9E51  B1 1C     LDA  ($1C), Y
 9E53  29 01     AND  #$01
 9E55  F0 05     BEQ  $9E5C
 9E57  A9 01     LDA  #$01
 9E59  4C 75 9E  JMP  $9E75
 9E5C  20 F9 83  JSR  $83F9
 9E5F  4C 0A 9E  JMP  $9E0A
 9E62  A0 01     LDY  #$01
 9E64  B1 1C     LDA  ($1C), Y
 9E66  29 04     AND  #$04
 9E68  D0 F2     BNE  $9E5C
 9E6A  20 3C 82  JSR  $823C
 9E6D  4C 0A 9E  JMP  $9E0A
 9E70  E8        INX  
 9E71  E8        INX  
 9E72  E8        INX  
 9E73  E8        INX  
 9E74  60        RTS  
 9E75  0A        ASL  
 9E76  A8        TAY  
 9E77  B9 76 9C  LDA  $9C76, Y
 9E7A  85 22     STA  $22
 9E7C  C8        INY  
 9E7D  B9 76 9C  LDA  $9C76, Y
 9E80  85 23     STA  $23
 9E82  20 95 9E  JSR  $9E95
 9E85  4C 51 80  JMP  $8051
 9E88  0A        ASL  
 9E89  A8        TAY  
 9E8A  B9 0D 9C  LDA  $9C0D, Y
 9E8D  85 22     STA  $22
 9E8F  C8        INY  
 9E90  B9 0D 9C  LDA  $9C0D, Y
 9E93  85 23     STA  $23
 9E95  A0 00     LDY  #$00
 9E97  B1 22     LDA  ($22), Y
 9E99  F0 06     BEQ  $9EA1
 9E9B  20 D9 83  JSR  $83D9
 9E9E  C8        INY  
 9E9F  80 F6     BRA  $9E97
 9EA1  A9 0A     LDA  #$0A
 9EA3  20 D9 83  JSR  $83D9
 9EA6  60        RTS  
 9EA7  60        RTS  
 9EA8  00 00 00 00 00 00 00 00 00 00 00 00 00 00 00 00  |................|
 9EB8  00 00 00 00 00 00 00 00 00 00 00 00 00 00 00 00  |................|
 9EC8  00 00 00 00 00 00 00 00 00 00 00 00 00 00 00 00  |................|
 9ED8  00 00 00 00 00 00 00 00 00 00 00 00 00 00 00 00  |................|
 9EE8  00 00 00 00 00 00 00 00 00 00 00 00 00 00 00 00  |................|
 9EF8  00 00 00 00 00 00 00 00 00 00 00 00 00 00 00 00  |................|
 9F08  00 00 00 00 00 00 00 00 00 00 00 00 00 00 00 00  |................|
 9F18  00 00 00 00 00 00 00 00 00 00 00 00 00 00 00 00  |................|
 9F28  00 00 00 00 00 00 00 00 00 00 00 00 00 00 00 00  |................|
 9F38  00 00 00 00 00 00 00 00 00 00 00 00 00 00 00 00  |................|
 9F48  00 00 00 00 00 00 00 00 00 00 00 00 00 00 00 00  |................|
 9F58  00 00 00 00 00 00 00 00 00 00 00 00 00 00 00 00  |................|
 9F68  00 00 00 00 00 00 00 00 00 00 00 00 00 00 00 00  |................|
 9F78  00 00 00 00 00 00 00 00 00 00 00 00 00 00 00 00  |................|
 9F88  00 00 00 00 00 00 00 00 00 00 00 00 00 00 00 00  |................|
 9F98  00 00 00 00 00 00 00 00 00 00 00 00 00 00 00 00  |................|
 9FA8  00 00 00 00 00 00 00 00 00 00 00 00 00 00 00 00  |................|
 9FB8  00 00 00 00 00 00 00 00 00 00 00 00 00 00 00 00  |................|
 9FC8  00 00 00 00 00 00 00 00 00 00 00 00 00 00 00 00  |................|
 9FD8  00 00 00 00 00 00 00 00 00 00 00 00 00 00 00 00  |................|
 9FE8  00 00 00 00 00 00 00 00 00 00 00 00 00 00 00 00  |................|
 9FF8  00 00 00 00 00 00 00 00 00 00 00 00 00 00 00 00  |................|
 A008  00 00 00 00 00 00 00 00 00 00 00 00 00 00 00 00  |................|
 A018  00 00 00 00 00 00 00 00 00 00 00 00 00 00 00 00  |................|
 A028  00 00 00 00 00 00 00 00 00 00 00 00 00 00 00 00  |................|
 A038  00 00 00 00 00 00 00 00 00 00 00 00 00 00 00 00  |................|
 A048  00 00 00 00 00 00 00 00 00 00 00 00 00 00 00 00  |................|
 A058  00 00 00 00 00 00 00 00 00 00 00 00 00 00 00 00  |................|
 A068  00 00 00 00 00 00 00 00 00 00 00 00 00 00 00 00  |................|
 A078  00 00 00 00 00 00 00 00 00 00 00 00 00 00 00 00  |................|
 A088  00 00 00 00 00 00 00 00 00 00 00 00 00 00 00 00  |................|
 A098  00 00 00 00 00 00 00 00 00 00 00 00 00 00 00 00  |................|
 A0A8  00 00 00 00 00 00 00 00 00 00 00 00 00 00 00 00  |................|
 A0B8  00 00 00 00 00 00 00 00 00 00 00 00 00 00 00 00  |................|
 A0C8  00 00 00 00 00 00 00 00 00 00 00 00 00 00 00 00  |................|
 A0D8  00 00 00 00 00 00 00 00 00 00 00 00 00 00 00 00  |................|
 A0E8  00 00 00 00 00 00 00 00 00 00 00 00 00 00 00 00  |................|
 A0F8  00 00 00 00 00 00 00 00 00 00 00 00 00 00 00 00  |................|
 A108  00 00 00 00 00 00 00 00 00 00 00 00 00 00 00 00  |................|
 A118  00 00 00 00 00 00 00 00 00 00 00 00 00 00 00 00  |................|
 A128  00 00 00 00 00 00 00 00 00 00 00 00 00 00 00 00  |................|
 A138  00 00 00 00 00 00 00 00 00 00 00 00 00 00 00 00  |................|
 A148  00 00 00 00 00 00 00 00 00 00 00 00 00 00 00 00  |................|
 A158  00 00 00 00 00 00 00 00 00 00 00 00 00 00 00 00  |................|
 A168  00 00 00 00 00 00 00 00 00 00 00 00 00 00 00 00  |................|
 A178  00 00 00 00 00 00 00 00 00 00 00 00 00 00 00 00  |................|
 A188  00 00 00 00 00 00 00 00 00 00 00 00 00 00 00 00  |................|
 A198  00 00 00 00 00 00 00 00 00 00 00 00 00 00 00 00  |................|
 A1A8  00 00 00 00 00 00 00 00 00 00 00 00 00 00 00 00  |................|
 A1B8  00 00 00 00 00 00 00 00 00 00 00 00 00 00 00 00  |................|
 A1C8  00 00 00 00 00 00 00 00 00 00 00 00 00 00 00 00  |................|
 A1D8  00 00 00 00 00 00 00 00 00 00 00 00 00 00 00 00  |................|
 A1E8  00 00 00 00 00 00 00 00 00 00 00 00 00 00 00 00  |................|
 A1F8  00 00 00 00 00 00 00 00 00 00 00 00 00 00 00 00  |................|
 A208  00 00 00 00 00 00 00 00 00 00 00 00 00 00 00 00  |................|
 A218  00 00 00 00 00 00 00 00 00 00 00 00 00 00 00 00  |................|
 A228  00 00 00 00 00 00 00 00 00 00 00 00 00 00 00 00  |................|
 A238  00 00 00 00 00 00 00 00 00 00 00 00 00 00 00 00  |................|
 A248  00 00 00 00 00 00 00 00 00 00 00 00 00 00 00 00  |................|
 A258  00 00 00 00 00 00 00 00 00 00 00 00 00 00 00 00  |................|
 A268  00 00 00 00 00 00 00 00 00 00 00 00 00 00 00 00  |................|
 A278  00 00 00 00 00 00 00 00 00 00 00 00 00 00 00 00  |................|
 A288  00 00 00 00 00 00 00 00 00 00 00 00 00 00 00 00  |................|
 A298  00 00 00 00 00 00 00 00 00 00 00 00 00 00 00 00  |................|
 A2A8  00 00 00 00 00 00 00 00 00 00 00 00 00 00 00 00  |................|
 A2B8  00 00 00 00 00 00 00 00 00 00 00 00 00 00 00 00  |................|
 A2C8  00 00 00 00 00 00 00 00 00 00 00 00 00 00 00 00  |................|
 A2D8  00 00 00 00 00 00 00 00 00 00 00 00 00 00 00 00  |................|
 A2E8  00 00 00 00 00 00 00 00 00 00 00 00 00 00 00 00  |................|
 A2F8  00 00 00 00 00 00 00 00 00 00 00 00 00 00 00 00  |................|
 A308  00 00 00 00 00 00 00 00 00 00 00 00 00 00 00 00  |................|
 A318  00 00 00 00 00 00 00 00 00 00 00 00 00 00 00 00  |................|
 A328  00 00 00 00 00 00 00 00 00 00 00 00 00 00 00 00  |................|
 A338  00 00 00 00 00 00 00 00 00 00 00 00 00 00 00 00  |................|
 A348  00 00 00 00 00 00 00 00 00 00 00 00 00 00 00 00  |................|
 A358  00 00 00 00 00 00 00 00 00 00 00 00 00 00 00 00  |................|
 A368  00 00 00 00 00 00 00 00 00 00 00 00 00 00 00 00  |................|
 A378  00 00 00 00 00 00 00 00 00 00 00 00 00 00 00 00  |................|
 A388  00 00 00 00 00 00 00 00 00 00 00 00 00 00 00 00  |................|
 A398  00 00 00 00 00 00 00 00 00 00 00 00 00 00 00 00  |................|
 A3A8  00 00 00 00 00 00 00 00 00 00 00 00 00 00 00 00  |................|
 A3B8  00 00 00 00 00 00 00 00 00 00 00 00 00 00 00 00  |................|
 A3C8  00 00 00 00 00 00 00 00 00 00 00 00 00 00 00 00  |................|
 A3D8  00 00 00 00 00 00 00 00 00 00 00 00 00 00 00 00  |................|
 A3E8  00 00 00 00 00 00 00 00 00 00 00 00 00 00 00 00  |................|
 A3F8  00 00 00 00 00 00 00 00 00 00 00 00 00 00 00 00  |................|
 A408  00 00 00 00 00 00 00 00 00 00 00 00 00 00 00 00  |................|
 A418  00 00 00 00 00 00 00 00 00 00 00 00 00 00 00 00  |................|
 A428  00 00 00 00 00 00 00 00 00 00 00 00 00 00 00 00  |................|
 A438  00 00 00 00 00 00 00 00 00 00 00 00 00 00 00 00  |................|
 A448  00 00 00 00 00 00 00 00 00 00 00 00 00 00 00 00  |................|
 A458  00 00 00 00 00 00 00 00 00 00 00 00 00 00 00 00  |................|
 A468  00 00 00 00 00 00 00 00 00 00 00 00 00 00 00 00  |................|
 A478  00 00 00 00 00 00 00 00 00 00 00 00 00 00 00 00  |................|
 A488  00 00 00 00 00 00 00 00 00 00 00 00 00 00 00 00  |................|
 A498  00 00 00 00 00 00 00 00 00 00 00 00 00 00 00 00  |................|
 A4A8  00 00 00 00 00 00 00 00 00 00 00 00 00 00 00 00  |................|
 A4B8  00 00 00 00 00 00 00 00 00 00 00 00 00 00 00 00  |................|
 A4C8  00 00 00 00 00 00 00 00 00 00 00 00 00 00 00 00  |................|
 A4D8  00 00 00 00 00 00 00 00 00 00 00 00 00 00 00 00  |................|
 A4E8  00 00 00 00 00 00 00 00 00 00 00 00 00 00 00 00  |................|
 A4F8  00 00 00 00 00 00 00 00 00 00 00 00 00 00 00 00  |................|
 A508  00 00 00 00 00 00 00 00 00 00 00 00 00 00 00 00  |................|
 A518  00 00 00 00 00 00 00 00 00 00 00 00 00 00 00 00  |................|
 A528  00 00 00 00 00 00 00 00 00 00 00 00 00 00 00 00  |................|
 A538  00 00 00 00 00 00 00 00 00 00 00 00 00 00 00 00  |................|
 A548  00 00 00 00 00 00 00 00 00 00 00 00 00 00 00 00  |................|
 A558  00 00 00 00 00 00 00 00 00 00 00 00 00 00 00 00  |................|
 A568  00 00 00 00 00 00 00 00 00 00 00 00 00 00 00 00  |................|
 A578  00 00 00 00 00 00 00 00 00 00 00 00 00 00 00 00  |................|
 A588  00 00 00 00 00 00 00 00 00 00 00 00 00 00 00 00  |................|
 A598  00 00 00 00 00 00 00 00 00 00 00 00 00 00 00 00  |................|
 A5A8  00 00 00 00 00 00 00 00 00 00 00 00 00 00 00 00  |................|
 A5B8  00 00 00 00 00 00 00 00 00 00 00 00 00 00 00 00  |................|
 A5C8  00 00 00 00 00 00 00 00 00 00 00 00 00 00 00 00  |................|
 A5D8  00 00 00 00 00 00 00 00 00 00 00 00 00 00 00 00  |................|
 A5E8  00 00 00 00 00 00 00 00 00 00 00 00 00 00 00 00  |................|
 A5F8  00 00 00 00 00 00 00 00 00 00 00 00 00 00 00 00  |................|
 A608  00 00 00 00 00 00 00 00 00 00 00 00 00 00 00 00  |................|
 A618  00 00 00 00 00 00 00 00 00 00 00 00 00 00 00 00  |................|
 A628  00 00 00 00 00 00 00 00 00 00 00 00 00 00 00 00  |................|
 A638  00 00 00 00 00 00 00 00 00 00 00 00 00 00 00 00  |................|
 A648  00 00 00 00 00 00 00 00 00 00 00 00 00 00 00 00  |................|
 A658  00 00 00 00 00 00 00 00 00 00 00 00 00 00 00 00  |................|
 A668  00 00 00 00 00 00 00 00 00 00 00 00 00 00 00 00  |................|
 A678  00 00 00 00 00 00 00 00 00 00 00 00 00 00 00 00  |................|
 A688  00 00 00 00 00 00 00 00 00 00 00 00 00 00 00 00  |................|
 A698  00 00 00 00 00 00 00 00 00 00 00 00 00 00 00 00  |................|
 A6A8  00 00 00 00 00 00 00 00 00 00 00 00 00 00 00 00  |................|
 A6B8  00 00 00 00 00 00 00 00 00 00 00 00 00 00 00 00  |................|
 A6C8  00 00 00 00 00 00 00 00 00 00 00 00 00 00 00 00  |................|
 A6D8  00 00 00 00 00 00 00 00 00 00 00 00 00 00 00 00  |................|
 A6E8  00 00 00 00 00 00 00 00 00 00 00 00 00 00 00 00  |................|
 A6F8  00 00 00 00 00 00 00 00 00 00 00 00 00 00 00 00  |................|
 A708  00 00 00 00 00 00 00 00 00 00 00 00 00 00 00 00  |................|
 A718  00 00 00 00 00 00 00 00 00 00 00 00 00 00 00 00  |................|
 A728  00 00 00 00 00 00 00 00 00 00 00 00 00 00 00 00  |................|
 A738  00 00 00 00 00 00 00 00 00 00 00 00 00 00 00 00  |................|
 A748  00 00 00 00 00 00 00 00 00 00 00 00 00 00 00 00  |................|
 A758  00 00 00 00 00 00 00 00 00 00 00 00 00 00 00 00  |................|
 A768  00 00 00 00 00 00 00 00 00 00 00 00 00 00 00 00  |................|
 A778  00 00 00 00 00 00 00 00 00 00 00 00 00 00 00 00  |................|
 A788  00 00 00 00 00 00 00 00 00 00 00 00 00 00 00 00  |................|
 A798  00 00 00 00 00 00 00 00 00 00 00 00 00 00 00 00  |................|
 A7A8  00 00 00 00 00 00 00 00 00 00 00 00 00 00 00 00  |................|
 A7B8  00 00 00 00 00 00 00 00 00 00 00 00 00 00 00 00  |................|
 A7C8  00 00 00 00 00 00 00 00 00 00 00 00 00 00 00 00  |................|
 A7D8  00 00 00 00 00 00 00 00 00 00 00 00 00 00 00 00  |................|
 A7E8  00 00 00 00 00 00 00 00 00 00 00 00 00 00 00 00  |................|
 A7F8  00 00 00 00 00 00 00 00 00 00 00 00 00 00 00 00  |................|
 A808  00 00 00 00 00 00 00 00 00 00 00 00 00 00 00 00  |................|
 A818  00 00 00 00 00 00 00 00 00 00 00 00 00 00 00 00  |................|
 A828  00 00 00 00 00 00 00 00 00 00 00 00 00 00 00 00  |................|
 A838  00 00 00 00 00 00 00 00 00 00 00 00 00 00 00 00  |................|
 A848  00 00 00 00 00 00 00 00 00 00 00 00 00 00 00 00  |................|
 A858  00 00 00 00 00 00 00 00 00 00 00 00 00 00 00 00  |................|
 A868  00 00 00 00 00 00 00 00 00 00 00 00 00 00 00 00  |................|
 A878  00 00 00 00 00 00 00 00 00 00 00 00 00 00 00 00  |................|
 A888  00 00 00 00 00 00 00 00 00 00 00 00 00 00 00 00  |................|
 A898  00 00 00 00 00 00 00 00 00 00 00 00 00 00 00 00  |................|
 A8A8  00 00 00 00 00 00 00 00 00 00 00 00 00 00 00 00  |................|
 A8B8  00 00 00 00 00 00 00 00 00 00 00 00 00 00 00 00  |................|
 A8C8  00 00 00 00 00 00 00 00 00 00 00 00 00 00 00 00  |................|
 A8D8  00 00 00 00 00 00 00 00 00 00 00 00 00 00 00 00  |................|
 A8E8  00 00 00 00 00 00 00 00 00 00 00 00 00 00 00 00  |................|
 A8F8  00 00 00 00 00 00 00 00 00 00 00 00 00 00 00 00  |................|
 A908  00 00 00 00 00 00 00 00 00 00 00 00 00 00 00 00  |................|
 A918  00 00 00 00 00 00 00 00 00 00 00 00 00 00 00 00  |................|
 A928  00 00 00 00 00 00 00 00 00 00 00 00 00 00 00 00  |................|
 A938  00 00 00 00 00 00 00 00 00 00 00 00 00 00 00 00  |................|
 A948  00 00 00 00 00 00 00 00 00 00 00 00 00 00 00 00  |................|
 A958  00 00 00 00 00 00 00 00 00 00 00 00 00 00 00 00  |................|
 A968  00 00 00 00 00 00 00 00 00 00 00 00 00 00 00 00  |................|
 A978  00 00 00 00 00 00 00 00 00 00 00 00 00 00 00 00  |................|
 A988  00 00 00 00 00 00 00 00 00 00 00 00 00 00 00 00  |................|
 A998  00 00 00 00 00 00 00 00 00 00 00 00 00 00 00 00  |................|
 A9A8  00 00 00 00 00 00 00 00 00 00 00 00 00 00 00 00  |................|
 A9B8  00 00 00 00 00 00 00 00 00 00 00 00 00 00 00 00  |................|
 A9C8  00 00 00 00 00 00 00 00 00 00 00 00 00 00 00 00  |................|
 A9D8  00 00 00 00 00 00 00 00 00 00 00 00 00 00 00 00  |................|
 A9E8  00 00 00 00 00 00 00 00 00 00 00 00 00 00 00 00  |................|
 A9F8  00 00 00 00 00 00 00 00 00 00 00 00 00 00 00 00  |................|
 AA08  00 00 00 00 00 00 00 00 00 00 00 00 00 00 00 00  |................|
 AA18  00 00 00 00 00 00 00 00 00 00 00 00 00 00 00 00  |................|
 AA28  00 00 00 00 00 00 00 00 00 00 00 00 00 00 00 00  |................|
 AA38  00 00 00 00 00 00 00 00 00 00 00 00 00 00 00 00  |................|
 AA48  00 00 00 00 00 00 00 00 00 00 00 00 00 00 00 00  |................|
 AA58  00 00 00 00 00 00 00 00 00 00 00 00 00 00 00 00  |................|
 AA68  00 00 00 00 00 00 00 00 00 00 00 00 00 00 00 00  |................|
 AA78  00 00 00 00 00 00 00 00 00 00 00 00 00 00 00 00  |................|
 AA88  00 00 00 00 00 00 00 00 00 00 00 00 00 00 00 00  |................|
 AA98  00 00 00 00 00 00 00 00 00 00 00 00 00 00 00 00  |................|
 AAA8  00 00 00 00 00 00 00 00 00 00 00 00 00 00 00 00  |................|
 AAB8  00 00 00 00 00 00 00 00 00 00 00 00 00 00 00 00  |................|
 AAC8  00 00 00 00 00 00 00 00 00 00 00 00 00 00 00 00  |................|
 AAD8  00 00 00 00 00 00 00 00 00 00 00 00 00 00 00 00  |................|
 AAE8  00 00 00 00 00 00 00 00 00 00 00 00 00 00 00 00  |................|
 AAF8  00 00 00 00 00 00 00 00 00 00 00 00 00 00 00 00  |................|
 AB08  00 00 00 00 00 00 00 00 00 00 00 00 00 00 00 00  |................|
 AB18  00 00 00 00 00 00 00 00 00 00 00 00 00 00 00 00  |................|
 AB28  00 00 00 00 00 00 00 00 00 00 00 00 00 00 00 00  |................|
 AB38  00 00 00 00 00 00 00 00 00 00 00 00 00 00 00 00  |................|
 AB48  00 00 00 00 00 00 00 00 00 00 00 00 00 00 00 00  |................|
 AB58  00 00 00 00 00 00 00 00 00 00 00 00 00 00 00 00  |................|
 AB68  00 00 00 00 00 00 00 00 00 00 00 00 00 00 00 00  |................|
 AB78  00 00 00 00 00 00 00 00 00 00 00 00 00 00 00 00  |................|
 AB88  00 00 00 00 00 00 00 00 00 00 00 00 00 00 00 00  |................|
 AB98  00 00 00 00 00 00 00 00 00 00 00 00 00 00 00 00  |................|
 ABA8  00 00 00 00 00 00 00 00 00 00 00 00 00 00 00 00  |................|
 ABB8  00 00 00 00 00 00 00 00 00 00 00 00 00 00 00 00  |................|
 ABC8  00 00 00 00 00 00 00 00 00 00 00 00 00 00 00 00  |................|
 ABD8  00 00 00 00 00 00 00 00 00 00 00 00 00 00 00 00  |................|
 ABE8  00 00 00 00 00 00 00 00 00 00 00 00 00 00 00 00  |................|
 ABF8  00 00 00 00 00 00 00 00 00 00 00 00 00 00 00 00  |................|
 AC08  00 00 00 00 00 00 00 00 00 00 00 00 00 00 00 00  |................|
 AC18  00 00 00 00 00 00 00 00 00 00 00 00 00 00 00 00  |................|
 AC28  00 00 00 00 00 00 00 00 00 00 00 00 00 00 00 00  |................|
 AC38  00 00 00 00 00 00 00 00 00 00 00 00 00 00 00 00  |................|
 AC48  00 00 00 00 00 00 00 00 00 00 00 00 00 00 00 00  |................|
 AC58  00 00 00 00 00 00 00 00 00 00 00 00 00 00 00 00  |................|
 AC68  00 00 00 00 00 00 00 00 00 00 00 00 00 00 00 00  |................|
 AC78  00 00 00 00 00 00 00 00 00 00 00 00 00 00 00 00  |................|
 AC88  00 00 00 00 00 00 00 00 00 00 00 00 00 00 00 00  |................|
 AC98  00 00 00 00 00 00 00 00 00 00 00 00 00 00 00 00  |................|
 ACA8  00 00 00 00 00 00 00 00 00 00 00 00 00 00 00 00  |................|
 ACB8  00 00 00 00 00 00 00 00 00 00 00 00 00 00 00 00  |................|
 ACC8  00 00 00 00 00 00 00 00 00 00 00 00 00 00 00 00  |................|
 ACD8  00 00 00 00 00 00 00 00 00 00 00 00 00 00 00 00  |................|
 ACE8  00 00 00 00 00 00 00 00 00 00 00 00 00 00 00 00  |................|
 ACF8  00 00 00 00 00 00 00 00 00 00 00 00 00 00 00 00  |................|
 AD08  00 00 00 00 00 00 00 00 00 00 00 00 00 00 00 00  |................|
 AD18  00 00 00 00 00 00 00 00 00 00 00 00 00 00 00 00  |................|
 AD28  00 00 00 00 00 00 00 00 00 00 00 00 00 00 00 00  |................|
 AD38  00 00 00 00 00 00 00 00 00 00 00 00 00 00 00 00  |................|
 AD48  00 00 00 00 00 00 00 00 00 00 00 00 00 00 00 00  |................|
 AD58  00 00 00 00 00 00 00 00 00 00 00 00 00 00 00 00  |................|
 AD68  00 00 00 00 00 00 00 00 00 00 00 00 00 00 00 00  |................|
 AD78  00 00 00 00 00 00 00 00 00 00 00 00 00 00 00 00  |................|
 AD88  00 00 00 00 00 00 00 00 00 00 00 00 00 00 00 00  |................|
 AD98  00 00 00 00 00 00 00 00 00 00 00 00 00 00 00 00  |................|
 ADA8  00 00 00 00 00 00 00 00 00 00 00 00 00 00 00 00  |................|
 ADB8  00 00 00 00 00 00 00 00 00 00 00 00 00 00 00 00  |................|
 ADC8  00 00 00 00 00 00 00 00 00 00 00 00 00 00 00 00  |................|
 ADD8  00 00 00 00 00 00 00 00 00 00 00 00 00 00 00 00  |................|
 ADE8  00 00 00 00 00 00 00 00 00 00 00 00 00 00 00 00  |................|
 ADF8  00 00 00 00 00 00 00 00 00 00 00 00 00 00 00 00  |................|
 AE08  00 00 00 00 00 00 00 00 00 00 00 00 00 00 00 00  |................|
 AE18  00 00 00 00 00 00 00 00 00 00 00 00 00 00 00 00  |................|
 AE28  00 00 00 00 00 00 00 00 00 00 00 00 00 00 00 00  |................|
 AE38  00 00 00 00 00 00 00 00 00 00 00 00 00 00 00 00  |................|
 AE48  00 00 00 00 00 00 00 00 00 00 00 00 00 00 00 00  |................|
 AE58  00 00 00 00 00 00 00 00 00 00 00 00 00 00 00 00  |................|
 AE68  00 00 00 00 00 00 00 00 00 00 00 00 00 00 00 00  |................|
 AE78  00 00 00 00 00 00 00 00 00 00 00 00 00 00 00 00  |................|
 AE88  00 00 00 00 00 00 00 00 00 00 00 00 00 00 00 00  |................|
 AE98  00 00 00 00 00 00 00 00 00 00 00 00 00 00 00 00  |................|
 AEA8  00 00 00 00 00 00 00 00 00 00 00 00 00 00 00 00  |................|
 AEB8  00 00 00 00 00 00 00 00 00 00 00 00 00 00 00 00  |................|
 AEC8  00 00 00 00 00 00 00 00 00 00 00 00 00 00 00 00  |................|
 AED8  00 00 00 00 00 00 00 00 00 00 00 00 00 00 00 00  |................|
 AEE8  00 00 00 00 00 00 00 00 00 00 00 00 00 00 00 00  |................|
 AEF8  00 00 00 00 00 00 00 00 00 00 00 00 00 00 00 00  |................|
 AF08  00 00 00 00 00 00 00 00 00 00 00 00 00 00 00 00  |................|
 AF18  00 00 00 00 00 00 00 00 00 00 00 00 00 00 00 00  |................|
 AF28  00 00 00 00 00 00 00 00 00 00 00 00 00 00 00 00  |................|
 AF38  00 00 00 00 00 00 00 00 00 00 00 00 00 00 00 00  |................|
 AF48  00 00 00 00 00 00 00 00 00 00 00 00 00 00 00 00  |................|
 AF58  00 00 00 00 00 00 00 00 00 00 00 00 00 00 00 00  |................|
 AF68  00 00 00 00 00 00 00 00 00 00 00 00 00 00 00 00  |................|
 AF78  00 00 00 00 00 00 00 00 00 00 00 00 00 00 00 00  |................|
 AF88  00 00 00 00 00 00 00 00 00 00 00 00 00 00 00 00  |................|
 AF98  00 00 00 00 00 00 00 00 00 00 00 00 00 00 00 00  |................|
 AFA8  00 00 00 00 00 00 00 00 00 00 00 00 00 00 00 00  |................|
 AFB8  00 00 00 00 00 00 00 00 00 00 00 00 00 00 00 00  |................|
 AFC8  00 00 00 00 00 00 00 00 00 00 00 00 00 00 00 00  |................|
 AFD8  00 00 00 00 00 00 00 00 00 00 00 00 00 00 00 00  |................|
 AFE8  00 00 00 00 00 00 00 00 00 00 00 00 00 00 00 00  |................|
 AFF8  00 00 00 00 00 00 00 00 00 00 00 00 00 00 00 00  |................|
 B008  00 00 00 00 00 00 00 00 00 00 00 00 00 00 00 00  |................|
 B018  00 00 00 00 00 00 00 00 00 00 00 00 00 00 00 00  |................|
 B028  00 00 00 00 00 00 00 00 00 00 00 00 00 00 00 00  |................|
 B038  00 00 00 00 00 00 00 00 00 00 00 00 00 00 00 00  |................|
 B048  00 00 00 00 00 00 00 00 00 00 00 00 00 00 00 00  |................|
 B058  00 00 00 00 00 00 00 00 00 00 00 00 00 00 00 00  |................|
 B068  00 00 00 00 00 00 00 00 00 00 00 00 00 00 00 00  |................|
 B078  00 00 00 00 00 00 00 00 00 00 00 00 00 00 00 00  |................|
 B088  00 00 00 00 00 00 00 00 00 00 00 00 00 00 00 00  |................|
 B098  00 00 00 00 00 00 00 00 00 00 00 00 00 00 00 00  |................|
 B0A8  00 00 00 00 00 00 00 00 00 00 00 00 00 00 00 00  |................|
 B0B8  00 00 00 00 00 00 00 00 00 00 00 00 00 00 00 00  |................|
 B0C8  00 00 00 00 00 00 00 00 00 00 00 00 00 00 00 00  |................|
 B0D8  00 00 00 00 00 00 00 00 00 00 00 00 00 00 00 00  |................|
 B0E8  00 00 00 00 00 00 00 00 00 00 00 00 00 00 00 00  |................|
 B0F8  00 00 00 00 00 00 00 00 00 00 00 00 00 00 00 00  |................|
 B108  00 00 00 00 00 00 00 00 00 00 00 00 00 00 00 00  |................|
 B118  00 00 00 00 00 00 00 00 00 00 00 00 00 00 00 00  |................|
 B128  00 00 00 00 00 00 00 00 00 00 00 00 00 00 00 00  |................|
 B138  00 00 00 00 00 00 00 00 00 00 00 00 00 00 00 00  |................|
 B148  00 00 00 00 00 00 00 00 00 00 00 00 00 00 00 00  |................|
 B158  00 00 00 00 00 00 00 00 00 00 00 00 00 00 00 00  |................|
 B168  00 00 00 00 00 00 00 00 00 00 00 00 00 00 00 00  |................|
 B178  00 00 00 00 00 00 00 00 00 00 00 00 00 00 00 00  |................|
 B188  00 00 00 00 00 00 00 00 00 00 00 00 00 00 00 00  |................|
 B198  00 00 00 00 00 00 00 00 00 00 00 00 00 00 00 00  |................|
 B1A8  00 00 00 00 00 00 00 00 00 00 00 00 00 00 00 00  |................|
 B1B8  00 00 00 00 00 00 00 00 00 00 00 00 00 00 00 00  |................|
 B1C8  00 00 00 00 00 00 00 00 00 00 00 00 00 00 00 00  |................|
 B1D8  00 00 00 00 00 00 00 00 00 00 00 00 00 00 00 00  |................|
 B1E8  00 00 00 00 00 00 00 00 00 00 00 00 00 00 00 00  |................|
 B1F8  00 00 00 00 00 00 00 00 00 00 00 00 00 00 00 00  |................|
 B208  00 00 00 00 00 00 00 00 00 00 00 00 00 00 00 00  |................|
 B218  00 00 00 00 00 00 00 00 00 00 00 00 00 00 00 00  |................|
 B228  00 00 00 00 00 00 00 00 00 00 00 00 00 00 00 00  |................|
 B238  00 00 00 00 00 00 00 00 00 00 00 00 00 00 00 00  |................|
 B248  00 00 00 00 00 00 00 00 00 00 00 00 00 00 00 00  |................|
 B258  00 00 00 00 00 00 00 00 00 00 00 00 00 00 00 00  |................|
 B268  00 00 00 00 00 00 00 00 00 00 00 00 00 00 00 00  |................|
 B278  00 00 00 00 00 00 00 00 00 00 00 00 00 00 00 00  |................|
 B288  00 00 00 00 00 00 00 00 00 00 00 00 00 00 00 00  |................|
 B298  00 00 00 00 00 00 00 00 00 00 00 00 00 00 00 00  |................|
 B2A8  00 00 00 00 00 00 00 00 00 00 00 00 00 00 00 00  |................|
 B2B8  00 00 00 00 00 00 00 00 00 00 00 00 00 00 00 00  |................|
 B2C8  00 00 00 00 00 00 00 00 00 00 00 00 00 00 00 00  |................|
 B2D8  00 00 00 00 00 00 00 00 00 00 00 00 00 00 00 00  |................|
 B2E8  00 00 00 00 00 00 00 00 00 00 00 00 00 00 00 00  |................|
 B2F8  00 00 00 00 00 00 00 00 00 00 00 00 00 00 00 00  |................|
 B308  00 00 00 00 00 00 00 00 00 00 00 00 00 00 00 00  |................|
 B318  00 00 00 00 00 00 00 00 00 00 00 00 00 00 00 00  |................|
 B328  00 00 00 00 00 00 00 00 00 00 00 00 00 00 00 00  |................|
 B338  00 00 00 00 00 00 00 00 00 00 00 00 00 00 00 00  |................|
 B348  00 00 00 00 00 00 00 00 00 00 00 00 00 00 00 00  |................|
 B358  00 00 00 00 00 00 00 00 00 00 00 00 00 00 00 00  |................|
 B368  00 00 00 00 00 00 00 00 00 00 00 00 00 00 00 00  |................|
 B378  00 00 00 00 00 00 00 00 00 00 00 00 00 00 00 00  |................|
 B388  00 00 00 00 00 00 00 00 00 00 00 00 00 00 00 00  |................|
 B398  00 00 00 00 00 00 00 00 00 00 00 00 00 00 00 00  |................|
 B3A8  00 00 00 00 00 00 00 00 00 00 00 00 00 00 00 00  |................|
 B3B8  00 00 00 00 00 00 00 00 00 00 00 00 00 00 00 00  |................|
 B3C8  00 00 00 00 00 00 00 00 00 00 00 00 00 00 00 00  |................|
 B3D8  00 00 00 00 00 00 00 00 00 00 00 00 00 00 00 00  |................|
 B3E8  00 00 00 00 00 00 00 00 00 00 00 00 00 00 00 00  |................|
 B3F8  00 00 00 00 00 00 00 00 00 00 00 00 00 00 00 00  |................|
 B408  00 00 00 00 00 00 00 00 00 00 00 00 00 00 00 00  |................|
 B418  00 00 00 00 00 00 00 00 00 00 00 00 00 00 00 00  |................|
 B428  00 00 00 00 00 00 00 00 00 00 00 00 00 00 00 00  |................|
 B438  00 00 00 00 00 00 00 00 00 00 00 00 00 00 00 00  |................|
 B448  00 00 00 00 00 00 00 00 00 00 00 00 00 00 00 00  |................|
 B458  00 00 00 00 00 00 00 00 00 00 00 00 00 00 00 00  |................|
 B468  00 00 00 00 00 00 00 00 00 00 00 00 00 00 00 00  |................|
 B478  00 00 00 00 00 00 00 00 00 00 00 00 00 00 00 00  |................|
 B488  00 00 00 00 00 00 00 00 00 00 00 00 00 00 00 00  |................|
 B498  00 00 00 00 00 00 00 00 00 00 00 00 00 00 00 00  |................|
 B4A8  00 00 00 00 00 00 00 00 00 00 00 00 00 00 00 00  |................|
 B4B8  00 00 00 00 00 00 00 00 00 00 00 00 00 00 00 00  |................|
 B4C8  00 00 00 00 00 00 00 00 00 00 00 00 00 00 00 00  |................|
 B4D8  00 00 00 00 00 00 00 00 00 00 00 00 00 00 00 00  |................|
 B4E8  00 00 00 00 00 00 00 00 00 00 00 00 00 00 00 00  |................|
 B4F8  00 00 00 00 00 00 00 00 00 00 00 00 00 00 00 00  |................|
 B508  00 00 00 00 00 00 00 00 00 00 00 00 00 00 00 00  |................|
 B518  00 00 00 00 00 00 00 00 00 00 00 00 00 00 00 00  |................|
 B528  00 00 00 00 00 00 00 00 00 00 00 00 00 00 00 00  |................|
 B538  00 00 00 00 00 00 00 00 00 00 00 00 00 00 00 00  |................|
 B548  00 00 00 00 00 00 00 00 00 00 00 00 00 00 00 00  |................|
 B558  00 00 00 00 00 00 00 00 00 00 00 00 00 00 00 00  |................|
 B568  00 00 00 00 00 00 00 00 00 00 00 00 00 00 00 00  |................|
 B578  00 00 00 00 00 00 00 00 00 00 00 00 00 00 00 00  |................|
 B588  00 00 00 00 00 00 00 00 00 00 00 00 00 00 00 00  |................|
 B598  00 00 00 00 00 00 00 00 00 00 00 00 00 00 00 00  |................|
 B5A8  00 00 00 00 00 00 00 00 00 00 00 00 00 00 00 00  |................|
 B5B8  00 00 00 00 00 00 00 00 00 00 00 00 00 00 00 00  |................|
 B5C8  00 00 00 00 00 00 00 00 00 00 00 00 00 00 00 00  |................|
 B5D8  00 00 00 00 00 00 00 00 00 00 00 00 00 00 00 00  |................|
 B5E8  00 00 00 00 00 00 00 00 00 00 00 00 00 00 00 00  |................|
 B5F8  00 00 00 00 00 00 00 00 00 00 00 00 00 00 00 00  |................|
 B608  00 00 00 00 00 00 00 00 00 00 00 00 00 00 00 00  |................|
 B618  00 00 00 00 00 00 00 00 00 00 00 00 00 00 00 00  |................|
 B628  00 00 00 00 00 00 00 00 00 00 00 00 00 00 00 00  |................|
 B638  00 00 00 00 00 00 00 00 00 00 00 00 00 00 00 00  |................|
 B648  00 00 00 00 00 00 00 00 00 00 00 00 00 00 00 00  |................|
 B658  00 00 00 00 00 00 00 00 00 00 00 00 00 00 00 00  |................|
 B668  00 00 00 00 00 00 00 00 00 00 00 00 00 00 00 00  |................|
 B678  00 00 00 00 00 00 00 00 00 00 00 00 00 00 00 00  |................|
 B688  00 00 00 00 00 00 00 00 00 00 00 00 00 00 00 00  |................|
 B698  00 00 00 00 00 00 00 00 00 00 00 00 00 00 00 00  |................|
 B6A8  00 00 00 00 00 00 00 00 00 00 00 00 00 00 00 00  |................|
 B6B8  00 00 00 00 00 00 00 00 00 00 00 00 00 00 00 00  |................|
 B6C8  00 00 00 00 00 00 00 00 00 00 00 00 00 00 00 00  |................|
 B6D8  00 00 00 00 00 00 00 00 00 00 00 00 00 00 00 00  |................|
 B6E8  00 00 00 00 00 00 00 00 00 00 00 00 00 00 00 00  |................|
 B6F8  00 00 00 00 00 00 00 00 00 00 00 00 00 00 00 00  |................|
 B708  00 00 00 00 00 00 00 00 00 00 00 00 00 00 00 00  |................|
 B718  00 00 00 00 00 00 00 00 00 00 00 00 00 00 00 00  |................|
 B728  00 00 00 00 00 00 00 00 00 00 00 00 00 00 00 00  |................|
 B738  00 00 00 00 00 00 00 00 00 00 00 00 00 00 00 00  |................|
 B748  00 00 00 00 00 00 00 00 00 00 00 00 00 00 00 00  |................|
 B758  00 00 00 00 00 00 00 00 00 00 00 00 00 00 00 00  |................|
 B768  00 00 00 00 00 00 00 00 00 00 00 00 00 00 00 00  |................|
 B778  00 00 00 00 00 00 00 00 00 00 00 00 00 00 00 00  |................|
 B788  00 00 00 00 00 00 00 00 00 00 00 00 00 00 00 00  |................|
 B798  00 00 00 00 00 00 00 00 00 00 00 00 00 00 00 00  |................|
 B7A8  00 00 00 00 00 00 00 00 00 00 00 00 00 00 00 00  |................|
 B7B8  00 00 00 00 00 00 00 00 00 00 00 00 00 00 00 00  |................|
 B7C8  00 00 00 00 00 00 00 00 00 00 00 00 00 00 00 00  |................|
 B7D8  00 00 00 00 00 00 00 00 00 00 00 00 00 00 00 00  |................|
 B7E8  00 00 00 00 00 00 00 00 00 00 00 00 00 00 00 00  |................|
 B7F8  00 00 00 00 00 00 00 00 00 00 00 00 00 00 00 00  |................|
 B808  00 00 00 00 00 00 00 00 00 00 00 00 00 00 00 00  |................|
 B818  00 00 00 00 00 00 00 00 00 00 00 00 00 00 00 00  |................|
 B828  00 00 00 00 00 00 00 00 00 00 00 00 00 00 00 00  |................|
 B838  00 00 00 00 00 00 00 00 00 00 00 00 00 00 00 00  |................|
 B848  00 00 00 00 00 00 00 00 00 00 00 00 00 00 00 00  |................|
 B858  00 00 00 00 00 00 00 00 00 00 00 00 00 00 00 00  |................|
 B868  00 00 00 00 00 00 00 00 00 00 00 00 00 00 00 00  |................|
 B878  00 00 00 00 00 00 00 00 00 00 00 00 00 00 00 00  |................|
 B888  00 00 00 00 00 00 00 00 00 00 00 00 00 00 00 00  |................|
 B898  00 00 00 00 00 00 00 00 00 00 00 00 00 00 00 00  |................|
 B8A8  00 00 00 00 00 00 00 00 00 00 00 00 00 00 00 00  |................|
 B8B8  00 00 00 00 00 00 00 00 00 00 00 00 00 00 00 00  |................|
 B8C8  00 00 00 00 00 00 00 00 00 00 00 00 00 00 00 00  |................|
 B8D8  00 00 00 00 00 00 00 00 00 00 00 00 00 00 00 00  |................|
 B8E8  00 00 00 00 00 00 00 00 00 00 00 00 00 00 00 00  |................|
 B8F8  00 00 00 00 00 00 00 00 00 00 00 00 00 00 00 00  |................|
 B908  00 00 00 00 00 00 00 00 00 00 00 00 00 00 00 00  |................|
 B918  00 00 00 00 00 00 00 00 00 00 00 00 00 00 00 00  |................|
 B928  00 00 00 00 00 00 00 00 00 00 00 00 00 00 00 00  |................|
 B938  00 00 00 00 00 00 00 00 00 00 00 00 00 00 00 00  |................|
 B948  00 00 00 00 00 00 00 00 00 00 00 00 00 00 00 00  |................|
 B958  00 00 00 00 00 00 00 00 00 00 00 00 00 00 00 00  |................|
 B968  00 00 00 00 00 00 00 00 00 00 00 00 00 00 00 00  |................|
 B978  00 00 00 00 00 00 00 00 00 00 00 00 00 00 00 00  |................|
 B988  00 00 00 00 00 00 00 00 00 00 00 00 00 00 00 00  |................|
 B998  00 00 00 00 00 00 00 00 00 00 00 00 00 00 00 00  |................|
 B9A8  00 00 00 00 00 00 00 00 00 00 00 00 00 00 00 00  |................|
 B9B8  00 00 00 00 00 00 00 00 00 00 00 00 00 00 00 00  |................|
 B9C8  00 00 00 00 00 00 00 00 00 00 00 00 00 00 00 00  |................|
 B9D8  00 00 00 00 00 00 00 00 00 00 00 00 00 00 00 00  |................|
 B9E8  00 00 00 00 00 00 00 00 00 00 00 00 00 00 00 00  |................|
 B9F8  00 00 00 00 00 00 00 00 00 00 00 00 00 00 00 00  |................|
 BA08  00 00 00 00 00 00 00 00 00 00 00 00 00 00 00 00  |................|
 BA18  00 00 00 00 00 00 00 00 00 00 00 00 00 00 00 00  |................|
 BA28  00 00 00 00 00 00 00 00 00 00 00 00 00 00 00 00  |................|
 BA38  00 00 00 00 00 00 00 00 00 00 00 00 00 00 00 00  |................|
 BA48  00 00 00 00 00 00 00 00 00 00 00 00 00 00 00 00  |................|
 BA58  00 00 00 00 00 00 00 00 00 00 00 00 00 00 00 00  |................|
 BA68  00 00 00 00 00 00 00 00 00 00 00 00 00 00 00 00  |................|
 BA78  00 00 00 00 00 00 00 00 00 00 00 00 00 00 00 00  |................|
 BA88  00 00 00 00 00 00 00 00 00 00 00 00 00 00 00 00  |................|
 BA98  00 00 00 00 00 00 00 00 00 00 00 00 00 00 00 00  |................|
 BAA8  00 00 00 00 00 00 00 00 00 00 00 00 00 00 00 00  |................|
 BAB8  00 00 00 00 00 00 00 00 00 00 00 00 00 00 00 00  |................|
 BAC8  00 00 00 00 00 00 00 00 00 00 00 00 00 00 00 00  |................|
 BAD8  00 00 00 00 00 00 00 00 00 00 00 00 00 00 00 00  |................|
 BAE8  00 00 00 00 00 00 00 00 00 00 00 00 00 00 00 00  |................|
 BAF8  00 00 00 00 00 00 00 00 00 00 00 00 00 00 00 00  |................|
 BB08  00 00 00 00 00 00 00 00 00 00 00 00 00 00 00 00  |................|
 BB18  00 00 00 00 00 00 00 00 00 00 00 00 00 00 00 00  |................|
 BB28  00 00 00 00 00 00 00 00 00 00 00 00 00 00 00 00  |................|
 BB38  00 00 00 00 00 00 00 00 00 00 00 00 00 00 00 00  |................|
 BB48  00 00 00 00 00 00 00 00 00 00 00 00 00 00 00 00  |................|
 BB58  00 00 00 00 00 00 00 00 00 00 00 00 00 00 00 00  |................|
 BB68  00 00 00 00 00 00 00 00 00 00 00 00 00 00 00 00  |................|
 BB78  00 00 00 00 00 00 00 00 00 00 00 00 00 00 00 00  |................|
 BB88  00 00 00 00 00 00 00 00 00 00 00 00 00 00 00 00  |................|
 BB98  00 00 00 00 00 00 00 00 00 00 00 00 00 00 00 00  |................|
 BBA8  00 00 00 00 00 00 00 00 00 00 00 00 00 00 00 00  |................|
 BBB8  00 00 00 00 00 00 00 00 00 00 00 00 00 00 00 00  |................|
 BBC8  00 00 00 00 00 00 00 00 00 00 00 00 00 00 00 00  |................|
 BBD8  00 00 00 00 00 00 00 00 00 00 00 00 00 00 00 00  |................|
 BBE8  00 00 00 00 00 00 00 00 00 00 00 00 00 00 00 00  |................|
 BBF8  00 00 00 00 00 00 00 00 00 00 00 00 00 00 00 00  |................|
 BC08  00 00 00 00 00 00 00 00 00 00 00 00 00 00 00 00  |................|
 BC18  00 00 00 00 00 00 00 00 00 00 00 00 00 00 00 00  |................|
 BC28  00 00 00 00 00 00 00 00 00 00 00 00 00 00 00 00  |................|
 BC38  00 00 00 00 00 00 00 00 00 00 00 00 00 00 00 00  |................|
 BC48  00 00 00 00 00 00 00 00 00 00 00 00 00 00 00 00  |................|
 BC58  00 00 00 00 00 00 00 00 00 00 00 00 00 00 00 00  |................|
 BC68  00 00 00 00 00 00 00 00 00 00 00 00 00 00 00 00  |................|
 BC78  00 00 00 00 00 00 00 00 00 00 00 00 00 00 00 00  |................|
 BC88  00 00 00 00 00 00 00 00 00 00 00 00 00 00 00 00  |................|
 BC98  00 00 00 00 00 00 00 00 00 00 00 00 00 00 00 00  |................|
 BCA8  00 00 00 00 00 00 00 00 00 00 00 00 00 00 00 00  |................|
 BCB8  00 00 00 00 00 00 00 00 00 00 00 00 00 00 00 00  |................|
 BCC8  00 00 00 00 00 00 00 00 00 00 00 00 00 00 00 00  |................|
 BCD8  00 00 00 00 00 00 00 00 00 00 00 00 00 00 00 00  |................|
 BCE8  00 00 00 00 00 00 00 00 00 00 00 00 00 00 00 00  |................|
 BCF8  00 00 00 00 00 00 00 00 00 00 00 00 00 00 00 00  |................|
 BD08  00 00 00 00 00 00 00 00 00 00 00 00 00 00 00 00  |................|
 BD18  00 00 00 00 00 00 00 00 00 00 00 00 00 00 00 00  |................|
 BD28  00 00 00 00 00 00 00 00 00 00 00 00 00 00 00 00  |................|
 BD38  00 00 00 00 00 00 00 00 00 00 00 00 00 00 00 00  |................|
 BD48  00 00 00 00 00 00 00 00 00 00 00 00 00 00 00 00  |................|
 BD58  00 00 00 00 00 00 00 00 00 00 00 00 00 00 00 00  |................|
 BD68  00 00 00 00 00 00 00 00 00 00 00 00 00 00 00 00  |................|
 BD78  00 00 00 00 00 00 00 00 00 00 00 00 00 00 00 00  |................|
 BD88  00 00 00 00 00 00 00 00 00 00 00 00 00 00 00 00  |................|
 BD98  00 00 00 00 00 00 00 00 00 00 00 00 00 00 00 00  |................|
 BDA8  00 00 00 00 00 00 00 00 00 00 00 00 00 00 00 00  |................|
 BDB8  00 00 00 00 00 00 00 00 00 00 00 00 00 00 00 00  |................|
 BDC8  00 00 00 00 00 00 00 00 00 00 00 00 00 00 00 00  |................|
 BDD8  00 00 00 00 00 00 00 00 00 00 00 00 00 00 00 00  |................|
 BDE8  00 00 00 00 00 00 00 00 00 00 00 00 00 00 00 00  |................|
 BDF8  00 00 00 00 00 00 00 00 00 00 00 00 00 00 00 00  |................|
 BE08  00 00 00 00 00 00 00 00 00 00 00 00 00 00 00 00  |................|
 BE18  00 00 00 00 00 00 00 00 00 00 00 00 00 00 00 00  |................|
 BE28  00 00 00 00 00 00 00 00 00 00 00 00 00 00 00 00  |................|
 BE38  00 00 00 00 00 00 00 00 00 00 00 00 00 00 00 00  |................|
 BE48  00 00 00 00 00 00 00 00 00 00 00 00 00 00 00 00  |................|
 BE58  00 00 00 00 00 00 00 00 00 00 00 00 00 00 00 00  |................|
 BE68  00 00 00 00 00 00 00 00 00 00 00 00 00 00 00 00  |................|
 BE78  00 00 00 00 00 00 00 00 00 00 00 00 00 00 00 00  |................|
 BE88  00 00 00 00 00 00 00 00 00 00 00 00 00 00 00 00  |................|
 BE98  00 00 00 00 00 00 00 00 00 00 00 00 00 00 00 00  |................|
 BEA8  00 00 00 00 00 00 00 00 00 00 00 00 00 00 00 00  |................|
 BEB8  00 00 00 00 00 00 00 00 00 00 00 00 00 00 00 00  |................|
 BEC8  00 00 00 00 00 00 00 00 00 00 00 00 00 00 00 00  |................|
 BED8  00 00 00 00 00 00 00 00 00 00 00 00 00 00 00 00  |................|
 BEE8  00 00 00 00 00 00 00 00 00 00 00 00 00 00 00 00  |................|
 BEF8  00 00 00 00 00 00 00 00 00 00 00 00 00 00 00 00  |................|
 BF08  00 00 00 00 00 00 00 00 00 00 00 00 00 00 00 00  |................|
 BF18  00 00 00 00 00 00 00 00 00 00 00 00 00 00 00 00  |................|
 BF28  00 00 00 00 00 00 00 00 00 00 00 00 00 00 00 00  |................|
 BF38  00 00 00 00 00 00 00 00 00 00 00 00 00 00 00 00  |................|
 BF48  00 00 00 00 00 00 00 00 00 00 00 00 00 00 00 00  |................|
 BF58  00 00 00 00 00 00 00 00 00 00 00 00 00 00 00 00  |................|
 BF68  00 00 00 00 00 00 00 00 00 00 00 00 00 00 00 00  |................|
 BF78  00 00 00 00 00 00 00 00 00 00 00 00 00 00 00 00  |................|
 BF88  00 00 00 00 00 00 00 00 00 00 00 00 00 00 00 00  |................|
 BF98  00 00 00 00 00 00 00 00 00 00 00 00 00 00 00 00  |................|
 BFA8  00 00 00 00 00 00 00 00 00 00 00 00 00 00 00 00  |................|
 BFB8  00 00 00 00 00 00 00 00 00 00 00 00 00 00 00 00  |................|
 BFC8  00 00 00 00 00 00 00 00 00 00 00 00 00 00 00 00  |................|
 BFD8  00 00 00 00 00 00 00 00 00 00 00 00 00 00 00 00  |................|
 BFE8  00 00 00 00 00 00 00 00 00 00 00 00 00 00 00 00  |................|
 BFF8  00 00 00 00 00 00 00 00 00 00 00 00 00 00 00 00  |................|
 C008  00 00 00 00 00 00 00 00 00 00 00 00 00 00 00 00  |................|
 C018  00 00 00 00 00 00 00 00 00 00 00 00 00 00 00 00  |................|
 C028  00 00 00 00 00 00 00 00 00 00 00 00 00 00 00 00  |................|
 C038  00 00 00 00 00 00 00 00 00 00 00 00 00 00 00 00  |................|
 C048  00 00 00 00 00 00 00 00 00 00 00 00 00 00 00 00  |................|
 C058  00 00 00 00 00 00 00 00 00 00 00 00 00 00 00 00  |................|
 C068  00 00 00 00 00 00 00 00 00 00 00 00 00 00 00 00  |................|
 C078  00 00 00 00 00 00 00 00 00 00 00 00 00 00 00 00  |................|
 C088  00 00 00 00 00 00 00 00 00 00 00 00 00 00 00 00  |................|
 C098  00 00 00 00 00 00 00 00 00 00 00 00 00 00 00 00  |................|
 C0A8  00 00 00 00 00 00 00 00 00 00 00 00 00 00 00 00  |................|
 C0B8  00 00 00 00 00 00 00 00 00 00 00 00 00 00 00 00  |................|
 C0C8  00 00 00 00 00 00 00 00 00 00 00 00 00 00 00 00  |................|
 C0D8  00 00 00 00 00 00 00 00 00 00 00 00 00 00 00 00  |................|
 C0E8  00 00 00 00 00 00 00 00 00 00 00 00 00 00 00 00  |................|
 C0F8  00 00 00 00 00 00 00 00 00 00 00 00 00 00 00 00  |................|
 C108  00 00 00 00 00 00 00 00 00 00 00 00 00 00 00 00  |................|
 C118  00 00 00 00 00 00 00 00 00 00 00 00 00 00 00 00  |................|
 C128  00 00 00 00 00 00 00 00 00 00 00 00 00 00 00 00  |................|
 C138  00 00 00 00 00 00 00 00 00 00 00 00 00 00 00 00  |................|
 C148  00 00 00 00 00 00 00 00 00 00 00 00 00 00 00 00  |................|
 C158  00 00 00 00 00 00 00 00 00 00 00 00 00 00 00 00  |................|
 C168  00 00 00 00 00 00 00 00 00 00 00 00 00 00 00 00  |................|
 C178  00 00 00 00 00 00 00 00 00 00 00 00 00 00 00 00  |................|
 C188  00 00 00 00 00 00 00 00 00 00 00 00 00 00 00 00  |................|
 C198  00 00 00 00 00 00 00 00 00 00 00 00 00 00 00 00  |................|
 C1A8  00 00 00 00 00 00 00 00 00 00 00 00 00 00 00 00  |................|
 C1B8  00 00 00 00 00 00 00 00 00 00 00 00 00 00 00 00  |................|
 C1C8  00 00 00 00 00 00 00 00 00 00 00 00 00 00 00 00  |................|
 C1D8  00 00 00 00 00 00 00 00 00 00 00 00 00 00 00 00  |................|
 C1E8  00 00 00 00 00 00 00 00 00 00 00 00 00 00 00 00  |................|
 C1F8  00 00 00 00 00 00 00 00 00 00 00 00 00 00 00 00  |................|
 C208  00 00 00 00 00 00 00 00 00 00 00 00 00 00 00 00  |................|
 C218  00 00 00 00 00 00 00 00 00 00 00 00 00 00 00 00  |................|
 C228  00 00 00 00 00 00 00 00 00 00 00 00 00 00 00 00  |................|
 C238  00 00 00 00 00 00 00 00 00 00 00 00 00 00 00 00  |................|
 C248  00 00 00 00 00 00 00 00 00 00 00 00 00 00 00 00  |................|
 C258  00 00 00 00 00 00 00 00 00 00 00 00 00 00 00 00  |................|
 C268  00 00 00 00 00 00 00 00 00 00 00 00 00 00 00 00  |................|
 C278  00 00 00 00 00 00 00 00 00 00 00 00 00 00 00 00  |................|
 C288  00 00 00 00 00 00 00 00 00 00 00 00 00 00 00 00  |................|
 C298  00 00 00 00 00 00 00 00 00 00 00 00 00 00 00 00  |................|
 C2A8  00 00 00 00 00 00 00 00 00 00 00 00 00 00 00 00  |................|
 C2B8  00 00 00 00 00 00 00 00 00 00 00 00 00 00 00 00  |................|
 C2C8  00 00 00 00 00 00 00 00 00 00 00 00 00 00 00 00  |................|
 C2D8  00 00 00 00 00 00 00 00 00 00 00 00 00 00 00 00  |................|
 C2E8  00 00 00 00 00 00 00 00 00 00 00 00 00 00 00 00  |................|
 C2F8  00 00 00 00 00 00 00 00 00 00 00 00 00 00 00 00  |................|
 C308  00 00 00 00 00 00 00 00 00 00 00 00 00 00 00 00  |................|
 C318  00 00 00 00 00 00 00 00 00 00 00 00 00 00 00 00  |................|
 C328  00 00 00 00 00 00 00 00 00 00 00 00 00 00 00 00  |................|
 C338  00 00 00 00 00 00 00 00 00 00 00 00 00 00 00 00  |................|
 C348  00 00 00 00 00 00 00 00 00 00 00 00 00 00 00 00  |................|
 C358  00 00 00 00 00 00 00 00 00 00 00 00 00 00 00 00  |................|
 C368  00 00 00 00 00 00 00 00 00 00 00 00 00 00 00 00  |................|
 C378  00 00 00 00 00 00 00 00 00 00 00 00 00 00 00 00  |................|
 C388  00 00 00 00 00 00 00 00 00 00 00 00 00 00 00 00  |................|
 C398  00 00 00 00 00 00 00 00 00 00 00 00 00 00 00 00  |................|
 C3A8  00 00 00 00 00 00 00 00 00 00 00 00 00 00 00 00  |................|
 C3B8  00 00 00 00 00 00 00 00 00 00 00 00 00 00 00 00  |................|
 C3C8  00 00 00 00 00 00 00 00 00 00 00 00 00 00 00 00  |................|
 C3D8  00 00 00 00 00 00 00 00 00 00 00 00 00 00 00 00  |................|
 C3E8  00 00 00 00 00 00 00 00 00 00 00 00 00 00 00 00  |................|
 C3F8  00 00 00 00 00 00 00 00 00 00 00 00 00 00 00 00  |................|
 C408  00 00 00 00 00 00 00 00 00 00 00 00 00 00 00 00  |................|
 C418  00 00 00 00 00 00 00 00 00 00 00 00 00 00 00 00  |................|
 C428  00 00 00 00 00 00 00 00 00 00 00 00 00 00 00 00  |................|
 C438  00 00 00 00 00 00 00 00 00 00 00 00 00 00 00 00  |................|
 C448  00 00 00 00 00 00 00 00 00 00 00 00 00 00 00 00  |................|
 C458  00 00 00 00 00 00 00 00 00 00 00 00 00 00 00 00  |................|
 C468  00 00 00 00 00 00 00 00 00 00 00 00 00 00 00 00  |................|
 C478  00 00 00 00 00 00 00 00 00 00 00 00 00 00 00 00  |................|
 C488  00 00 00 00 00 00 00 00 00 00 00 00 00 00 00 00  |................|
 C498  00 00 00 00 00 00 00 00 00 00 00 00 00 00 00 00  |................|
 C4A8  00 00 00 00 00 00 00 00 00 00 00 00 00 00 00 00  |................|
 C4B8  00 00 00 00 00 00 00 00 00 00 00 00 00 00 00 00  |................|
 C4C8  00 00 00 00 00 00 00 00 00 00 00 00 00 00 00 00  |................|
 C4D8  00 00 00 00 00 00 00 00 00 00 00 00 00 00 00 00  |................|
 C4E8  00 00 00 00 00 00 00 00 00 00 00 00 00 00 00 00  |................|
 C4F8  00 00 00 00 00 00 00 00 00 00 00 00 00 00 00 00  |................|
 C508  00 00 00 00 00 00 00 00 00 00 00 00 00 00 00 00  |................|
 C518  00 00 00 00 00 00 00 00 00 00 00 00 00 00 00 00  |................|
 C528  00 00 00 00 00 00 00 00 00 00 00 00 00 00 00 00  |................|
 C538  00 00 00 00 00 00 00 00 00 00 00 00 00 00 00 00  |................|
 C548  00 00 00 00 00 00 00 00 00 00 00 00 00 00 00 00  |................|
 C558  00 00 00 00 00 00 00 00 00 00 00 00 00 00 00 00  |................|
 C568  00 00 00 00 00 00 00 00 00 00 00 00 00 00 00 00  |................|
 C578  00 00 00 00 00 00 00 00 00 00 00 00 00 00 00 00  |................|
 C588  00 00 00 00 00 00 00 00 00 00 00 00 00 00 00 00  |................|
 C598  00 00 00 00 00 00 00 00 00 00 00 00 00 00 00 00  |................|
 C5A8  00 00 00 00 00 00 00 00 00 00 00 00 00 00 00 00  |................|
 C5B8  00 00 00 00 00 00 00 00 00 00 00 00 00 00 00 00  |................|
 C5C8  00 00 00 00 00 00 00 00 00 00 00 00 00 00 00 00  |................|
 C5D8  00 00 00 00 00 00 00 00 00 00 00 00 00 00 00 00  |................|
 C5E8  00 00 00 00 00 00 00 00 00 00 00 00 00 00 00 00  |................|
 C5F8  00 00 00 00 00 00 00 00 00 00 00 00 00 00 00 00  |................|
 C608  00 00 00 00 00 00 00 00 00 00 00 00 00 00 00 00  |................|
 C618  00 00 00 00 00 00 00 00 00 00 00 00 00 00 00 00  |................|
 C628  00 00 00 00 00 00 00 00 00 00 00 00 00 00 00 00  |................|
 C638  00 00 00 00 00 00 00 00 00 00 00 00 00 00 00 00  |................|
 C648  00 00 00 00 00 00 00 00 00 00 00 00 00 00 00 00  |................|
 C658  00 00 00 00 00 00 00 00 00 00 00 00 00 00 00 00  |................|
 C668  00 00 00 00 00 00 00 00 00 00 00 00 00 00 00 00  |................|
 C678  00 00 00 00 00 00 00 00 00 00 00 00 00 00 00 00  |................|
 C688  00 00 00 00 00 00 00 00 00 00 00 00 00 00 00 00  |................|
 C698  00 00 00 00 00 00 00 00 00 00 00 00 00 00 00 00  |................|
 C6A8  00 00 00 00 00 00 00 00 00 00 00 00 00 00 00 00  |................|
 C6B8  00 00 00 00 00 00 00 00 00 00 00 00 00 00 00 00  |................|
 C6C8  00 00 00 00 00 00 00 00 00 00 00 00 00 00 00 00  |................|
 C6D8  00 00 00 00 00 00 00 00 00 00 00 00 00 00 00 00  |................|
 C6E8  00 00 00 00 00 00 00 00 00 00 00 00 00 00 00 00  |................|
 C6F8  00 00 00 00 00 00 00 00 00 00 00 00 00 00 00 00  |................|
 C708  00 00 00 00 00 00 00 00 00 00 00 00 00 00 00 00  |................|
 C718  00 00 00 00 00 00 00 00 00 00 00 00 00 00 00 00  |................|
 C728  00 00 00 00 00 00 00 00 00 00 00 00 00 00 00 00  |................|
 C738  00 00 00 00 00 00 00 00 00 00 00 00 00 00 00 00  |................|
 C748  00 00 00 00 00 00 00 00 00 00 00 00 00 00 00 00  |................|
 C758  00 00 00 00 00 00 00 00 00 00 00 00 00 00 00 00  |................|
 C768  00 00 00 00 00 00 00 00 00 00 00 00 00 00 00 00  |................|
 C778  00 00 00 00 00 00 00 00 00 00 00 00 00 00 00 00  |................|
 C788  00 00 00 00 00 00 00 00 00 00 00 00 00 00 00 00  |................|
 C798  00 00 00 00 00 00 00 00 00 00 00 00 00 00 00 00  |................|
 C7A8  00 00 00 00 00 00 00 00 00 00 00 00 00 00 00 00  |................|
 C7B8  00 00 00 00 00 00 00 00 00 00 00 00 00 00 00 00  |................|
 C7C8  00 00 00 00 00 00 00 00 00 00 00 00 00 00 00 00  |................|
 C7D8  00 00 00 00 00 00 00 00 00 00 00 00 00 00 00 00  |................|
 C7E8  00 00 00 00 00 00 00 00 00 00 00 00 00 00 00 00  |................|
 C7F8  00 00 00 00 00 00 00 00 00 00 00 00 00 00 00 00  |................|
 C808  00 00 00 00 00 00 00 00 00 00 00 00 00 00 00 00  |................|
 C818  00 00 00 00 00 00 00 00 00 00 00 00 00 00 00 00  |................|
 C828  00 00 00 00 00 00 00 00 00 00 00 00 00 00 00 00  |................|
 C838  00 00 00 00 00 00 00 00 00 00 00 00 00 00 00 00  |................|
 C848  00 00 00 00 00 00 00 00 00 00 00 00 00 00 00 00  |................|
 C858  00 00 00 00 00 00 00 00 00 00 00 00 00 00 00 00  |................|
 C868  00 00 00 00 00 00 00 00 00 00 00 00 00 00 00 00  |................|
 C878  00 00 00 00 00 00 00 00 00 00 00 00 00 00 00 00  |................|
 C888  00 00 00 00 00 00 00 00 00 00 00 00 00 00 00 00  |................|
 C898  00 00 00 00 00 00 00 00 00 00 00 00 00 00 00 00  |................|
 C8A8  00 00 00 00 00 00 00 00 00 00 00 00 00 00 00 00  |................|
 C8B8  00 00 00 00 00 00 00 00 00 00 00 00 00 00 00 00  |................|
 C8C8  00 00 00 00 00 00 00 00 00 00 00 00 00 00 00 00  |................|
 C8D8  00 00 00 00 00 00 00 00 00 00 00 00 00 00 00 00  |................|
 C8E8  00 00 00 00 00 00 00 00 00 00 00 00 00 00 00 00  |................|
 C8F8  00 00 00 00 00 00 00 00 00 00 00 00 00 00 00 00  |................|
 C908  00 00 00 00 00 00 00 00 00 00 00 00 00 00 00 00  |................|
 C918  00 00 00 00 00 00 00 00 00 00 00 00 00 00 00 00  |................|
 C928  00 00 00 00 00 00 00 00 00 00 00 00 00 00 00 00  |................|
 C938  00 00 00 00 00 00 00 00 00 00 00 00 00 00 00 00  |................|
 C948  00 00 00 00 00 00 00 00 00 00 00 00 00 00 00 00  |................|
 C958  00 00 00 00 00 00 00 00 00 00 00 00 00 00 00 00  |................|
 C968  00 00 00 00 00 00 00 00 00 00 00 00 00 00 00 00  |................|
 C978  00 00 00 00 00 00 00 00 00 00 00 00 00 00 00 00  |................|
 C988  00 00 00 00 00 00 00 00 00 00 00 00 00 00 00 00  |................|
 C998  00 00 00 00 00 00 00 00 00 00 00 00 00 00 00 00  |................|
 C9A8  00 00 00 00 00 00 00 00 00 00 00 00 00 00 00 00  |................|
 C9B8  00 00 00 00 00 00 00 00 00 00 00 00 00 00 00 00  |................|
 C9C8  00 00 00 00 00 00 00 00 00 00 00 00 00 00 00 00  |................|
 C9D8  00 00 00 00 00 00 00 00 00 00 00 00 00 00 00 00  |................|
 C9E8  00 00 00 00 00 00 00 00 00 00 00 00 00 00 00 00  |................|
 C9F8  00 00 00 00 00 00 00 00 00 00 00 00 00 00 00 00  |................|
 CA08  00 00 00 00 00 00 00 00 00 00 00 00 00 00 00 00  |................|
 CA18  00 00 00 00 00 00 00 00 00 00 00 00 00 00 00 00  |................|
 CA28  00 00 00 00 00 00 00 00 00 00 00 00 00 00 00 00  |................|
 CA38  00 00 00 00 00 00 00 00 00 00 00 00 00 00 00 00  |................|
 CA48  00 00 00 00 00 00 00 00 00 00 00 00 00 00 00 00  |................|
 CA58  00 00 00 00 00 00 00 00 00 00 00 00 00 00 00 00  |................|
 CA68  00 00 00 00 00 00 00 00 00 00 00 00 00 00 00 00  |................|
 CA78  00 00 00 00 00 00 00 00 00 00 00 00 00 00 00 00  |................|
 CA88  00 00 00 00 00 00 00 00 00 00 00 00 00 00 00 00  |................|
 CA98  00 00 00 00 00 00 00 00 00 00 00 00 00 00 00 00  |................|
 CAA8  00 00 00 00 00 00 00 00 00 00 00 00 00 00 00 00  |................|
 CAB8  00 00 00 00 00 00 00 00 00 00 00 00 00 00 00 00  |................|
 CAC8  00 00 00 00 00 00 00 00 00 00 00 00 00 00 00 00  |................|
 CAD8  00 00 00 00 00 00 00 00 00 00 00 00 00 00 00 00  |................|
 CAE8  00 00 00 00 00 00 00 00 00 00 00 00 00 00 00 00  |................|
 CAF8  00 00 00 00 00 00 00 00 00 00 00 00 00 00 00 00  |................|
 CB08  00 00 00 00 00 00 00 00 00 00 00 00 00 00 00 00  |................|
 CB18  00 00 00 00 00 00 00 00 00 00 00 00 00 00 00 00  |................|
 CB28  00 00 00 00 00 00 00 00 00 00 00 00 00 00 00 00  |................|
 CB38  00 00 00 00 00 00 00 00 00 00 00 00 00 00 00 00  |................|
 CB48  00 00 00 00 00 00 00 00 00 00 00 00 00 00 00 00  |................|
 CB58  00 00 00 00 00 00 00 00 00 00 00 00 00 00 00 00  |................|
 CB68  00 00 00 00 00 00 00 00 00 00 00 00 00 00 00 00  |................|
 CB78  00 00 00 00 00 00 00 00 00 00 00 00 00 00 00 00  |................|
 CB88  00 00 00 00 00 00 00 00 00 00 00 00 00 00 00 00  |................|
 CB98  00 00 00 00 00 00 00 00 00 00 00 00 00 00 00 00  |................|
 CBA8  00 00 00 00 00 00 00 00 00 00 00 00 00 00 00 00  |................|
 CBB8  00 00 00 00 00 00 00 00 00 00 00 00 00 00 00 00  |................|
 CBC8  00 00 00 00 00 00 00 00 00 00 00 00 00 00 00 00  |................|
 CBD8  00 00 00 00 00 00 00 00 00 00 00 00 00 00 00 00  |................|
 CBE8  00 00 00 00 00 00 00 00 00 00 00 00 00 00 00 00  |................|
 CBF8  00 00 00 00 00 00 00 00 00 00 00 00 00 00 00 00  |................|
 CC08  00 00 00 00 00 00 00 00 00 00 00 00 00 00 00 00  |................|
 CC18  00 00 00 00 00 00 00 00 00 00 00 00 00 00 00 00  |................|
 CC28  00 00 00 00 00 00 00 00 00 00 00 00 00 00 00 00  |................|
 CC38  00 00 00 00 00 00 00 00 00 00 00 00 00 00 00 00  |................|
 CC48  00 00 00 00 00 00 00 00 00 00 00 00 00 00 00 00  |................|
 CC58  00 00 00 00 00 00 00 00 00 00 00 00 00 00 00 00  |................|
 CC68  00 00 00 00 00 00 00 00 00 00 00 00 00 00 00 00  |................|
 CC78  00 00 00 00 00 00 00 00 00 00 00 00 00 00 00 00  |................|
 CC88  00 00 00 00 00 00 00 00 00 00 00 00 00 00 00 00  |................|
 CC98  00 00 00 00 00 00 00 00 00 00 00 00 00 00 00 00  |................|
 CCA8  00 00 00 00 00 00 00 00 00 00 00 00 00 00 00 00  |................|
 CCB8  00 00 00 00 00 00 00 00 00 00 00 00 00 00 00 00  |................|
 CCC8  00 00 00 00 00 00 00 00 00 00 00 00 00 00 00 00  |................|
 CCD8  00 00 00 00 00 00 00 00 00 00 00 00 00 00 00 00  |................|
 CCE8  00 00 00 00 00 00 00 00 00 00 00 00 00 00 00 00  |................|
 CCF8  00 00 00 00 00 00 00 00 00 00 00 00 00 00 00 00  |................|
 CD08  00 00 00 00 00 00 00 00 00 00 00 00 00 00 00 00  |................|
 CD18  00 00 00 00 00 00 00 00 00 00 00 00 00 00 00 00  |................|
 CD28  00 00 00 00 00 00 00 00 00 00 00 00 00 00 00 00  |................|
 CD38  00 00 00 00 00 00 00 00 00 00 00 00 00 00 00 00  |................|
 CD48  00 00 00 00 00 00 00 00 00 00 00 00 00 00 00 00  |................|
 CD58  00 00 00 00 00 00 00 00 00 00 00 00 00 00 00 00  |................|
 CD68  00 00 00 00 00 00 00 00 00 00 00 00 00 00 00 00  |................|
 CD78  00 00 00 00 00 00 00 00 00 00 00 00 00 00 00 00  |................|
 CD88  00 00 00 00 00 00 00 00 00 00 00 00 00 00 00 00  |................|
 CD98  00 00 00 00 00 00 00 00 00 00 00 00 00 00 00 00  |................|
 CDA8  00 00 00 00 00 00 00 00 00 00 00 00 00 00 00 00  |................|
 CDB8  00 00 00 00 00 00 00 00 00 00 00 00 00 00 00 00  |................|
 CDC8  00 00 00 00 00 00 00 00 00 00 00 00 00 00 00 00  |................|
 CDD8  00 00 00 00 00 00 00 00 00 00 00 00 00 00 00 00  |................|
 CDE8  00 00 00 00 00 00 00 00 00 00 00 00 00 00 00 00  |................|
 CDF8  00 00 00 00 00 00 00 00 00 00 00 00 00 00 00 00  |................|
 CE08  00 00 00 00 00 00 00 00 00 00 00 00 00 00 00 00  |................|
 CE18  00 00 00 00 00 00 00 00 00 00 00 00 00 00 00 00  |................|
 CE28  00 00 00 00 00 00 00 00 00 00 00 00 00 00 00 00  |................|
 CE38  00 00 00 00 00 00 00 00 00 00 00 00 00 00 00 00  |................|
 CE48  00 00 00 00 00 00 00 00 00 00 00 00 00 00 00 00  |................|
 CE58  00 00 00 00 00 00 00 00 00 00 00 00 00 00 00 00  |................|
 CE68  00 00 00 00 00 00 00 00 00 00 00 00 00 00 00 00  |................|
 CE78  00 00 00 00 00 00 00 00 00 00 00 00 00 00 00 00  |................|
 CE88  00 00 00 00 00 00 00 00 00 00 00 00 00 00 00 00  |................|
 CE98  00 00 00 00 00 00 00 00 00 00 00 00 00 00 00 00  |................|
 CEA8  00 00 00 00 00 00 00 00 00 00 00 00 00 00 00 00  |................|
 CEB8  00 00 00 00 00 00 00 00 00 00 00 00 00 00 00 00  |................|
 CEC8  00 00 00 00 00 00 00 00 00 00 00 00 00 00 00 00  |................|
 CED8  00 00 00 00 00 00 00 00 00 00 00 00 00 00 00 00  |................|
 CEE8  00 00 00 00 00 00 00 00 00 00 00 00 00 00 00 00  |................|
 CEF8  00 00 00 00 00 00 00 00 00 00 00 00 00 00 00 00  |................|
 CF08  00 00 00 00 00 00 00 00 00 00 00 00 00 00 00 00  |................|
 CF18  00 00 00 00 00 00 00 00 00 00 00 00 00 00 00 00  |................|
 CF28  00 00 00 00 00 00 00 00 00 00 00 00 00 00 00 00  |................|
 CF38  00 00 00 00 00 00 00 00 00 00 00 00 00 00 00 00  |................|
 CF48  00 00 00 00 00 00 00 00 00 00 00 00 00 00 00 00  |................|
 CF58  00 00 00 00 00 00 00 00 00 00 00 00 00 00 00 00  |................|
 CF68  00 00 00 00 00 00 00 00 00 00 00 00 00 00 00 00  |................|
 CF78  00 00 00 00 00 00 00 00 00 00 00 00 00 00 00 00  |................|
 CF88  00 00 00 00 00 00 00 00 00 00 00 00 00 00 00 00  |................|
 CF98  00 00 00 00 00 00 00 00 00 00 00 00 00 00 00 00  |................|
 CFA8  00 00 00 00 00 00 00 00 00 00 00 00 00 00 00 00  |................|
 CFB8  00 00 00 00 00 00 00 00 00 00 00 00 00 00 00 00  |................|
 CFC8  00 00 00 00 00 00 00 00 00 00 00 00 00 00 00 00  |................|
 CFD8  00 00 00 00 00 00 00 00 00 00 00 00 00 00 00 00  |................|
 CFE8  00 00 00 00 00 00 00 00 00 00 00 00 00 00 00 00  |................|
 CFF8  00 00 00 00 00 00 00 00 00 00 00 00 00 00 00 00  |................|
 D008  00 00 00 00 00 00 00 00 00 00 00 00 00 00 00 00  |................|
 D018  00 00 00 00 00 00 00 00 00 00 00 00 00 00 00 00  |................|
 D028  00 00 00 00 00 00 00 00 00 00 00 00 00 00 00 00  |................|
 D038  00 00 00 00 00 00 00 00 00 00 00 00 00 00 00 00  |................|
 D048  00 00 00 00 00 00 00 00 00 00 00 00 00 00 00 00  |................|
 D058  00 00 00 00 00 00 00 00 00 00 00 00 00 00 00 00  |................|
 D068  00 00 00 00 00 00 00 00 00 00 00 00 00 00 00 00  |................|
 D078  00 00 00 00 00 00 00 00 00 00 00 00 00 00 00 00  |................|
 D088  00 00 00 00 00 00 00 00 00 00 00 00 00 00 00 00  |................|
 D098  00 00 00 00 00 00 00 00 00 00 00 00 00 00 00 00  |................|
 D0A8  00 00 00 00 00 00 00 00 00 00 00 00 00 00 00 00  |................|
 D0B8  00 00 00 00 00 00 00 00 00 00 00 00 00 00 00 00  |................|
 D0C8  00 00 00 00 00 00 00 00 00 00 00 00 00 00 00 00  |................|
 D0D8  00 00 00 00 00 00 00 00 00 00 00 00 00 00 00 00  |................|
 D0E8  00 00 00 00 00 00 00 00 00 00 00 00 00 00 00 00  |................|
 D0F8  00 00 00 00 00 00 00 00 00 00 00 00 00 00 00 00  |................|
 D108  00 00 00 00 00 00 00 00 00 00 00 00 00 00 00 00  |................|
 D118  00 00 00 00 00 00 00 00 00 00 00 00 00 00 00 00  |................|
 D128  00 00 00 00 00 00 00 00 00 00 00 00 00 00 00 00  |................|
 D138  00 00 00 00 00 00 00 00 00 00 00 00 00 00 00 00  |................|
 D148  00 00 00 00 00 00 00 00 00 00 00 00 00 00 00 00  |................|
 D158  00 00 00 00 00 00 00 00 00 00 00 00 00 00 00 00  |................|
 D168  00 00 00 00 00 00 00 00 00 00 00 00 00 00 00 00  |................|
 D178  00 00 00 00 00 00 00 00 00 00 00 00 00 00 00 00  |................|
 D188  00 00 00 00 00 00 00 00 00 00 00 00 00 00 00 00  |................|
 D198  00 00 00 00 00 00 00 00 00 00 00 00 00 00 00 00  |................|
 D1A8  00 00 00 00 00 00 00 00 00 00 00 00 00 00 00 00  |................|
 D1B8  00 00 00 00 00 00 00 00 00 00 00 00 00 00 00 00  |................|
 D1C8  00 00 00 00 00 00 00 00 00 00 00 00 00 00 00 00  |................|
 D1D8  00 00 00 00 00 00 00 00 00 00 00 00 00 00 00 00  |................|
 D1E8  00 00 00 00 00 00 00 00 00 00 00 00 00 00 00 00  |................|
 D1F8  00 00 00 00 00 00 00 00 00 00 00 00 00 00 00 00  |................|
 D208  00 00 00 00 00 00 00 00 00 00 00 00 00 00 00 00  |................|
 D218  00 00 00 00 00 00 00 00 00 00 00 00 00 00 00 00  |................|
 D228  00 00 00 00 00 00 00 00 00 00 00 00 00 00 00 00  |................|
 D238  00 00 00 00 00 00 00 00 00 00 00 00 00 00 00 00  |................|
 D248  00 00 00 00 00 00 00 00 00 00 00 00 00 00 00 00  |................|
 D258  00 00 00 00 00 00 00 00 00 00 00 00 00 00 00 00  |................|
 D268  00 00 00 00 00 00 00 00 00 00 00 00 00 00 00 00  |................|
 D278  00 00 00 00 00 00 00 00 00 00 00 00 00 00 00 00  |................|
 D288  00 00 00 00 00 00 00 00 00 00 00 00 00 00 00 00  |................|
 D298  00 00 00 00 00 00 00 00 00 00 00 00 00 00 00 00  |................|
 D2A8  00 00 00 00 00 00 00 00 00 00 00 00 00 00 00 00  |................|
 D2B8  00 00 00 00 00 00 00 00 00 00 00 00 00 00 00 00  |................|
 D2C8  00 00 00 00 00 00 00 00 00 00 00 00 00 00 00 00  |................|
 D2D8  00 00 00 00 00 00 00 00 00 00 00 00 00 00 00 00  |................|
 D2E8  00 00 00 00 00 00 00 00 00 00 00 00 00 00 00 00  |................|
 D2F8  00 00 00 00 00 00 00 00 00 00 00 00 00 00 00 00  |................|
 D308  00 00 00 00 00 00 00 00 00 00 00 00 00 00 00 00  |................|
 D318  00 00 00 00 00 00 00 00 00 00 00 00 00 00 00 00  |................|
 D328  00 00 00 00 00 00 00 00 00 00 00 00 00 00 00 00  |................|
 D338  00 00 00 00 00 00 00 00 00 00 00 00 00 00 00 00  |................|
 D348  00 00 00 00 00 00 00 00 00 00 00 00 00 00 00 00  |................|
 D358  00 00 00 00 00 00 00 00 00 00 00 00 00 00 00 00  |................|
 D368  00 00 00 00 00 00 00 00 00 00 00 00 00 00 00 00  |................|
 D378  00 00 00 00 00 00 00 00 00 00 00 00 00 00 00 00  |................|
 D388  00 00 00 00 00 00 00 00 00 00 00 00 00 00 00 00  |................|
 D398  00 00 00 00 00 00 00 00 00 00 00 00 00 00 00 00  |................|
 D3A8  00 00 00 00 00 00 00 00 00 00 00 00 00 00 00 00  |................|
 D3B8  00 00 00 00 00 00 00 00 00 00 00 00 00 00 00 00  |................|
 D3C8  00 00 00 00 00 00 00 00 00 00 00 00 00 00 00 00  |................|
 D3D8  00 00 00 00 00 00 00 00 00 00 00 00 00 00 00 00  |................|
 D3E8  00 00 00 00 00 00 00 00 00 00 00 00 00 00 00 00  |................|
 D3F8  00 00 00 00 00 00 00 00 00 00 00 00 00 00 00 00  |................|
 D408  00 00 00 00 00 00 00 00 00 00 00 00 00 00 00 00  |................|
 D418  00 00 00 00 00 00 00 00 00 00 00 00 00 00 00 00  |................|
 D428  00 00 00 00 00 00 00 00 00 00 00 00 00 00 00 00  |................|
 D438  00 00 00 00 00 00 00 00 00 00 00 00 00 00 00 00  |................|
 D448  00 00 00 00 00 00 00 00 00 00 00 00 00 00 00 00  |................|
 D458  00 00 00 00 00 00 00 00 00 00 00 00 00 00 00 00  |................|
 D468  00 00 00 00 00 00 00 00 00 00 00 00 00 00 00 00  |................|
 D478  00 00 00 00 00 00 00 00 00 00 00 00 00 00 00 00  |................|
 D488  00 00 00 00 00 00 00 00 00 00 00 00 00 00 00 00  |................|
 D498  00 00 00 00 00 00 00 00 00 00 00 00 00 00 00 00  |................|
 D4A8  00 00 00 00 00 00 00 00 00 00 00 00 00 00 00 00  |................|
 D4B8  00 00 00 00 00 00 00 00 00 00 00 00 00 00 00 00  |................|
 D4C8  00 00 00 00 00 00 00 00 00 00 00 00 00 00 00 00  |................|
 D4D8  00 00 00 00 00 00 00 00 00 00 00 00 00 00 00 00  |................|
 D4E8  00 00 00 00 00 00 00 00 00 00 00 00 00 00 00 00  |................|
 D4F8  00 00 00 00 00 00 00 00 00 00 00 00 00 00 00 00  |................|
 D508  00 00 00 00 00 00 00 00 00 00 00 00 00 00 00 00  |................|
 D518  00 00 00 00 00 00 00 00 00 00 00 00 00 00 00 00  |................|
 D528  00 00 00 00 00 00 00 00 00 00 00 00 00 00 00 00  |................|
 D538  00 00 00 00 00 00 00 00 00 00 00 00 00 00 00 00  |................|
 D548  00 00 00 00 00 00 00 00 00 00 00 00 00 00 00 00  |................|
 D558  00 00 00 00 00 00 00 00 00 00 00 00 00 00 00 00  |................|
 D568  00 00 00 00 00 00 00 00 00 00 00 00 00 00 00 00  |................|
 D578  00 00 00 00 00 00 00 00 00 00 00 00 00 00 00 00  |................|
 D588  00 00 00 00 00 00 00 00 00 00 00 00 00 00 00 00  |................|
 D598  00 00 00 00 00 00 00 00 00 00 00 00 00 00 00 00  |................|
 D5A8  00 00 00 00 00 00 00 00 00 00 00 00 00 00 00 00  |................|
 D5B8  00 00 00 00 00 00 00 00 00 00 00 00 00 00 00 00  |................|
 D5C8  00 00 00 00 00 00 00 00 00 00 00 00 00 00 00 00  |................|
 D5D8  00 00 00 00 00 00 00 00 00 00 00 00 00 00 00 00  |................|
 D5E8  00 00 00 00 00 00 00 00 00 00 00 00 00 00 00 00  |................|
 D5F8  00 00 00 00 00 00 00 00 00 00 00 00 00 00 00 00  |................|
 D608  00 00 00 00 00 00 00 00 00 00 00 00 00 00 00 00  |................|
 D618  00 00 00 00 00 00 00 00 00 00 00 00 00 00 00 00  |................|
 D628  00 00 00 00 00 00 00 00 00 00 00 00 00 00 00 00  |................|
 D638  00 00 00 00 00 00 00 00 00 00 00 00 00 00 00 00  |................|
 D648  00 00 00 00 00 00 00 00 00 00 00 00 00 00 00 00  |................|
 D658  00 00 00 00 00 00 00 00 00 00 00 00 00 00 00 00  |................|
 D668  00 00 00 00 00 00 00 00 00 00 00 00 00 00 00 00  |................|
 D678  00 00 00 00 00 00 00 00 00 00 00 00 00 00 00 00  |................|
 D688  00 00 00 00 00 00 00 00 00 00 00 00 00 00 00 00  |................|
 D698  00 00 00 00 00 00 00 00 00 00 00 00 00 00 00 00  |................|
 D6A8  00 00 00 00 00 00 00 00 00 00 00 00 00 00 00 00  |................|
 D6B8  00 00 00 00 00 00 00 00 00 00 00 00 00 00 00 00  |................|
 D6C8  00 00 00 00 00 00 00 00 00 00 00 00 00 00 00 00  |................|
 D6D8  00 00 00 00 00 00 00 00 00 00 00 00 00 00 00 00  |................|
 D6E8  00 00 00 00 00 00 00 00 00 00 00 00 00 00 00 00  |................|
 D6F8  00 00 00 00 00 00 00 00 00 00 00 00 00 00 00 00  |................|
 D708  00 00 00 00 00 00 00 00 00 00 00 00 00 00 00 00  |................|
 D718  00 00 00 00 00 00 00 00 00 00 00 00 00 00 00 00  |................|
 D728  00 00 00 00 00 00 00 00 00 00 00 00 00 00 00 00  |................|
 D738  00 00 00 00 00 00 00 00 00 00 00 00 00 00 00 00  |................|
 D748  00 00 00 00 00 00 00 00 00 00 00 00 00 00 00 00  |................|
 D758  00 00 00 00 00 00 00 00 00 00 00 00 00 00 00 00  |................|
 D768  00 00 00 00 00 00 00 00 00 00 00 00 00 00 00 00  |................|
 D778  00 00 00 00 00 00 00 00 00 00 00 00 00 00 00 00  |................|
 D788  00 00 00 00 00 00 00 00 00 00 00 00 00 00 00 00  |................|
 D798  00 00 00 00 00 00 00 00 00 00 00 00 00 00 00 00  |................|
 D7A8  00 00 00 00 00 00 00 00 00 00 00 00 00 00 00 00  |................|
 D7B8  00 00 00 00 00 00 00 00 00 00 00 00 00 00 00 00  |................|
 D7C8  00 00 00 00 00 00 00 00 00 00 00 00 00 00 00 00  |................|
 D7D8  00 00 00 00 00 00 00 00 00 00 00 00 00 00 00 00  |................|
 D7E8  00 00 00 00 00 00 00 00 00 00 00 00 00 00 00 00  |................|
 D7F8  00 00 00 00 00 00 00 00 00 00 00 00 00 00 00 00  |................|
 D808  00 00 00 00 00 00 00 00 00 00 00 00 00 00 00 00  |................|
 D818  00 00 00 00 00 00 00 00 00 00 00 00 00 00 00 00  |................|
 D828  00 00 00 00 00 00 00 00 00 00 00 00 00 00 00 00  |................|
 D838  00 00 00 00 00 00 00 00 00 00 00 00 00 00 00 00  |................|
 D848  00 00 00 00 00 00 00 00 00 00 00 00 00 00 00 00  |................|
 D858  00 00 00 00 00 00 00 00 00 00 00 00 00 00 00 00  |................|
 D868  00 00 00 00 00 00 00 00 00 00 00 00 00 00 00 00  |................|
 D878  00 00 00 00 00 00 00 00 00 00 00 00 00 00 00 00  |................|
 D888  00 00 00 00 00 00 00 00 00 00 00 00 00 00 00 00  |................|
 D898  00 00 00 00 00 00 00 00 00 00 00 00 00 00 00 00  |................|
 D8A8  00 00 00 00 00 00 00 00 00 00 00 00 00 00 00 00  |................|
 D8B8  00 00 00 00 00 00 00 00 00 00 00 00 00 00 00 00  |................|
 D8C8  00 00 00 00 00 00 00 00 00 00 00 00 00 00 00 00  |................|
 D8D8  00 00 00 00 00 00 00 00 00 00 00 00 00 00 00 00  |................|
 D8E8  00 00 00 00 00 00 00 00 00 00 00 00 00 00 00 00  |................|
 D8F8  00 00 00 00 00 00 00 00 00 00 00 00 00 00 00 00  |................|
 D908  00 00 00 00 00 00 00 00 00 00 00 00 00 00 00 00  |................|
 D918  00 00 00 00 00 00 00 00 00 00 00 00 00 00 00 00  |................|
 D928  00 00 00 00 00 00 00 00 00 00 00 00 00 00 00 00  |................|
 D938  00 00 00 00 00 00 00 00 00 00 00 00 00 00 00 00  |................|
 D948  00 00 00 00 00 00 00 00 00 00 00 00 00 00 00 00  |................|
 D958  00 00 00 00 00 00 00 00 00 00 00 00 00 00 00 00  |................|
 D968  00 00 00 00 00 00 00 00 00 00 00 00 00 00 00 00  |................|
 D978  00 00 00 00 00 00 00 00 00 00 00 00 00 00 00 00  |................|
 D988  00 00 00 00 00 00 00 00 00 00 00 00 00 00 00 00  |................|
 D998  00 00 00 00 00 00 00 00 00 00 00 00 00 00 00 00  |................|
 D9A8  00 00 00 00 00 00 00 00 00 00 00 00 00 00 00 00  |................|
 D9B8  00 00 00 00 00 00 00 00 00 00 00 00 00 00 00 00  |................|
 D9C8  00 00 00 00 00 00 00 00 00 00 00 00 00 00 00 00  |................|
 D9D8  00 00 00 00 00 00 00 00 00 00 00 00 00 00 00 00  |................|
 D9E8  00 00 00 00 00 00 00 00 00 00 00 00 00 00 00 00  |................|
 D9F8  00 00 00 00 00 00 00 00 00 00 00 00 00 00 00 00  |................|
 DA08  00 00 00 00 00 00 00 00 00 00 00 00 00 00 00 00  |................|
 DA18  00 00 00 00 00 00 00 00 00 00 00 00 00 00 00 00  |................|
 DA28  00 00 00 00 00 00 00 00 00 00 00 00 00 00 00 00  |................|
 DA38  00 00 00 00 00 00 00 00 00 00 00 00 00 00 00 00  |................|
 DA48  00 00 00 00 00 00 00 00 00 00 00 00 00 00 00 00  |................|
 DA58  00 00 00 00 00 00 00 00 00 00 00 00 00 00 00 00  |................|
 DA68  00 00 00 00 00 00 00 00 00 00 00 00 00 00 00 00  |................|
 DA78  00 00 00 00 00 00 00 00 00 00 00 00 00 00 00 00  |................|
 DA88  00 00 00 00 00 00 00 00 00 00 00 00 00 00 00 00  |................|
 DA98  00 00 00 00 00 00 00 00 00 00 00 00 00 00 00 00  |................|
 DAA8  00 00 00 00 00 00 00 00 00 00 00 00 00 00 00 00  |................|
 DAB8  00 00 00 00 00 00 00 00 00 00 00 00 00 00 00 00  |................|
 DAC8  00 00 00 00 00 00 00 00 00 00 00 00 00 00 00 00  |................|
 DAD8  00 00 00 00 00 00 00 00 00 00 00 00 00 00 00 00  |................|
 DAE8  00 00 00 00 00 00 00 00 00 00 00 00 00 00 00 00  |................|
 DAF8  00 00 00 00 00 00 00 00 00 00 00 00 00 00 00 00  |................|
 DB08  00 00 00 00 00 00 00 00 00 00 00 00 00 00 00 00  |................|
 DB18  00 00 00 00 00 00 00 00 00 00 00 00 00 00 00 00  |................|
 DB28  00 00 00 00 00 00 00 00 00 00 00 00 00 00 00 00  |................|
 DB38  00 00 00 00 00 00 00 00 00 00 00 00 00 00 00 00  |................|
 DB48  00 00 00 00 00 00 00 00 00 00 00 00 00 00 00 00  |................|
 DB58  00 00 00 00 00 00 00 00 00 00 00 00 00 00 00 00  |................|
 DB68  00 00 00 00 00 00 00 00 00 00 00 00 00 00 00 00  |................|
 DB78  00 00 00 00 00 00 00 00 00 00 00 00 00 00 00 00  |................|
 DB88  00 00 00 00 00 00 00 00 00 00 00 00 00 00 00 00  |................|
 DB98  00 00 00 00 00 00 00 00 00 00 00 00 00 00 00 00  |................|
 DBA8  00 00 00 00 00 00 00 00 00 00 00 00 00 00 00 00  |................|
 DBB8  00 00 00 00 00 00 00 00 00 00 00 00 00 00 00 00  |................|
 DBC8  00 00 00 00 00 00 00 00 00 00 00 00 00 00 00 00  |................|
 DBD8  00 00 00 00 00 00 00 00 00 00 00 00 00 00 00 00  |................|
 DBE8  00 00 00 00 00 00 00 00 00 00 00 00 00 00 00 00  |................|
 DBF8  00 00 00 00 00 00 00 00 00 00 00 00 00 00 00 00  |................|
 DC08  00 00 00 00 00 00 00 00 00 00 00 00 00 00 00 00  |................|
 DC18  00 00 00 00 00 00 00 00 00 00 00 00 00 00 00 00  |................|
 DC28  00 00 00 00 00 00 00 00 00 00 00 00 00 00 00 00  |................|
 DC38  00 00 00 00 00 00 00 00 00 00 00 00 00 00 00 00  |................|
 DC48  00 00 00 00 00 00 00 00 00 00 00 00 00 00 00 00  |................|
 DC58  00 00 00 00 00 00 00 00 00 00 00 00 00 00 00 00  |................|
 DC68  00 00 00 00 00 00 00 00 00 00 00 00 00 00 00 00  |................|
 DC78  00 00 00 00 00 00 00 00 00 00 00 00 00 00 00 00  |................|
 DC88  00 00 00 00 00 00 00 00 00 00 00 00 00 00 00 00  |................|
 DC98  00 00 00 00 00 00 00 00 00 00 00 00 00 00 00 00  |................|
 DCA8  00 00 00 00 00 00 00 00 00 00 00 00 00 00 00 00  |................|
 DCB8  00 00 00 00 00 00 00 00 00 00 00 00 00 00 00 00  |................|
 DCC8  00 00 00 00 00 00 00 00 00 00 00 00 00 00 00 00  |................|
 DCD8  00 00 00 00 00 00 00 00 00 00 00 00 00 00 00 00  |................|
 DCE8  00 00 00 00 00 00 00 00 00 00 00 00 00 00 00 00  |................|
 DCF8  00 00 00 00 00 00 00 00 00 00 00 00 00 00 00 00  |................|
 DD08  00 00 00 00 00 00 00 00 00 00 00 00 00 00 00 00  |................|
 DD18  00 00 00 00 00 00 00 00 00 00 00 00 00 00 00 00  |................|
 DD28  00 00 00 00 00 00 00 00 00 00 00 00 00 00 00 00  |................|
 DD38  00 00 00 00 00 00 00 00 00 00 00 00 00 00 00 00  |................|
 DD48  00 00 00 00 00 00 00 00 00 00 00 00 00 00 00 00  |................|
 DD58  00 00 00 00 00 00 00 00 00 00 00 00 00 00 00 00  |................|
 DD68  00 00 00 00 00 00 00 00 00 00 00 00 00 00 00 00  |................|
 DD78  00 00 00 00 00 00 00 00 00 00 00 00 00 00 00 00  |................|
 DD88  00 00 00 00 00 00 00 00 00 00 00 00 00 00 00 00  |................|
 DD98  00 00 00 00 00 00 00 00 00 00 00 00 00 00 00 00  |................|
 DDA8  00 00 00 00 00 00 00 00 00 00 00 00 00 00 00 00  |................|
 DDB8  00 00 00 00 00 00 00 00 00 00 00 00 00 00 00 00  |................|
 DDC8  00 00 00 00 00 00 00 00 00 00 00 00 00 00 00 00  |................|
 DDD8  00 00 00 00 00 00 00 00 00 00 00 00 00 00 00 00  |................|
 DDE8  00 00 00 00 00 00 00 00 00 00 00 00 00 00 00 00  |................|
 DDF8  00 00 00 00 00 00 00 00 00 00 00 00 00 00 00 00  |................|
 DE08  00 00 00 00 00 00 00 00 00 00 00 00 00 00 00 00  |................|
 DE18  00 00 00 00 00 00 00 00 00 00 00 00 00 00 00 00  |................|
 DE28  00 00 00 00 00 00 00 00 00 00 00 00 00 00 00 00  |................|
 DE38  00 00 00 00 00 00 00 00 00 00 00 00 00 00 00 00  |................|
 DE48  00 00 00 00 00 00 00 00 00 00 00 00 00 00 00 00  |................|
 DE58  00 00 00 00 00 00 00 00 00 00 00 00 00 00 00 00  |................|
 DE68  00 00 00 00 00 00 00 00 00 00 00 00 00 00 00 00  |................|
 DE78  00 00 00 00 00 00 00 00 00 00 00 00 00 00 00 00  |................|
 DE88  00 00 00 00 00 00 00 00 00 00 00 00 00 00 00 00  |................|
 DE98  00 00 00 00 00 00 00 00 00 00 00 00 00 00 00 00  |................|
 DEA8  00 00 00 00 00 00 00 00 00 00 00 00 00 00 00 00  |................|
 DEB8  00 00 00 00 00 00 00 00 00 00 00 00 00 00 00 00  |................|
 DEC8  00 00 00 00 00 00 00 00 00 00 00 00 00 00 00 00  |................|
 DED8  00 00 00 00 00 00 00 00 00 00 00 00 00 00 00 00  |................|
 DEE8  00 00 00 00 00 00 00 00 00 00 00 00 00 00 00 00  |................|
 DEF8  00 00 00 00 00 00 00 00 00 00 00 00 00 00 00 00  |................|
 DF08  00 00 00 00 00 00 00 00 00 00 00 00 00 00 00 00  |................|
 DF18  00 00 00 00 00 00 00 00 00 00 00 00 00 00 00 00  |................|
 DF28  00 00 00 00 00 00 00 00 00 00 00 00 00 00 00 00  |................|
 DF38  00 00 00 00 00 00 00 00 00 00 00 00 00 00 00 00  |................|
 DF48  00 00 00 00 00 00 00 00 00 00 00 00 00 00 00 00  |................|
 DF58  00 00 00 00 00 00 00 00 00 00 00 00 00 00 00 00  |................|
 DF68  00 00 00 00 00 00 00 00 00 00 00 00 00 00 00 00  |................|
 DF78  00 00 00 00 00 00 00 00 00 00 00 00 00 00 00 00  |................|
 DF88  00 00 00 00 00 00 00 00 00 00 00 00 00 00 00 00  |................|
 DF98  00 00 00 00 00 00 00 00 00 00 00 00 00 00 00 00  |................|
 DFA8  00 00 00 00 00 00 00 00 00 00 00 00 00 00 00 00  |................|
 DFB8  00 00 00 00 00 00 00 00 00 00 00 00 00 00 00 00  |................|
 DFC8  00 00 00 00 00 00 00 00 00 00 00 00 00 00 00 00  |................|
 DFD8  00 00 00 00 00 00 00 00 00 00 00 00 00 00 00 00  |................|
 DFE8  00 00 00 00 00 00 00 00 00 00 00 00 00 00 00 00  |................|
 DFF8  00 00 00 00 00 00 00 00 00 00 00 00 00 00 00 00  |................|
 E008  00 00 00 00 00 00 00 00 00 00 00 00 00 00 00 00  |................|
 E018  00 00 00 00 00 00 00 00 00 00 00 00 00 00 00 00  |................|
 E028  00 00 00 00 00 00 00 00 00 00 00 00 00 00 00 00  |................|
 E038  00 00 00 00 00 00 00 00 00 00 00 00 00 00 00 00  |................|
 E048  00 00 00 00 00 00 00 00 00 00 00 00 00 00 00 00  |................|
 E058  00 00 00 00 00 00 00 00 00 00 00 00 00 00 00 00  |................|
 E068  00 00 00 00 00 00 00 00 00 00 00 00 00 00 00 00  |................|
 E078  00 00 00 00 00 00 00 00 00 00 00 00 00 00 00 00  |................|
 E088  00 00 00 00 00 00 00 00 00 00 00 00 00 00 00 00  |................|
 E098  00 00 00 00 00 00 00 00 00 00 00 00 00 00 00 00  |................|
 E0A8  00 00 00 00 00 00 00 00 00 00 00 00 00 00 00 00  |................|
 E0B8  00 00 00 00 00 00 00 00 00 00 00 00 00 00 00 00  |................|
 E0C8  00 00 00 00 00 00 00 00 00 00 00 00 00 00 00 00  |................|
 E0D8  00 00 00 00 00 00 00 00 00 00 00 00 00 00 00 00  |................|
 E0E8  00 00 00 00 00 00 00 00 00 00 00 00 00 00 00 00  |................|
 E0F8  00 00 00 00 00 00 00 00 00 00 00 00 00 00 00 00  |................|
 E108  00 00 00 00 00 00 00 00 00 00 00 00 00 00 00 00  |................|
 E118  00 00 00 00 00 00 00 00 00 00 00 00 00 00 00 00  |................|
 E128  00 00 00 00 00 00 00 00 00 00 00 00 00 00 00 00  |................|
 E138  00 00 00 00 00 00 00 00 00 00 00 00 00 00 00 00  |................|
 E148  00 00 00 00 00 00 00 00 00 00 00 00 00 00 00 00  |................|
 E158  00 00 00 00 00 00 00 00 00 00 00 00 00 00 00 00  |................|
 E168  00 00 00 00 00 00 00 00 00 00 00 00 00 00 00 00  |................|
 E178  00 00 00 00 00 00 00 00 00 00 00 00 00 00 00 00  |................|
 E188  00 00 00 00 00 00 00 00 00 00 00 00 00 00 00 00  |................|
 E198  00 00 00 00 00 00 00 00 00 00 00 00 00 00 00 00  |................|
 E1A8  00 00 00 00 00 00 00 00 00 00 00 00 00 00 00 00  |................|
 E1B8  00 00 00 00 00 00 00 00 00 00 00 00 00 00 00 00  |................|
 E1C8  00 00 00 00 00 00 00 00 00 00 00 00 00 00 00 00  |................|
 E1D8  00 00 00 00 00 00 00 00 00 00 00 00 00 00 00 00  |................|
 E1E8  00 00 00 00 00 00 00 00 00 00 00 00 00 00 00 00  |................|
 E1F8  00 00 00 00 00 00 00 00 00 00 00 00 00 00 00 00  |................|
 E208  00 00 00 00 00 00 00 00 00 00 00 00 00 00 00 00  |................|
 E218  00 00 00 00 00 00 00 00 00 00 00 00 00 00 00 00  |................|
 E228  00 00 00 00 00 00 00 00 00 00 00 00 00 00 00 00  |................|
 E238  00 00 00 00 00 00 00 00 00 00 00 00 00 00 00 00  |................|
 E248  00 00 00 00 00 00 00 00 00 00 00 00 00 00 00 00  |................|
 E258  00 00 00 00 00 00 00 00 00 00 00 00 00 00 00 00  |................|
 E268  00 00 00 00 00 00 00 00 00 00 00 00 00 00 00 00  |................|
 E278  00 00 00 00 00 00 00 00 00 00 00 00 00 00 00 00  |................|
 E288  00 00 00 00 00 00 00 00 00 00 00 00 00 00 00 00  |................|
 E298  00 00 00 00 00 00 00 00 00 00 00 00 00 00 00 00  |................|
 E2A8  00 00 00 00 00 00 00 00 00 00 00 00 00 00 00 00  |................|
 E2B8  00 00 00 00 00 00 00 00 00 00 00 00 00 00 00 00  |................|
 E2C8  00 00 00 00 00 00 00 00 00 00 00 00 00 00 00 00  |................|
 E2D8  00 00 00 00 00 00 00 00 00 00 00 00 00 00 00 00  |................|
 E2E8  00 00 00 00 00 00 00 00 00 00 00 00 00 00 00 00  |................|
 E2F8  00 00 00 00 00 00 00 00 00 00 00 00 00 00 00 00  |................|
 E308  00 00 00 00 00 00 00 00 00 00 00 00 00 00 00 00  |................|
 E318  00 00 00 00 00 00 00 00 00 00 00 00 00 00 00 00  |................|
 E328  00 00 00 00 00 00 00 00 00 00 00 00 00 00 00 00  |................|
 E338  00 00 00 00 00 00 00 00 00 00 00 00 00 00 00 00  |................|
 E348  00 00 00 00 00 00 00 00 00 00 00 00 00 00 00 00  |................|
 E358  00 00 00 00 00 00 00 00 00 00 00 00 00 00 00 00  |................|
 E368  00 00 00 00 00 00 00 00 00 00 00 00 00 00 00 00  |................|
 E378  00 00 00 00 00 00 00 00 00 00 00 00 00 00 00 00  |................|
 E388  00 00 00 00 00 00 00 00 00 00 00 00 00 00 00 00  |................|
 E398  00 00 00 00 00 00 00 00 00 00 00 00 00 00 00 00  |................|
 E3A8  00 00 00 00 00 00 00 00 00 00 00 00 00 00 00 00  |................|
 E3B8  00 00 00 00 00 00 00 00 00 00 00 00 00 00 00 00  |................|
 E3C8  00 00 00 00 00 00 00 00 00 00 00 00 00 00 00 00  |................|
 E3D8  00 00 00 00 00 00 00 00 00 00 00 00 00 00 00 00  |................|
 E3E8  00 00 00 00 00 00 00 00 00 00 00 00 00 00 00 00  |................|
 E3F8  00 00 00 00 00 00 00 00 00 00 00 00 00 00 00 00  |................|
 E408  00 00 00 00 00 00 00 00 00 00 00 00 00 00 00 00  |................|
 E418  00 00 00 00 00 00 00 00 00 00 00 00 00 00 00 00  |................|
 E428  00 00 00 00 00 00 00 00 00 00 00 00 00 00 00 00  |................|
 E438  00 00 00 00 00 00 00 00 00 00 00 00 00 00 00 00  |................|
 E448  00 00 00 00 00 00 00 00 00 00 00 00 00 00 00 00  |................|
 E458  00 00 00 00 00 00 00 00 00 00 00 00 00 00 00 00  |................|
 E468  00 00 00 00 00 00 00 00 00 00 00 00 00 00 00 00  |................|
 E478  00 00 00 00 00 00 00 00 00 00 00 00 00 00 00 00  |................|
 E488  00 00 00 00 00 00 00 00 00 00 00 00 00 00 00 00  |................|
 E498  00 00 00 00 00 00 00 00 00 00 00 00 00 00 00 00  |................|
 E4A8  00 00 00 00 00 00 00 00 00 00 00 00 00 00 00 00  |................|
 E4B8  00 00 00 00 00 00 00 00 00 00 00 00 00 00 00 00  |................|
 E4C8  00 00 00 00 00 00 00 00 00 00 00 00 00 00 00 00  |................|
 E4D8  00 00 00 00 00 00 00 00 00 00 00 00 00 00 00 00  |................|
 E4E8  00 00 00 00 00 00 00 00 00 00 00 00 00 00 00 00  |................|
 E4F8  00 00 00 00 00 00 00 00 00 00 00 00 00 00 00 00  |................|
 E508  00 00 00 00 00 00 00 00 00 00 00 00 00 00 00 00  |................|
 E518  00 00 00 00 00 00 00 00 00 00 00 00 00 00 00 00  |................|
 E528  00 00 00 00 00 00 00 00 00 00 00 00 00 00 00 00  |................|
 E538  00 00 00 00 00 00 00 00 00 00 00 00 00 00 00 00  |................|
 E548  00 00 00 00 00 00 00 00 00 00 00 00 00 00 00 00  |................|
 E558  00 00 00 00 00 00 00 00 00 00 00 00 00 00 00 00  |................|
 E568  00 00 00 00 00 00 00 00 00 00 00 00 00 00 00 00  |................|
 E578  00 00 00 00 00 00 00 00 00 00 00 00 00 00 00 00  |................|
 E588  00 00 00 00 00 00 00 00 00 00 00 00 00 00 00 00  |................|
 E598  00 00 00 00 00 00 00 00 00 00 00 00 00 00 00 00  |................|
 E5A8  00 00 00 00 00 00 00 00 00 00 00 00 00 00 00 00  |................|
 E5B8  00 00 00 00 00 00 00 00 00 00 00 00 00 00 00 00  |................|
 E5C8  00 00 00 00 00 00 00 00 00 00 00 00 00 00 00 00  |................|
 E5D8  00 00 00 00 00 00 00 00 00 00 00 00 00 00 00 00  |................|
 E5E8  00 00 00 00 00 00 00 00 00 00 00 00 00 00 00 00  |................|
 E5F8  00 00 00 00 00 00 00 00 00 00 00 00 00 00 00 00  |................|
 E608  00 00 00 00 00 00 00 00 00 00 00 00 00 00 00 00  |................|
 E618  00 00 00 00 00 00 00 00 00 00 00 00 00 00 00 00  |................|
 E628  00 00 00 00 00 00 00 00 00 00 00 00 00 00 00 00  |................|
 E638  00 00 00 00 00 00 00 00 00 00 00 00 00 00 00 00  |................|
 E648  00 00 00 00 00 00 00 00 00 00 00 00 00 00 00 00  |................|
 E658  00 00 00 00 00 00 00 00 00 00 00 00 00 00 00 00  |................|
 E668  00 00 00 00 00 00 00 00 00 00 00 00 00 00 00 00  |................|
 E678  00 00 00 00 00 00 00 00 00 00 00 00 00 00 00 00  |................|
 E688  00 00 00 00 00 00 00 00 00 00 00 00 00 00 00 00  |................|
 E698  00 00 00 00 00 00 00 00 00 00 00 00 00 00 00 00  |................|
 E6A8  00 00 00 00 00 00 00 00 00 00 00 00 00 00 00 00  |................|
 E6B8  00 00 00 00 00 00 00 00 00 00 00 00 00 00 00 00  |................|
 E6C8  00 00 00 00 00 00 00 00 00 00 00 00 00 00 00 00  |................|
 E6D8  00 00 00 00 00 00 00 00 00 00 00 00 00 00 00 00  |................|
 E6E8  00 00 00 00 00 00 00 00 00 00 00 00 00 00 00 00  |................|
 E6F8  00 00 00 00 00 00 00 00 00 00 00 00 00 00 00 00  |................|
 E708  00 00 00 00 00 00 00 00 00 00 00 00 00 00 00 00  |................|
 E718  00 00 00 00 00 00 00 00 00 00 00 00 00 00 00 00  |................|
 E728  00 00 00 00 00 00 00 00 00 00 00 00 00 00 00 00  |................|
 E738  00 00 00 00 00 00 00 00 00 00 00 00 00 00 00 00  |................|
 E748  00 00 00 00 00 00 00 00 00 00 00 00 00 00 00 00  |................|
 E758  00 00 00 00 00 00 00 00 00 00 00 00 00 00 00 00  |................|
 E768  00 00 00 00 00 00 00 00 00 00 00 00 00 00 00 00  |................|
 E778  00 00 00 00 00 00 00 00 00 00 00 00 00 00 00 00  |................|
 E788  00 00 00 00 00 00 00 00 00 00 00 00 00 00 00 00  |................|
 E798  00 00 00 00 00 00 00 00 00 00 00 00 00 00 00 00  |................|
 E7A8  00 00 00 00 00 00 00 00 00 00 00 00 00 00 00 00  |................|
 E7B8  00 00 00 00 00 00 00 00 00 00 00 00 00 00 00 00  |................|
 E7C8  00 00 00 00 00 00 00 00 00 00 00 00 00 00 00 00  |................|
 E7D8  00 00 00 00 00 00 00 00 00 00 00 00 00 00 00 00  |................|
 E7E8  00 00 00 00 00 00 00 00 00 00 00 00 00 00 00 00  |................|
 E7F8  00 00 00 00 00 00 00 00 00 00 00 00 00 00 00 00  |................|
 E808  00 00 00 00 00 00 00 00 00 00 00 00 00 00 00 00  |................|
 E818  00 00 00 00 00 00 00 00 00 00 00 00 00 00 00 00  |................|
 E828  00 00 00 00 00 00 00 00 00 00 00 00 00 00 00 00  |................|
 E838  00 00 00 00 00 00 00 00 00 00 00 00 00 00 00 00  |................|
 E848  00 00 00 00 00 00 00 00 00 00 00 00 00 00 00 00  |................|
 E858  00 00 00 00 00 00 00 00 00 00 00 00 00 00 00 00  |................|
 E868  00 00 00 00 00 00 00 00 00 00 00 00 00 00 00 00  |................|
 E878  00 00 00 00 00 00 00 00 00 00 00 00 00 00 00 00  |................|
 E888  00 00 00 00 00 00 00 00 00 00 00 00 00 00 00 00  |................|
 E898  00 00 00 00 00 00 00 00 00 00 00 00 00 00 00 00  |................|
 E8A8  00 00 00 00 00 00 00 00 00 00 00 00 00 00 00 00  |................|
 E8B8  00 00 00 00 00 00 00 00 00 00 00 00 00 00 00 00  |................|
 E8C8  00 00 00 00 00 00 00 00 00 00 00 00 00 00 00 00  |................|
 E8D8  00 00 00 00 00 00 00 00 00 00 00 00 00 00 00 00  |................|
 E8E8  00 00 00 00 00 00 00 00 00 00 00 00 00 00 00 00  |................|
 E8F8  00 00 00 00 00 00 00 00 00 00 00 00 00 00 00 00  |................|
 E908  00 00 00 00 00 00 00 00 00 00 00 00 00 00 00 00  |................|
 E918  00 00 00 00 00 00 00 00 00 00 00 00 00 00 00 00  |................|
 E928  00 00 00 00 00 00 00 00 00 00 00 00 00 00 00 00  |................|
 E938  00 00 00 00 00 00 00 00 00 00 00 00 00 00 00 00  |................|
 E948  00 00 00 00 00 00 00 00 00 00 00 00 00 00 00 00  |................|
 E958  00 00 00 00 00 00 00 00 00 00 00 00 00 00 00 00  |................|
 E968  00 00 00 00 00 00 00 00 00 00 00 00 00 00 00 00  |................|
 E978  00 00 00 00 00 00 00 00 00 00 00 00 00 00 00 00  |................|
 E988  00 00 00 00 00 00 00 00 00 00 00 00 00 00 00 00  |................|
 E998  00 00 00 00 00 00 00 00 00 00 00 00 00 00 00 00  |................|
 E9A8  00 00 00 00 00 00 00 00 00 00 00 00 00 00 00 00  |................|
 E9B8  00 00 00 00 00 00 00 00 00 00 00 00 00 00 00 00  |................|
 E9C8  00 00 00 00 00 00 00 00 00 00 00 00 00 00 00 00  |................|
 E9D8  00 00 00 00 00 00 00 00 00 00 00 00 00 00 00 00  |................|
 E9E8  00 00 00 00 00 00 00 00 00 00 00 00 00 00 00 00  |................|
 E9F8  00 00 00 00 00 00 00 00 00 00 00 00 00 00 00 00  |................|
 EA08  00 00 00 00 00 00 00 00 00 00 00 00 00 00 00 00  |................|
 EA18  00 00 00 00 00 00 00 00 00 00 00 00 00 00 00 00  |................|
 EA28  00 00 00 00 00 00 00 00 00 00 00 00 00 00 00 00  |................|
 EA38  00 00 00 00 00 00 00 00 00 00 00 00 00 00 00 00  |................|
 EA48  00 00 00 00 00 00 00 00 00 00 00 00 00 00 00 00  |................|
 EA58  00 00 00 00 00 00 00 00 00 00 00 00 00 00 00 00  |................|
 EA68  00 00 00 00 00 00 00 00 00 00 00 00 00 00 00 00  |................|
 EA78  00 00 00 00 00 00 00 00 00 00 00 00 00 00 00 00  |................|
 EA88  00 00 00 00 00 00 00 00 00 00 00 00 00 00 00 00  |................|
 EA98  00 00 00 00 00 00 00 00 00 00 00 00 00 00 00 00  |................|
 EAA8  00 00 00 00 00 00 00 00 00 00 00 00 00 00 00 00  |................|
 EAB8  00 00 00 00 00 00 00 00 00 00 00 00 00 00 00 00  |................|
 EAC8  00 00 00 00 00 00 00 00 00 00 00 00 00 00 00 00  |................|
 EAD8  00 00 00 00 00 00 00 00 00 00 00 00 00 00 00 00  |................|
 EAE8  00 00 00 00 00 00 00 00 00 00 00 00 00 00 00 00  |................|
 EAF8  00 00 00 00 00 00 00 00 00 00 00 00 00 00 00 00  |................|
 EB08  00 00 00 00 00 00 00 00 00 00 00 00 00 00 00 00  |................|
 EB18  00 00 00 00 00 00 00 00 00 00 00 00 00 00 00 00  |................|
 EB28  00 00 00 00 00 00 00 00 00 00 00 00 00 00 00 00  |................|
 EB38  00 00 00 00 00 00 00 00 00 00 00 00 00 00 00 00  |................|
 EB48  00 00 00 00 00 00 00 00 00 00 00 00 00 00 00 00  |................|
 EB58  00 00 00 00 00 00 00 00 00 00 00 00 00 00 00 00  |................|
 EB68  00 00 00 00 00 00 00 00 00 00 00 00 00 00 00 00  |................|
 EB78  00 00 00 00 00 00 00 00 00 00 00 00 00 00 00 00  |................|
 EB88  00 00 00 00 00 00 00 00 00 00 00 00 00 00 00 00  |................|
 EB98  00 00 00 00 00 00 00 00 00 00 00 00 00 00 00 00  |................|
 EBA8  00 00 00 00 00 00 00 00 00 00 00 00 00 00 00 00  |................|
 EBB8  00 00 00 00 00 00 00 00 00 00 00 00 00 00 00 00  |................|
 EBC8  00 00 00 00 00 00 00 00 00 00 00 00 00 00 00 00  |................|
 EBD8  00 00 00 00 00 00 00 00 00 00 00 00 00 00 00 00  |................|
 EBE8  00 00 00 00 00 00 00 00 00 00 00 00 00 00 00 00  |................|
 EBF8  00 00 00 00 00 00 00 00 00 00 00 00 00 00 00 00  |................|
 EC08  00 00 00 00 00 00 00 00 00 00 00 00 00 00 00 00  |................|
 EC18  00 00 00 00 00 00 00 00 00 00 00 00 00 00 00 00  |................|
 EC28  00 00 00 00 00 00 00 00 00 00 00 00 00 00 00 00  |................|
 EC38  00 00 00 00 00 00 00 00 00 00 00 00 00 00 00 00  |................|
 EC48  00 00 00 00 00 00 00 00 00 00 00 00 00 00 00 00  |................|
 EC58  00 00 00 00 00 00 00 00 00 00 00 00 00 00 00 00  |................|
 EC68  00 00 00 00 00 00 00 00 00 00 00 00 00 00 00 00  |................|
 EC78  00 00 00 00 00 00 00 00 00 00 00 00 00 00 00 00  |................|
 EC88  00 00 00 00 00 00 00 00 00 00 00 00 00 00 00 00  |................|
 EC98  00 00 00 00 00 00 00 00 00 00 00 00 00 00 00 00  |................|
 ECA8  00 00 00 00 00 00 00 00 00 00 00 00 00 00 00 00  |................|
 ECB8  00 00 00 00 00 00 00 00 00 00 00 00 00 00 00 00  |................|
 ECC8  00 00 00 00 00 00 00 00 00 00 00 00 00 00 00 00  |................|
 ECD8  00 00 00 00 00 00 00 00 00 00 00 00 00 00 00 00  |................|
 ECE8  00 00 00 00 00 00 00 00 00 00 00 00 00 00 00 00  |................|
 ECF8  00 00 00 00 00 00 00 00 00 00 00 00 00 00 00 00  |................|
 ED08  00 00 00 00 00 00 00 00 00 00 00 00 00 00 00 00  |................|
 ED18  00 00 00 00 00 00 00 00 00 00 00 00 00 00 00 00  |................|
 ED28  00 00 00 00 00 00 00 00 00 00 00 00 00 00 00 00  |................|
 ED38  00 00 00 00 00 00 00 00 00 00 00 00 00 00 00 00  |................|
 ED48  00 00 00 00 00 00 00 00 00 00 00 00 00 00 00 00  |................|
 ED58  00 00 00 00 00 00 00 00 00 00 00 00 00 00 00 00  |................|
 ED68  00 00 00 00 00 00 00 00 00 00 00 00 00 00 00 00  |................|
 ED78  00 00 00 00 00 00 00 00 00 00 00 00 00 00 00 00  |................|
 ED88  00 00 00 00 00 00 00 00 00 00 00 00 00 00 00 00  |................|
 ED98  00 00 00 00 00 00 00 00 00 00 00 00 00 00 00 00  |................|
 EDA8  00 00 00 00 00 00 00 00 00 00 00 00 00 00 00 00  |................|
 EDB8  00 00 00 00 00 00 00 00 00 00 00 00 00 00 00 00  |................|
 EDC8  00 00 00 00 00 00 00 00 00 00 00 00 00 00 00 00  |................|
 EDD8  00 00 00 00 00 00 00 00 00 00 00 00 00 00 00 00  |................|
 EDE8  00 00 00 00 00 00 00 00 00 00 00 00 00 00 00 00  |................|
 EDF8  00 00 00 00 00 00 00 00 00 00 00 00 00 00 00 00  |................|
 EE08  00 00 00 00 00 00 00 00 00 00 00 00 00 00 00 00  |................|
 EE18  00 00 00 00 00 00 00 00 00 00 00 00 00 00 00 00  |................|
 EE28  00 00 00 00 00 00 00 00 00 00 00 00 00 00 00 00  |................|
 EE38  00 00 00 00 00 00 00 00 00 00 00 00 00 00 00 00  |................|
 EE48  00 00 00 00 00 00 00 00 00 00 00 00 00 00 00 00  |................|
 EE58  00 00 00 00 00 00 00 00 00 00 00 00 00 00 00 00  |................|
 EE68  00 00 00 00 00 00 00 00 00 00 00 00 00 00 00 00  |................|
 EE78  00 00 00 00 00 00 00 00 00 00 00 00 00 00 00 00  |................|
 EE88  00 00 00 00 00 00 00 00 00 00 00 00 00 00 00 00  |................|
 EE98  00 00 00 00 00 00 00 00 00 00 00 00 00 00 00 00  |................|
 EEA8  00 00 00 00 00 00 00 00 00 00 00 00 00 00 00 00  |................|
 EEB8  00 00 00 00 00 00 00 00 00 00 00 00 00 00 00 00  |................|
 EEC8  00 00 00 00 00 00 00 00 00 00 00 00 00 00 00 00  |................|
 EED8  00 00 00 00 00 00 00 00 00 00 00 00 00 00 00 00  |................|
 EEE8  00 00 00 00 00 00 00 00 00 00 00 00 00 00 00 00  |................|
 EEF8  00 00 00 00 00 00 00 00 00 00 00 00 00 00 00 00  |................|
 EF08  00 00 00 00 00 00 00 00 00 00 00 00 00 00 00 00  |................|
 EF18  00 00 00 00 00 00 00 00 00 00 00 00 00 00 00 00  |................|
 EF28  00 00 00 00 00 00 00 00 00 00 00 00 00 00 00 00  |................|
 EF38  00 00 00 00 00 00 00 00 00 00 00 00 00 00 00 00  |................|
 EF48  00 00 00 00 00 00 00 00 00 00 00 00 00 00 00 00  |................|
 EF58  00 00 00 00 00 00 00 00 00 00 00 00 00 00 00 00  |................|
 EF68  00 00 00 00 00 00 00 00 00 00 00 00 00 00 00 00  |................|
 EF78  00 00 00 00 00 00 00 00 00 00 00 00 00 00 00 00  |................|
 EF88  00 00 00 00 00 00 00 00 00 00 00 00 00 00 00 00  |................|
 EF98  00 00 00 00 00 00 00 00 00 00 00 00 00 00 00 00  |................|
 EFA8  00 00 00 00 00 00 00 00 00 00 00 00 00 00 00 00  |................|
 EFB8  00 00 00 00 00 00 00 00 00 00 00 00 00 00 00 00  |................|
 EFC8  00 00 00 00 00 00 00 00 00 00 00 00 00 00 00 00  |................|
 EFD8  00 00 00 00 00 00 00 00 00 00 00 00 00 00 00 00  |................|
 EFE8  00 00 00 00 00 00 00 00 00 00 00 00 00 00 00 00  |................|
 EFF8  00 00 00 00 00 00 00 00 00 00 00 00 00 00        |..............  |
 F006  A2 00     LDX  #$00
 F008  BD 20 F0  LDA  $F020, X
 F00B  F0 06     BEQ  $F013
 F00D  20 1C F0  JSR  $F01C
 F010  E8        INX  
 F011  80 F5     BRA  $F008
 F013  4C 00 80  JMP  $8000
 F016  AD 04 F0  LDA  $F004
 F019  F0 FB     BEQ  $F016
 F01B  60        RTS  
 F01C  8D 01 F0  STA  $F001
 F01F  60        RTS  
 F020  54 61 6C 69 20 64 65 66 61 75 6C 74 20 6B 65 72  |Tali default ker|
 F030  6E 65 6C 20 66 6F 72 20 70 79 36 35 6D 6F 6E 20  |nel for py65mon |
 F040  28 32 37 2E 20 44 65 63 20 32 30 31 37 29 0A 00  |(27. Dec 2017)..|
 F050  00 00 00 00 00 00 00 00 00 00 00 00 00 00 00 00  |................|
 F060  00 00 00 00 00 00 00 00 00 00 00 00 00 00 00 00  |................|
 F070  00 00 00 00 00 00 00 00 00 00 00 00 00 00 00 00  |................|
 F080  00 00 00 00 00 00 00 00 00 00 00 00 00 00 00 00  |................|
 F090  00 00 00 00 00 00 00 00 00 00 00 00 00 00 00 00  |................|
 F0A0  00 00 00 00 00 00 00 00 00 00 00 00 00 00 00 00  |................|
 F0B0  00 00 00 00 00 00 00 00 00 00 00 00 00 00 00 00  |................|
 F0C0  00 00 00 00 00 00 00 00 00 00 00 00 00 00 00 00  |................|
 F0D0  00 00 00 00 00 00 00 00 00 00 00 00 00 00 00 00  |................|
 F0E0  00 00 00 00 00 00 00 00 00 00 00 00 00 00 00 00  |................|
 F0F0  00 00 00 00 00 00 00 00 00 00 00 00 00 00 00 00  |................|
 F100  00 00 00 00 00 00 00 00 00 00 00 00 00 00 00 00  |................|
 F110  00 00 00 00 00 00 00 00 00 00 00 00 00 00 00 00  |................|
 F120  00 00 00 00 00 00 00 00 00 00 00 00 00 00 00 00  |................|
 F130  00 00 00 00 00 00 00 00 00 00 00 00 00 00 00 00  |................|
 F140  00 00 00 00 00 00 00 00 00 00 00 00 00 00 00 00  |................|
 F150  00 00 00 00 00 00 00 00 00 00 00 00 00 00 00 00  |................|
 F160  00 00 00 00 00 00 00 00 00 00 00 00 00 00 00 00  |................|
 F170  00 00 00 00 00 00 00 00 00 00 00 00 00 00 00 00  |................|
 F180  00 00 00 00 00 00 00 00 00 00 00 00 00 00 00 00  |................|
 F190  00 00 00 00 00 00 00 00 00 00 00 00 00 00 00 00  |................|
 F1A0  00 00 00 00 00 00 00 00 00 00 00 00 00 00 00 00  |................|
 F1B0  00 00 00 00 00 00 00 00 00 00 00 00 00 00 00 00  |................|
 F1C0  00 00 00 00 00 00 00 00 00 00 00 00 00 00 00 00  |................|
 F1D0  00 00 00 00 00 00 00 00 00 00 00 00 00 00 00 00  |................|
 F1E0  00 00 00 00 00 00 00 00 00 00 00 00 00 00 00 00  |................|
 F1F0  00 00 00 00 00 00 00 00 00 00 00 00 00 00 00 00  |................|
 F200  00 00 00 00 00 00 00 00 00 00 00 00 00 00 00 00  |................|
 F210  00 00 00 00 00 00 00 00 00 00 00 00 00 00 00 00  |................|
 F220  00 00 00 00 00 00 00 00 00 00 00 00 00 00 00 00  |................|
 F230  00 00 00 00 00 00 00 00 00 00 00 00 00 00 00 00  |................|
 F240  00 00 00 00 00 00 00 00 00 00 00 00 00 00 00 00  |................|
 F250  00 00 00 00 00 00 00 00 00 00 00 00 00 00 00 00  |................|
 F260  00 00 00 00 00 00 00 00 00 00 00 00 00 00 00 00  |................|
 F270  00 00 00 00 00 00 00 00 00 00 00 00 00 00 00 00  |................|
 F280  00 00 00 00 00 00 00 00 00 00 00 00 00 00 00 00  |................|
 F290  00 00 00 00 00 00 00 00 00 00 00 00 00 00 00 00  |................|
 F2A0  00 00 00 00 00 00 00 00 00 00 00 00 00 00 00 00  |................|
 F2B0  00 00 00 00 00 00 00 00 00 00 00 00 00 00 00 00  |................|
 F2C0  00 00 00 00 00 00 00 00 00 00 00 00 00 00 00 00  |................|
 F2D0  00 00 00 00 00 00 00 00 00 00 00 00 00 00 00 00  |................|
 F2E0  00 00 00 00 00 00 00 00 00 00 00 00 00 00 00 00  |................|
 F2F0  00 00 00 00 00 00 00 00 00 00 00 00 00 00 00 00  |................|
 F300  00 00 00 00 00 00 00 00 00 00 00 00 00 00 00 00  |................|
 F310  00 00 00 00 00 00 00 00 00 00 00 00 00 00 00 00  |................|
 F320  00 00 00 00 00 00 00 00 00 00 00 00 00 00 00 00  |................|
 F330  00 00 00 00 00 00 00 00 00 00 00 00 00 00 00 00  |................|
 F340  00 00 00 00 00 00 00 00 00 00 00 00 00 00 00 00  |................|
 F350  00 00 00 00 00 00 00 00 00 00 00 00 00 00 00 00  |................|
 F360  00 00 00 00 00 00 00 00 00 00 00 00 00 00 00 00  |................|
 F370  00 00 00 00 00 00 00 00 00 00 00 00 00 00 00 00  |................|
 F380  00 00 00 00 00 00 00 00 00 00 00 00 00 00 00 00  |................|
 F390  00 00 00 00 00 00 00 00 00 00 00 00 00 00 00 00  |................|
 F3A0  00 00 00 00 00 00 00 00 00 00 00 00 00 00 00 00  |................|
 F3B0  00 00 00 00 00 00 00 00 00 00 00 00 00 00 00 00  |................|
 F3C0  00 00 00 00 00 00 00 00 00 00 00 00 00 00 00 00  |................|
 F3D0  00 00 00 00 00 00 00 00 00 00 00 00 00 00 00 00  |................|
 F3E0  00 00 00 00 00 00 00 00 00 00 00 00 00 00 00 00  |................|
 F3F0  00 00 00 00 00 00 00 00 00 00 00 00 00 00 00 00  |................|
 F400  00 00 00 00 00 00 00 00 00 00 00 00 00 00 00 00  |................|
 F410  00 00 00 00 00 00 00 00 00 00 00 00 00 00 00 00  |................|
 F420  00 00 00 00 00 00 00 00 00 00 00 00 00 00 00 00  |................|
 F430  00 00 00 00 00 00 00 00 00 00 00 00 00 00 00 00  |................|
 F440  00 00 00 00 00 00 00 00 00 00 00 00 00 00 00 00  |................|
 F450  00 00 00 00 00 00 00 00 00 00 00 00 00 00 00 00  |................|
 F460  00 00 00 00 00 00 00 00 00 00 00 00 00 00 00 00  |................|
 F470  00 00 00 00 00 00 00 00 00 00 00 00 00 00 00 00  |................|
 F480  00 00 00 00 00 00 00 00 00 00 00 00 00 00 00 00  |................|
 F490  00 00 00 00 00 00 00 00 00 00 00 00 00 00 00 00  |................|
 F4A0  00 00 00 00 00 00 00 00 00 00 00 00 00 00 00 00  |................|
 F4B0  00 00 00 00 00 00 00 00 00 00 00 00 00 00 00 00  |................|
 F4C0  00 00 00 00 00 00 00 00 00 00 00 00 00 00 00 00  |................|
 F4D0  00 00 00 00 00 00 00 00 00 00 00 00 00 00 00 00  |................|
 F4E0  00 00 00 00 00 00 00 00 00 00 00 00 00 00 00 00  |................|
 F4F0  00 00 00 00 00 00 00 00 00 00 00 00 00 00 00 00  |................|
 F500  00 00 00 00 00 00 00 00 00 00 00 00 00 00 00 00  |................|
 F510  00 00 00 00 00 00 00 00 00 00 00 00 00 00 00 00  |................|
 F520  00 00 00 00 00 00 00 00 00 00 00 00 00 00 00 00  |................|
 F530  00 00 00 00 00 00 00 00 00 00 00 00 00 00 00 00  |................|
 F540  00 00 00 00 00 00 00 00 00 00 00 00 00 00 00 00  |................|
 F550  00 00 00 00 00 00 00 00 00 00 00 00 00 00 00 00  |................|
 F560  00 00 00 00 00 00 00 00 00 00 00 00 00 00 00 00  |................|
 F570  00 00 00 00 00 00 00 00 00 00 00 00 00 00 00 00  |................|
 F580  00 00 00 00 00 00 00 00 00 00 00 00 00 00 00 00  |................|
 F590  00 00 00 00 00 00 00 00 00 00 00 00 00 00 00 00  |................|
 F5A0  00 00 00 00 00 00 00 00 00 00 00 00 00 00 00 00  |................|
 F5B0  00 00 00 00 00 00 00 00 00 00 00 00 00 00 00 00  |................|
 F5C0  00 00 00 00 00 00 00 00 00 00 00 00 00 00 00 00  |................|
 F5D0  00 00 00 00 00 00 00 00 00 00 00 00 00 00 00 00  |................|
 F5E0  00 00 00 00 00 00 00 00 00 00 00 00 00 00 00 00  |................|
 F5F0  00 00 00 00 00 00 00 00 00 00 00 00 00 00 00 00  |................|
 F600  00 00 00 00 00 00 00 00 00 00 00 00 00 00 00 00  |................|
 F610  00 00 00 00 00 00 00 00 00 00 00 00 00 00 00 00  |................|
 F620  00 00 00 00 00 00 00 00 00 00 00 00 00 00 00 00  |................|
 F630  00 00 00 00 00 00 00 00 00 00 00 00 00 00 00 00  |................|
 F640  00 00 00 00 00 00 00 00 00 00 00 00 00 00 00 00  |................|
 F650  00 00 00 00 00 00 00 00 00 00 00 00 00 00 00 00  |................|
 F660  00 00 00 00 00 00 00 00 00 00 00 00 00 00 00 00  |................|
 F670  00 00 00 00 00 00 00 00 00 00 00 00 00 00 00 00  |................|
 F680  00 00 00 00 00 00 00 00 00 00 00 00 00 00 00 00  |................|
 F690  00 00 00 00 00 00 00 00 00 00 00 00 00 00 00 00  |................|
 F6A0  00 00 00 00 00 00 00 00 00 00 00 00 00 00 00 00  |................|
 F6B0  00 00 00 00 00 00 00 00 00 00 00 00 00 00 00 00  |................|
 F6C0  00 00 00 00 00 00 00 00 00 00 00 00 00 00 00 00  |................|
 F6D0  00 00 00 00 00 00 00 00 00 00 00 00 00 00 00 00  |................|
 F6E0  00 00 00 00 00 00 00 00 00 00 00 00 00 00 00 00  |................|
 F6F0  00 00 00 00 00 00 00 00 00 00 00 00 00 00 00 00  |................|
 F700  00 00 00 00 00 00 00 00 00 00 00 00 00 00 00 00  |................|
 F710  00 00 00 00 00 00 00 00 00 00 00 00 00 00 00 00  |................|
 F720  00 00 00 00 00 00 00 00 00 00 00 00 00 00 00 00  |................|
 F730  00 00 00 00 00 00 00 00 00 00 00 00 00 00 00 00  |................|
 F740  00 00 00 00 00 00 00 00 00 00 00 00 00 00 00 00  |................|
 F750  00 00 00 00 00 00 00 00 00 00 00 00 00 00 00 00  |................|
 F760  00 00 00 00 00 00 00 00 00 00 00 00 00 00 00 00  |................|
 F770  00 00 00 00 00 00 00 00 00 00 00 00 00 00 00 00  |................|
 F780  00 00 00 00 00 00 00 00 00 00 00 00 00 00 00 00  |................|
 F790  00 00 00 00 00 00 00 00 00 00 00 00 00 00 00 00  |................|
 F7A0  00 00 00 00 00 00 00 00 00 00 00 00 00 00 00 00  |................|
 F7B0  00 00 00 00 00 00 00 00 00 00 00 00 00 00 00 00  |................|
 F7C0  00 00 00 00 00 00 00 00 00 00 00 00 00 00 00 00  |................|
 F7D0  00 00 00 00 00 00 00 00 00 00 00 00 00 00 00 00  |................|
 F7E0  00 00 00 00 00 00 00 00 00 00 00 00 00 00 00 00  |................|
 F7F0  00 00 00 00 00 00 00 00 00 00 00 00 00 00 00 00  |................|
 F800  00 00 00 00 00 00 00 00 00 00 00 00 00 00 00 00  |................|
 F810  00 00 00 00 00 00 00 00 00 00 00 00 00 00 00 00  |................|
 F820  00 00 00 00 00 00 00 00 00 00 00 00 00 00 00 00  |................|
 F830  00 00 00 00 00 00 00 00 00 00 00 00 00 00 00 00  |................|
 F840  00 00 00 00 00 00 00 00 00 00 00 00 00 00 00 00  |................|
 F850  00 00 00 00 00 00 00 00 00 00 00 00 00 00 00 00  |................|
 F860  00 00 00 00 00 00 00 00 00 00 00 00 00 00 00 00  |................|
 F870  00 00 00 00 00 00 00 00 00 00 00 00 00 00 00 00  |................|
 F880  00 00 00 00 00 00 00 00 00 00 00 00 00 00 00 00  |................|
 F890  00 00 00 00 00 00 00 00 00 00 00 00 00 00 00 00  |................|
 F8A0  00 00 00 00 00 00 00 00 00 00 00 00 00 00 00 00  |................|
 F8B0  00 00 00 00 00 00 00 00 00 00 00 00 00 00 00 00  |................|
 F8C0  00 00 00 00 00 00 00 00 00 00 00 00 00 00 00 00  |................|
 F8D0  00 00 00 00 00 00 00 00 00 00 00 00 00 00 00 00  |................|
 F8E0  00 00 00 00 00 00 00 00 00 00 00 00 00 00 00 00  |................|
 F8F0  00 00 00 00 00 00 00 00 00 00 00 00 00 00 00 00  |................|
 F900  00 00 00 00 00 00 00 00 00 00 00 00 00 00 00 00  |................|
 F910  00 00 00 00 00 00 00 00 00 00 00 00 00 00 00 00  |................|
 F920  00 00 00 00 00 00 00 00 00 00 00 00 00 00 00 00  |................|
 F930  00 00 00 00 00 00 00 00 00 00 00 00 00 00 00 00  |................|
 F940  00 00 00 00 00 00 00 00 00 00 00 00 00 00 00 00  |................|
 F950  00 00 00 00 00 00 00 00 00 00 00 00 00 00 00 00  |................|
 F960  00 00 00 00 00 00 00 00 00 00 00 00 00 00 00 00  |................|
 F970  00 00 00 00 00 00 00 00 00 00 00 00 00 00 00 00  |................|
 F980  00 00 00 00 00 00 00 00 00 00 00 00 00 00 00 00  |................|
 F990  00 00 00 00 00 00 00 00 00 00 00 00 00 00 00 00  |................|
 F9A0  00 00 00 00 00 00 00 00 00 00 00 00 00 00 00 00  |................|
 F9B0  00 00 00 00 00 00 00 00 00 00 00 00 00 00 00 00  |................|
 F9C0  00 00 00 00 00 00 00 00 00 00 00 00 00 00 00 00  |................|
 F9D0  00 00 00 00 00 00 00 00 00 00 00 00 00 00 00 00  |................|
 F9E0  00 00 00 00 00 00 00 00 00 00 00 00 00 00 00 00  |................|
 F9F0  00 00 00 00 00 00 00 00 00 00 00 00 00 00 00 00  |................|
 FA00  00 00 00 00 00 00 00 00 00 00 00 00 00 00 00 00  |................|
 FA10  00 00 00 00 00 00 00 00 00 00 00 00 00 00 00 00  |................|
 FA20  00 00 00 00 00 00 00 00 00 00 00 00 00 00 00 00  |................|
 FA30  00 00 00 00 00 00 00 00 00 00 00 00 00 00 00 00  |................|
 FA40  00 00 00 00 00 00 00 00 00 00 00 00 00 00 00 00  |................|
 FA50  00 00 00 00 00 00 00 00 00 00 00 00 00 00 00 00  |................|
 FA60  00 00 00 00 00 00 00 00 00 00 00 00 00 00 00 00  |................|
 FA70  00 00 00 00 00 00 00 00 00 00 00 00 00 00 00 00  |................|
 FA80  00 00 00 00 00 00 00 00 00 00 00 00 00 00 00 00  |................|
 FA90  00 00 00 00 00 00 00 00 00 00 00 00 00 00 00 00  |................|
 FAA0  00 00 00 00 00 00 00 00 00 00 00 00 00 00 00 00  |................|
 FAB0  00 00 00 00 00 00 00 00 00 00 00 00 00 00 00 00  |................|
 FAC0  00 00 00 00 00 00 00 00 00 00 00 00 00 00 00 00  |................|
 FAD0  00 00 00 00 00 00 00 00 00 00 00 00 00 00 00 00  |................|
 FAE0  00 00 00 00 00 00 00 00 00 00 00 00 00 00 00 00  |................|
 FAF0  00 00 00 00 00 00 00 00 00 00 00 00 00 00 00 00  |................|
 FB00  00 00 00 00 00 00 00 00 00 00 00 00 00 00 00 00  |................|
 FB10  00 00 00 00 00 00 00 00 00 00 00 00 00 00 00 00  |................|
 FB20  00 00 00 00 00 00 00 00 00 00 00 00 00 00 00 00  |................|
 FB30  00 00 00 00 00 00 00 00 00 00 00 00 00 00 00 00  |................|
 FB40  00 00 00 00 00 00 00 00 00 00 00 00 00 00 00 00  |................|
 FB50  00 00 00 00 00 00 00 00 00 00 00 00 00 00 00 00  |................|
 FB60  00 00 00 00 00 00 00 00 00 00 00 00 00 00 00 00  |................|
 FB70  00 00 00 00 00 00 00 00 00 00 00 00 00 00 00 00  |................|
 FB80  00 00 00 00 00 00 00 00 00 00 00 00 00 00 00 00  |................|
 FB90  00 00 00 00 00 00 00 00 00 00 00 00 00 00 00 00  |................|
 FBA0  00 00 00 00 00 00 00 00 00 00 00 00 00 00 00 00  |................|
 FBB0  00 00 00 00 00 00 00 00 00 00 00 00 00 00 00 00  |................|
 FBC0  00 00 00 00 00 00 00 00 00 00 00 00 00 00 00 00  |................|
 FBD0  00 00 00 00 00 00 00 00 00 00 00 00 00 00 00 00  |................|
 FBE0  00 00 00 00 00 00 00 00 00 00 00 00 00 00 00 00  |................|
 FBF0  00 00 00 00 00 00 00 00 00 00 00 00 00 00 00 00  |................|
 FC00  00 00 00 00 00 00 00 00 00 00 00 00 00 00 00 00  |................|
 FC10  00 00 00 00 00 00 00 00 00 00 00 00 00 00 00 00  |................|
 FC20  00 00 00 00 00 00 00 00 00 00 00 00 00 00 00 00  |................|
 FC30  00 00 00 00 00 00 00 00 00 00 00 00 00 00 00 00  |................|
 FC40  00 00 00 00 00 00 00 00 00 00 00 00 00 00 00 00  |................|
 FC50  00 00 00 00 00 00 00 00 00 00 00 00 00 00 00 00  |................|
 FC60  00 00 00 00 00 00 00 00 00 00 00 00 00 00 00 00  |................|
 FC70  00 00 00 00 00 00 00 00 00 00 00 00 00 00 00 00  |................|
 FC80  00 00 00 00 00 00 00 00 00 00 00 00 00 00 00 00  |................|
 FC90  00 00 00 00 00 00 00 00 00 00 00 00 00 00 00 00  |................|
 FCA0  00 00 00 00 00 00 00 00 00 00 00 00 00 00 00 00  |................|
 FCB0  00 00 00 00 00 00 00 00 00 00 00 00 00 00 00 00  |................|
 FCC0  00 00 00 00 00 00 00 00 00 00 00 00 00 00 00 00  |................|
 FCD0  00 00 00 00 00 00 00 00 00 00 00 00 00 00 00 00  |................|
 FCE0  00 00 00 00 00 00 00 00 00 00 00 00 00 00 00 00  |................|
 FCF0  00 00 00 00 00 00 00 00 00 00 00 00 00 00 00 00  |................|
 FD00  00 00 00 00 00 00 00 00 00 00 00 00 00 00 00 00  |................|
 FD10  00 00 00 00 00 00 00 00 00 00 00 00 00 00 00 00  |................|
 FD20  00 00 00 00 00 00 00 00 00 00 00 00 00 00 00 00  |................|
 FD30  00 00 00 00 00 00 00 00 00 00 00 00 00 00 00 00  |................|
 FD40  00 00 00 00 00 00 00 00 00 00 00 00 00 00 00 00  |................|
 FD50  00 00 00 00 00 00 00 00 00 00 00 00 00 00 00 00  |................|
 FD60  00 00 00 00 00 00 00 00 00 00 00 00 00 00 00 00  |................|
 FD70  00 00 00 00 00 00 00 00 00 00 00 00 00 00 00 00  |................|
 FD80  00 00 00 00 00 00 00 00 00 00 00 00 00 00 00 00  |................|
 FD90  00 00 00 00 00 00 00 00 00 00 00 00 00 00 00 00  |................|
 FDA0  00 00 00 00 00 00 00 00 00 00 00 00 00 00 00 00  |................|
 FDB0  00 00 00 00 00 00 00 00 00 00 00 00 00 00 00 00  |................|
 FDC0  00 00 00 00 00 00 00 00 00 00 00 00 00 00 00 00  |................|
 FDD0  00 00 00 00 00 00 00 00 00 00 00 00 00 00 00 00  |................|
 FDE0  00 00 00 00 00 00 00 00 00 00 00 00 00 00 00 00  |................|
 FDF0  00 00 00 00 00 00 00 00 00 00 00 00 00 00 00 00  |................|
 FE00  00 00 00 00 00 00 00 00 00 00 00 00 00 00 00 00  |................|
 FE10  00 00 00 00 00 00 00 00 00 00 00 00 00 00 00 00  |................|
 FE20  00 00 00 00 00 00 00 00 00 00 00 00 00 00 00 00  |................|
 FE30  00 00 00 00 00 00 00 00 00 00 00 00 00 00 00 00  |................|
 FE40  00 00 00 00 00 00 00 00 00 00 00 00 00 00 00 00  |................|
 FE50  00 00 00 00 00 00 00 00 00 00 00 00 00 00 00 00  |................|
 FE60  00 00 00 00 00 00 00 00 00 00 00 00 00 00 00 00  |................|
 FE70  00 00 00 00 00 00 00 00 00 00 00 00 00 00 00 00  |................|
 FE80  00 00 00 00 00 00 00 00 00 00 00 00 00 00 00 00  |................|
 FE90  00 00 00 00 00 00 00 00 00 00 00 00 00 00 00 00  |................|
 FEA0  00 00 00 00 00 00 00 00 00 00 00 00 00 00 00 00  |................|
 FEB0  00 00 00 00 00 00 00 00 00 00 00 00 00 00 00 00  |................|
 FEC0  00 00 00 00 00 00 00 00 00 00 00 00 00 00 00 00  |................|
 FED0  00 00 00 00 00 00 00 00 00 00 00 00 00 00 00 00  |................|
 FEE0  00 00 00 00 00 00 00 00 00 00 00 00 00 00 00 00  |................|
 FEF0  00 00 00 00 00 00 00 00 00 00 00 00 00 00 00 00  |................|
 FF00  00 00 00 00 00 00 00 00 00 00 00 00 00 00 00 00  |................|
 FF10  00 00 00 00 00 00 00 00 00 00 00 00 00 00 00 00  |................|
 FF20  00 00 00 00 00 00 00 00 00 00 00 00 00 00 00 00  |................|
 FF30  00 00 00 00 00 00 00 00 00 00 00 00 00 00 00 00  |................|
 FF40  00 00 00 00 00 00 00 00 00 00 00 00 00 00 00 00  |................|
 FF50  00 00 00 00 00 00 00 00 00 00 00 00 00 00 00 00  |................|
 FF60  00 00 00 00 00 00 00 00 00 00 00 00 00 00 00 00  |................|
 FF70  00 00 00 00 00 00 00 00 00 00 00 00 00 00 00 00  |................|
 FF80  00 00 00 00 00 00 00 00 00 00 00 00 00 00 00 00  |................|
 FF90  00 00 00 00 00 00 00 00 00 00 00 00 00 00 00 00  |................|
 FFA0  00 00 00 00 00 00 00 00 00 00 00 00 00 00 00 00  |................|
 FFB0  00 00 00 00 00 00 00 00 00 00 00 00 00 00 00 00  |................|
 FFC0  00 00 00 00 00 00 00 00 00 00 00 00 00 00 00 00  |................|
 FFD0  00 00 00 00 00 00 00 00 00 00 00 00 00 00 00 00  |................|
 FFE0  00 00 00 00 00 00 00 00 00 00 00 00 00 00 00 00  |................|
 FFF0  00 00 00 00 00 00 00 00 00 00 06 F0 06 F0 06 F0  |................|
