 8000  78        SEI  
 8001  D8        CLD  
 8002  A9 26     LDA  #$26
 8004  85 10     STA  $10
 8006  A9 F0     LDA  #$F0
 8008  85 11     STA  $11
 800A  A9 20     LDA  #$20
 800C  85 12     STA  $12
 800E  A9 F0     LDA  #$F0
 8010  85 13     STA  $13
 8012  A2 FF     LDX  #$FF
 8014  9A        TXS  
 8015  A2 78     LDX  #$78
 8017  A9 0A     LDA  #$0A
 8019  85 18     STA  $18
 801B  64 19     STZ  $19
 801D  A9 14     LDA  #$14
 801F  85 1A     STA  $1A
 8021  64 1B     STZ  $1B
 8023  64 1C     STZ  $1C
 8025  64 1D     STZ  $1D
 8027  A9 FF     LDA  #$FF
 8029  85 00     STA  $00
 802B  A9 02     LDA  #$02
 802D  85 01     STA  $01
 802F  A9 00     LDA  #$00
 8031  85 08     STA  $08
 8033  A9 02     LDA  #$02
 8035  85 09     STA  $09
 8037  64 0A     STZ  $0A
 8039  64 0B     STZ  $0B
 803B  64 06     STZ  $06
 803D  64 07     STZ  $07
 803F  64 16     STZ  $16
 8041  64 17     STZ  $17
 8043  A9 02     LDA  #$02
 8045  85 02     STA  $02
 8047  A9 B9     LDA  #$B9
 8049  85 03     STA  $03
 804B  20 AE 86  JSR  $86AE
 804E  CA        DEX  
 804F  CA        DEX  
 8050  CA        DEX  
 8051  CA        DEX  
 8052  A9 EC     LDA  #$EC
 8054  95 02     STA  $02, X
 8056  A9 A4     LDA  #$A4
 8058  95 03     STA  $03, X
 805A  A9 C9     LDA  #$C9
 805C  38        SEC  
 805D  E9 EC     SBC  #$EC
 805F  95 00     STA  $00, X
 8061  A9 AD     LDA  #$AD
 8063  E9 A4     SBC  #$A4
 8065  95 01     STA  $01, X
 8067  20 AA 8A  JSR  $8AAA
 806A  CA        DEX  
 806B  CA        DEX  
 806C  CA        DEX  
 806D  CA        DEX  
 806E  A9 C9     LDA  #$C9
 8070  95 02     STA  $02, X
 8072  A9 AD     LDA  #$AD
 8074  95 03     STA  $03, X
 8076  A9 A3     LDA  #$A3
 8078  38        SEC  
 8079  E9 C9     SBC  #$C9
 807B  95 00     STA  $00, X
 807D  A9 AF     LDA  #$AF
 807F  E9 AD     SBC  #$AD
 8081  95 01     STA  $01, X
 8083  20 AA 8A  JSR  $8AAA
 8086  9C 00 7C  STZ  $7C00
 8089  9C 80 7C  STZ  $7C80
 808C  9C 00 7D  STZ  $7D00
 808F  9C 80 7D  STZ  $7D80
 8092  9C 00 7E  STZ  $7E00
 8095  9C 80 7E  STZ  $7E80
 8098  9C 00 7F  STZ  $7F00
 809B  9C 80 7F  STZ  $7F80
 809E  A2 78     LDX  #$78
 80A0  8A        TXA  
 80A1  A2 FF     LDX  #$FF
 80A3  9A        TXS  
 80A4  AA        TAX  
 80A5  64 0E     STZ  $0E
 80A7  64 0F     STZ  $0F
 80A9  64 06     STZ  $06
 80AB  64 07     STZ  $07
 80AD  64 16     STZ  $16
 80AF  64 17     STZ  $17
 80B1  A9 00     LDA  #$00
 80B3  85 08     STA  $08
 80B5  A9 02     LDA  #$02
 80B7  85 09     STA  $09
 80B9  64 0A     STZ  $0A
 80BB  64 0B     STZ  $0B
 80BD  20 C6 93  JSR  $93C6
 80C0  B5 00     LDA  $00, X
 80C2  D0 05     BNE  $80C9
 80C4  A9 08     LDA  #$08
 80C6  4C FD BB  JMP  $BBFD
 80C9  E8        INX  
 80CA  E8        INX  
 80CB  20 7D BB  JSR  $BB7D
 80CE  E0 78     CPX  #$78
 80D0  F0 05     BEQ  $80D7
 80D2  90 03     BCC  $80D7
 80D4  4C FB BB  JMP  $BBFB
 80D7  A5 16     LDA  $16
 80D9  F0 02     BEQ  $80DD
 80DB  A9 01     LDA  #$01
 80DD  20 10 BC  JSR  $BC10
 80E0  80 CF     BRA  $80B1
 80E2  20 47 94  JSR  $9447
 80E5  A0 80     LDY  #$80
 80E7  A9 ED     LDA  #$ED
 80E9  20 DD BA  JSR  $BADD
 80EC  60        RTS  
 80ED  B5 04     LDA  $04, X
 80EF  15 05     ORA  $05, X
 80F1  F0 09     BEQ  $80FC
 80F3  20 4E 9A  JSR  $9A4E
 80F6  20 AE 86  JSR  $86AE
 80F9  4C 9E 80  JMP  $809E
 80FC  8A        TXA  
 80FD  18        CLC  
 80FE  69 06     ADC  #$06
 8100  AA        TAX  
 8101  60        RTS  
 8102  E0 77     CPX  #$77
 8104  30 03     BMI  $8109
 8106  4C FB BB  JMP  $BBFB
 8109  B5 01     LDA  $01, X
 810B  10 0D     BPL  $811A
 810D  38        SEC  
 810E  A9 00     LDA  #$00
 8110  F5 00     SBC  $00, X
 8112  95 00     STA  $00, X
 8114  A9 00     LDA  #$00
 8116  F5 01     SBC  $01, X
 8118  95 01     STA  $01, X
 811A  60        RTS  
 811B  E0 75     CPX  #$75
 811D  30 03     BMI  $8122
 811F  4C FB BB  JMP  $BBFB
 8122  B5 00     LDA  $00, X
 8124  15 01     ORA  $01, X
 8126  D0 09     BNE  $8131
 8128  E8        INX  
 8129  E8        INX  
 812A  74 00     STZ  $00, X
 812C  74 01     STZ  $01, X
 812E  4C 1D 82  JMP  $821D
 8131  B5 00     LDA  $00, X
 8133  85 22     STA  $22
 8135  64 23     STZ  $23
 8137  B5 02     LDA  $02, X
 8139  85 20     STA  $20
 813B  B5 03     LDA  $03, X
 813D  85 21     STA  $21
 813F  E8        INX  
 8140  E8        INX  
 8141  A0 00     LDY  #$00
 8143  A5 34     LDA  $34
 8145  29 F7     AND  #$F7
 8147  1A        INC  
 8148  09 08     ORA  #$08
 814A  85 34     STA  $34
 814C  20 4B 8D  JSR  $8D4B
 814F  C9 0A     CMP  #$0A
 8151  F0 20     BEQ  $8173
 8153  C9 0D     CMP  #$0D
 8155  F0 1C     BEQ  $8173
 8157  C9 08     CMP  #$08
 8159  F0 22     BEQ  $817D
 815B  C9 7F     CMP  #$7F
 815D  F0 1E     BEQ  $817D
 815F  C9 10     CMP  #$10
 8161  F0 36     BEQ  $8199
 8163  C9 0E     CMP  #$0E
 8165  F0 44     BEQ  $81AB
 8167  20 30 8A  JSR  $8A30
 816A  91 20     STA  ($20), Y
 816C  C8        INY  
 816D  C4 22     CPY  $22
 816F  D0 DB     BNE  $814C
 8171  80 03     BRA  $8176
 8173  20 E3 96  JSR  $96E3
 8176  94 00     STY  $00, X
 8178  74 01     STZ  $01, X
 817A  4C 1D 82  JMP  $821D
 817D  C0 00     CPY  #$00
 817F  D0 06     BNE  $8187
 8181  A9 07     LDA  #$07
 8183  20 30 8A  JSR  $8A30
 8186  C8        INY  
 8187  88        DEY  
 8188  A9 08     LDA  #$08
 818A  20 30 8A  JSR  $8A30
 818D  A9 20     LDA  #$20
 818F  20 30 8A  JSR  $8A30
 8192  A9 08     LDA  #$08
 8194  20 30 8A  JSR  $8A30
 8197  80 B3     BRA  $814C
 8199  A5 34     LDA  $34
 819B  29 07     AND  #$07
 819D  D0 08     BNE  $81A7
 819F  A5 34     LDA  $34
 81A1  09 07     ORA  #$07
 81A3  85 34     STA  $34
 81A5  80 11     BRA  $81B8
 81A7  C6 34     DEC  $34
 81A9  80 0D     BRA  $81B8
 81AB  A9 08     LDA  #$08
 81AD  24 34     BIT  $34
 81AF  D0 07     BNE  $81B8
 81B1  A5 34     LDA  $34
 81B3  29 F7     AND  #$F7
 81B5  1A        INC  
 81B6  85 34     STA  $34
 81B8  A5 34     LDA  $34
 81BA  29 F7     AND  #$F7
 81BC  85 34     STA  $34
 81BE  A9 00     LDA  #$00
 81C0  85 24     STA  $24
 81C2  A9 7C     LDA  #$7C
 81C4  85 25     STA  $25
 81C6  A5 34     LDA  $34
 81C8  6A        ROR  
 81C9  29 03     AND  #$03
 81CB  18        CLC  
 81CC  65 25     ADC  $25
 81CE  85 25     STA  $25
 81D0  A5 34     LDA  $34
 81D2  6A        ROR  
 81D3  6A        ROR  
 81D4  29 80     AND  #$80
 81D6  18        CLC  
 81D7  65 24     ADC  $24
 81D9  85 24     STA  $24
 81DB  90 02     BCC  $81DF
 81DD  E6 25     INC  $25
 81DF  A9 0D     LDA  #$0D
 81E1  20 30 8A  JSR  $8A30
 81E4  C0 00     CPY  #$00
 81E6  F0 08     BEQ  $81F0
 81E8  A9 20     LDA  #$20
 81EA  20 30 8A  JSR  $8A30
 81ED  88        DEY  
 81EE  80 F4     BRA  $81E4
 81F0  A9 0D     LDA  #$0D
 81F2  20 30 8A  JSR  $8A30
 81F5  B1 24     LDA  ($24), Y
 81F7  85 35     STA  $35
 81F9  E6 24     INC  $24
 81FB  D0 02     BNE  $81FF
 81FD  E6 25     INC  $25
 81FF  A9 0D     LDA  #$0D
 8201  20 30 8A  JSR  $8A30
 8204  C4 35     CPY  $35
 8206  D0 03     BNE  $820B
 8208  4C 4C 81  JMP  $814C
 820B  C4 22     CPY  $22
 820D  F0 0A     BEQ  $8219
 820F  B1 24     LDA  ($24), Y
 8211  91 20     STA  ($20), Y
 8213  20 30 8A  JSR  $8A30
 8216  C8        INY  
 8217  80 EB     BRA  $8204
 8219  88        DEY  
 821A  4C 4C 81  JMP  $814C
 821D  A9 00     LDA  #$00
 821F  85 24     STA  $24
 8221  A9 7C     LDA  #$7C
 8223  85 25     STA  $25
 8225  A5 34     LDA  $34
 8227  6A        ROR  
 8228  29 03     AND  #$03
 822A  18        CLC  
 822B  65 25     ADC  $25
 822D  85 25     STA  $25
 822F  A5 34     LDA  $34
 8231  6A        ROR  
 8232  6A        ROR  
 8233  29 80     AND  #$80
 8235  18        CLC  
 8236  65 24     ADC  $24
 8238  85 24     STA  $24
 823A  90 02     BCC  $823E
 823C  E6 25     INC  $25
 823E  98        TYA  
 823F  C9 80     CMP  #$80
 8241  90 02     BCC  $8245
 8243  A9 7F     LDA  #$7F
 8245  85 35     STA  $35
 8247  A0 00     LDY  #$00
 8249  91 24     STA  ($24), Y
 824B  E6 24     INC  $24
 824D  D0 02     BNE  $8251
 824F  E6 25     INC  $25
 8251  C4 35     CPY  $35
 8253  F0 07     BEQ  $825C
 8255  B1 20     LDA  ($20), Y
 8257  91 24     STA  ($24), Y
 8259  C8        INY  
 825A  80 F5     BRA  $8251
 825C  60        RTS  
 825D  E0 77     CPX  #$77
 825F  30 03     BMI  $8264
 8261  4C FB BB  JMP  $BBFB
 8264  A0 00     LDY  #$00
 8266  A9 4C     LDA  #$4C
 8268  91 00     STA  ($00), Y
 826A  C8        INY  
 826B  B5 00     LDA  $00, X
 826D  91 00     STA  ($00), Y
 826F  C8        INY  
 8270  B5 01     LDA  $01, X
 8272  91 00     STA  ($00), Y
 8274  C8        INY  
 8275  98        TYA  
 8276  18        CLC  
 8277  65 00     ADC  $00
 8279  85 00     STA  $00
 827B  90 02     BCC  $827F
 827D  E6 01     INC  $01
 827F  E8        INX  
 8280  E8        INX  
 8281  60        RTS  
 8282  60        RTS  
 8283  E0 77     CPX  #$77
 8285  30 03     BMI  $828A
 8287  4C FB BB  JMP  $BBFB
 828A  18        CLC  
 828B  A5 00     LDA  $00
 828D  75 00     ADC  $00, X
 828F  85 00     STA  $00
 8291  A5 01     LDA  $01
 8293  75 01     ADC  $01, X
 8295  85 01     STA  $01
 8297  B5 01     LDA  $01, X
 8299  30 15     BMI  $82B0
 829B  A0 00     LDY  #$00
 829D  C4 00     CPY  $00
 829F  A9 7C     LDA  #$7C
 82A1  E5 01     SBC  $01
 82A3  B0 1B     BCS  $82C0
 82A5  84 00     STY  $00
 82A7  A9 7C     LDA  #$7C
 82A9  85 01     STA  $01
 82AB  A9 00     LDA  #$00
 82AD  4C FD BB  JMP  $BBFD
 82B0  A0 FF     LDY  #$FF
 82B2  C4 00     CPY  $00
 82B4  A9 02     LDA  #$02
 82B6  E5 01     SBC  $01
 82B8  90 06     BCC  $82C0
 82BA  84 00     STY  $00
 82BC  A9 02     LDA  #$02
 82BE  85 01     STA  $01
 82C0  E8        INX  
 82C1  E8        INX  
 82C2  60        RTS  
 82C3  A0 01     LDY  #$01
 82C5  B1 02     LDA  ($02), Y
 82C7  09 02     ORA  #$02
 82C9  91 02     STA  ($02), Y
 82CB  60        RTS  
 82CC  E0 75     CPX  #$75
 82CE  30 03     BMI  $82D3
 82D0  4C FB BB  JMP  $BBFB
 82D3  B5 00     LDA  $00, X
 82D5  35 02     AND  $02, X
 82D7  95 02     STA  $02, X
 82D9  B5 01     LDA  $01, X
 82DB  35 03     AND  $03, X
 82DD  95 03     STA  $03, X
 82DF  E8        INX  
 82E0  E8        INX  
 82E1  60        RTS  
 82E2  E0 75     CPX  #$75
 82E4  30 03     BMI  $82E9
 82E6  4C FB BB  JMP  $BBFB
 82E9  A9 1B     LDA  #$1B
 82EB  20 30 8A  JSR  $8A30
 82EE  A9 5B     LDA  #$5B
 82F0  20 30 8A  JSR  $8A30
 82F3  20 33 BC  JSR  $BC33
 82F6  A9 3B     LDA  #$3B
 82F8  20 30 8A  JSR  $8A30
 82FB  20 33 BC  JSR  $BC33
 82FE  A9 48     LDA  #$48
 8300  20 30 8A  JSR  $8A30
 8303  60        RTS  
 8304  A5 0A     LDA  $0A
 8306  85 0C     STA  $0C
 8308  A5 0B     LDA  $0B
 830A  85 0D     STA  $0D
 830C  60        RTS  
 830D  CA        DEX  
 830E  CA        DEX  
 830F  A9 18     LDA  #$18
 8311  95 00     STA  $00, X
 8313  A9 00     LDA  #$00
 8315  95 01     STA  $01, X
 8317  60        RTS  
 8318  20 67 8C  JSR  $8C67
 831B  60        RTS  
 831C  A9 07     LDA  #$07
 831E  20 30 8A  JSR  $8A30
 8321  60        RTS  
 8322  CA        DEX  
 8323  CA        DEX  
 8324  A9 20     LDA  #$20
 8326  95 00     STA  $00, X
 8328  74 01     STZ  $01, X
 832A  60        RTS  
 832B  E0 75     CPX  #$75
 832D  30 03     BMI  $8332
 832F  4C FB BB  JMP  $BBFB
 8332  18        CLC  
 8333  B5 00     LDA  $00, X
 8335  B4 02     LDY  $02, X
 8337  75 02     ADC  $02, X
 8339  95 02     STA  $02, X
 833B  94 00     STY  $00, X
 833D  B5 01     LDA  $01, X
 833F  B4 03     LDY  $03, X
 8341  75 03     ADC  $03, X
 8343  95 03     STA  $03, X
 8345  94 01     STY  $01, X
 8347  60        RTS  
 8348  20 B5 83  JSR  $83B5
 834B  20 91 8D  JSR  $8D91
 834E  60        RTS  
 834F  20 69 97  JSR  $9769
 8352  20 91 8D  JSR  $8D91
 8355  60        RTS  
 8356  A0 83     LDY  #$83
 8358  A9 5E     LDA  #$5E
 835A  20 DD BA  JSR  $BADD
 835D  60        RTS  
 835E  68        PLA  
 835F  85 1E     STA  $1E
 8361  68        PLA  
 8362  85 1F     STA  $1F
 8364  A0 01     LDY  #$01
 8366  B1 1E     LDA  ($1E), Y
 8368  85 20     STA  $20
 836A  C8        INY  
 836B  B1 1E     LDA  ($1E), Y
 836D  85 21     STA  $21
 836F  6C 20 00  JMP  ($0020)
 8372  00        BRK  
 8373  60        RTS  
 8374  E0 77     CPX  #$77
 8376  30 03     BMI  $837B
 8378  4C FB BB  JMP  $BBFB
 837B  B5 00     LDA  $00, X
 837D  20 ED BA  JSR  $BAED
 8380  E8        INX  
 8381  E8        INX  
 8382  60        RTS  
 8383  E0 77     CPX  #$77
 8385  30 03     BMI  $838A
 8387  4C FB BB  JMP  $BBFB
 838A  A1 00     LDA  ($00, X)
 838C  95 00     STA  $00, X
 838E  74 01     STZ  $01, X
 8390  60        RTS  
 8391  E0 75     CPX  #$75
 8393  30 03     BMI  $8398
 8395  4C FB BB  JMP  $BBFB
 8398  B5 02     LDA  $02, X
 839A  81 00     STA  ($00, X)
 839C  E8        INX  
 839D  E8        INX  
 839E  E8        INX  
 839F  E8        INX  
 83A0  60        RTS  
 83A1  E0 77     CPX  #$77
 83A3  30 03     BMI  $83A8
 83A5  4C FB BB  JMP  $BBFB
 83A8  F6 00     INC  $00, X
 83AA  D0 02     BNE  $83AE
 83AC  F6 01     INC  $01, X
 83AE  F6 00     INC  $00, X
 83B0  D0 02     BNE  $83B4
 83B2  F6 01     INC  $01, X
 83B4  60        RTS  
 83B5  20 C8 91  JSR  $91C8
 83B8  B5 00     LDA  $00, X
 83BA  15 01     ORA  $01, X
 83BC  D0 05     BNE  $83C3
 83BE  A9 06     LDA  #$06
 83C0  4C FD BB  JMP  $BBFD
 83C3  E8        INX  
 83C4  E8        INX  
 83C5  A1 00     LDA  ($00, X)
 83C7  95 00     STA  $00, X
 83C9  74 01     STZ  $01, X
 83CB  60        RTS  
 83CC  E0 77     CPX  #$77
 83CE  30 03     BMI  $83D3
 83D0  4C FB BB  JMP  $BBFB
 83D3  60        RTS  
 83D4  E0 73     CPX  #$73
 83D6  30 03     BMI  $83DB
 83D8  4C FB BB  JMP  $BBFB
 83DB  B5 02     LDA  $02, X
 83DD  85 22     STA  $22
 83DF  B5 03     LDA  $03, X
 83E1  85 23     STA  $23
 83E3  B5 04     LDA  $04, X
 83E5  85 20     STA  $20
 83E7  B5 05     LDA  $05, X
 83E9  85 21     STA  $21
 83EB  A0 00     LDY  #$00
 83ED  B5 01     LDA  $01, X
 83EF  F0 0F     BEQ  $8400
 83F1  B1 20     LDA  ($20), Y
 83F3  91 22     STA  ($22), Y
 83F5  C8        INY  
 83F6  D0 F9     BNE  $83F1
 83F8  E6 21     INC  $21
 83FA  E6 23     INC  $23
 83FC  D6 01     DEC  $01, X
 83FE  D0 F1     BNE  $83F1
 8400  B5 00     LDA  $00, X
 8402  F0 09     BEQ  $840D
 8404  B1 20     LDA  ($20), Y
 8406  91 22     STA  ($22), Y
 8408  C8        INY  
 8409  D6 00     DEC  $00, X
 840B  D0 F7     BNE  $8404
 840D  8A        TXA  
 840E  18        CLC  
 840F  69 06     ADC  #$06
 8411  AA        TAX  
 8412  60        RTS  
 8413  E0 73     CPX  #$73
 8415  30 03     BMI  $841A
 8417  4C FB BB  JMP  $BBFB
 841A  B5 02     LDA  $02, X
 841C  85 22     STA  $22
 841E  B5 03     LDA  $03, X
 8420  18        CLC  
 8421  75 01     ADC  $01, X
 8423  85 23     STA  $23
 8425  B5 04     LDA  $04, X
 8427  85 20     STA  $20
 8429  B5 05     LDA  $05, X
 842B  18        CLC  
 842C  75 01     ADC  $01, X
 842E  85 21     STA  $21
 8430  F6 01     INC  $01, X
 8432  B4 00     LDY  $00, X
 8434  F0 0E     BEQ  $8444
 8436  88        DEY  
 8437  F0 07     BEQ  $8440
 8439  B1 20     LDA  ($20), Y
 843B  91 22     STA  ($22), Y
 843D  88        DEY  
 843E  D0 F9     BNE  $8439
 8440  B2 20     LDA  ($20)
 8442  92 22     STA  ($22)
 8444  C6 21     DEC  $21
 8446  C6 23     DEC  $23
 8448  D6 01     DEC  $01, X
 844A  D0 EA     BNE  $8436
 844C  8A        TXA  
 844D  18        CLC  
 844E  69 06     ADC  #$06
 8450  AA        TAX  
 8451  60        RTS  
 8452  A5 16     LDA  $16
 8454  05 17     ORA  $17
 8456  F0 05     BEQ  $845D
 8458  A9 0A     LDA  #$0A
 845A  4C FD BB  JMP  $BBFD
 845D  C6 16     DEC  $16
 845F  C6 17     DEC  $17
 8461  A9 40     LDA  #$40
 8463  05 34     ORA  $34
 8465  85 34     STA  $34
 8467  A5 03     LDA  $03
 8469  48        PHA  
 846A  A5 02     LDA  $02
 846C  48        PHA  
 846D  20 B4 86  JSR  $86B4
 8470  A5 02     LDA  $02
 8472  85 04     STA  $04
 8474  A5 03     LDA  $03
 8476  85 05     STA  $05
 8478  68        PLA  
 8479  85 02     STA  $02
 847B  68        PLA  
 847C  85 03     STA  $03
 847E  A5 00     LDA  $00
 8480  38        SEC  
 8481  E9 03     SBC  #$03
 8483  85 00     STA  $00
 8485  B0 02     BCS  $8489
 8487  C6 01     DEC  $01
 8489  60        RTS  
 848A  A5 16     LDA  $16
 848C  05 17     ORA  $17
 848E  F0 05     BEQ  $8495
 8490  A9 0A     LDA  #$0A
 8492  4C FD BB  JMP  $BBFD
 8495  C6 16     DEC  $16
 8497  C6 17     DEC  $17
 8499  A9 BF     LDA  #$BF
 849B  25 34     AND  $34
 849D  85 34     STA  $34
 849F  A5 00     LDA  $00
 84A1  85 04     STA  $04
 84A3  A5 01     LDA  $01
 84A5  85 05     STA  $05
 84A7  60        RTS  
 84A8  E0 77     CPX  #$77
 84AA  D0 03     BNE  $84AF
 84AC  4C FB BB  JMP  $BBFB
 84AF  B5 00     LDA  $00, X
 84B1  92 00     STA  ($00)
 84B3  E6 00     INC  $00
 84B5  D0 02     BNE  $84B9
 84B7  E6 01     INC  $01
 84B9  B5 01     LDA  $01, X
 84BB  92 00     STA  ($00)
 84BD  E6 00     INC  $00
 84BF  D0 02     BNE  $84C3
 84C1  E6 01     INC  $01
 84C3  E8        INX  
 84C4  E8        INX  
 84C5  60        RTS  
 84C6  E0 71     CPX  #$71
 84C8  D0 03     BNE  $84CD
 84CA  4C FB BB  JMP  $BBFB
 84CD  B5 02     LDA  $02, X
 84CF  85 22     STA  $22
 84D1  B5 03     LDA  $03, X
 84D3  85 23     STA  $23
 84D5  B5 06     LDA  $06, X
 84D7  85 20     STA  $20
 84D9  B5 07     LDA  $07, X
 84DB  85 21     STA  $21
 84DD  B5 04     LDA  $04, X
 84DF  15 05     ORA  $05, X
 84E1  F0 2C     BEQ  $850F
 84E3  B5 00     LDA  $00, X
 84E5  15 01     ORA  $01, X
 84E7  F0 3A     BEQ  $8523
 84E9  B2 20     LDA  ($20)
 84EB  D2 22     CMP  ($22)
 84ED  90 26     BCC  $8515
 84EF  D0 32     BNE  $8523
 84F1  E6 20     INC  $20
 84F3  D0 02     BNE  $84F7
 84F5  E6 21     INC  $21
 84F7  E6 22     INC  $22
 84F9  D0 02     BNE  $84FD
 84FB  E6 23     INC  $23
 84FD  B5 04     LDA  $04, X
 84FF  D0 02     BNE  $8503
 8501  D6 05     DEC  $05, X
 8503  D6 04     DEC  $04, X
 8505  B5 00     LDA  $00, X
 8507  D0 02     BNE  $850B
 8509  D6 01     DEC  $01, X
 850B  D6 00     DEC  $00, X
 850D  80 CE     BRA  $84DD
 850F  B5 00     LDA  $00, X
 8511  15 01     ORA  $01, X
 8513  F0 08     BEQ  $851D
 8515  A9 FF     LDA  #$FF
 8517  95 06     STA  $06, X
 8519  95 07     STA  $07, X
 851B  80 0C     BRA  $8529
 851D  74 06     STZ  $06, X
 851F  74 07     STZ  $07, X
 8521  80 06     BRA  $8529
 8523  A9 01     LDA  #$01
 8525  95 06     STA  $06, X
 8527  74 07     STZ  $07, X
 8529  8A        TXA  
 852A  18        CLC  
 852B  69 06     ADC  #$06
 852D  AA        TAX  
 852E  60        RTS  
 852F  E0 77     CPX  #$77
 8531  30 03     BMI  $8536
 8533  4C FB BB  JMP  $BBFB
 8536  B5 01     LDA  $01, X
 8538  48        PHA  
 8539  B5 00     LDA  $00, X
 853B  48        PHA  
 853C  20 BD 8C  JSR  $8CBD
 853F  B5 00     LDA  $00, X
 8541  15 01     ORA  $01, X
 8543  D0 03     BNE  $8548
 8545  4C 30 86  JMP  $8630
 8548  B5 00     LDA  $00, X
 854A  85 28     STA  $28
 854C  B5 01     LDA  $01, X
 854E  85 29     STA  $29
 8550  F6 00     INC  $00, X
 8552  D0 02     BNE  $8556
 8554  F6 01     INC  $01, X
 8556  A1 00     LDA  ($00, X)
 8558  85 24     STA  $24
 855A  29 02     AND  #$02
 855C  F0 0D     BEQ  $856B
 855E  A5 28     LDA  $28
 8560  95 00     STA  $00, X
 8562  A5 29     LDA  $29
 8564  95 01     STA  $01, X
 8566  20 F5 9B  JSR  $9BF5
 8569  80 1C     BRA  $8587
 856B  A5 24     LDA  $24
 856D  29 08     AND  #$08
 856F  F0 03     BEQ  $8574
 8571  4C 30 86  JMP  $8630
 8574  A5 28     LDA  $28
 8576  95 00     STA  $00, X
 8578  A5 29     LDA  $29
 857A  95 01     STA  $01, X
 857C  20 F5 9B  JSR  $9BF5
 857F  18        CLC  
 8580  C5 1A     CMP  $1A
 8582  90 03     BCC  $8587
 8584  4C 30 86  JMP  $8630
 8587  CA        DEX  
 8588  CA        DEX  
 8589  CA        DEX  
 858A  CA        DEX  
 858B  B5 04     LDA  $04, X
 858D  95 00     STA  $00, X
 858F  B5 05     LDA  $05, X
 8591  95 01     STA  $01, X
 8593  68        PLA  
 8594  95 04     STA  $04, X
 8596  68        PLA  
 8597  95 05     STA  $05, X
 8599  A5 00     LDA  $00
 859B  95 02     STA  $02, X
 859D  A5 01     LDA  $01
 859F  95 03     STA  $03, X
 85A1  A0 00     LDY  #$00
 85A3  B9 1E 86  LDA  $861E, Y
 85A6  D5 04     CMP  $04, X
 85A8  D0 09     BNE  $85B3
 85AA  C8        INY  
 85AB  B9 1E 86  LDA  $861E, Y
 85AE  D5 05     CMP  $05, X
 85B0  F0 0D     BEQ  $85BF
 85B2  88        DEY  
 85B3  B9 1E 86  LDA  $861E, Y
 85B6  19 1F 86  ORA  $861F, Y
 85B9  F0 27     BEQ  $85E2
 85BB  C8        INY  
 85BC  C8        INY  
 85BD  80 E4     BRA  $85A3
 85BF  88        DEY  
 85C0  98        TYA  
 85C1  4A        LSR  
 85C2  A8        TAY  
 85C3  B9 2A 86  LDA  $862A, Y
 85C6  85 28     STA  $28
 85C8  18        CLC  
 85C9  75 04     ADC  $04, X
 85CB  95 04     STA  $04, X
 85CD  B5 05     LDA  $05, X
 85CF  69 00     ADC  #$00
 85D1  95 05     STA  $05, X
 85D3  06 28     ASL  $28
 85D5  38        SEC  
 85D6  B5 00     LDA  $00, X
 85D8  E5 28     SBC  $28
 85DA  95 00     STA  $00, X
 85DC  B5 01     LDA  $01, X
 85DE  E9 00     SBC  #$00
 85E0  95 01     STA  $01, X
 85E2  A5 1C     LDA  $1C
 85E4  05 1D     ORA  $1D
 85E6  F0 20     BEQ  $8608
 85E8  A5 24     LDA  $24
 85EA  29 10     AND  #$10
 85EC  F0 1A     BEQ  $8608
 85EE  18        CLC  
 85EF  B5 04     LDA  $04, X
 85F1  69 07     ADC  #$07
 85F3  95 04     STA  $04, X
 85F5  B5 05     LDA  $05, X
 85F7  69 00     ADC  #$00
 85F9  95 05     STA  $05, X
 85FB  38        SEC  
 85FC  B5 00     LDA  $00, X
 85FE  E9 07     SBC  #$07
 8600  95 00     STA  $00, X
 8602  B5 01     LDA  $01, X
 8604  E9 00     SBC  #$00
 8606  95 01     STA  $01, X
 8608  B5 01     LDA  $01, X
 860A  48        PHA  
 860B  B5 00     LDA  $00, X
 860D  48        PHA  
 860E  20 5A 8F  JSR  $8F5A
 8611  18        CLC  
 8612  68        PLA  
 8613  65 00     ADC  $00
 8615  85 00     STA  $00
 8617  68        PLA  
 8618  65 01     ADC  $01
 861A  85 01     STA  $01
 861C  80 2C     BRA  $864A
 861E  78 93 63 93 C1 98 1B 9A 91 99 00 00 04 04 04 06  |x.c.............|
 862E  06 00                                            |..              |
 8630  A9 20     LDA  #$20
 8632  92 00     STA  ($00)
 8634  A0 01     LDY  #$01
 8636  68        PLA  
 8637  91 00     STA  ($00), Y
 8639  C8        INY  
 863A  68        PLA  
 863B  91 00     STA  ($00), Y
 863D  A9 03     LDA  #$03
 863F  18        CLC  
 8640  65 00     ADC  $00
 8642  85 00     STA  $00
 8644  90 02     BCC  $8648
 8646  E6 01     INC  $01
 8648  E8        INX  
 8649  E8        INX  
 864A  60        RTS  
 864B  A0 01     LDY  #$01
 864D  B1 02     LDA  ($02), Y
 864F  09 01     ORA  #$01
 8651  91 02     STA  ($02), Y
 8653  60        RTS  
 8654  E0 77     CPX  #$77
 8656  30 03     BMI  $865B
 8658  4C FB BB  JMP  $BBFB
 865B  20 B4 86  JSR  $86B4
 865E  38        SEC  
 865F  A5 00     LDA  $00
 8661  E9 02     SBC  #$02
 8663  85 20     STA  $20
 8665  A5 01     LDA  $01
 8667  E9 00     SBC  #$00
 8669  85 21     STA  $21
 866B  A9 F6     LDA  #$F6
 866D  92 20     STA  ($20)
 866F  A0 01     LDY  #$01
 8671  A9 BA     LDA  #$BA
 8673  91 20     STA  ($20), Y
 8675  20 A8 84  JSR  $84A8
 8678  20 4E 8D  JSR  $8D4E
 867B  B5 00     LDA  $00, X
 867D  85 20     STA  $20
 867F  B5 01     LDA  $01, X
 8681  85 21     STA  $21
 8683  A0 06     LDY  #$06
 8685  B1 20     LDA  ($20), Y
 8687  18        CLC  
 8688  69 02     ADC  #$02
 868A  91 20     STA  ($20), Y
 868C  C8        INY  
 868D  B1 20     LDA  ($20), Y
 868F  69 00     ADC  #$00
 8691  91 20     STA  ($20), Y
 8693  E8        INX  
 8694  E8        INX  
 8695  60        RTS  
 8696  E0 77     CPX  #$77
 8698  30 03     BMI  $869D
 869A  4C FB BB  JMP  $BBFB
 869D  A1 00     LDA  ($00, X)
 869F  A8        TAY  
 86A0  F6 00     INC  $00, X
 86A2  D0 02     BNE  $86A6
 86A4  F6 01     INC  $01, X
 86A6  98        TYA  
 86A7  CA        DEX  
 86A8  CA        DEX  
 86A9  95 00     STA  $00, X
 86AB  74 01     STZ  $01, X
 86AD  60        RTS  
 86AE  A9 0A     LDA  #$0A
 86B0  20 30 8A  JSR  $8A30
 86B3  60        RTS  
 86B4  20 C8 91  JSR  $91C8
 86B7  B5 00     LDA  $00, X
 86B9  15 01     ORA  $01, X
 86BB  D0 05     BNE  $86C2
 86BD  A9 06     LDA  #$06
 86BF  4C FD BB  JMP  $BBFD
 86C2  74 01     STZ  $01, X
 86C4  B5 00     LDA  $00, X
 86C6  85 22     STA  $22
 86C8  A5 00     LDA  $00
 86CA  85 20     STA  $20
 86CC  A5 01     LDA  $01
 86CE  85 21     STA  $21
 86D0  B5 00     LDA  $00, X
 86D2  18        CLC  
 86D3  69 08     ADC  #$08
 86D5  85 24     STA  $24
 86D7  18        CLC  
 86D8  69 03     ADC  #$03
 86DA  95 00     STA  $00, X
 86DC  74 01     STZ  $01, X
 86DE  20 83 82  JSR  $8283
 86E1  A0 00     LDY  #$00
 86E3  A5 22     LDA  $22
 86E5  91 20     STA  ($20), Y
 86E7  A9 08     LDA  #$08
 86E9  09 20     ORA  #$20
 86EB  C8        INY  
 86EC  91 20     STA  ($20), Y
 86EE  C8        INY  
 86EF  A5 02     LDA  $02
 86F1  91 20     STA  ($20), Y
 86F3  C8        INY  
 86F4  A5 03     LDA  $03
 86F6  91 20     STA  ($20), Y
 86F8  C8        INY  
 86F9  A5 21     LDA  $21
 86FB  85 03     STA  $03
 86FD  A5 20     LDA  $20
 86FF  85 02     STA  $02
 8701  18        CLC  
 8702  65 24     ADC  $24
 8704  91 20     STA  ($20), Y
 8706  48        PHA  
 8707  C8        INY  
 8708  A5 21     LDA  $21
 870A  69 00     ADC  #$00
 870C  91 20     STA  ($20), Y
 870E  C8        INY  
 870F  68        PLA  
 8710  18        CLC  
 8711  69 03     ADC  #$03
 8713  91 20     STA  ($20), Y
 8715  88        DEY  
 8716  B1 20     LDA  ($20), Y
 8718  69 00     ADC  #$00
 871A  C8        INY  
 871B  C8        INY  
 871C  91 20     STA  ($20), Y
 871E  C8        INY  
 871F  B5 00     LDA  $00, X
 8721  38        SEC  
 8722  E9 08     SBC  #$08
 8724  85 28     STA  $28
 8726  B5 01     LDA  $01, X
 8728  E9 00     SBC  #$00
 872A  85 29     STA  $29
 872C  B1 28     LDA  ($28), Y
 872E  C9 5B     CMP  #$5B
 8730  B0 07     BCS  $8739
 8732  C9 41     CMP  #$41
 8734  90 03     BCC  $8739
 8736  18        CLC  
 8737  69 20     ADC  #$20
 8739  91 20     STA  ($20), Y
 873B  C8        INY  
 873C  C6 22     DEC  $22
 873E  D0 EC     BNE  $872C
 8740  A9 20     LDA  #$20
 8742  91 20     STA  ($20), Y
 8744  C8        INY  
 8745  A9 3D     LDA  #$3D
 8747  91 20     STA  ($20), Y
 8749  C8        INY  
 874A  A9 BB     LDA  #$BB
 874C  91 20     STA  ($20), Y
 874E  E8        INX  
 874F  E8        INX  
 8750  60        RTS  
 8751  E0 71     CPX  #$71
 8753  30 03     BMI  $8758
 8755  4C FB BB  JMP  $BBFB
 8758  38        SEC  
 8759  B5 06     LDA  $06, X
 875B  F5 02     SBC  $02, X
 875D  95 06     STA  $06, X
 875F  B5 07     LDA  $07, X
 8761  F5 03     SBC  $03, X
 8763  95 07     STA  $07, X
 8765  B5 04     LDA  $04, X
 8767  F5 00     SBC  $00, X
 8769  95 04     STA  $04, X
 876B  B5 05     LDA  $05, X
 876D  F5 01     SBC  $01, X
 876F  95 05     STA  $05, X
 8771  E8        INX  
 8772  E8        INX  
 8773  E8        INX  
 8774  E8        INX  
 8775  60        RTS  
 8776  E0 71     CPX  #$71
 8778  30 03     BMI  $877D
 877A  4C FB BB  JMP  $BBFB
 877D  18        CLC  
 877E  B5 02     LDA  $02, X
 8780  75 06     ADC  $06, X
 8782  95 06     STA  $06, X
 8784  B5 03     LDA  $03, X
 8786  75 07     ADC  $07, X
 8788  95 07     STA  $07, X
 878A  B5 00     LDA  $00, X
 878C  75 04     ADC  $04, X
 878E  95 04     STA  $04, X
 8790  B5 01     LDA  $01, X
 8792  75 05     ADC  $05, X
 8794  95 05     STA  $05, X
 8796  E8        INX  
 8797  E8        INX  
 8798  E8        INX  
 8799  E8        INX  
 879A  60        RTS  
 879B  E0 75     CPX  #$75
 879D  30 03     BMI  $87A2
 879F  4C FB BB  JMP  $BBFB
 87A2  E8        INX  
 87A3  E8        INX  
 87A4  60        RTS  
 87A5  E0 75     CPX  #$75
 87A7  30 03     BMI  $87AC
 87A9  4C FB BB  JMP  $BBFB
 87AC  B5 01     LDA  $01, X
 87AE  10 17     BPL  $87C7
 87B0  A0 00     LDY  #$00
 87B2  38        SEC  
 87B3  98        TYA  
 87B4  F5 02     SBC  $02, X
 87B6  95 02     STA  $02, X
 87B8  98        TYA  
 87B9  F5 03     SBC  $03, X
 87BB  95 03     STA  $03, X
 87BD  98        TYA  
 87BE  F5 00     SBC  $00, X
 87C0  95 00     STA  $00, X
 87C2  98        TYA  
 87C3  F5 01     SBC  $01, X
 87C5  95 01     STA  $01, X
 87C7  60        RTS  
 87C8  A9 0A     LDA  #$0A
 87CA  85 18     STA  $18
 87CC  64 19     STZ  $19
 87CE  60        RTS  
 87CF  20 B4 86  JSR  $86B4
 87D2  A5 00     LDA  $00
 87D4  38        SEC  
 87D5  E9 02     SBC  #$02
 87D7  85 20     STA  $20
 87D9  A5 01     LDA  $01
 87DB  E9 00     SBC  #$00
 87DD  85 21     STA  $21
 87DF  A0 00     LDY  #$00
 87E1  A9 0A     LDA  #$0A
 87E3  91 20     STA  ($20), Y
 87E5  C8        INY  
 87E6  A9 BB     LDA  #$BB
 87E8  91 20     STA  ($20), Y
 87EA  A9 1E     LDA  #$1E
 87EC  92 00     STA  ($00)
 87EE  E6 00     INC  $00
 87F0  D0 02     BNE  $87F4
 87F2  E6 01     INC  $01
 87F4  A9 BB     LDA  #$BB
 87F6  92 00     STA  ($00)
 87F8  E6 00     INC  $00
 87FA  D0 02     BNE  $87FE
 87FC  E6 01     INC  $01
 87FE  20 78 86  JSR  $8678
 8801  60        RTS  
 8802  A9 78     LDA  #$78
 8804  86 26     STX  $26
 8806  38        SEC  
 8807  E5 26     SBC  $26
 8809  4A        LSR  
 880A  CA        DEX  
 880B  CA        DEX  
 880C  95 00     STA  $00, X
 880E  74 01     STZ  $01, X
 8810  60        RTS  
 8811  E0 77     CPX  #$77
 8813  30 03     BMI  $8818
 8815  4C FB BB  JMP  $BBFB
 8818  CA        DEX  
 8819  CA        DEX  
 881A  74 00     STZ  $00, X
 881C  74 01     STZ  $01, X
 881E  74 03     STZ  $03, X
 8820  B5 02     LDA  $02, X
 8822  C9 30     CMP  #$30
 8824  90 23     BCC  $8849
 8826  C9 3A     CMP  #$3A
 8828  90 12     BCC  $883C
 882A  C9 41     CMP  #$41
 882C  90 1B     BCC  $8849
 882E  C9 61     CMP  #$61
 8830  90 07     BCC  $8839
 8832  C9 7B     CMP  #$7B
 8834  B0 03     BCS  $8839
 8836  18        CLC  
 8837  69 E0     ADC  #$E0
 8839  38        SEC  
 883A  E9 07     SBC  #$07
 883C  38        SEC  
 883D  E9 30     SBC  #$30
 883F  C5 18     CMP  $18
 8841  B0 06     BCS  $8849
 8843  95 02     STA  $02, X
 8845  D6 00     DEC  $00, X
 8847  D6 01     DEC  $01, X
 8849  60        RTS  
 884A  E0 75     CPX  #$75
 884C  30 03     BMI  $8851
 884E  4C FB BB  JMP  $BBFB
 8851  20 D0 9C  JSR  $9CD0
 8854  60        RTS  
 8855  E0 75     CPX  #$75
 8857  30 03     BMI  $885C
 8859  4C FB BB  JMP  $BBFB
 885C  A0 00     LDY  #$00
 885E  38        SEC  
 885F  98        TYA  
 8860  F5 02     SBC  $02, X
 8862  95 02     STA  $02, X
 8864  98        TYA  
 8865  F5 03     SBC  $03, X
 8867  95 03     STA  $03, X
 8869  98        TYA  
 886A  F5 00     SBC  $00, X
 886C  95 00     STA  $00, X
 886E  98        TYA  
 886F  F5 01     SBC  $01, X
 8871  95 01     STA  $01, X
 8873  60        RTS  
 8874  A9 FF     LDA  #$FF
 8876  85 20     STA  $20
 8878  80 02     BRA  $887C
 887A  64 20     STZ  $20
 887C  CA        DEX  
 887D  CA        DEX  
 887E  A5 00     LDA  $00
 8880  95 00     STA  $00, X
 8882  A5 01     LDA  $01
 8884  95 01     STA  $01, X
 8886  A9 05     LDA  #$05
 8888  A8        TAY  
 8889  91 00     STA  ($00), Y
 888B  88        DEY  
 888C  10 FB     BPL  $8889
 888E  1A        INC  
 888F  18        CLC  
 8890  65 00     ADC  $00
 8892  85 00     STA  $00
 8894  90 02     BCC  $8898
 8896  E6 01     INC  $01
 8898  A5 20     LDA  $20
 889A  F0 17     BEQ  $88B3
 889C  A0 14     LDY  #$14
 889E  5A        PHY  
 889F  B9 F9 88  LDA  $88F9, Y
 88A2  91 00     STA  ($00), Y
 88A4  88        DEY  
 88A5  10 F8     BPL  $889F
 88A7  68        PLA  
 88A8  18        CLC  
 88A9  65 00     ADC  $00
 88AB  85 00     STA  $00
 88AD  A5 01     LDA  $01
 88AF  69 00     ADC  #$00
 88B1  85 01     STA  $01
 88B3  A0 24     LDY  #$24
 88B5  5A        PHY  
 88B6  B9 D5 88  LDA  $88D5, Y
 88B9  91 00     STA  ($00), Y
 88BB  88        DEY  
 88BC  10 F8     BPL  $88B6
 88BE  68        PLA  
 88BF  18        CLC  
 88C0  65 00     ADC  $00
 88C2  85 00     STA  $00
 88C4  A5 01     LDA  $01
 88C6  69 00     ADC  #$00
 88C8  85 01     STA  $01
 88CA  CA        DEX  
 88CB  CA        DEX  
 88CC  A5 00     LDA  $00
 88CE  95 00     STA  $00, X
 88D0  A5 01     LDA  $01
 88D2  95 01     STA  $01, X
 88D4  60        RTS  
 88D5  38        SEC  
 88D6  A9 00     LDA  #$00
 88D8  F5 02     SBC  $02, X
 88DA  95 02     STA  $02, X
 88DC  A9 80     LDA  #$80
 88DE  F5 03     SBC  $03, X
 88E0  95 03     STA  $03, X
 88E2  48        PHA  
 88E3  B5 02     LDA  $02, X
 88E5  48        PHA  
 88E6  18        CLC  
 88E7  B5 00     LDA  $00, X
 88E9  75 02     ADC  $02, X
 88EB  95 00     STA  $00, X
 88ED  B5 01     LDA  $01, X
 88EF  75 03     ADC  $03, X
 88F1  48        PHA  
 88F2  B5 00     LDA  $00, X
 88F4  48        PHA  
 88F5  E8        INX  
 88F6  E8        INX  
 88F7  E8        INX  
 88F8  E8        INX  
 88F9  20 15 99  JSR  $9915
 88FC  20 33 8A  JSR  $8A33
 88FF  B5 00     LDA  $00, X
 8901  15 01     ORA  $01, X
 8903  F0 06     BEQ  $890B
 8905  8A        TXA  
 8906  18        CLC  
 8907  69 06     ADC  #$06
 8909  AA        TAX  
 890A  60        RTS  
 890B  E8        INX  
 890C  E8        INX  
 890D  A0 89     LDY  #$89
 890F  A9 1C     LDA  #$1C
 8911  20 DD BA  JSR  $BADD
 8914  A0 BB     LDY  #$BB
 8916  A9 23     LDA  #$23
 8918  20 DD BA  JSR  $BADD
 891B  60        RTS  
 891C  7A        PLY  
 891D  68        PLA  
 891E  C8        INY  
 891F  D0 01     BNE  $8922
 8921  1A        INC  
 8922  84 20     STY  $20
 8924  85 21     STA  $21
 8926  A5 02     LDA  $02
 8928  18        CLC  
 8929  69 04     ADC  #$04
 892B  85 22     STA  $22
 892D  A5 03     LDA  $03
 892F  69 00     ADC  #$00
 8931  85 23     STA  $23
 8933  B2 22     LDA  ($22)
 8935  18        CLC  
 8936  69 01     ADC  #$01
 8938  85 24     STA  $24
 893A  A0 01     LDY  #$01
 893C  B1 22     LDA  ($22), Y
 893E  69 00     ADC  #$00
 8940  85 25     STA  $25
 8942  A5 20     LDA  $20
 8944  92 24     STA  ($24)
 8946  A5 21     LDA  $21
 8948  91 24     STA  ($24), Y
 894A  60        RTS  
 894B  E0 77     CPX  #$77
 894D  30 03     BMI  $8952
 894F  4C FB BB  JMP  $BBFB
 8952  20 13 8A  JSR  $8A13
 8955  20 02 81  JSR  $8102
 8958  20 30 9C  JSR  $9C30
 895B  20 6A 8D  JSR  $8D6A
 895E  20 2B 91  JSR  $912B
 8961  20 0F 94  JSR  $940F
 8964  20 B9 95  JSR  $95B9
 8967  20 05 91  JSR  $9105
 896A  20 4E 9A  JSR  $9A4E
 896D  20 E3 96  JSR  $96E3
 8970  60        RTS  
 8971  20 47 94  JSR  $9447
 8974  A0 9A     LDY  #$9A
 8976  A9 4E     LDA  #$4E
 8978  20 DD BA  JSR  $BADD
 897B  60        RTS  
 897C  20 02 88  JSR  $8802
 897F  A9 3C     LDA  #$3C
 8981  20 30 8A  JSR  $8A30
 8984  B5 00     LDA  $00, X
 8986  48        PHA  
 8987  CA        DEX  
 8988  CA        DEX  
 8989  95 00     STA  $00, X
 898B  74 01     STZ  $01, X
 898D  20 33 BC  JSR  $BC33
 8990  A9 3E     LDA  #$3E
 8992  20 30 8A  JSR  $8A30
 8995  A9 20     LDA  #$20
 8997  20 30 8A  JSR  $8A30
 899A  E8        INX  
 899B  E8        INX  
 899C  E0 78     CPX  #$78
 899E  F0 1E     BEQ  $89BE
 89A0  7A        PLY  
 89A1  A9 77     LDA  #$77
 89A3  85 24     STA  $24
 89A5  64 25     STZ  $25
 89A7  CA        DEX  
 89A8  CA        DEX  
 89A9  B2 24     LDA  ($24)
 89AB  95 01     STA  $01, X
 89AD  C6 24     DEC  $24
 89AF  B2 24     LDA  ($24)
 89B1  95 00     STA  $00, X
 89B3  C6 24     DEC  $24
 89B5  5A        PHY  
 89B6  20 4B 89  JSR  $894B
 89B9  7A        PLY  
 89BA  88        DEY  
 89BB  D0 EA     BNE  $89A7
 89BD  48        PHA  
 89BE  68        PLA  
 89BF  60        RTS  
 89C0  E0 77     CPX  #$77
 89C2  30 03     BMI  $89C7
 89C4  4C FB BB  JMP  $BBFB
 89C7  E8        INX  
 89C8  E8        INX  
 89C9  60        RTS  
 89CA  E0 75     CPX  #$75
 89CC  30 03     BMI  $89D1
 89CE  4C FB BB  JMP  $BBFB
 89D1  A0 10     LDY  #$10
 89D3  20 AE 86  JSR  $86AE
 89D6  B5 03     LDA  $03, X
 89D8  20 4B BB  JSR  $BB4B
 89DB  B5 02     LDA  $02, X
 89DD  20 4B BB  JSR  $BB4B
 89E0  20 E3 96  JSR  $96E3
 89E3  20 E3 96  JSR  $96E3
 89E6  B5 00     LDA  $00, X
 89E8  15 01     ORA  $01, X
 89EA  F0 22     BEQ  $8A0E
 89EC  A1 02     LDA  ($02, X)
 89EE  20 4B BB  JSR  $BB4B
 89F1  20 E3 96  JSR  $96E3
 89F4  C0 09     CPY  #$09
 89F6  D0 03     BNE  $89FB
 89F8  20 E3 96  JSR  $96E3
 89FB  F6 02     INC  $02, X
 89FD  D0 02     BNE  $8A01
 89FF  F6 03     INC  $03, X
 8A01  B5 00     LDA  $00, X
 8A03  D0 02     BNE  $8A07
 8A05  D6 01     DEC  $01, X
 8A07  D6 00     DEC  $00, X
 8A09  88        DEY  
 8A0A  D0 DA     BNE  $89E6
 8A0C  80 BC     BRA  $89CA
 8A0E  E8        INX  
 8A0F  E8        INX  
 8A10  E8        INX  
 8A11  E8        INX  
 8A12  60        RTS  
 8A13  E0 77     CPX  #$77
 8A15  30 03     BMI  $8A1A
 8A17  4C FB BB  JMP  $BBFB
 8A1A  CA        DEX  
 8A1B  CA        DEX  
 8A1C  B5 02     LDA  $02, X
 8A1E  95 00     STA  $00, X
 8A20  B5 03     LDA  $03, X
 8A22  95 01     STA  $01, X
 8A24  60        RTS  
 8A25  E0 77     CPX  #$77
 8A27  30 03     BMI  $8A2C
 8A29  4C FB BB  JMP  $BBFB
 8A2C  B5 00     LDA  $00, X
 8A2E  E8        INX  
 8A2F  E8        INX  
 8A30  6C 10 00  JMP  ($0010)
 8A33  E0 75     CPX  #$75
 8A35  30 03     BMI  $8A3A
 8A37  4C FB BB  JMP  $BBFB
 8A3A  B5 00     LDA  $00, X
 8A3C  D5 02     CMP  $02, X
 8A3E  D0 0A     BNE  $8A4A
 8A40  B5 01     LDA  $01, X
 8A42  D5 03     CMP  $03, X
 8A44  D0 04     BNE  $8A4A
 8A46  A9 FF     LDA  #$FF
 8A48  80 02     BRA  $8A4C
 8A4A  A9 00     LDA  #$00
 8A4C  95 02     STA  $02, X
 8A4E  95 03     STA  $03, X
 8A50  E8        INX  
 8A51  E8        INX  
 8A52  60        RTS  
 8A53  CA        DEX  
 8A54  CA        DEX  
 8A55  A9 20     LDA  #$20
 8A57  95 00     STA  $00, X
 8A59  74 01     STZ  $01, X
 8A5B  80 06     BRA  $8A63
 8A5D  CA        DEX  
 8A5E  CA        DEX  
 8A5F  74 00     STZ  $00, X
 8A61  74 01     STZ  $01, X
 8A63  E0 73     CPX  #$73
 8A65  30 03     BMI  $8A6A
 8A67  4C FB BB  JMP  $BBFB
 8A6A  B5 04     LDA  $04, X
 8A6C  85 20     STA  $20
 8A6E  B5 05     LDA  $05, X
 8A70  85 21     STA  $21
 8A72  B5 02     LDA  $02, X
 8A74  85 22     STA  $22
 8A76  B5 03     LDA  $03, X
 8A78  85 23     STA  $23
 8A7A  B5 00     LDA  $00, X
 8A7C  A8        TAY  
 8A7D  A9 7F     LDA  #$7F
 8A7F  C5 21     CMP  $21
 8A81  90 21     BCC  $8AA4
 8A83  D0 06     BNE  $8A8B
 8A85  A9 FF     LDA  #$FF
 8A87  C5 20     CMP  $20
 8A89  90 19     BCC  $8AA4
 8A8B  A5 22     LDA  $22
 8A8D  05 23     ORA  $23
 8A8F  F0 13     BEQ  $8AA4
 8A91  98        TYA  
 8A92  92 20     STA  ($20)
 8A94  A5 22     LDA  $22
 8A96  D0 02     BNE  $8A9A
 8A98  C6 23     DEC  $23
 8A9A  C6 22     DEC  $22
 8A9C  E6 20     INC  $20
 8A9E  D0 DD     BNE  $8A7D
 8AA0  E6 21     INC  $21
 8AA2  80 D9     BRA  $8A7D
 8AA4  8A        TXA  
 8AA5  18        CLC  
 8AA6  69 06     ADC  #$06
 8AA8  AA        TAX  
 8AA9  60        RTS  
 8AAA  E0 75     CPX  #$75
 8AAC  30 03     BMI  $8AB1
 8AAE  4C FB BB  JMP  $BBFB
 8AB1  B5 00     LDA  $00, X
 8AB3  15 01     ORA  $01, X
 8AB5  D0 06     BNE  $8ABD
 8AB7  E8        INX  
 8AB8  E8        INX  
 8AB9  E8        INX  
 8ABA  E8        INX  
 8ABB  80 51     BRA  $8B0E
 8ABD  A5 0D     LDA  $0D
 8ABF  48        PHA  
 8AC0  A5 0C     LDA  $0C
 8AC2  48        PHA  
 8AC3  A5 07     LDA  $07
 8AC5  48        PHA  
 8AC6  A5 06     LDA  $06
 8AC8  48        PHA  
 8AC9  A5 09     LDA  $09
 8ACB  48        PHA  
 8ACC  A5 08     LDA  $08
 8ACE  48        PHA  
 8ACF  A5 0B     LDA  $0B
 8AD1  48        PHA  
 8AD2  A5 0A     LDA  $0A
 8AD4  48        PHA  
 8AD5  A9 FF     LDA  #$FF
 8AD7  85 06     STA  $06
 8AD9  85 07     STA  $07
 8ADB  64 0C     STZ  $0C
 8ADD  64 0D     STZ  $0D
 8ADF  B5 00     LDA  $00, X
 8AE1  85 0A     STA  $0A
 8AE3  B5 01     LDA  $01, X
 8AE5  85 0B     STA  $0B
 8AE7  B5 02     LDA  $02, X
 8AE9  85 08     STA  $08
 8AEB  B5 03     LDA  $03, X
 8AED  85 09     STA  $09
 8AEF  E8        INX  
 8AF0  E8        INX  
 8AF1  E8        INX  
 8AF2  E8        INX  
 8AF3  20 7D BB  JSR  $BB7D
 8AF6  68        PLA  
 8AF7  85 0A     STA  $0A
 8AF9  68        PLA  
 8AFA  85 0B     STA  $0B
 8AFC  68        PLA  
 8AFD  85 08     STA  $08
 8AFF  68        PLA  
 8B00  85 09     STA  $09
 8B02  68        PLA  
 8B03  85 06     STA  $06
 8B05  68        PLA  
 8B06  85 07     STA  $07
 8B08  68        PLA  
 8B09  85 0C     STA  $0C
 8B0B  68        PLA  
 8B0C  85 0D     STA  $0D
 8B0E  60        RTS  
 8B0F  E0 77     CPX  #$77
 8B11  30 03     BMI  $8B16
 8B13  4C FB BB  JMP  $BBFB
 8B16  20 1A 8B  JSR  $8B1A
 8B19  60        RTS  
 8B1A  B5 00     LDA  $00, X
 8B1C  85 0E     STA  $0E
 8B1E  B5 01     LDA  $01, X
 8B20  85 0F     STA  $0F
 8B22  E8        INX  
 8B23  E8        INX  
 8B24  6C 0E 00  JMP  ($000E)
 8B27  60        RTS  
 8B28  CA        DEX  
 8B29  CA        DEX  
 8B2A  74 00     STZ  $00, X
 8B2C  74 01     STZ  $01, X
 8B2E  60        RTS  
 8B2F  E0 77     CPX  #$77
 8B31  30 03     BMI  $8B36
 8B33  4C FB BB  JMP  $BBFB
 8B36  A1 00     LDA  ($00, X)
 8B38  A8        TAY  
 8B39  F6 00     INC  $00, X
 8B3B  D0 02     BNE  $8B3F
 8B3D  F6 01     INC  $01, X
 8B3F  A1 00     LDA  ($00, X)
 8B41  95 01     STA  $01, X
 8B43  94 00     STY  $00, X
 8B45  60        RTS  
 8B46  E0 77     CPX  #$77
 8B48  30 03     BMI  $8B4D
 8B4A  4C FB BB  JMP  $BBFB
 8B4D  20 96 86  JSR  $8696
 8B50  B5 03     LDA  $03, X
 8B52  48        PHA  
 8B53  B5 02     LDA  $02, X
 8B55  48        PHA  
 8B56  20 92 8B  JSR  $8B92
 8B59  B5 00     LDA  $00, X
 8B5B  15 01     ORA  $01, X
 8B5D  D0 0B     BNE  $8B6A
 8B5F  20 28 8B  JSR  $8B28
 8B62  68        PLA  
 8B63  95 02     STA  $02, X
 8B65  68        PLA  
 8B66  95 03     STA  $03, X
 8B68  80 27     BRA  $8B91
 8B6A  68        PLA  
 8B6B  68        PLA  
 8B6C  20 13 8A  JSR  $8A13
 8B6F  20 79 8F  JSR  $8F79
 8B72  20 51 97  JSR  $9751
 8B75  A0 00     LDY  #$00
 8B77  F6 00     INC  $00, X
 8B79  D0 02     BNE  $8B7D
 8B7B  F6 01     INC  $01, X
 8B7D  A1 00     LDA  ($00, X)
 8B7F  29 04     AND  #$04
 8B81  D0 08     BNE  $8B8B
 8B83  A9 FF     LDA  #$FF
 8B85  95 00     STA  $00, X
 8B87  95 01     STA  $01, X
 8B89  80 06     BRA  $8B91
 8B8B  A9 01     LDA  #$01
 8B8D  95 00     STA  $00, X
 8B8F  74 01     STZ  $01, X
 8B91  60        RTS  
 8B92  E0 75     CPX  #$75
 8B94  30 03     BMI  $8B99
 8B96  4C FB BB  JMP  $BBFB
 8B99  B5 00     LDA  $00, X
 8B9B  15 01     ORA  $01, X
 8B9D  F0 6D     BEQ  $8C0C
 8B9F  A5 02     LDA  $02
 8BA1  85 20     STA  $20
 8BA3  A5 03     LDA  $03
 8BA5  85 21     STA  $21
 8BA7  B5 02     LDA  $02, X
 8BA9  85 22     STA  $22
 8BAB  B5 03     LDA  $03, X
 8BAD  85 23     STA  $23
 8BAF  B2 20     LDA  ($20)
 8BB1  D5 00     CMP  $00, X
 8BB3  D0 46     BNE  $8BFB
 8BB5  B2 22     LDA  ($22)
 8BB7  C9 5B     CMP  #$5B
 8BB9  B0 07     BCS  $8BC2
 8BBB  C9 41     CMP  #$41
 8BBD  90 03     BCC  $8BC2
 8BBF  18        CLC  
 8BC0  69 20     ADC  #$20
 8BC2  A0 08     LDY  #$08
 8BC4  D1 20     CMP  ($20), Y
 8BC6  D0 33     BNE  $8BFB
 8BC8  B5 00     LDA  $00, X
 8BCA  3A        DEC  
 8BCB  F0 24     BEQ  $8BF1
 8BCD  A5 20     LDA  $20
 8BCF  18        CLC  
 8BD0  69 08     ADC  #$08
 8BD2  85 24     STA  $24
 8BD4  A5 21     LDA  $21
 8BD6  69 00     ADC  #$00
 8BD8  85 25     STA  $25
 8BDA  B4 00     LDY  $00, X
 8BDC  88        DEY  
 8BDD  B1 22     LDA  ($22), Y
 8BDF  C9 5B     CMP  #$5B
 8BE1  B0 07     BCS  $8BEA
 8BE3  C9 41     CMP  #$41
 8BE5  90 03     BCC  $8BEA
 8BE7  18        CLC  
 8BE8  69 20     ADC  #$20
 8BEA  D1 24     CMP  ($24), Y
 8BEC  D0 0D     BNE  $8BFB
 8BEE  88        DEY  
 8BEF  D0 EC     BNE  $8BDD
 8BF1  A5 20     LDA  $20
 8BF3  95 02     STA  $02, X
 8BF5  A5 21     LDA  $21
 8BF7  95 03     STA  $03, X
 8BF9  80 15     BRA  $8C10
 8BFB  A0 02     LDY  #$02
 8BFD  B1 20     LDA  ($20), Y
 8BFF  48        PHA  
 8C00  C8        INY  
 8C01  B1 20     LDA  ($20), Y
 8C03  85 21     STA  $21
 8C05  68        PLA  
 8C06  85 20     STA  $20
 8C08  05 21     ORA  $21
 8C0A  D0 A3     BNE  $8BAF
 8C0C  74 02     STZ  $02, X
 8C0E  74 03     STZ  $03, X
 8C10  E8        INX  
 8C11  E8        INX  
 8C12  60        RTS  
 8C13  E0 73     CPX  #$73
 8C15  30 03     BMI  $8C1A
 8C17  4C FB BB  JMP  $BBFB
 8C1A  64 22     STZ  $22
 8C1C  B5 01     LDA  $01, X
 8C1E  10 0E     BPL  $8C2E
 8C20  E6 22     INC  $22
 8C22  20 C3 8F  JSR  $8FC3
 8C25  20 C1 98  JSR  $98C1
 8C28  20 55 88  JSR  $8855
 8C2B  20 78 93  JSR  $9378
 8C2E  B5 03     LDA  $03, X
 8C30  10 0D     BPL  $8C3F
 8C32  18        CLC  
 8C33  B5 00     LDA  $00, X
 8C35  75 02     ADC  $02, X
 8C37  95 02     STA  $02, X
 8C39  B5 01     LDA  $01, X
 8C3B  75 03     ADC  $03, X
 8C3D  95 03     STA  $03, X
 8C3F  20 B2 9A  JSR  $9AB2
 8C42  A5 22     LDA  $22
 8C44  F0 07     BEQ  $8C4D
 8C46  E8        INX  
 8C47  E8        INX  
 8C48  20 C3 8F  JSR  $8FC3
 8C4B  CA        DEX  
 8C4C  CA        DEX  
 8C4D  60        RTS  
 8C4E  E0 75     CPX  #$75
 8C50  30 03     BMI  $8C55
 8C52  4C FB BB  JMP  $BBFB
 8C55  A0 00     LDY  #$00
 8C57  20 62 BB  JSR  $BB62
 8C5A  F0 03     BEQ  $8C5F
 8C5C  10 01     BPL  $8C5F
 8C5E  88        DEY  
 8C5F  98        TYA  
 8C60  E8        INX  
 8C61  E8        INX  
 8C62  95 00     STA  $00, X
 8C64  95 01     STA  $01, X
 8C66  60        RTS  
 8C67  CA        DEX  
 8C68  CA        DEX  
 8C69  A5 00     LDA  $00
 8C6B  95 00     STA  $00, X
 8C6D  A5 01     LDA  $01
 8C6F  95 01     STA  $01, X
 8C71  60        RTS  
 8C72  A9 10     LDA  #$10
 8C74  85 18     STA  $18
 8C76  64 19     STZ  $19
 8C78  60        RTS  
 8C79  E0 77     CPX  #$77
 8C7B  30 03     BMI  $8C80
 8C7D  4C FB BB  JMP  $BBFB
 8C80  A5 2A     LDA  $2A
 8C82  D0 02     BNE  $8C86
 8C84  C6 2B     DEC  $2B
 8C86  C6 2A     DEC  $2A
 8C88  B5 00     LDA  $00, X
 8C8A  92 2A     STA  ($2A)
 8C8C  E8        INX  
 8C8D  E8        INX  
 8C8E  60        RTS  
 8C8F  CA        DEX  
 8C90  CA        DEX  
 8C91  86 26     STX  $26
 8C93  BA        TSX  
 8C94  38        SEC  
 8C95  BD 01 01  LDA  $0101, X
 8C98  FD 03 01  SBC  $0103, X
 8C9B  A8        TAY  
 8C9C  BD 02 01  LDA  $0102, X
 8C9F  FD 04 01  SBC  $0104, X
 8CA2  A6 26     LDX  $26
 8CA4  95 01     STA  $01, X
 8CA6  94 00     STY  $00, X
 8CA8  60        RTS  
 8CA9  A0 01     LDY  #$01
 8CAB  B1 02     LDA  ($02), Y
 8CAD  09 04     ORA  #$04
 8CAF  91 02     STA  ($02), Y
 8CB1  60        RTS  
 8CB2  CA        DEX  
 8CB3  CA        DEX  
 8CB4  A9 12     LDA  #$12
 8CB6  95 00     STA  $00, X
 8CB8  A9 00     LDA  #$00
 8CBA  95 01     STA  $01, X
 8CBC  60        RTS  
 8CBD  E0 77     CPX  #$77
 8CBF  30 03     BMI  $8CC4
 8CC1  4C FB BB  JMP  $BBFB
 8CC4  A5 02     LDA  $02
 8CC6  85 22     STA  $22
 8CC8  A5 03     LDA  $03
 8CCA  85 23     STA  $23
 8CCC  B5 00     LDA  $00, X
 8CCE  85 24     STA  $24
 8CD0  B5 01     LDA  $01, X
 8CD2  85 25     STA  $25
 8CD4  A0 04     LDY  #$04
 8CD6  B1 22     LDA  ($22), Y
 8CD8  C5 24     CMP  $24
 8CDA  D0 07     BNE  $8CE3
 8CDC  C8        INY  
 8CDD  B1 22     LDA  ($22), Y
 8CDF  C5 25     CMP  $25
 8CE1  F0 27     BEQ  $8D0A
 8CE3  18        CLC  
 8CE4  A5 22     LDA  $22
 8CE6  69 02     ADC  #$02
 8CE8  85 22     STA  $22
 8CEA  A5 23     LDA  $23
 8CEC  69 00     ADC  #$00
 8CEE  85 23     STA  $23
 8CF0  A0 00     LDY  #$00
 8CF2  B1 22     LDA  ($22), Y
 8CF4  48        PHA  
 8CF5  C8        INY  
 8CF6  11 22     ORA  ($22), Y
 8CF8  F0 09     BEQ  $8D03
 8CFA  B1 22     LDA  ($22), Y
 8CFC  85 23     STA  $23
 8CFE  68        PLA  
 8CFF  85 22     STA  $22
 8D01  80 D1     BRA  $8CD4
 8D03  68        PLA  
 8D04  74 00     STZ  $00, X
 8D06  74 01     STZ  $01, X
 8D08  80 08     BRA  $8D12
 8D0A  A5 22     LDA  $22
 8D0C  95 00     STA  $00, X
 8D0E  A5 23     LDA  $23
 8D10  95 01     STA  $01, X
 8D12  60        RTS  
 8D13  E0 77     CPX  #$77
 8D15  30 03     BMI  $8D1A
 8D17  4C FB BB  JMP  $BBFB
 8D1A  A9 FF     LDA  #$FF
 8D1C  55 00     EOR  $00, X
 8D1E  95 00     STA  $00, X
 8D20  A9 FF     LDA  #$FF
 8D22  55 01     EOR  $01, X
 8D24  95 01     STA  $01, X
 8D26  60        RTS  
 8D27  CA        DEX  
 8D28  CA        DEX  
 8D29  86 26     STX  $26
 8D2B  BA        TSX  
 8D2C  38        SEC  
 8D2D  BD 07 01  LDA  $0107, X
 8D30  FD 09 01  SBC  $0109, X
 8D33  A8        TAY  
 8D34  BD 08 01  LDA  $0108, X
 8D37  FD 0A 01  SBC  $010A, X
 8D3A  A6 26     LDX  $26
 8D3C  95 01     STA  $01, X
 8D3E  94 00     STY  $00, X
 8D40  60        RTS  
 8D41  20 4B 8D  JSR  $8D4B
 8D44  CA        DEX  
 8D45  CA        DEX  
 8D46  95 00     STA  $00, X
 8D48  74 01     STZ  $01, X
 8D4A  60        RTS  
 8D4B  6C 12 00  JMP  ($0012)
 8D4E  CA        DEX  
 8D4F  CA        DEX  
 8D50  A5 02     LDA  $02
 8D52  95 00     STA  $00, X
 8D54  A5 03     LDA  $03
 8D56  95 01     STA  $01, X
 8D58  60        RTS  
 8D59  20 4E 8D  JSR  $8D4E
 8D5C  20 79 8F  JSR  $8F79
 8D5F  60        RTS  
 8D60  68        PLA  
 8D61  68        PLA  
 8D62  68        PLA  
 8D63  68        PLA  
 8D64  60        RTS  
 8D65  64 16     STZ  $16
 8D67  64 17     STZ  $17
 8D69  60        RTS  
 8D6A  20 9A 91  JSR  $919A
 8D6D  B5 00     LDA  $00, X
 8D6F  85 2A     STA  $2A
 8D71  B5 01     LDA  $01, X
 8D73  85 2B     STA  $2B
 8D75  E8        INX  
 8D76  E8        INX  
 8D77  60        RTS  
 8D78  E0 75     CPX  #$75
 8D7A  30 03     BMI  $8D7F
 8D7C  4C FB BB  JMP  $BBFB
 8D7F  A0 00     LDY  #$00
 8D81  20 62 BB  JSR  $BB62
 8D84  F0 03     BEQ  $8D89
 8D86  30 01     BMI  $8D89
 8D88  88        DEY  
 8D89  98        TYA  
 8D8A  E8        INX  
 8D8B  E8        INX  
 8D8C  95 00     STA  $00, X
 8D8E  95 01     STA  $01, X
 8D90  60        RTS  
 8D91  E0 77     CPX  #$77
 8D93  30 03     BMI  $8D98
 8D95  4C FB BB  JMP  $BBFB
 8D98  A0 8D     LDY  #$8D
 8D9A  A9 A3     LDA  #$A3
 8D9C  20 DD BA  JSR  $BADD
 8D9F  20 A8 84  JSR  $84A8
 8DA2  60        RTS  
 8DA3  CA        DEX  
 8DA4  CA        DEX  
 8DA5  68        PLA  
 8DA6  85 20     STA  $20
 8DA8  68        PLA  
 8DA9  85 21     STA  $21
 8DAB  A0 01     LDY  #$01
 8DAD  B1 20     LDA  ($20), Y
 8DAF  95 00     STA  $00, X
 8DB1  C8        INY  
 8DB2  B1 20     LDA  ($20), Y
 8DB4  95 01     STA  $01, X
 8DB6  98        TYA  
 8DB7  18        CLC  
 8DB8  65 20     ADC  $20
 8DBA  A8        TAY  
 8DBB  A5 21     LDA  $21
 8DBD  69 00     ADC  #$00
 8DBF  48        PHA  
 8DC0  5A        PHY  
 8DC1  60        RTS  
 8DC2  A0 91     LDY  #$91
 8DC4  A9 40     LDA  #$40
 8DC6  20 DD BA  JSR  $BADD
 8DC9  A0 11     LDY  #$11
 8DCB  5A        PHY  
 8DCC  B9 30 8E  LDA  $8E30, Y
 8DCF  91 00     STA  ($00), Y
 8DD1  88        DEY  
 8DD2  10 F8     BPL  $8DCC
 8DD4  68        PLA  
 8DD5  18        CLC  
 8DD6  65 00     ADC  $00
 8DD8  85 00     STA  $00
 8DDA  A5 01     LDA  $01
 8DDC  69 00     ADC  #$00
 8DDE  85 01     STA  $01
 8DE0  20 A8 84  JSR  $84A8
 8DE3  A9 68     LDA  #$68
 8DE5  A0 06     LDY  #$06
 8DE7  91 00     STA  ($00), Y
 8DE9  88        DEY  
 8DEA  10 FB     BPL  $8DE7
 8DEC  A9 06     LDA  #$06
 8DEE  18        CLC  
 8DEF  65 00     ADC  $00
 8DF1  85 00     STA  $00
 8DF3  A5 01     LDA  $01
 8DF5  69 00     ADC  #$00
 8DF7  85 01     STA  $01
 8DF9  B5 00     LDA  $00, X
 8DFB  85 20     STA  $20
 8DFD  B5 01     LDA  $01, X
 8DFF  85 21     STA  $21
 8E01  E8        INX  
 8E02  E8        INX  
 8E03  A5 00     LDA  $00
 8E05  38        SEC  
 8E06  E9 01     SBC  #$01
 8E08  85 22     STA  $22
 8E0A  A5 01     LDA  $01
 8E0C  E9 00     SBC  #$00
 8E0E  85 23     STA  $23
 8E10  A0 00     LDY  #$00
 8E12  A9 A9     LDA  #$A9
 8E14  91 20     STA  ($20), Y
 8E16  C8        INY  
 8E17  A5 23     LDA  $23
 8E19  91 20     STA  ($20), Y
 8E1B  C8        INY  
 8E1C  A9 48     LDA  #$48
 8E1E  91 20     STA  ($20), Y
 8E20  C8        INY  
 8E21  A9 A9     LDA  #$A9
 8E23  91 20     STA  ($20), Y
 8E25  C8        INY  
 8E26  A5 22     LDA  $22
 8E28  91 20     STA  ($20), Y
 8E2A  C8        INY  
 8E2B  A9 48     LDA  #$48
 8E2D  91 20     STA  ($20), Y
 8E2F  60        RTS  
 8E30  18        CLC  
 8E31  68        PLA  
 8E32  75 00     ADC  $00, X
 8E34  A8        TAY  
 8E35  B8        CLV  
 8E36  68        PLA  
 8E37  75 01     ADC  $01, X
 8E39  48        PHA  
 8E3A  98        TYA  
 8E3B  48        PHA  
 8E3C  E8        INX  
 8E3D  E8        INX  
 8E3E  70 03     BVS  $8E43
 8E40  4C                                               |L               |
 8E41  E0 75     CPX  #$75
 8E43  30 03     BMI  $8E48
 8E45  4C FB BB  JMP  $BBFB
 8E48  B5 00     LDA  $00, X
 8E4A  29 0F     AND  #$0F
 8E4C  F0 08     BEQ  $8E56
 8E4E  A8        TAY  
 8E4F  16 02     ASL  $02, X
 8E51  36 03     ROL  $03, X
 8E53  88        DEY  
 8E54  D0 F9     BNE  $8E4F
 8E56  E8        INX  
 8E57  E8        INX  
 8E58  60        RTS  
 8E59  E0 75     CPX  #$75
 8E5B  30 03     BMI  $8E60
 8E5D  4C FB BB  JMP  $BBFB
 8E60  B5 01     LDA  $01, X
 8E62  55 03     EOR  $03, X
 8E64  48        PHA  
 8E65  20 02 81  JSR  $8102
 8E68  20 51 97  JSR  $9751
 8E6B  20 02 81  JSR  $8102
 8E6E  20 F8 9A  JSR  $9AF8
 8E71  68        PLA  
 8E72  10 03     BPL  $8E77
 8E74  20 55 88  JSR  $8855
 8E77  60        RTS  
 8E78  A5 02     LDA  $02
 8E7A  48        PHA  
 8E7B  A5 03     LDA  $03
 8E7D  48        PHA  
 8E7E  A5 00     LDA  $00
 8E80  48        PHA  
 8E81  A5 01     LDA  $01
 8E83  48        PHA  
 8E84  20 B4 86  JSR  $86B4
 8E87  A5 00     LDA  $00
 8E89  38        SEC  
 8E8A  E9 02     SBC  #$02
 8E8C  85 00     STA  $00
 8E8E  A5 01     LDA  $01
 8E90  E9 00     SBC  #$00
 8E92  85 01     STA  $01
 8E94  A0 8E     LDY  #$8E
 8E96  A9 A6     LDA  #$A6
 8E98  20 E9 BA  JSR  $BAE9
 8E9B  7A        PLY  
 8E9C  68        PLA  
 8E9D  20 E9 BA  JSR  $BAE9
 8EA0  7A        PLY  
 8EA1  68        PLA  
 8EA2  20 E9 BA  JSR  $BAE9
 8EA5  60        RTS  
 8EA6  68        PLA  
 8EA7  85 20     STA  $20
 8EA9  68        PLA  
 8EAA  85 21     STA  $21
 8EAC  E6 20     INC  $20
 8EAE  D0 02     BNE  $8EB2
 8EB0  E6 21     INC  $21
 8EB2  A0 00     LDY  #$00
 8EB4  B1 20     LDA  ($20), Y
 8EB6  85 00     STA  $00
 8EB8  C8        INY  
 8EB9  B1 20     LDA  ($20), Y
 8EBB  85 01     STA  $01
 8EBD  C8        INY  
 8EBE  B1 20     LDA  ($20), Y
 8EC0  85 02     STA  $02
 8EC2  C8        INY  
 8EC3  B1 20     LDA  ($20), Y
 8EC5  85 03     STA  $03
 8EC7  60        RTS  
 8EC8  E0 75     CPX  #$75
 8ECA  30 03     BMI  $8ECF
 8ECC  4C FB BB  JMP  $BBFB
 8ECF  B5 00     LDA  $00, X
 8ED1  D5 02     CMP  $02, X
 8ED3  B5 01     LDA  $01, X
 8ED5  F5 03     SBC  $03, X
 8ED7  50 02     BVC  $8EDB
 8ED9  49 80     EOR  #$80
 8EDB  30 08     BMI  $8EE5
 8EDD  B5 00     LDA  $00, X
 8EDF  95 02     STA  $02, X
 8EE1  B5 01     LDA  $01, X
 8EE3  95 03     STA  $03, X
 8EE5  E8        INX  
 8EE6  E8        INX  
 8EE7  60        RTS  
 8EE8  E0 75     CPX  #$75
 8EEA  30 03     BMI  $8EEF
 8EEC  4C FB BB  JMP  $BBFB
 8EEF  B5 00     LDA  $00, X
 8EF1  D5 02     CMP  $02, X
 8EF3  B5 01     LDA  $01, X
 8EF5  F5 03     SBC  $03, X
 8EF7  50 02     BVC  $8EFB
 8EF9  49 80     EOR  #$80
 8EFB  10 08     BPL  $8F05
 8EFD  B5 00     LDA  $00, X
 8EFF  95 02     STA  $02, X
 8F01  B5 01     LDA  $01, X
 8F03  95 03     STA  $03, X
 8F05  E8        INX  
 8F06  E8        INX  
 8F07  60        RTS  
 8F08  E0 75     CPX  #$75
 8F0A  30 03     BMI  $8F0F
 8F0C  4C FB BB  JMP  $BBFB
 8F0F  38        SEC  
 8F10  B5 02     LDA  $02, X
 8F12  F5 00     SBC  $00, X
 8F14  95 02     STA  $02, X
 8F16  B5 03     LDA  $03, X
 8F18  F5 01     SBC  $01, X
 8F1A  95 03     STA  $03, X
 8F1C  E8        INX  
 8F1D  E8        INX  
 8F1E  60        RTS  
 8F1F  E0 75     CPX  #$75
 8F21  30 03     BMI  $8F26
 8F23  4C FB BB  JMP  $BBFB
 8F26  B5 00     LDA  $00, X
 8F28  15 01     ORA  $01, X
 8F2A  F0 2D     BEQ  $8F59
 8F2C  18        CLC  
 8F2D  B5 02     LDA  $02, X
 8F2F  75 00     ADC  $00, X
 8F31  85 20     STA  $20
 8F33  B5 03     LDA  $03, X
 8F35  75 01     ADC  $01, X
 8F37  85 21     STA  $21
 8F39  A5 20     LDA  $20
 8F3B  D0 02     BNE  $8F3F
 8F3D  C6 21     DEC  $21
 8F3F  C6 20     DEC  $20
 8F41  B2 20     LDA  ($20)
 8F43  C9 20     CMP  #$20
 8F45  D0 12     BNE  $8F59
 8F47  A5 20     LDA  $20
 8F49  D0 02     BNE  $8F4D
 8F4B  C6 21     DEC  $21
 8F4D  C6 20     DEC  $20
 8F4F  B5 00     LDA  $00, X
 8F51  D0 02     BNE  $8F55
 8F53  D6 01     DEC  $01, X
 8F55  D6 00     DEC  $00, X
 8F57  80 E8     BRA  $8F41
 8F59  60        RTS  
 8F5A  B5 03     LDA  $03, X
 8F5C  D5 05     CMP  $05, X
 8F5E  F0 05     BEQ  $8F65
 8F60  B0 0E     BCS  $8F70
 8F62  4C D4 83  JMP  $83D4
 8F65  B5 02     LDA  $02, X
 8F67  D5 04     CMP  $04, X
 8F69  F0 08     BEQ  $8F73
 8F6B  B0 03     BCS  $8F70
 8F6D  4C D4 83  JMP  $83D4
 8F70  4C 13 84  JMP  $8413
 8F73  8A        TXA  
 8F74  18        CLC  
 8F75  69 06     ADC  #$06
 8F77  AA        TAX  
 8F78  60        RTS  
 8F79  E0 77     CPX  #$77
 8F7B  30 03     BMI  $8F80
 8F7D  4C FB BB  JMP  $BBFB
 8F80  B5 00     LDA  $00, X
 8F82  18        CLC  
 8F83  69 04     ADC  #$04
 8F85  85 24     STA  $24
 8F87  B5 01     LDA  $01, X
 8F89  90 01     BCC  $8F8C
 8F8B  1A        INC  
 8F8C  85 25     STA  $25
 8F8E  A0 00     LDY  #$00
 8F90  B1 24     LDA  ($24), Y
 8F92  95 00     STA  $00, X
 8F94  C8        INY  
 8F95  B1 24     LDA  ($24), Y
 8F97  95 01     STA  $01, X
 8F99  60        RTS  
 8F9A  E0 77     CPX  #$77
 8F9C  30 03     BMI  $8FA1
 8F9E  4C FB BB  JMP  $BBFB
 8FA1  CA        DEX  
 8FA2  CA        DEX  
 8FA3  A1 02     LDA  ($02, X)
 8FA5  95 00     STA  $00, X
 8FA7  74 01     STZ  $01, X
 8FA9  B5 02     LDA  $02, X
 8FAB  18        CLC  
 8FAC  69 08     ADC  #$08
 8FAE  A8        TAY  
 8FAF  B5 03     LDA  $03, X
 8FB1  69 00     ADC  #$00
 8FB3  95 03     STA  $03, X
 8FB5  94 02     STY  $02, X
 8FB7  60        RTS  
 8FB8  CA        DEX  
 8FB9  CA        DEX  
 8FBA  A9 1A     LDA  #$1A
 8FBC  95 00     STA  $00, X
 8FBE  A9 00     LDA  #$00
 8FC0  95 01     STA  $01, X
 8FC2  60        RTS  
 8FC3  E0 77     CPX  #$77
 8FC5  30 03     BMI  $8FCA
 8FC7  4C FB BB  JMP  $BBFB
 8FCA  A9 00     LDA  #$00
 8FCC  38        SEC  
 8FCD  F5 00     SBC  $00, X
 8FCF  95 00     STA  $00, X
 8FD1  A9 00     LDA  #$00
 8FD3  F5 01     SBC  $01, X
 8FD5  95 01     STA  $01, X
 8FD7  60        RTS  
 8FD8  A0 01     LDY  #$01
 8FDA  B1 02     LDA  ($02), Y
 8FDC  09 08     ORA  #$08
 8FDE  91 02     STA  ($02), Y
 8FE0  60        RTS  
 8FE1  E0 75     CPX  #$75
 8FE3  30 03     BMI  $8FE8
 8FE5  4C FB BB  JMP  $BBFB
 8FE8  B5 00     LDA  $00, X
 8FEA  95 02     STA  $02, X
 8FEC  B5 01     LDA  $01, X
 8FEE  95 03     STA  $03, X
 8FF0  E8        INX  
 8FF1  E8        INX  
 8FF2  60        RTS  
 8FF3  E0 75     CPX  #$75
 8FF5  30 03     BMI  $8FFA
 8FF7  4C FB BB  JMP  $BBFB
 8FFA  A0 00     LDY  #$00
 8FFC  B5 00     LDA  $00, X
 8FFE  D5 02     CMP  $02, X
 9000  D0 0A     BNE  $900C
 9002  B5 01     LDA  $01, X
 9004  D5 03     CMP  $03, X
 9006  D0 04     BNE  $900C
 9008  A9 FF     LDA  #$FF
 900A  80 01     BRA  $900D
 900C  88        DEY  
 900D  98        TYA  
 900E  E8        INX  
 900F  E8        INX  
 9010  95 00     STA  $00, X
 9012  95 01     STA  $01, X
 9014  60        RTS  
 9015  E0 73     CPX  #$73
 9017  30 03     BMI  $901C
 9019  4C FB BB  JMP  $BBFB
 901C  B4 01     LDY  $01, X
 901E  B5 03     LDA  $03, X
 9020  95 01     STA  $01, X
 9022  B5 05     LDA  $05, X
 9024  95 03     STA  $03, X
 9026  94 05     STY  $05, X
 9028  B4 00     LDY  $00, X
 902A  B5 02     LDA  $02, X
 902C  95 00     STA  $00, X
 902E  B5 04     LDA  $04, X
 9030  95 02     STA  $02, X
 9032  94 04     STY  $04, X
 9034  60        RTS  
 9035  E0 75     CPX  #$75
 9037  30 03     BMI  $903C
 9039  4C FB BB  JMP  $BBFB
 903C  64 26     STZ  $26
 903E  64 27     STZ  $27
 9040  A1 02     LDA  ($02, X)
 9042  C9 2D     CMP  #$2D
 9044  D0 0A     BNE  $9050
 9046  C6 27     DEC  $27
 9048  F6 02     INC  $02, X
 904A  D0 02     BNE  $904E
 904C  F6 03     INC  $03, X
 904E  D6 00     DEC  $00, X
 9050  B5 02     LDA  $02, X
 9052  18        CLC  
 9053  75 00     ADC  $00, X
 9055  85 28     STA  $28
 9057  B5 03     LDA  $03, X
 9059  69 00     ADC  #$00
 905B  85 29     STA  $29
 905D  A5 28     LDA  $28
 905F  D0 02     BNE  $9063
 9061  C6 29     DEC  $29
 9063  C6 28     DEC  $28
 9065  B2 28     LDA  ($28)
 9067  C9 2E     CMP  #$2E
 9069  D0 04     BNE  $906F
 906B  C6 26     DEC  $26
 906D  D6 00     DEC  $00, X
 906F  CA        DEX  
 9070  CA        DEX  
 9071  CA        DEX  
 9072  CA        DEX  
 9073  B5 04     LDA  $04, X
 9075  95 00     STA  $00, X
 9077  74 01     STZ  $01, X
 9079  B5 06     LDA  $06, X
 907B  95 02     STA  $02, X
 907D  B5 07     LDA  $07, X
 907F  95 03     STA  $03, X
 9081  74 04     STZ  $04, X
 9083  74 05     STZ  $05, X
 9085  74 06     STZ  $06, X
 9087  74 07     STZ  $07, X
 9089  20 1D 98  JSR  $981D
 908C  B5 00     LDA  $00, X
 908E  F0 15     BEQ  $90A5
 9090  A9 3E     LDA  #$3E
 9092  20 30 8A  JSR  $8A30
 9095  20 4E 9A  JSR  $9A4E
 9098  A9 3C     LDA  #$3C
 909A  20 30 8A  JSR  $8A30
 909D  20 E3 96  JSR  $96E3
 90A0  A9 0C     LDA  #$0C
 90A2  4C FD BB  JMP  $BBFD
 90A5  E8        INX  
 90A6  E8        INX  
 90A7  E8        INX  
 90A8  E8        INX  
 90A9  A5 26     LDA  $26
 90AB  F0 0F     BEQ  $90BC
 90AD  A5 34     LDA  $34
 90AF  09 20     ORA  #$20
 90B1  85 34     STA  $34
 90B3  A5 27     LDA  $27
 90B5  F0 14     BEQ  $90CB
 90B7  20 55 88  JSR  $8855
 90BA  80 0F     BRA  $90CB
 90BC  E8        INX  
 90BD  E8        INX  
 90BE  A5 34     LDA  $34
 90C0  29 DF     AND  #$DF
 90C2  85 34     STA  $34
 90C4  A5 27     LDA  $27
 90C6  F0 03     BEQ  $90CB
 90C8  20 C3 8F  JSR  $8FC3
 90CB  60        RTS  
 90CC  E0 75     CPX  #$75
 90CE  30 03     BMI  $90D3
 90D0  4C FB BB  JMP  $BBFB
 90D3  20 0D 83  JSR  $830D
 90D6  20 2F 8B  JSR  $8B2F
 90D9  20 C1 98  JSR  $98C1
 90DC  20 30 9C  JSR  $9C30
 90DF  20 63 93  JSR  $9363
 90E2  20 B2 9A  JSR  $9AB2
 90E5  20 0F 94  JSR  $940F
 90E8  20 0F 94  JSR  $940F
 90EB  20 78 93  JSR  $9378
 90EE  20 B2 9A  JSR  $9AB2
 90F1  20 0F 94  JSR  $940F
 90F4  20 0F 94  JSR  $940F
 90F7  B5 00     LDA  $00, X
 90F9  A8        TAY  
 90FA  B9 4C B9  LDA  $B94C, Y
 90FD  95 00     STA  $00, X
 90FF  74 01     STZ  $01, X
 9101  20 79 8C  JSR  $8C79
 9104  60        RTS  
 9105  E0 75     CPX  #$75
 9107  30 03     BMI  $910C
 9109  4C FB BB  JMP  $BBFB
 910C  A5 2A     LDA  $2A
 910E  95 00     STA  $00, X
 9110  95 02     STA  $02, X
 9112  A5 2B     LDA  $2B
 9114  95 01     STA  $01, X
 9116  95 03     STA  $03, X
 9118  20 9A 91  JSR  $919A
 911B  38        SEC  
 911C  B5 00     LDA  $00, X
 911E  F5 02     SBC  $02, X
 9120  95 02     STA  $02, X
 9122  B5 01     LDA  $01, X
 9124  F5 03     SBC  $03, X
 9126  95 03     STA  $03, X
 9128  E8        INX  
 9129  E8        INX  
 912A  60        RTS  
 912B  E0 75     CPX  #$75
 912D  30 03     BMI  $9132
 912F  4C FB BB  JMP  $BBFB
 9132  20 CC 90  JSR  $90CC
 9135  B5 00     LDA  $00, X
 9137  15 01     ORA  $01, X
 9139  15 02     ORA  $02, X
 913B  15 03     ORA  $03, X
 913D  D0 F3     BNE  $9132
 913F  60        RTS  
 9140  CA        DEX  
 9141  CA        DEX  
 9142  A9 01     LDA  #$01
 9144  95 00     STA  $00, X
 9146  74 01     STZ  $01, X
 9148  60        RTS  
 9149  E0 77     CPX  #$77
 914B  30 03     BMI  $9150
 914D  4C FB BB  JMP  $BBFB
 9150  B5 00     LDA  $00, X
 9152  D0 02     BNE  $9156
 9154  D6 01     DEC  $01, X
 9156  D6 00     DEC  $00, X
 9158  60        RTS  
 9159  E0 77     CPX  #$77
 915B  30 03     BMI  $9160
 915D  4C FB BB  JMP  $BBFB
 9160  F6 00     INC  $00, X
 9162  D0 02     BNE  $9166
 9164  F6 01     INC  $01, X
 9166  60        RTS  
 9167  E0 75     CPX  #$75
 9169  30 03     BMI  $916E
 916B  4C FB BB  JMP  $BBFB
 916E  B5 00     LDA  $00, X
 9170  15 02     ORA  $02, X
 9172  95 02     STA  $02, X
 9174  B5 01     LDA  $01, X
 9176  15 03     ORA  $03, X
 9178  95 03     STA  $03, X
 917A  E8        INX  
 917B  E8        INX  
 917C  60        RTS  
 917D  CA        DEX  
 917E  CA        DEX  
 917F  A9 10     LDA  #$10
 9181  95 00     STA  $00, X
 9183  A9 00     LDA  #$00
 9185  95 01     STA  $01, X
 9187  60        RTS  
 9188  E0 75     CPX  #$75
 918A  30 03     BMI  $918F
 918C  4C FB BB  JMP  $BBFB
 918F  CA        DEX  
 9190  CA        DEX  
 9191  B5 04     LDA  $04, X
 9193  95 00     STA  $00, X
 9195  B5 05     LDA  $05, X
 9197  95 01     STA  $01, X
 9199  60        RTS  
 919A  CA        DEX  
 919B  CA        DEX  
 919C  A5 00     LDA  $00
 919E  18        CLC  
 919F  69 FF     ADC  #$FF
 91A1  95 00     STA  $00, X
 91A3  A5 01     LDA  $01
 91A5  69 00     ADC  #$00
 91A7  95 01     STA  $01, X
 91A9  60        RTS  
 91AA  A9 1B     LDA  #$1B
 91AC  20 30 8A  JSR  $8A30
 91AF  A9 5B     LDA  #$5B
 91B1  20 30 8A  JSR  $8A30
 91B4  A9 32     LDA  #$32
 91B6  20 30 8A  JSR  $8A30
 91B9  A9 4A     LDA  #$4A
 91BB  20 30 8A  JSR  $8A30
 91BE  20 30 9C  JSR  $9C30
 91C1  20 30 9C  JSR  $9C30
 91C4  20 E2 82  JSR  $82E2
 91C7  60        RTS  
 91C8  A5 0A     LDA  $0A
 91CA  38        SEC  
 91CB  E5 0C     SBC  $0C
 91CD  85 20     STA  $20
 91CF  A5 0B     LDA  $0B
 91D1  E5 0D     SBC  $0D
 91D3  85 21     STA  $21
 91D5  A5 20     LDA  $20
 91D7  05 21     ORA  $21
 91D9  F0 2F     BEQ  $920A
 91DB  A5 20     LDA  $20
 91DD  F0 02     BEQ  $91E1
 91DF  C6 21     DEC  $21
 91E1  C6 20     DEC  $20
 91E3  A5 08     LDA  $08
 91E5  18        CLC  
 91E6  65 0C     ADC  $0C
 91E8  85 22     STA  $22
 91EA  A5 09     LDA  $09
 91EC  65 0D     ADC  $0D
 91EE  85 23     STA  $23
 91F0  B2 22     LDA  ($22)
 91F2  C9 20     CMP  #$20
 91F4  D0 1F     BNE  $9215
 91F6  E6 22     INC  $22
 91F8  D0 02     BNE  $91FC
 91FA  E6 23     INC  $23
 91FC  A5 20     LDA  $20
 91FE  D0 02     BNE  $9202
 9200  C6 21     DEC  $21
 9202  C6 20     DEC  $20
 9204  A5 20     LDA  $20
 9206  05 21     ORA  $21
 9208  D0 E6     BNE  $91F0
 920A  CA        DEX  
 920B  CA        DEX  
 920C  CA        DEX  
 920D  CA        DEX  
 920E  74 00     STZ  $00, X
 9210  74 01     STZ  $01, X
 9212  4C B8 92  JMP  $92B8
 9215  A5 22     LDA  $22
 9217  38        SEC  
 9218  E5 08     SBC  $08
 921A  85 0C     STA  $0C
 921C  A5 23     LDA  $23
 921E  E5 09     SBC  $09
 9220  85 0D     STA  $0D
 9222  CA        DEX  
 9223  CA        DEX  
 9224  A9 20     LDA  #$20
 9226  95 00     STA  $00, X
 9228  74 01     STZ  $01, X
 922A  E0 77     CPX  #$77
 922C  30 03     BMI  $9231
 922E  4C FB BB  JMP  $BBFB
 9231  A5 0A     LDA  $0A
 9233  05 0B     ORA  $0B
 9235  F0 0C     BEQ  $9243
 9237  A5 0D     LDA  $0D
 9239  C5 0B     CMP  $0B
 923B  90 0E     BCC  $924B
 923D  A5 0C     LDA  $0C
 923F  C5 0A     CMP  $0A
 9241  90 08     BCC  $924B
 9243  CA        DEX  
 9244  CA        DEX  
 9245  74 00     STZ  $00, X
 9247  74 01     STZ  $01, X
 9249  80 6D     BRA  $92B8
 924B  B5 00     LDA  $00, X
 924D  85 28     STA  $28
 924F  CA        DEX  
 9250  CA        DEX  
 9251  A5 08     LDA  $08
 9253  18        CLC  
 9254  65 0C     ADC  $0C
 9256  85 20     STA  $20
 9258  85 22     STA  $22
 925A  95 02     STA  $02, X
 925C  A5 09     LDA  $09
 925E  65 0D     ADC  $0D
 9260  85 21     STA  $21
 9262  85 23     STA  $23
 9264  95 03     STA  $03, X
 9266  A5 08     LDA  $08
 9268  18        CLC  
 9269  65 0A     ADC  $0A
 926B  85 24     STA  $24
 926D  A5 09     LDA  $09
 926F  65 0B     ADC  $0B
 9271  85 25     STA  $25
 9273  64 29     STZ  $29
 9275  A5 22     LDA  $22
 9277  C5 24     CMP  $24
 9279  D0 06     BNE  $9281
 927B  A5 23     LDA  $23
 927D  C5 25     CMP  $25
 927F  F0 10     BEQ  $9291
 9281  B2 22     LDA  ($22)
 9283  C5 28     CMP  $28
 9285  F0 08     BEQ  $928F
 9287  E6 22     INC  $22
 9289  D0 EA     BNE  $9275
 928B  E6 23     INC  $23
 928D  80 E6     BRA  $9275
 928F  E6 29     INC  $29
 9291  A5 22     LDA  $22
 9293  38        SEC  
 9294  E5 20     SBC  $20
 9296  95 00     STA  $00, X
 9298  A5 23     LDA  $23
 929A  E5 21     SBC  $21
 929C  95 01     STA  $01, X
 929E  A5 22     LDA  $22
 92A0  38        SEC  
 92A1  E5 08     SBC  $08
 92A3  85 0C     STA  $0C
 92A5  A5 23     LDA  $23
 92A7  E5 09     SBC  $09
 92A9  85 0D     STA  $0D
 92AB  A5 0C     LDA  $0C
 92AD  18        CLC  
 92AE  65 29     ADC  $29
 92B0  85 0C     STA  $0C
 92B2  A5 0D     LDA  $0D
 92B4  69 00     ADC  #$00
 92B6  85 0D     STA  $0D
 92B8  60        RTS  
 92B9  16 00     ASL  $00, X
 92BB  8A        TXA  
 92BC  75 00     ADC  $00, X
 92BE  A8        TAY  
 92BF  B9 02 00  LDA  $0002, Y
 92C2  95 00     STA  $00, X
 92C4  B9 03 00  LDA  $0003, Y
 92C7  95 01     STA  $01, X
 92C9  60        RTS  
 92CA  E0 75     CPX  #$75
 92CC  30 03     BMI  $92D1
 92CE  4C FB BB  JMP  $BBFB
 92D1  18        CLC  
 92D2  B5 00     LDA  $00, X
 92D4  75 02     ADC  $02, X
 92D6  95 02     STA  $02, X
 92D8  B5 01     LDA  $01, X
 92DA  75 03     ADC  $03, X
 92DC  95 03     STA  $03, X
 92DE  E8        INX  
 92DF  E8        INX  
 92E0  60        RTS  
 92E1  E0 75     CPX  #$75
 92E3  30 03     BMI  $92E8
 92E5  4C FB BB  JMP  $BBFB
 92E8  B5 00     LDA  $00, X
 92EA  85 20     STA  $20
 92EC  B5 01     LDA  $01, X
 92EE  85 21     STA  $21
 92F0  A0 00     LDY  #$00
 92F2  B1 20     LDA  ($20), Y
 92F4  18        CLC  
 92F5  75 02     ADC  $02, X
 92F7  91 20     STA  ($20), Y
 92F9  C8        INY  
 92FA  B1 20     LDA  ($20), Y
 92FC  75 03     ADC  $03, X
 92FE  91 20     STA  ($20), Y
 9300  E8        INX  
 9301  E8        INX  
 9302  E8        INX  
 9303  E8        INX  
 9304  60        RTS  
 9305  20 C8 91  JSR  $91C8
 9308  B5 00     LDA  $00, X
 930A  15 01     ORA  $01, X
 930C  D0 05     BNE  $9313
 930E  A9 06     LDA  #$06
 9310  4C FD BB  JMP  $BBFD
 9313  20 92 8B  JSR  $8B92
 9316  D0 05     BNE  $931D
 9318  A9 06     LDA  #$06
 931A  4C FD BB  JMP  $BBFD
 931D  B5 00     LDA  $00, X
 931F  85 20     STA  $20
 9321  B5 01     LDA  $01, X
 9323  85 21     STA  $21
 9325  20 79 8F  JSR  $8F79
 9328  E6 20     INC  $20
 932A  D0 02     BNE  $932E
 932C  E6 21     INC  $21
 932E  B2 20     LDA  ($20)
 9330  29 04     AND  #$04
 9332  F0 05     BEQ  $9339
 9334  20 2F 85  JSR  $852F
 9337  80 0A     BRA  $9343
 9339  20 91 8D  JSR  $8D91
 933C  A0 85     LDY  #$85
 933E  A9 2F     LDA  #$2F
 9340  20 DD BA  JSR  $BADD
 9343  60        RTS  
 9344  20 2F 8B  JSR  $8B2F
 9347  20 4B 89  JSR  $894B
 934A  60        RTS  
 934B  E0 77     CPX  #$77
 934D  30 03     BMI  $9352
 934F  4C FB BB  JMP  $BBFB
 9352  B5 00     LDA  $00, X
 9354  15 01     ORA  $01, X
 9356  F0 0A     BEQ  $9362
 9358  CA        DEX  
 9359  CA        DEX  
 935A  B5 02     LDA  $02, X
 935C  95 00     STA  $00, X
 935E  B5 03     LDA  $03, X
 9360  95 01     STA  $01, X
 9362  60        RTS  
 9363  7A        PLY  
 9364  84 20     STY  $20
 9366  7A        PLY  
 9367  CA        DEX  
 9368  CA        DEX  
 9369  68        PLA  
 936A  95 00     STA  $00, X
 936C  68        PLA  
 936D  95 01     STA  $01, X
 936F  48        PHA  
 9370  B5 00     LDA  $00, X
 9372  48        PHA  
 9373  5A        PHY  
 9374  A4 20     LDY  $20
 9376  5A        PHY  
 9377  60        RTS  
 9378  68        PLA  
 9379  85 28     STA  $28
 937B  7A        PLY  
 937C  CA        DEX  
 937D  CA        DEX  
 937E  68        PLA  
 937F  95 00     STA  $00, X
 9381  68        PLA  
 9382  95 01     STA  $01, X
 9384  5A        PHY  
 9385  A5 28     LDA  $28
 9387  48        PHA  
 9388  60        RTS  
 9389  A0 00     LDY  #$00
 938B  A9 20     LDA  #$20
 938D  91 00     STA  ($00), Y
 938F  C8        INY  
 9390  24 34     BIT  $34
 9392  70 0C     BVS  $93A0
 9394  A5 04     LDA  $04
 9396  91 00     STA  ($00), Y
 9398  C8        INY  
 9399  A5 05     LDA  $05
 939B  91 00     STA  ($00), Y
 939D  C8        INY  
 939E  80 1B     BRA  $93BB
 93A0  A5 04     LDA  $04
 93A2  18        CLC  
 93A3  69 04     ADC  #$04
 93A5  85 20     STA  $20
 93A7  A5 05     LDA  $05
 93A9  69 00     ADC  #$00
 93AB  85 21     STA  $21
 93AD  B2 20     LDA  ($20)
 93AF  91 00     STA  ($00), Y
 93B1  5A        PHY  
 93B2  A0 01     LDY  #$01
 93B4  B1 20     LDA  ($20), Y
 93B6  7A        PLY  
 93B7  C8        INY  
 93B8  91 00     STA  ($00), Y
 93BA  C8        INY  
 93BB  98        TYA  
 93BC  18        CLC  
 93BD  65 00     ADC  $00
 93BF  85 00     STA  $00
 93C1  90 02     BCC  $93C5
 93C3  E6 01     INC  $01
 93C5  60        RTS  
 93C6  A5 06     LDA  $06
 93C8  D0 2D     BNE  $93F7
 93CA  CA        DEX  
 93CB  CA        DEX  
 93CC  CA        DEX  
 93CD  CA        DEX  
 93CE  A5 08     LDA  $08
 93D0  95 02     STA  $02, X
 93D2  A5 09     LDA  $09
 93D4  95 03     STA  $03, X
 93D6  64 0A     STZ  $0A
 93D8  64 0B     STZ  $0B
 93DA  A9 FF     LDA  #$FF
 93DC  95 00     STA  $00, X
 93DE  74 01     STZ  $01, X
 93E0  20 1B 81  JSR  $811B
 93E3  B5 00     LDA  $00, X
 93E5  85 0A     STA  $0A
 93E7  B5 01     LDA  $01, X
 93E9  85 0B     STA  $0B
 93EB  64 0C     STZ  $0C
 93ED  64 0D     STZ  $0D
 93EF  A9 FF     LDA  #$FF
 93F1  95 00     STA  $00, X
 93F3  95 01     STA  $01, X
 93F5  80 10     BRA  $9407
 93F7  1A        INC  
 93F8  D0 08     BNE  $9402
 93FA  CA        DEX  
 93FB  CA        DEX  
 93FC  74 00     STZ  $00, X
 93FE  74 01     STZ  $01, X
 9400  80 05     BRA  $9407
 9402  A9 09     LDA  #$09
 9404  4C FD BB  JMP  $BBFD
 9407  60        RTS  
 9408  A9 FF     LDA  #$FF
 940A  85 16     STA  $16
 940C  85 17     STA  $17
 940E  60        RTS  
 940F  E0 73     CPX  #$73
 9411  30 03     BMI  $9416
 9413  4C FB BB  JMP  $BBFB
 9416  B4 05     LDY  $05, X
 9418  B5 03     LDA  $03, X
 941A  95 05     STA  $05, X
 941C  B5 01     LDA  $01, X
 941E  95 03     STA  $03, X
 9420  94 01     STY  $01, X
 9422  B4 04     LDY  $04, X
 9424  B5 02     LDA  $02, X
 9426  95 04     STA  $04, X
 9428  B5 00     LDA  $00, X
 942A  95 02     STA  $02, X
 942C  94 00     STY  $00, X
 942E  60        RTS  
 942F  E0 75     CPX  #$75
 9431  30 03     BMI  $9436
 9433  4C FB BB  JMP  $BBFB
 9436  B5 00     LDA  $00, X
 9438  29 0F     AND  #$0F
 943A  F0 08     BEQ  $9444
 943C  A8        TAY  
 943D  56 03     LSR  $03, X
 943F  76 02     ROR  $02, X
 9441  88        DEY  
 9442  D0 F9     BNE  $943D
 9444  E8        INX  
 9445  E8        INX  
 9446  60        RTS  
 9447  CA        DEX  
 9448  CA        DEX  
 9449  CA        DEX  
 944A  CA        DEX  
 944B  A9 4C     LDA  #$4C
 944D  20 ED BA  JSR  $BAED
 9450  20 ED BA  JSR  $BAED
 9453  20 ED BA  JSR  $BAED
 9456  A5 00     LDA  $00
 9458  95 02     STA  $02, X
 945A  A5 01     LDA  $01
 945C  95 03     STA  $03, X
 945E  A5 0D     LDA  $0D
 9460  C5 0B     CMP  $0B
 9462  90 18     BCC  $947C
 9464  A5 0C     LDA  $0C
 9466  C5 0A     CMP  $0A
 9468  90 12     BCC  $947C
 946A  20 C6 93  JSR  $93C6
 946D  B5 00     LDA  $00, X
 946F  15 01     ORA  $01, X
 9471  D0 05     BNE  $9478
 9473  A9 08     LDA  #$08
 9475  4C FD BB  JMP  $BBFD
 9478  E8        INX  
 9479  E8        INX  
 947A  80 E2     BRA  $945E
 947C  A5 08     LDA  $08
 947E  18        CLC  
 947F  65 0C     ADC  $0C
 9481  85 20     STA  $20
 9483  A5 09     LDA  $09
 9485  65 0D     ADC  $0D
 9487  85 21     STA  $21
 9489  B2 20     LDA  ($20)
 948B  C9 22     CMP  #$22
 948D  F0 0B     BEQ  $949A
 948F  20 ED BA  JSR  $BAED
 9492  E6 0C     INC  $0C
 9494  D0 C8     BNE  $945E
 9496  E6 0D     INC  $0D
 9498  80 C4     BRA  $945E
 949A  E6 0C     INC  $0C
 949C  D0 02     BNE  $94A0
 949E  E6 0D     INC  $0D
 94A0  A5 00     LDA  $00
 94A2  38        SEC  
 94A3  F5 02     SBC  $02, X
 94A5  95 00     STA  $00, X
 94A7  A5 01     LDA  $01
 94A9  F5 03     SBC  $03, X
 94AB  95 01     STA  $01, X
 94AD  B5 02     LDA  $02, X
 94AF  38        SEC  
 94B0  E9 02     SBC  #$02
 94B2  85 20     STA  $20
 94B4  B5 03     LDA  $03, X
 94B6  E9 00     SBC  #$00
 94B8  85 21     STA  $21
 94BA  A5 00     LDA  $00
 94BC  92 20     STA  ($20)
 94BE  A0 01     LDY  #$01
 94C0  A5 01     LDA  $01
 94C2  91 20     STA  ($20), Y
 94C4  A5 16     LDA  $16
 94C6  05 17     ORA  $17
 94C8  F0 03     BEQ  $94CD
 94CA  20 50 96  JSR  $9650
 94CD  60        RTS  
 94CE  E0 77     CPX  #$77
 94D0  30 03     BMI  $94D5
 94D2  4C FB BB  JMP  $BBFB
 94D5  CA        DEX  
 94D6  CA        DEX  
 94D7  74 00     STZ  $00, X
 94D9  74 01     STZ  $01, X
 94DB  B5 03     LDA  $03, X
 94DD  10 04     BPL  $94E3
 94DF  D6 00     DEC  $00, X
 94E1  D6 01     DEC  $01, X
 94E3  60        RTS  
 94E4  E0 71     CPX  #$71
 94E6  D0 03     BNE  $94EB
 94E8  4C FB BB  JMP  $BBFB
 94EB  B5 00     LDA  $00, X
 94ED  15 01     ORA  $01, X
 94EF  D0 0B     BNE  $94FC
 94F1  E8        INX  
 94F2  E8        INX  
 94F3  A9 FF     LDA  #$FF
 94F5  95 00     STA  $00, X
 94F7  95 01     STA  $01, X
 94F9  4C 86 95  JMP  $9586
 94FC  20 30 9C  JSR  $9C30
 94FF  18        CLC  
 9500  B5 00     LDA  $00, X
 9502  75 02     ADC  $02, X
 9504  85 20     STA  $20
 9506  B5 01     LDA  $01, X
 9508  75 03     ADC  $03, X
 950A  D5 07     CMP  $07, X
 950C  90 12     BCC  $9520
 950E  D0 06     BNE  $9516
 9510  B5 06     LDA  $06, X
 9512  C5 20     CMP  $20
 9514  B0 0A     BCS  $9520
 9516  E8        INX  
 9517  E8        INX  
 9518  E8        INX  
 9519  E8        INX  
 951A  74 00     STZ  $00, X
 951C  74 01     STZ  $01, X
 951E  80 66     BRA  $9586
 9520  18        CLC  
 9521  B5 08     LDA  $08, X
 9523  75 00     ADC  $00, X
 9525  85 20     STA  $20
 9527  B5 09     LDA  $09, X
 9529  75 01     ADC  $01, X
 952B  85 21     STA  $21
 952D  B5 04     LDA  $04, X
 952F  85 22     STA  $22
 9531  B5 05     LDA  $05, X
 9533  85 23     STA  $23
 9535  B5 02     LDA  $02, X
 9537  85 24     STA  $24
 9539  B5 03     LDA  $03, X
 953B  85 25     STA  $25
 953D  B2 20     LDA  ($20)
 953F  D2 22     CMP  ($22)
 9541  F0 05     BEQ  $9548
 9543  20 59 91  JSR  $9159
 9546  80 B7     BRA  $94FF
 9548  E6 20     INC  $20
 954A  D0 02     BNE  $954E
 954C  E6 21     INC  $21
 954E  E6 22     INC  $22
 9550  D0 02     BNE  $9554
 9552  E6 23     INC  $23
 9554  A5 24     LDA  $24
 9556  D0 02     BNE  $955A
 9558  C6 25     DEC  $25
 955A  C6 24     DEC  $24
 955C  A5 24     LDA  $24
 955E  05 25     ORA  $25
 9560  D0 DB     BNE  $953D
 9562  18        CLC  
 9563  B5 00     LDA  $00, X
 9565  75 08     ADC  $08, X
 9567  95 08     STA  $08, X
 9569  B5 01     LDA  $01, X
 956B  75 09     ADC  $09, X
 956D  95 09     STA  $09, X
 956F  38        SEC  
 9570  B5 06     LDA  $06, X
 9572  F5 00     SBC  $00, X
 9574  95 06     STA  $06, X
 9576  B5 07     LDA  $07, X
 9578  F5 01     SBC  $01, X
 957A  95 07     STA  $07, X
 957C  E8        INX  
 957D  E8        INX  
 957E  E8        INX  
 957F  E8        INX  
 9580  A9 FF     LDA  #$FF
 9582  95 00     STA  $00, X
 9584  95 01     STA  $01, X
 9586  60        RTS  
 9587  24 34     BIT  $34
 9589  70 11     BVS  $959C
 958B  A9 60     LDA  #$60
 958D  20 ED BA  JSR  $BAED
 9590  CA        DEX  
 9591  CA        DEX  
 9592  A5 04     LDA  $04
 9594  95 00     STA  $00, X
 9596  A5 05     LDA  $05
 9598  95 01     STA  $01, X
 959A  80 18     BRA  $95B4
 959C  A0 06     LDY  #$06
 959E  A5 00     LDA  $00
 95A0  91 04     STA  ($04), Y
 95A2  C8        INY  
 95A3  A5 01     LDA  $01
 95A5  91 04     STA  ($04), Y
 95A7  A9 60     LDA  #$60
 95A9  20 ED BA  JSR  $BAED
 95AC  A5 04     LDA  $04
 95AE  85 02     STA  $02
 95B0  A5 05     LDA  $05
 95B2  85 03     STA  $03
 95B4  64 16     STZ  $16
 95B6  64 17     STZ  $17
 95B8  60        RTS  
 95B9  E0 77     CPX  #$77
 95BB  30 03     BMI  $95C0
 95BD  4C FB BB  JMP  $BBFB
 95C0  B5 01     LDA  $01, X
 95C2  30 04     BMI  $95C8
 95C4  E8        INX  
 95C5  E8        INX  
 95C6  80 09     BRA  $95D1
 95C8  A9 2D     LDA  #$2D
 95CA  95 00     STA  $00, X
 95CC  74 01     STZ  $01, X
 95CE  20 79 8C  JSR  $8C79
 95D1  60        RTS  
 95D2  E0 73     CPX  #$73
 95D4  30 03     BMI  $95D9
 95D6  4C FB BB  JMP  $BBFB
 95D9  18        CLC  
 95DA  B5 00     LDA  $00, X
 95DC  75 04     ADC  $04, X
 95DE  95 04     STA  $04, X
 95E0  B5 01     LDA  $01, X
 95E2  75 05     ADC  $05, X
 95E4  95 05     STA  $05, X
 95E6  38        SEC  
 95E7  B5 02     LDA  $02, X
 95E9  F5 00     SBC  $00, X
 95EB  95 02     STA  $02, X
 95ED  B5 03     LDA  $03, X
 95EF  F5 01     SBC  $01, X
 95F1  95 03     STA  $03, X
 95F3  E8        INX  
 95F4  E8        INX  
 95F5  60        RTS  
 95F6  E0 75     CPX  #$75
 95F8  30 03     BMI  $95FD
 95FA  4C FB BB  JMP  $BBFB
 95FD  A9 4C     LDA  #$4C
 95FF  20 ED BA  JSR  $BAED
 9602  20 ED BA  JSR  $BAED
 9605  20 ED BA  JSR  $BAED
 9608  8A        TXA  
 9609  38        SEC  
 960A  E9 06     SBC  #$06
 960C  AA        TAX  
 960D  B5 08     LDA  $08, X
 960F  95 04     STA  $04, X
 9611  B5 09     LDA  $09, X
 9613  95 05     STA  $05, X
 9615  B5 06     LDA  $06, X
 9617  95 00     STA  $00, X
 9619  B5 07     LDA  $07, X
 961B  95 01     STA  $01, X
 961D  A5 00     LDA  $00
 961F  95 08     STA  $08, X
 9621  95 02     STA  $02, X
 9623  A5 01     LDA  $01
 9625  95 09     STA  $09, X
 9627  95 03     STA  $03, X
 9629  20 5A 8F  JSR  $8F5A
 962C  18        CLC  
 962D  A5 00     LDA  $00
 962F  75 00     ADC  $00, X
 9631  85 00     STA  $00
 9633  A5 01     LDA  $01
 9635  75 01     ADC  $01, X
 9637  85 01     STA  $01
 9639  B5 02     LDA  $02, X
 963B  38        SEC  
 963C  E9 02     SBC  #$02
 963E  85 20     STA  $20
 9640  B5 03     LDA  $03, X
 9642  E9 00     SBC  #$00
 9644  85 21     STA  $21
 9646  A5 00     LDA  $00
 9648  92 20     STA  ($20)
 964A  A0 01     LDY  #$01
 964C  A5 01     LDA  $01
 964E  91 20     STA  ($20), Y
 9650  A0 96     LDY  #$96
 9652  A9 6A     LDA  #$6A
 9654  20 DD BA  JSR  $BADD
 9657  B4 03     LDY  $03, X
 9659  B5 02     LDA  $02, X
 965B  20 E9 BA  JSR  $BAE9
 965E  B4 01     LDY  $01, X
 9660  B5 00     LDA  $00, X
 9662  20 E9 BA  JSR  $BAE9
 9665  E8        INX  
 9666  E8        INX  
 9667  E8        INX  
 9668  E8        INX  
 9669  60        RTS  
 966A  CA        DEX  
 966B  CA        DEX  
 966C  CA        DEX  
 966D  CA        DEX  
 966E  68        PLA  
 966F  85 20     STA  $20
 9671  68        PLA  
 9672  85 21     STA  $21
 9674  A0 01     LDY  #$01
 9676  B1 20     LDA  ($20), Y
 9678  95 02     STA  $02, X
 967A  C8        INY  
 967B  B1 20     LDA  ($20), Y
 967D  95 03     STA  $03, X
 967F  C8        INY  
 9680  B1 20     LDA  ($20), Y
 9682  95 00     STA  $00, X
 9684  C8        INY  
 9685  B1 20     LDA  ($20), Y
 9687  95 01     STA  $01, X
 9689  18        CLC  
 968A  A5 20     LDA  $20
 968C  69 04     ADC  #$04
 968E  A8        TAY  
 968F  A5 21     LDA  $21
 9691  69 00     ADC  #$00
 9693  48        PHA  
 9694  5A        PHY  
 9695  60        RTS  
 9696  E0 73     CPX  #$73
 9698  30 03     BMI  $969D
 969A  4C FB BB  JMP  $BBFB
 969D  B5 03     LDA  $03, X
 969F  48        PHA  
 96A0  B5 01     LDA  $01, X
 96A2  55 03     EOR  $03, X
 96A4  48        PHA  
 96A5  20 02 81  JSR  $8102
 96A8  E8        INX  
 96A9  E8        INX  
 96AA  20 A5 87  JSR  $87A5
 96AD  CA        DEX  
 96AE  CA        DEX  
 96AF  20 B2 9A  JSR  $9AB2
 96B2  68        PLA  
 96B3  10 03     BPL  $96B8
 96B5  20 C3 8F  JSR  $8FC3
 96B8  68        PLA  
 96B9  10 07     BPL  $96C2
 96BB  E8        INX  
 96BC  E8        INX  
 96BD  20 C3 8F  JSR  $8FC3
 96C0  CA        DEX  
 96C1  CA        DEX  
 96C2  60        RTS  
 96C3  CA        DEX  
 96C4  CA        DEX  
 96C5  A5 08     LDA  $08
 96C7  95 00     STA  $00, X
 96C9  A5 09     LDA  $09
 96CB  95 01     STA  $01, X
 96CD  CA        DEX  
 96CE  CA        DEX  
 96CF  A5 0A     LDA  $0A
 96D1  95 00     STA  $00, X
 96D3  A5 0B     LDA  $0B
 96D5  95 01     STA  $01, X
 96D7  60        RTS  
 96D8  CA        DEX  
 96D9  CA        DEX  
 96DA  A5 06     LDA  $06
 96DC  95 00     STA  $00, X
 96DE  A5 07     LDA  $07
 96E0  95 01     STA  $01, X
 96E2  60        RTS  
 96E3  A9 20     LDA  #$20
 96E5  20 30 8A  JSR  $8A30
 96E8  60        RTS  
 96E9  E0 77     CPX  #$77
 96EB  30 03     BMI  $96F0
 96ED  4C FB BB  JMP  $BBFB
 96F0  B5 00     LDA  $00, X
 96F2  15 01     ORA  $01, X
 96F4  F0 26     BEQ  $971C
 96F6  A9 20     LDA  #$20
 96F8  B4 01     LDY  $01, X
 96FA  D0 0A     BNE  $9706
 96FC  B4 00     LDY  $00, X
 96FE  20 30 8A  JSR  $8A30
 9701  88        DEY  
 9702  F0 18     BEQ  $971C
 9704  80 F8     BRA  $96FE
 9706  B4 00     LDY  $00, X
 9708  F0 06     BEQ  $9710
 970A  20 30 8A  JSR  $8A30
 970D  88        DEY  
 970E  80 F8     BRA  $9708
 9710  A0 00     LDY  #$00
 9712  20 30 8A  JSR  $8A30
 9715  88        DEY  
 9716  D0 FA     BNE  $9712
 9718  D6 01     DEC  $01, X
 971A  D0 F4     BNE  $9710
 971C  E8        INX  
 971D  E8        INX  
 971E  60        RTS  
 971F  E0 75     CPX  #$75
 9721  30 03     BMI  $9726
 9723  4C FB BB  JMP  $BBFB
 9726  20 F8 9A  JSR  $9AF8
 9729  E8        INX  
 972A  E8        INX  
 972B  60        RTS  
 972C  CA        DEX  
 972D  CA        DEX  
 972E  A9 16     LDA  #$16
 9730  95 00     STA  $00, X
 9732  A9 00     LDA  #$00
 9734  95 01     STA  $01, X
 9736  60        RTS  
 9737  E0 75     CPX  #$75
 9739  30 03     BMI  $973E
 973B  4C FB BB  JMP  $BBFB
 973E  B5 02     LDA  $02, X
 9740  81 00     STA  ($00, X)
 9742  F6 00     INC  $00, X
 9744  D0 02     BNE  $9748
 9746  F6 01     INC  $01, X
 9748  B5 03     LDA  $03, X
 974A  81 00     STA  ($00, X)
 974C  E8        INX  
 974D  E8        INX  
 974E  E8        INX  
 974F  E8        INX  
 9750  60        RTS  
 9751  E0 75     CPX  #$75
 9753  30 03     BMI  $9758
 9755  20 FB BB  JSR  $BBFB
 9758  B5 00     LDA  $00, X
 975A  B4 02     LDY  $02, X
 975C  95 02     STA  $02, X
 975E  94 00     STY  $00, X
 9760  B5 01     LDA  $01, X
 9762  B4 03     LDY  $03, X
 9764  95 03     STA  $03, X
 9766  94 01     STY  $01, X
 9768  60        RTS  
 9769  20 C8 91  JSR  $91C8
 976C  B5 00     LDA  $00, X
 976E  15 01     ORA  $01, X
 9770  D0 05     BNE  $9777
 9772  A9 06     LDA  #$06
 9774  4C FD BB  JMP  $BBFD
 9777  20 92 8B  JSR  $8B92
 977A  B5 00     LDA  $00, X
 977C  15 01     ORA  $01, X
 977E  D0 05     BNE  $9785
 9780  A9 0C     LDA  #$0C
 9782  4C FD BB  JMP  $BBFD
 9785  20 79 8F  JSR  $8F79
 9788  60        RTS  
 9789  20 69 97  JSR  $9769
 978C  B5 00     LDA  $00, X
 978E  18        CLC  
 978F  69 03     ADC  #$03
 9791  85 20     STA  $20
 9793  B5 01     LDA  $01, X
 9795  69 00     ADC  #$00
 9797  85 21     STA  $21
 9799  E8        INX  
 979A  E8        INX  
 979B  A5 16     LDA  $16
 979D  05 17     ORA  $17
 979F  F0 34     BEQ  $97D5
 97A1  A0 00     LDY  #$00
 97A3  A9 B5     LDA  #$B5
 97A5  20 E9 BA  JSR  $BAE9
 97A8  A9 8D     LDA  #$8D
 97AA  20 ED BA  JSR  $BAED
 97AD  A4 21     LDY  $21
 97AF  A5 20     LDA  $20
 97B1  20 E9 BA  JSR  $BAE9
 97B4  A0 01     LDY  #$01
 97B6  A9 B5     LDA  #$B5
 97B8  20 E9 BA  JSR  $BAE9
 97BB  A9 8D     LDA  #$8D
 97BD  20 ED BA  JSR  $BAED
 97C0  E6 20     INC  $20
 97C2  D0 02     BNE  $97C6
 97C4  E6 21     INC  $21
 97C6  A4 21     LDY  $21
 97C8  A5 20     LDA  $20
 97CA  20 E9 BA  JSR  $BAE9
 97CD  A0 E8     LDY  #$E8
 97CF  98        TYA  
 97D0  20 E9 BA  JSR  $BAE9
 97D3  80 13     BRA  $97E8
 97D5  E0 77     CPX  #$77
 97D7  30 03     BMI  $97DC
 97D9  4C FB BB  JMP  $BBFB
 97DC  B5 00     LDA  $00, X
 97DE  92 20     STA  ($20)
 97E0  A0 01     LDY  #$01
 97E2  B5 01     LDA  $01, X
 97E4  91 20     STA  ($20), Y
 97E6  E8        INX  
 97E7  E8        INX  
 97E8  60        RTS  
 97E9  E0 77     CPX  #$77
 97EB  30 03     BMI  $97F0
 97ED  4C FB BB  JMP  $BBFB
 97F0  20 13 8A  JSR  $8A13
 97F3  20 BD 8C  JSR  $8CBD
 97F6  F6 00     INC  $00, X
 97F8  D0 02     BNE  $97FC
 97FA  F6 01     INC  $01, X
 97FC  A1 00     LDA  ($00, X)
 97FE  29 20     AND  #$20
 9800  F0 0D     BEQ  $980F
 9802  18        CLC  
 9803  B5 02     LDA  $02, X
 9805  69 03     ADC  #$03
 9807  95 02     STA  $02, X
 9809  B5 03     LDA  $03, X
 980B  69 00     ADC  #$00
 980D  95 03     STA  $03, X
 980F  E8        INX  
 9810  E8        INX  
 9811  60        RTS  
 9812  CA        DEX  
 9813  CA        DEX  
 9814  A9 0C     LDA  #$0C
 9816  95 00     STA  $00, X
 9818  A9 00     LDA  #$00
 981A  95 01     STA  $01, X
 981C  60        RTS  
 981D  E0 71     CPX  #$71
 981F  30 03     BMI  $9824
 9821  4C FB BB  JMP  $BBFB
 9824  B5 06     LDA  $06, X
 9826  85 2C     STA  $2C
 9828  B5 07     LDA  $07, X
 982A  85 2D     STA  $2D
 982C  B5 04     LDA  $04, X
 982E  85 2E     STA  $2E
 9830  B5 05     LDA  $05, X
 9832  85 2F     STA  $2F
 9834  CA        DEX  
 9835  CA        DEX  
 9836  A1 04     LDA  ($04, X)
 9838  95 00     STA  $00, X
 983A  74 01     STZ  $01, X
 983C  20 11 88  JSR  $8811
 983F  B5 00     LDA  $00, X
 9841  D0 04     BNE  $9847
 9843  E8        INX  
 9844  E8        INX  
 9845  80 67     BRA  $98AE
 9847  B5 02     LDA  $02, X
 9849  85 30     STA  $30
 984B  B5 03     LDA  $03, X
 984D  85 31     STA  $31
 984F  A5 2E     LDA  $2E
 9851  95 02     STA  $02, X
 9853  A5 2F     LDA  $2F
 9855  95 03     STA  $03, X
 9857  A5 18     LDA  $18
 9859  95 00     STA  $00, X
 985B  74 01     STZ  $01, X
 985D  20 F8 9A  JSR  $9AF8
 9860  B5 02     LDA  $02, X
 9862  85 32     STA  $32
 9864  B5 03     LDA  $03, X
 9866  85 33     STA  $33
 9868  A5 2C     LDA  $2C
 986A  95 02     STA  $02, X
 986C  A5 2D     LDA  $2D
 986E  95 03     STA  $03, X
 9870  A5 18     LDA  $18
 9872  95 00     STA  $00, X
 9874  74 01     STZ  $01, X
 9876  20 F8 9A  JSR  $9AF8
 9879  B5 00     LDA  $00, X
 987B  85 2E     STA  $2E
 987D  B5 01     LDA  $01, X
 987F  85 2F     STA  $2F
 9881  B5 02     LDA  $02, X
 9883  85 2C     STA  $2C
 9885  B5 03     LDA  $03, X
 9887  85 2D     STA  $2D
 9889  18        CLC  
 988A  A5 2C     LDA  $2C
 988C  65 30     ADC  $30
 988E  85 2C     STA  $2C
 9890  A5 2D     LDA  $2D
 9892  65 31     ADC  $31
 9894  85 2D     STA  $2D
 9896  A5 2E     LDA  $2E
 9898  65 32     ADC  $32
 989A  85 2E     STA  $2E
 989C  A5 2F     LDA  $2F
 989E  65 33     ADC  $33
 98A0  85 2F     STA  $2F
 98A2  E8        INX  
 98A3  E8        INX  
 98A4  F6 04     INC  $04, X
 98A6  D0 02     BNE  $98AA
 98A8  F6 05     INC  $05, X
 98AA  D6 02     DEC  $02, X
 98AC  D0 88     BNE  $9836
 98AE  E8        INX  
 98AF  E8        INX  
 98B0  A5 2C     LDA  $2C
 98B2  95 06     STA  $06, X
 98B4  A5 2D     LDA  $2D
 98B6  95 07     STA  $07, X
 98B8  A5 2E     LDA  $2E
 98BA  95 04     STA  $04, X
 98BC  A5 2F     LDA  $2F
 98BE  95 05     STA  $05, X
 98C0  60        RTS  
 98C1  68        PLA  
 98C2  85 28     STA  $28
 98C4  7A        PLY  
 98C5  E0 77     CPX  #$77
 98C7  30 03     BMI  $98CC
 98C9  4C FB BB  JMP  $BBFB
 98CC  B5 01     LDA  $01, X
 98CE  48        PHA  
 98CF  B5 00     LDA  $00, X
 98D1  48        PHA  
 98D2  E8        INX  
 98D3  E8        INX  
 98D4  5A        PHY  
 98D5  A5 28     LDA  $28
 98D7  48        PHA  
 98D8  60        RTS  
 98D9  CA        DEX  
 98DA  CA        DEX  
 98DB  A9 FF     LDA  #$FF
 98DD  95 00     STA  $00, X
 98DF  95 01     STA  $01, X
 98E1  60        RTS  
 98E2  E0 75     CPX  #$75
 98E4  30 03     BMI  $98E9
 98E6  4C FB BB  JMP  $BBFB
 98E9  CA        DEX  
 98EA  CA        DEX  
 98EB  B4 04     LDY  $04, X
 98ED  B5 02     LDA  $02, X
 98EF  95 04     STA  $04, X
 98F1  94 02     STY  $02, X
 98F3  95 00     STA  $00, X
 98F5  B4 05     LDY  $05, X
 98F7  B5 03     LDA  $03, X
 98F9  95 05     STA  $05, X
 98FB  94 03     STY  $03, X
 98FD  95 01     STA  $01, X
 98FF  60        RTS  
 9900  CA        DEX  
 9901  CA        DEX  
 9902  A9 02     LDA  #$02
 9904  95 00     STA  $00, X
 9906  74 01     STZ  $01, X
 9908  60        RTS  
 9909  E0 75     CPX  #$75
 990B  30 03     BMI  $9910
 990D  4C FB BB  JMP  $BBFB
 9910  E8        INX  
 9911  E8        INX  
 9912  E8        INX  
 9913  E8        INX  
 9914  60        RTS  
 9915  E0 75     CPX  #$75
 9917  30 03     BMI  $991C
 9919  4C FB BB  JMP  $BBFB
 991C  CA        DEX  
 991D  CA        DEX  
 991E  CA        DEX  
 991F  CA        DEX  
 9920  B5 04     LDA  $04, X
 9922  95 00     STA  $00, X
 9924  B5 05     LDA  $05, X
 9926  95 01     STA  $01, X
 9928  B5 06     LDA  $06, X
 992A  95 02     STA  $02, X
 992C  B5 07     LDA  $07, X
 992E  95 03     STA  $03, X
 9930  60        RTS  
 9931  E0 77     CPX  #$77
 9933  30 03     BMI  $9938
 9935  4C FB BB  JMP  $BBFB
 9938  B5 00     LDA  $00, X
 993A  85 20     STA  $20
 993C  B4 01     LDY  $01, X
 993E  84 21     STY  $21
 9940  CA        DEX  
 9941  CA        DEX  
 9942  B2 20     LDA  ($20)
 9944  95 00     STA  $00, X
 9946  A0 01     LDY  #$01
 9948  B1 20     LDA  ($20), Y
 994A  95 01     STA  $01, X
 994C  C8        INY  
 994D  B1 20     LDA  ($20), Y
 994F  95 02     STA  $02, X
 9951  C8        INY  
 9952  B1 20     LDA  ($20), Y
 9954  95 03     STA  $03, X
 9956  60        RTS  
 9957  E0 71     CPX  #$71
 9959  30 03     BMI  $995E
 995B  4C FB BB  JMP  $BBFB
 995E  CA        DEX  
 995F  CA        DEX  
 9960  CA        DEX  
 9961  CA        DEX  
 9962  B5 08     LDA  $08, X
 9964  95 00     STA  $00, X
 9966  B5 09     LDA  $09, X
 9968  95 01     STA  $01, X
 996A  B5 0A     LDA  $0A, X
 996C  95 02     STA  $02, X
 996E  B5 0B     LDA  $0B, X
 9970  95 03     STA  $03, X
 9972  60        RTS  
 9973  CA        DEX  
 9974  CA        DEX  
 9975  CA        DEX  
 9976  CA        DEX  
 9977  8A        TXA  
 9978  BA        TSX  
 9979  DA        PHX  
 997A  7A        PLY  
 997B  AA        TAX  
 997C  B9 03 01  LDA  $0103, Y
 997F  95 00     STA  $00, X
 9981  B9 04 01  LDA  $0104, Y
 9984  95 01     STA  $01, X
 9986  B9 05 01  LDA  $0105, Y
 9989  95 02     STA  $02, X
 998B  B9 06 01  LDA  $0106, Y
 998E  95 03     STA  $03, X
 9990  60        RTS  
 9991  68        PLA  
 9992  85 20     STA  $20
 9994  68        PLA  
 9995  85 21     STA  $21
 9997  CA        DEX  
 9998  CA        DEX  
 9999  CA        DEX  
 999A  CA        DEX  
 999B  68        PLA  
 999C  95 00     STA  $00, X
 999E  68        PLA  
 999F  95 01     STA  $01, X
 99A1  68        PLA  
 99A2  95 02     STA  $02, X
 99A4  68        PLA  
 99A5  95 03     STA  $03, X
 99A7  A5 21     LDA  $21
 99A9  48        PHA  
 99AA  A5 20     LDA  $20
 99AC  48        PHA  
 99AD  60        RTS  
 99AE  E0 77     CPX  #$77
 99B0  30 03     BMI  $99B5
 99B2  4C FB BB  JMP  $BBFB
 99B5  B5 01     LDA  $01, X
 99B7  0A        ASL  
 99B8  76 01     ROR  $01, X
 99BA  76 00     ROR  $00, X
 99BC  60        RTS  
 99BD  E0 77     CPX  #$77
 99BF  30 03     BMI  $99C4
 99C1  4C FB BB  JMP  $BBFB
 99C4  16 00     ASL  $00, X
 99C6  36 01     ROL  $01, X
 99C8  60        RTS  
 99C9  E0 73     CPX  #$73
 99CB  30 03     BMI  $99D0
 99CD  4C FB BB  JMP  $BBFB
 99D0  B5 00     LDA  $00, X
 99D2  85 20     STA  $20
 99D4  B4 01     LDY  $01, X
 99D6  84 21     STY  $21
 99D8  E8        INX  
 99D9  E8        INX  
 99DA  B5 00     LDA  $00, X
 99DC  92 20     STA  ($20)
 99DE  B5 01     LDA  $01, X
 99E0  A0 01     LDY  #$01
 99E2  91 20     STA  ($20), Y
 99E4  B5 02     LDA  $02, X
 99E6  C8        INY  
 99E7  91 20     STA  ($20), Y
 99E9  B5 03     LDA  $03, X
 99EB  C8        INY  
 99EC  91 20     STA  ($20), Y
 99EE  E8        INX  
 99EF  E8        INX  
 99F0  E8        INX  
 99F1  E8        INX  
 99F2  60        RTS  
 99F3  E0 71     CPX  #$71
 99F5  30 03     BMI  $99FA
 99F7  4C FB BB  JMP  $BBFB
 99FA  B5 00     LDA  $00, X
 99FC  B4 04     LDY  $04, X
 99FE  95 04     STA  $04, X
 9A00  94 00     STY  $00, X
 9A02  B5 01     LDA  $01, X
 9A04  B4 05     LDY  $05, X
 9A06  95 05     STA  $05, X
 9A08  94 01     STY  $01, X
 9A0A  B5 02     LDA  $02, X
 9A0C  B4 06     LDY  $06, X
 9A0E  95 06     STA  $06, X
 9A10  94 02     STY  $02, X
 9A12  B5 03     LDA  $03, X
 9A14  B4 07     LDY  $07, X
 9A16  95 07     STA  $07, X
 9A18  94 03     STY  $03, X
 9A1A  60        RTS  
 9A1B  68        PLA  
 9A1C  85 20     STA  $20
 9A1E  68        PLA  
 9A1F  85 21     STA  $21
 9A21  E0 75     CPX  #$75
 9A23  30 03     BMI  $9A28
 9A25  4C FB BB  JMP  $BBFB
 9A28  B5 03     LDA  $03, X
 9A2A  48        PHA  
 9A2B  B5 02     LDA  $02, X
 9A2D  48        PHA  
 9A2E  B5 01     LDA  $01, X
 9A30  48        PHA  
 9A31  B5 00     LDA  $00, X
 9A33  48        PHA  
 9A34  E8        INX  
 9A35  E8        INX  
 9A36  E8        INX  
 9A37  E8        INX  
 9A38  A5 21     LDA  $21
 9A3A  48        PHA  
 9A3B  A5 20     LDA  $20
 9A3D  48        PHA  
 9A3E  60        RTS  
 9A3F  20 B4 86  JSR  $86B4
 9A42  CA        DEX  
 9A43  CA        DEX  
 9A44  A9 04     LDA  #$04
 9A46  95 00     STA  $00, X
 9A48  74 01     STZ  $01, X
 9A4A  20 83 82  JSR  $8283
 9A4D  60        RTS  
 9A4E  E0 75     CPX  #$75
 9A50  30 03     BMI  $9A55
 9A52  4C FB BB  JMP  $BBFB
 9A55  B5 02     LDA  $02, X
 9A57  85 20     STA  $20
 9A59  B5 03     LDA  $03, X
 9A5B  85 21     STA  $21
 9A5D  B5 00     LDA  $00, X
 9A5F  15 01     ORA  $01, X
 9A61  F0 15     BEQ  $9A78
 9A63  B2 20     LDA  ($20)
 9A65  20 30 8A  JSR  $8A30
 9A68  E6 20     INC  $20
 9A6A  D0 02     BNE  $9A6E
 9A6C  E6 21     INC  $21
 9A6E  B5 00     LDA  $00, X
 9A70  D0 02     BNE  $9A74
 9A72  D6 01     DEC  $01, X
 9A74  D6 00     DEC  $00, X
 9A76  80 E5     BRA  $9A5D
 9A78  E8        INX  
 9A79  E8        INX  
 9A7A  E8        INX  
 9A7B  E8        INX  
 9A7C  60        RTS  
 9A7D  E0 77     CPX  #$77
 9A7F  30 03     BMI  $9A84
 9A81  4C FB BB  JMP  $BBFB
 9A84  20 33 BC  JSR  $BC33
 9A87  A9 20     LDA  #$20
 9A89  20 30 8A  JSR  $8A30
 9A8C  60        RTS  
 9A8D  E0 75     CPX  #$75
 9A8F  30 03     BMI  $9A94
 9A91  4C FB BB  JMP  $BBFB
 9A94  B5 02     LDA  $02, X
 9A96  D5 00     CMP  $00, X
 9A98  B5 03     LDA  $03, X
 9A9A  F5 01     SBC  $01, X
 9A9C  E8        INX  
 9A9D  E8        INX  
 9A9E  A9 00     LDA  #$00
 9AA0  69 FF     ADC  #$FF
 9AA2  95 00     STA  $00, X
 9AA4  95 01     STA  $01, X
 9AA6  60        RTS  
 9AA7  CA        DEX  
 9AA8  CA        DEX  
 9AA9  A9 1C     LDA  #$1C
 9AAB  95 00     STA  $00, X
 9AAD  A9 00     LDA  #$00
 9AAF  95 01     STA  $01, X
 9AB1  60        RTS  
 9AB2  E0 73     CPX  #$73
 9AB4  30 03     BMI  $9AB9
 9AB6  4C FB BB  JMP  $BBFB
 9AB9  B5 00     LDA  $00, X
 9ABB  15 01     ORA  $01, X
 9ABD  D0 05     BNE  $9AC4
 9ABF  A9 03     LDA  #$03
 9AC1  4C FD BB  JMP  $BBFD
 9AC4  A9 11     LDA  #$11
 9AC6  85 28     STA  $28
 9AC8  36 04     ROL  $04, X
 9ACA  36 05     ROL  $05, X
 9ACC  C6 28     DEC  $28
 9ACE  F0 22     BEQ  $9AF2
 9AD0  36 02     ROL  $02, X
 9AD2  36 03     ROL  $03, X
 9AD4  64 20     STZ  $20
 9AD6  26 20     ROL  $20
 9AD8  38        SEC  
 9AD9  B5 02     LDA  $02, X
 9ADB  F5 00     SBC  $00, X
 9ADD  85 21     STA  $21
 9ADF  B5 03     LDA  $03, X
 9AE1  F5 01     SBC  $01, X
 9AE3  A8        TAY  
 9AE4  A5 20     LDA  $20
 9AE6  E9 00     SBC  #$00
 9AE8  90 DE     BCC  $9AC8
 9AEA  A5 21     LDA  $21
 9AEC  95 02     STA  $02, X
 9AEE  94 03     STY  $03, X
 9AF0  80 D6     BRA  $9AC8
 9AF2  E8        INX  
 9AF3  E8        INX  
 9AF4  20 51 97  JSR  $9751
 9AF7  60        RTS  
 9AF8  E0 75     CPX  #$75
 9AFA  30 03     BMI  $9AFF
 9AFC  4C FB BB  JMP  $BBFB
 9AFF  18        CLC  
 9B00  B5 00     LDA  $00, X
 9B02  E9 00     SBC  #$00
 9B04  85 22     STA  $22
 9B06  B5 01     LDA  $01, X
 9B08  E9 00     SBC  #$00
 9B0A  90 31     BCC  $9B3D
 9B0C  85 23     STA  $23
 9B0E  A9 00     LDA  #$00
 9B10  85 20     STA  $20
 9B12  86 24     STX  $24
 9B14  CA        DEX  
 9B15  CA        DEX  
 9B16  A0 08     LDY  #$08
 9B18  56 04     LSR  $04, X
 9B1A  90 0C     BCC  $9B28
 9B1C  85 21     STA  $21
 9B1E  A5 20     LDA  $20
 9B20  65 22     ADC  $22
 9B22  85 20     STA  $20
 9B24  A5 21     LDA  $21
 9B26  65 23     ADC  $23
 9B28  6A        ROR  
 9B29  66 20     ROR  $20
 9B2B  76 04     ROR  $04, X
 9B2D  88        DEY  
 9B2E  D0 EA     BNE  $9B1A
 9B30  E8        INX  
 9B31  E4 24     CPX  $24
 9B33  D0 E1     BNE  $9B16
 9B35  95 01     STA  $01, X
 9B37  A5 20     LDA  $20
 9B39  95 00     STA  $00, X
 9B3B  80 04     BRA  $9B41
 9B3D  74 02     STZ  $02, X
 9B3F  74 03     STZ  $03, X
 9B41  60        RTS  
 9B42  68        PLA  
 9B43  68        PLA  
 9B44  68        PLA  
 9B45  68        PLA  
 9B46  68        PLA  
 9B47  68        PLA  
 9B48  60        RTS  
 9B49  CA        DEX  
 9B4A  CA        DEX  
 9B4B  A9 00     LDA  #$00
 9B4D  38        SEC  
 9B4E  E5 00     SBC  $00
 9B50  95 00     STA  $00, X
 9B52  A9 7C     LDA  #$7C
 9B54  E5 01     SBC  $01
 9B56  95 01     STA  $01, X
 9B58  60        RTS  
 9B59  20 B4 86  JSR  $86B4
 9B5C  A9 00     LDA  #$00
 9B5E  92 00     STA  ($00)
 9B60  E6 00     INC  $00
 9B62  D0 02     BNE  $9B66
 9B64  E6 01     INC  $01
 9B66  92 00     STA  ($00)
 9B68  E6 00     INC  $00
 9B6A  D0 02     BNE  $9B6E
 9B6C  E6 01     INC  $01
 9B6E  20 78 86  JSR  $8678
 9B71  60        RTS  
 9B72  E0 77     CPX  #$77
 9B74  30 03     BMI  $9B79
 9B76  4C FB BB  JMP  $BBFB
 9B79  A4 0C     LDY  $0C
 9B7B  C4 0A     CPY  $0A
 9B7D  F0 09     BEQ  $9B88
 9B7F  B1 08     LDA  ($08), Y
 9B81  D5 00     CMP  $00, X
 9B83  D0 03     BNE  $9B88
 9B85  C8        INY  
 9B86  80 F3     BRA  $9B7B
 9B88  84 0C     STY  $0C
 9B8A  20 2A 92  JSR  $922A
 9B8D  B5 00     LDA  $00, X
 9B8F  92 00     STA  ($00)
 9B91  48        PHA  
 9B92  20 13 8A  JSR  $8A13
 9B95  A5 00     LDA  $00
 9B97  18        CLC  
 9B98  69 01     ADC  #$01
 9B9A  95 02     STA  $02, X
 9B9C  A5 01     LDA  $01
 9B9E  69 00     ADC  #$00
 9BA0  95 03     STA  $03, X
 9BA2  20 5A 8F  JSR  $8F5A
 9BA5  CA        DEX  
 9BA6  CA        DEX  
 9BA7  A5 00     LDA  $00
 9BA9  95 00     STA  $00, X
 9BAB  A5 01     LDA  $01
 9BAD  95 01     STA  $01, X
 9BAF  68        PLA  
 9BB0  18        CLC  
 9BB1  65 00     ADC  $00
 9BB3  85 00     STA  $00
 9BB5  A5 01     LDA  $01
 9BB7  69 00     ADC  #$00
 9BB9  85 01     STA  $01
 9BBB  60        RTS  
 9BBC  20 AE 86  JSR  $86AE
 9BBF  20 4E 8D  JSR  $8D4E
 9BC2  A9 00     LDA  #$00
 9BC4  48        PHA  
 9BC5  20 13 8A  JSR  $8A13
 9BC8  20 9A 8F  JSR  $8F9A
 9BCB  68        PLA  
 9BCC  18        CLC  
 9BCD  75 00     ADC  $00, X
 9BCF  1A        INC  
 9BD0  C9 4F     CMP  #$4F
 9BD2  90 05     BCC  $9BD9
 9BD4  20 AE 86  JSR  $86AE
 9BD7  A9 00     LDA  #$00
 9BD9  48        PHA  
 9BDA  20 4E 9A  JSR  $9A4E
 9BDD  A9 20     LDA  #$20
 9BDF  20 30 8A  JSR  $8A30
 9BE2  20 59 91  JSR  $9159
 9BE5  20 59 91  JSR  $9159
 9BE8  20 2F 8B  JSR  $8B2F
 9BEB  B5 00     LDA  $00, X
 9BED  15 01     ORA  $01, X
 9BEF  D0 D4     BNE  $9BC5
 9BF1  68        PLA  
 9BF2  E8        INX  
 9BF3  E8        INX  
 9BF4  60        RTS  
 9BF5  E0 77     CPX  #$77
 9BF7  30 03     BMI  $9BFC
 9BF9  4C FB BB  JMP  $BBFB
 9BFC  B5 00     LDA  $00, X
 9BFE  85 20     STA  $20
 9C00  B5 01     LDA  $01, X
 9C02  85 21     STA  $21
 9C04  A0 06     LDY  #$06
 9C06  B1 20     LDA  ($20), Y
 9C08  88        DEY  
 9C09  88        DEY  
 9C0A  38        SEC  
 9C0B  F1 20     SBC  ($20), Y
 9C0D  95 00     STA  $00, X
 9C0F  A0 07     LDY  #$07
 9C11  B1 20     LDA  ($20), Y
 9C13  88        DEY  
 9C14  88        DEY  
 9C15  F1 20     SBC  ($20), Y
 9C17  95 01     STA  $01, X
 9C19  60        RTS  
 9C1A  E0 75     CPX  #$75
 9C1C  30 03     BMI  $9C21
 9C1E  4C FB BB  JMP  $BBFB
 9C21  B5 00     LDA  $00, X
 9C23  55 02     EOR  $02, X
 9C25  95 02     STA  $02, X
 9C27  B5 01     LDA  $01, X
 9C29  55 03     EOR  $03, X
 9C2B  95 03     STA  $03, X
 9C2D  E8        INX  
 9C2E  E8        INX  
 9C2F  60        RTS  
 9C30  CA        DEX  
 9C31  CA        DEX  
 9C32  74 00     STZ  $00, X
 9C34  74 01     STZ  $01, X
 9C36  60        RTS  
 9C37  A0 9C     LDY  #$9C
 9C39  A9 3F     LDA  #$3F
 9C3B  20 DD BA  JSR  $BADD
 9C3E  60        RTS  
 9C3F  68        PLA  
 9C40  85 1E     STA  $1E
 9C42  68        PLA  
 9C43  85 1F     STA  $1F
 9C45  B5 00     LDA  $00, X
 9C47  15 01     ORA  $01, X
 9C49  F0 0F     BEQ  $9C5A
 9C4B  A5 1E     LDA  $1E
 9C4D  18        CLC  
 9C4E  69 02     ADC  #$02
 9C50  85 20     STA  $20
 9C52  A5 1F     LDA  $1F
 9C54  69 00     ADC  #$00
 9C56  85 21     STA  $21
 9C58  80 13     BRA  $9C6D
 9C5A  A0 01     LDY  #$01
 9C5C  B1 1E     LDA  ($1E), Y
 9C5E  85 20     STA  $20
 9C60  C8        INY  
 9C61  B1 1E     LDA  ($1E), Y
 9C63  85 21     STA  $21
 9C65  A5 20     LDA  $20
 9C67  D0 02     BNE  $9C6B
 9C69  C6 21     DEC  $21
 9C6B  C6 20     DEC  $20
 9C6D  A5 21     LDA  $21
 9C6F  48        PHA  
 9C70  A5 20     LDA  $20
 9C72  48        PHA  
 9C73  E8        INX  
 9C74  E8        INX  
 9C75  60        RTS  
 9C76  E0 77     CPX  #$77
 9C78  30 03     BMI  $9C7D
 9C7A  4C FB BB  JMP  $BBFB
 9C7D  B5 00     LDA  $00, X
 9C7F  15 01     ORA  $01, X
 9C81  F0 04     BEQ  $9C87
 9C83  A9 00     LDA  #$00
 9C85  80 02     BRA  $9C89
 9C87  A9 FF     LDA  #$FF
 9C89  95 00     STA  $00, X
 9C8B  95 01     STA  $01, X
 9C8D  60        RTS  
 9C8E  E0 77     CPX  #$77
 9C90  30 03     BMI  $9C95
 9C92  4C FB BB  JMP  $BBFB
 9C95  A0 00     LDY  #$00
 9C97  B5 01     LDA  $01, X
 9C99  30 05     BMI  $9CA0
 9C9B  15 00     ORA  $00, X
 9C9D  F0 01     BEQ  $9CA0
 9C9F  88        DEY  
 9CA0  98        TYA  
 9CA1  95 00     STA  $00, X
 9CA3  95 01     STA  $01, X
 9CA5  60        RTS  
 9CA6  E0 77     CPX  #$77
 9CA8  30 03     BMI  $9CAD
 9CAA  4C FB BB  JMP  $BBFB
 9CAD  A0 00     LDY  #$00
 9CAF  B5 01     LDA  $01, X
 9CB1  10 01     BPL  $9CB4
 9CB3  88        DEY  
 9CB4  98        TYA  
 9CB5  95 00     STA  $00, X
 9CB7  95 01     STA  $01, X
 9CB9  60        RTS  
 9CBA  E0 77     CPX  #$77
 9CBC  30 03     BMI  $9CC1
 9CBE  4C FB BB  JMP  $BBFB
 9CC1  A0 00     LDY  #$00
 9CC3  B5 00     LDA  $00, X
 9CC5  15 01     ORA  $01, X
 9CC7  F0 01     BEQ  $9CCA
 9CC9  88        DEY  
 9CCA  98        TYA  
 9CCB  95 00     STA  $00, X
 9CCD  95 01     STA  $01, X
 9CCF  60        RTS  
 9CD0  A5 18     LDA  $18
 9CD2  48        PHA  
 9CD3  20 72 8C  JSR  $8C72
 9CD6  20 AE 86  JSR  $86AE
 9CD9  20 88 91  JSR  $9188
 9CDC  20 7D 9A  JSR  $9A7D
 9CDF  20 E3 96  JSR  $96E3
 9CE2  A9 7F     LDA  #$7F
 9CE4  85 22     STA  $22
 9CE6  A9 9D     LDA  #$9D
 9CE8  85 23     STA  $23
 9CEA  A1 02     LDA  ($02, X)
 9CEC  0A        ASL  
 9CED  90 02     BCC  $9CF1
 9CEF  E6 23     INC  $23
 9CF1  A8        TAY  
 9CF2  B1 22     LDA  ($22), Y
 9CF4  85 24     STA  $24
 9CF6  C8        INY  
 9CF7  B1 22     LDA  ($22), Y
 9CF9  85 25     STA  $25
 9CFB  B2 24     LDA  ($24)
 9CFD  48        PHA  
 9CFE  E6 24     INC  $24
 9D00  D0 02     BNE  $9D04
 9D02  E6 25     INC  $25
 9D04  20 26 BC  JSR  $BC26
 9D07  F6 02     INC  $02, X
 9D09  D0 02     BNE  $9D0D
 9D0B  F6 03     INC  $03, X
 9D0D  20 49 91  JSR  $9149
 9D10  7A        PLY  
 9D11  F0 58     BEQ  $9D6B
 9D13  88        DEY  
 9D14  5A        PHY  
 9D15  20 E3 96  JSR  $96E3
 9D18  20 13 8A  JSR  $8A13
 9D1B  A1 04     LDA  ($04, X)
 9D1D  95 00     STA  $00, X
 9D1F  74 01     STZ  $01, X
 9D21  F6 04     INC  $04, X
 9D23  D0 02     BNE  $9D27
 9D25  F6 05     INC  $05, X
 9D27  B5 02     LDA  $02, X
 9D29  D0 02     BNE  $9D2D
 9D2B  D6 03     DEC  $03, X
 9D2D  D6 02     DEC  $02, X
 9D2F  68        PLA  
 9D30  D0 14     BNE  $9D46
 9D32  20 30 9C  JSR  $9C30
 9D35  20 6A 8D  JSR  $8D6A
 9D38  20 CC 90  JSR  $90CC
 9D3B  20 2B 91  JSR  $912B
 9D3E  20 05 91  JSR  $9105
 9D41  20 4E 9A  JSR  $9A4E
 9D44  80 25     BRA  $9D6B
 9D46  A1 04     LDA  ($04, X)
 9D48  95 01     STA  $01, X
 9D4A  20 30 9C  JSR  $9C30
 9D4D  20 6A 8D  JSR  $8D6A
 9D50  20 CC 90  JSR  $90CC
 9D53  20 CC 90  JSR  $90CC
 9D56  20 CC 90  JSR  $90CC
 9D59  20 2B 91  JSR  $912B
 9D5C  20 05 91  JSR  $9105
 9D5F  20 4E 9A  JSR  $9A4E
 9D62  F6 02     INC  $02, X
 9D64  D0 02     BNE  $9D68
 9D66  F6 03     INC  $03, X
 9D68  20 49 91  JSR  $9149
 9D6B  B5 00     LDA  $00, X
 9D6D  15 01     ORA  $01, X
 9D6F  F0 05     BEQ  $9D76
 9D71  30 03     BMI  $9D76
 9D73  4C D6 9C  JMP  $9CD6
 9D76  68        PLA  
 9D77  85 18     STA  $18
 9D79  20 AE 86  JSR  $86AE
 9D7C  4C 09 99  JMP  $9909
 9D7F  82 9F 87 9F 7F 9F 7F 9F 7F 9F 90 9F 97 9F 7F 9F  |................|
 9D8F  9E 9F A3 9F AA 9F 7F 9F B1 9F B6 9F BB 9F C0 9F  |................|
 9D9F  C6 9F CB 9F D4 9F 7F 9F DC 9F E3 9F EB 9F F3 9F  |................|
 9DAF  FB 9F 00 A0 07 A0 7F 9F 0E A0 13 A0 7F 9F 1A A0  |................|
 9DBF  21 A0 26 A0 7F 9F 7F 9F 2F A0 36 A0 3D A0 44 A0  |!.&...../.6.=.D.|
 9DCF  4C A0 51 A0 58 A0 7F 9F 5F A0 64 A0 6A A0 6F A0  |L.Q.X..._.d.j.o.|
 9DDF  75 A0 7A A0 83 A0 7F 9F 8B A0 94 A0 9C A0 A4 A0  |u.z.............|
 9DEF  AC A0 B1 A0 B8 A0 7F 9F BF A0 C6 A0 CD A0 C0 9F  |................|
 9DFF  DA A0 DF A0 7F 9F 7F 9F 7F 9F E8 A0 EF A0 F6 A0  |................|
 9E0F  FE A0 03 A1 0A A1 7F 9F 11 A1 16 A1 1B A1 20 A1  |.............. .|
 9E1F  26 A1 2B A1 34 A1 7F 9F 7F 9F 3C A1 44 A1 4C A1  |&.+.4.....<.D.L.|
 9E2F  54 A1 59 A1 60 A1 7F 9F 7F 9F 7F 9F 6C A1 73 A1  |T.Y.`.......l.s.|
 9E3F  79 A1 7E A1 7F 9F 7F 9F 95 A1 8E A1 95 A1 9C A1  |y.~.............|
 9E4F  A4 A1 A9 A1 B0 A1 7F 9F B7 A1 BE A1 C3 A1 C8 A1  |................|
 9E5F  CE A1 D3 A1 DC A1 7F 9F E4 A1 EC A1 F4 A1 FC A1  |................|
 9E6F  04 A2 09 A2 10 A2 7F 9F 15 A2 1D A2 24 A2 2B A2  |............$.+.|
 9E7F  31 A2 36 A2 7F 9F 7F 9F 3F A2 46 A2 4D A2 7F 9F  |1.6.....?.F.M...|
 9E8F  54 A2 59 A2 60 A2 7F 9F 65 A2 6A A2 6F A2 74 A2  |T.Y.`...e.j.o.t.|
 9E9F  7A A2 7F A2 88 A2 7F 9F 90 A2 98 A2 A0 A2 A8 A2  |z...............|
 9EAF  B0 A2 B5 A2 BC A2 7F 9F C1 A2 C6 A2 CD A2 D4 A2  |................|
 9EBF  DA A2 E1 A2 EA A2 7F 9F F1 A2 F8 A2 FF A2 06 A3  |................|
 9ECF  0E A3 13 A3 1A A3 7F 9F 1F A3 24 A3 29 A3 2E A3  |..........$.)...|
 9EDF  34 A3 39 A3 42 A3 7F 9F 4A A3 52 A3 5A A3 62 A3  |4.9.B...J.R.Z.b.|
 9EEF  6A A3 6F A3 76 A3 7F 9F 7B A3 82 A3 89 A3 90 A3  |j.o.v...{.......|
 9EFF  96 A3 9D A3 7F 9F 7F 9F A6 A3 AD A3 B4 A3 BB A3  |................|
 9F0F  C3 A3 C8 A3 CF A3 D4 A3 D9 A3 DE A3 E3 A3 E8 A3  |................|
 9F1F  EE A3 F3 A3 FC A3 7F 9F 7F 9F 04 A4 0C A4 14 A4  |................|
 9F2F  1C A4 21 A4 28 A4 2D A4 7F 9F 32 A4 39 A4 40 A4  |..!.(.-...2.9.@.|
 9F3F  46 A4 4D A4 7F 9F 7F 9F 56 A4 5D A4 64 A4 6B A4  |F.M.....V.].d.k.|
 9F4F  73 A4 78 A4 7F A4 7F 9F 84 A4 89 A4 8E A4 93 A4  |s.x.............|
 9F5F  99 A4 9E A4 A7 A4 7F 9F 7F 9F AF A4 B7 A4 BF A4  |................|
 9F6F  C7 A4 CC A4 D3 A4 7F 9F 7F 9F D8 A4 DF A4 E6 A4  |................|
 9F7F  00 3F 00 00 62 72 6B 00 01 6F 72 61 2E 64 78 69  |.?..brk..ora.dxi|
 9F8F  00 01 6F 72 64 2E 64 00 01 61 73 6C 2E 64 00 00  |..ord.d..asl.d..|
 9F9F  70 68 70 00 01 6F 72 61 2E 23 00 00 61 73 6C 2E  |php..ora.#..asl.|
 9FAF  61 00 02 74 73 62 00 02 6F 72 61 00 02 61 73 6C  |a..tsb..ora..asl|
 9FBF  00 02 62 62 72 30 00 01 62 70 6C 00 01 6F 72 61  |..bbr0..bpl..ora|
 9FCF  2E 7A 69 79 00 01 6F 72 61 2E 7A 69 00 01 74 72  |.ziy..ora.zi..tr|
 9FDF  62 2E 7A 00 01 6F 72 61 2E 7A 78 00 01 61 73 6C  |b.z..ora.zx..asl|
 9FEF  2E 7A 78 00 01 72 6D 62 31 2E 7A 00 00 63 6C 63  |.zx..rmb1.z..clc|
 9FFF  00 02 6F 72 61 2E 79 00 00 69 6E 63 2E 61 00 02  |..ora.y..inc.a..|
 A00F  74 72 62 00 02 6F 72 61 2E 78 00 02 61 73 6C 2E  |trb..ora.x..asl.|
 A01F  78 00 02 6A 73 72 00 01 61 6E 64 2E 7A 78 69 00  |x..jsr..and.zxi.|
 A02F  01 62 69 74 2E 7A 00 01 61 6E 64 2E 7A 00 01 72  |.bit.z..and.z..r|
 A03F  6F 6C 2E 7A 00 01 72 6D 62 32 2E 7A 00 00 70 6C  |ol.z..rmb2.z..pl|
 A04F  70 00 01 61 6E 64 2E 23 00 00 72 6F 6C 2E 61 00  |p..and.#..rol.a.|
 A05F  02 62 69 74 00 02 61 6E 64 2E 00 02 72 6F 6C 00  |.bit..and...rol.|
 A06F  02 62 62 72 32 00 01 62 6D 69 00 01 61 6E 64 2E  |.bbr2..bmi..and.|
 A07F  7A 69 79 00 01 61 6E 64 2E 7A 69 00 01 62 69 74  |ziy..and.zi..bit|
 A08F  2E 7A 78 69 00 01 61 6E 64 2E 7A 78 00 01 72 6F  |.zxi..and.zx..ro|
 A09F  6C 2E 7A 78 00 01 72 6D 62 33 2E 7A 00 00 73 65  |l.zx..rmb3.z..se|
 A0AF  63 00 02 61 6E 64 2E 79 00 00 64 65 63 2E 61 00  |c..and.y..dec.a.|
 A0BF  02 62 69 74 2E 78 00 02 61 6E 64 2E 78 00 02 72  |.bit.x..and.x..r|
 A0CF  6F 6C 2E 78 00 02 62 62 72 33 00 00 72 74 69 00  |ol.x..bbr3..rti.|
 A0DF  01 65 6F 72 2E 7A 78 69 00 01 65 6F 72 2E 7A 00  |.eor.zxi..eor.z.|
 A0EF  01 6C 73 72 2E 7A 00 01 72 62 6D 34 2E 7A 00 00  |.lsr.z..rbm4.z..|
 A0FF  70 68 61 00 01 65 6F 72 2E 23 00 00 6C 73 72 2E  |pha..eor.#..lsr.|
 A10F  61 00 02 6A 6D 70 00 02 65 6F 72 00 02 6C 73 72  |a..jmp..eor..lsr|
 A11F  00 02 62 62 72 34 00 01 62 76 63 00 01 65 6F 72  |..bbr4..bvc..eor|
 A12F  2E 7A 69 79 00 01 65 6F 72 2E 7A 69 00 01 65 6F  |.ziy..eor.zi..eo|
 A13F  72 2E 7A 78 00 01 6C 73 72 2E 7A 78 00 01 72 62  |r.zx..lsr.zx..rb|
 A14F  6D 35 2E 7A 00 00 63 6C 69 00 02 65 6F 72 2E 79  |m5.z..cli..eor.y|
 A15F  00 00 70 68 79 00 02 65 6F 72 2E 78 00 02 6C 73  |..phy..eor.x..ls|
 A16F  72 2E 78 00 02 62 62 72 35 00 00 72 74 73 00 01  |r.x..bbr5..rts..|
 A17F  61 64 63 2E 7A 78 69 00 01 73 74 7A 2E 7A 00 01  |adc.zxi..stz.z..|
 A18F  61 64 63 2E 7A 00 01 72 6F 72 2E 7A 00 01 72 6D  |adc.z..ror.z..rm|
 A19F  62 36 2E 7A 00 00 70 6C 61 00 01 61 64 63 2E 23  |b6.z..pla..adc.#|
 A1AF  00 00 72 6F 72 2E 61 00 02 6A 6D 70 2E 69 00 02  |..ror.a..jmp.i..|
 A1BF  61 64 63 00 02 72 6F 72 00 02 62 62 72 36 00 01  |adc..ror..bbr6..|
 A1CF  62 76 73 00 01 61 64 63 2E 7A 69 79 00 01 61 64  |bvs..adc.ziy..ad|
 A1DF  63 2E 7A 69 00 01 73 74 7A 2E 7A 78 00 01 61 64  |c.zi..stz.zx..ad|
 A1EF  63 2E 7A 78 00 01 72 6F 72 2E 7A 78 00 01 72 6D  |c.zx..ror.zx..rm|
 A1FF  62 37 2E 7A 00 00 73 65 69 00 02 61 64 63 2E 79  |b7.z..sei..adc.y|
 A20F  00 00 70 6C 79 00 02 6A 6D 70 2E 78 69 00 02 61  |..ply..jmp.xi..a|
 A21F  64 63 2E 78 00 02 72 6F 72 2E 78 00 02 62 62 72  |dc.x..ror.x..bbr|
 A22F  37 00 01 62 72 61 00 01 73 74 61 2E 7A 78 69 00  |7..bra..sta.zxi.|
 A23F  01 73 74 79 2E 7A 00 01 73 74 61 2E 7A 00 01 73  |.sty.z..sta.z..s|
 A24F  74 78 2E 7A 00 00 64 65 79 00 01 62 69 74 2E 23  |tx.z..dey..bit.#|
 A25F  00 00 74 78 61 00 02 73 74 79 00 02 73 74 61 00  |..txa..sty..sta.|
 A26F  02 73 74 78 00 02 62 62 73 30 00 01 62 63 63 00  |.stx..bbs0..bcc.|
 A27F  01 73 74 61 2E 7A 69 79 00 01 73 74 61 2E 7A 69  |.sta.ziy..sta.zi|
 A28F  00 01 73 74 79 2E 7A 78 00 01 73 74 79 2E 7A 78  |..sty.zx..sty.zx|
 A29F  00 01 73 74 78 2E 7A 79 00 01 73 6D 62 31 2E 7A  |..stx.zy..smb1.z|
 A2AF  00 00 74 79 61 00 02 73 74 61 2E 79 00 00 74 78  |..tya..sta.y..tx|
 A2BF  73 00 02 73 74 7A 00 02 73 74 61 2E 78 00 02 73  |s..stz..sta.x..s|
 A2CF  74 7A 2E 78 00 02 62 62 73 31 00 01 6C 64 79 2E  |tz.x..bbs1..ldy.|
 A2DF  23 00 01 6C 64 61 2E 7A 78 69 00 01 6C 64 78 2E  |#..lda.zxi..ldx.|
 A2EF  23 00 01 6C 64 79 2E 7A 00 01 6C 64 61 2E 7A 00  |#..ldy.z..lda.z.|
 A2FF  01 6C 64 78 2E 7A 00 01 73 6D 62 32 2E 7A 00 00  |.ldx.z..smb2.z..|
 A30F  74 61 79 00 01 6C 64 61 2E 23 00 00 74 61 78 00  |tay..lda.#..tax.|
 A31F  02 6C 64 79 00 02 6C 64 61 00 02 6C 64 78 00 02  |.ldy..lda..ldx..|
 A32F  62 62 73 32 00 01 62 63 73 00 01 6C 64 61 2E 7A  |bbs2..bcs..lda.z|
 A33F  69 79 00 01 6C 64 61 2E 7A 69 00 01 6C 64 79 2E  |iy..lda.zi..ldy.|
 A34F  7A 78 00 01 6C 64 61 2E 7A 78 00 01 6C 64 78 2E  |zx..lda.zx..ldx.|
 A35F  7A 79 00 01 73 6D 62 33 2E 7A 00 00 63 6C 76 00  |zy..smb3.z..clv.|
 A36F  02 6C 64 61 2E 79 00 00 74 73 78 00 02 6C 64 79  |.lda.y..tsx..ldy|
 A37F  2E 78 00 02 6C 64 61 2E 78 00 02 6C 64 78 2E 79  |.x..lda.x..ldx.y|
 A38F  00 02 62 62 73 34 00 01 63 70 79 2E 23 00 01 63  |..bbs4..cpy.#..c|
 A39F  6D 70 2E 7A 78 69 00 01 63 70 79 2E 7A 00 01 63  |mp.zxi..cpy.z..c|
 A3AF  6D 70 2E 7A 00 01 64 65 63 2E 7A 00 01 73 6D 62  |mp.z..dec.z..smb|
 A3BF  34 2E 7A 00 00 69 6E 79 00 01 63 6D 70 2E 23 00  |4.z..iny..cmp.#.|
 A3CF  00 64 65 78 00 00 73 74 70 00 02 63 70 79 00 02  |.dex..stp..cpy..|
 A3DF  63 6D 70 00 02 64 65 63 00 02 62 62 73 34 00 01  |cmp..dec..bbs4..|
 A3EF  62 6E 65 00 01 63 6D 70 2E 7A 69 79 00 01 63 6D  |bne..cmp.ziy..cm|
 A3FF  70 2E 7A 69 00 01 63 6D 70 2E 7A 78 00 01 64 65  |p.zi..cmp.zx..de|
 A40F  63 2E 7A 78 00 01 73 6D 62 35 2E 7A 00 00 63 6C  |c.zx..smb5.z..cl|
 A41F  64 00 02 63 6D 70 2E 79 00 00 70 68 78 00 00 77  |d..cmp.y..phx..w|
 A42F  61 69 00 02 63 6D 70 2E 78 00 02 64 65 63 2E 78  |ai..cmp.x..dec.x|
 A43F  00 02 62 62 73 35 00 01 63 70 78 2E 23 00 01 73  |..bbs5..cpx.#..s|
 A44F  62 63 2E 7A 78 69 00 01 63 70 78 2E 7A 00 01 73  |bc.zxi..cpx.z..s|
 A45F  62 63 2E 7A 00 01 69 6E 63 2E 7A 00 01 73 6D 62  |bc.z..inc.z..smb|
 A46F  36 2E 7A 00 00 69 6E 78 00 01 73 62 63 2E 23 00  |6.z..inx..sbc.#.|
 A47F  00 6E 6F 70 00 02 63 70 78 00 02 73 62 63 00 02  |.nop..cpx..sbc..|
 A48F  69 6E 63 00 02 62 62 73 36 00 01 62 65 71 00 01  |inc..bbs6..beq..|
 A49F  73 62 63 2E 7A 69 79 00 01 73 62 63 2E 7A 69 00  |sbc.ziy..sbc.zi.|
 A4AF  01 73 62 63 2E 7A 78 00 01 69 6E 63 2E 7A 78 00  |.sbc.zx..inc.zx.|
 A4BF  01 73 6D 62 37 2E 7A 00 00 73 65 64 00 02 73 62  |.smb7.z..sed..sb|
 A4CF  63 2E 79 00 00 70 6C 78 00 02 73 62 63 2E 78 00  |c.y..plx..sbc.x.|
 A4DF  02 69 6E 63 2E 78 00 02 62 62 73 37 00 20 3A 20  |.inc.x..bbs7. : |
 A4EF  28 20 5B 63 68 61 72 5D 20 29 20 70 61 72 73 65  |( [char] ) parse|
 A4FF  20 32 64 72 6F 70 20 3B 20 69 6D 6D 65 64 69 61  | 2drop ; immedia|
 A50F  74 65 20 3A 20 2E 28 20 5B 63 68 61 72 5D 20 29  |te : .( [char] )|
 A51F  20 70 61 72 73 65 20 74 79 70 65 20 3B 20 69 6D  | parse type ; im|
 A52F  6D 65 64 69 61 74 65 20 3A 20 69 66 20 70 6F 73  |mediate : if pos|
 A53F  74 70 6F 6E 65 20 30 62 72 61 6E 63 68 20 68 65  |tpone 0branch he|
 A54F  72 65 20 30 20 2C 20 3B 20 69 6D 6D 65 64 69 61  |re 0 , ; immedia|
 A55F  74 65 20 63 6F 6D 70 69 6C 65 2D 6F 6E 6C 79 20  |te compile-only |
 A56F  3A 20 74 68 65 6E 20 68 65 72 65 20 73 77 61 70  |: then here swap|
 A57F  20 21 20 3B 20 69 6D 6D 65 64 69 61 74 65 20 63  | ! ; immediate c|
 A58F  6F 6D 70 69 6C 65 2D 6F 6E 6C 79 20 3A 20 65 6C  |ompile-only : el|
 A59F  73 65 20 70 6F 73 74 70 6F 6E 65 20 62 72 61 6E  |se postpone bran|
 A5AF  63 68 20 68 65 72 65 20 30 20 2C 20 68 65 72 65  |ch here 0 , here|
 A5BF  20 72 6F 74 20 21 20 3B 20 69 6D 6D 65 64 69 61  | rot ! ; immedia|
 A5CF  74 65 20 63 6F 6D 70 69 6C 65 2D 6F 6E 6C 79 20  |te compile-only |
 A5DF  3A 20 72 65 70 65 61 74 20 70 6F 73 74 70 6F 6E  |: repeat postpon|
 A5EF  65 20 61 67 61 69 6E 20 68 65 72 65 20 73 77 61  |e again here swa|
 A5FF  70 20 21 20 3B 20 69 6D 6D 65 64 69 61 74 65 20  |p ! ; immediate |
 A60F  63 6F 6D 70 69 6C 65 2D 6F 6E 6C 79 20 3A 20 75  |compile-only : u|
 A61F  6E 74 69 6C 20 70 6F 73 74 70 6F 6E 65 20 30 62  |ntil postpone 0b|
 A62F  72 61 6E 63 68 20 2C 20 3B 20 69 6D 6D 65 64 69  |ranch , ; immedi|
 A63F  61 74 65 20 63 6F 6D 70 69 6C 65 2D 6F 6E 6C 79  |ate compile-only|
 A64F  20 3A 20 77 68 69 6C 65 20 70 6F 73 74 70 6F 6E  | : while postpon|
 A65F  65 20 30 62 72 61 6E 63 68 20 68 65 72 65 20 30  |e 0branch here 0|
 A66F  20 2C 20 73 77 61 70 20 3B 20 69 6D 6D 65 64 69  | , swap ; immedi|
 A67F  61 74 65 20 63 6F 6D 70 69 6C 65 2D 6F 6E 6C 79  |ate compile-only|
 A68F  20 3A 20 63 61 73 65 20 30 20 3B 20 69 6D 6D 65  | : case 0 ; imme|
 A69F  64 69 61 74 65 20 63 6F 6D 70 69 6C 65 2D 6F 6E  |diate compile-on|
 A6AF  6C 79 20 3A 20 6F 66 20 70 6F 73 74 70 6F 6E 65  |ly : of postpone|
 A6BF  20 6F 76 65 72 20 70 6F 73 74 70 6F 6E 65 20 3D  | over postpone =|
 A6CF  20 70 6F 73 74 70 6F 6E 65 20 69 66 20 70 6F 73  | postpone if pos|
 A6DF  74 70 6F 6E 65 20 64 72 6F 70 20 3B 20 69 6D 6D  |tpone drop ; imm|
 A6EF  65 64 69 61 74 65 20 63 6F 6D 70 69 6C 65 2D 6F  |ediate compile-o|
 A6FF  6E 6C 79 20 3A 20 65 6E 64 6F 66 20 70 6F 73 74  |nly : endof post|
 A70F  70 6F 6E 65 20 65 6C 73 65 20 3B 20 69 6D 6D 65  |pone else ; imme|
 A71F  64 69 61 74 65 20 63 6F 6D 70 69 6C 65 2D 6F 6E  |diate compile-on|
 A72F  6C 79 20 3A 20 65 6E 64 63 61 73 65 20 70 6F 73  |ly : endcase pos|
 A73F  74 70 6F 6E 65 20 64 72 6F 70 20 62 65 67 69 6E  |tpone drop begin|
 A74F  20 3F 64 75 70 20 77 68 69 6C 65 20 70 6F 73 74  | ?dup while post|
 A75F  70 6F 6E 65 20 74 68 65 6E 20 72 65 70 65 61 74  |pone then repeat|
 A76F  20 3B 20 69 6D 6D 65 64 69 61 74 65 20 63 6F 6D  | ; immediate com|
 A77F  70 69 6C 65 2D 6F 6E 6C 79 20 3A 20 64 65 66 65  |pile-only : defe|
 A78F  72 21 20 3E 62 6F 64 79 20 21 20 3B 20 3A 20 64  |r! >body ! ; : d|
 A79F  65 66 65 72 40 20 3E 62 6F 64 79 20 40 20 3B 20  |efer@ >body @ ; |
 A7AF  3A 20 69 73 20 73 74 61 74 65 20 40 20 69 66 20  |: is state @ if |
 A7BF  70 6F 73 74 70 6F 6E 65 20 5B 27 5D 20 70 6F 73  |postpone ['] pos|
 A7CF  74 70 6F 6E 65 20 64 65 66 65 72 21 20 65 6C 73  |tpone defer! els|
 A7DF  65 20 27 20 64 65 66 65 72 21 20 74 68 65 6E 20  |e ' defer! then |
 A7EF  3B 20 69 6D 6D 65 64 69 61 74 65 20 3A 20 61 63  |; immediate : ac|
 A7FF  74 69 6F 6E 2D 6F 66 20 73 74 61 74 65 20 40 20  |tion-of state @ |
 A80F  69 66 20 70 6F 73 74 70 6F 6E 65 20 5B 27 5D 20  |if postpone ['] |
 A81F  70 6F 73 74 70 6F 6E 65 20 64 65 66 65 72 40 20  |postpone defer@ |
 A82F  65 6C 73 65 20 27 20 64 65 66 65 72 40 20 74 68  |else ' defer@ th|
 A83F  65 6E 20 3B 20 69 6D 6D 65 64 69 61 74 65 20 3A  |en ; immediate :|
 A84F  20 2F 20 3E 72 20 73 3E 64 20 72 3E 20 73 6D 2F  | / >r s>d r> sm/|
 A85F  72 65 6D 20 73 77 61 70 20 64 72 6F 70 20 3B 20  |rem swap drop ; |
 A86F  3A 20 2F 6D 6F 64 20 3E 72 20 73 3E 64 20 72 3E  |: /mod >r s>d r>|
 A87F  20 73 6D 2F 72 65 6D 20 3B 20 3A 20 6D 6F 64 20  | sm/rem ; : mod |
 A88F  2F 6D 6F 64 20 64 72 6F 70 20 3B 20 3A 20 2A 2F  |/mod drop ; : */|
 A89F  20 3E 72 20 6D 2A 20 72 3E 20 73 6D 2F 72 65 6D  | >r m* r> sm/rem|
 A8AF  20 73 77 61 70 20 64 72 6F 70 20 3B 20 3A 20 2A  | swap drop ; : *|
 A8BF  2F 6D 6F 64 20 3E 72 20 6D 2A 20 72 3E 20 73 6D  |/mod >r m* r> sm|
 A8CF  2F 72 65 6D 20 3B 20 3A 20 75 2E 72 20 3E 72 20  |/rem ; : u.r >r |
 A8DF  30 20 3C 23 20 23 73 20 23 3E 20 72 3E 20 6F 76  |0 <# #s #> r> ov|
 A8EF  65 72 20 2D 20 73 70 61 63 65 73 20 74 79 70 65  |er - spaces type|
 A8FF  20 3B 20 3A 20 2E 72 20 3E 72 20 64 75 70 20 61  | ; : .r >r dup a|
 A90F  62 73 20 30 20 3C 23 20 23 73 20 72 6F 74 20 73  |bs 0 <# #s rot s|
 A91F  69 67 6E 20 23 3E 20 72 3E 20 6F 76 65 72 20 2D  |ign #> r> over -|
 A92F  20 73 70 61 63 65 73 20 74 79 70 65 20 3B 20 3A  | spaces type ; :|
 A93F  20 75 64 2E 20 3C 23 20 23 73 20 23 3E 20 74 79  | ud. <# #s #> ty|
 A94F  70 65 20 73 70 61 63 65 20 3B 20 3A 20 75 64 2E  |pe space ; : ud.|
 A95F  72 20 3E 72 20 3C 23 20 23 73 20 23 3E 20 72 3E  |r >r <# #s #> r>|
 A96F  20 6F 76 65 72 20 2D 20 73 70 61 63 65 73 20 74  | over - spaces t|
 A97F  79 70 65 20 3B 20 3A 20 64 2E 20 74 75 63 6B 20  |ype ; : d. tuck |
 A98F  64 61 62 73 20 3C 23 20 23 73 20 72 6F 74 20 73  |dabs <# #s rot s|
 A99F  69 67 6E 20 23 3E 20 74 79 70 65 20 73 70 61 63  |ign #> type spac|
 A9AF  65 20 3B 20 3A 20 64 2E 72 20 3E 72 20 74 75 63  |e ; : d.r >r tuc|
 A9BF  6B 20 64 61 62 73 20 3C 23 20 23 73 20 72 6F 74  |k dabs <# #s rot|
 A9CF  20 73 69 67 6E 20 23 3E 20 72 3E 20 6F 76 65 72  | sign #> r> over|
 A9DF  20 2D 20 73 70 61 63 65 73 20 74 79 70 65 20 3B  | - spaces type ;|
 A9EF  20 3A 20 77 69 74 68 69 6E 20 6F 76 65 72 20 2D  | : within over -|
 A9FF  20 3E 72 20 2D 20 72 3E 20 75 3C 20 3B 20 3A 20  | >r - r> u< ; : |
 AA0F  32 63 6F 6E 73 74 61 6E 74 20 63 72 65 61 74 65  |2constant create|
 AA1F  20 73 77 61 70 20 2C 20 2C 20 64 6F 65 73 3E 20  | swap , , does> |
 AA2F  64 75 70 20 40 20 73 77 61 70 20 63 65 6C 6C 2B  |dup @ swap cell+|
 AA3F  20 40 20 3B 20 3A 20 32 6C 69 74 65 72 61 6C 20  | @ ; : 2literal |
 AA4F  73 77 61 70 20 70 6F 73 74 70 6F 6E 65 20 6C 69  |swap postpone li|
 AA5F  74 65 72 61 6C 20 70 6F 73 74 70 6F 6E 65 20 6C  |teral postpone l|
 AA6F  69 74 65 72 61 6C 20 3B 20 69 6D 6D 65 64 69 61  |iteral ; immedia|
 AA7F  74 65 20 3A 20 73 74 72 69 6E 67 5F 6F 66 20 70  |te : string_of p|
 AA8F  6F 73 74 70 6F 6E 65 20 32 6F 76 65 72 20 70 6F  |ostpone 2over po|
 AA9F  73 74 70 6F 6E 65 20 63 6F 6D 70 61 72 65 20 70  |stpone compare p|
 AAAF  6F 73 74 70 6F 6E 65 20 30 3D 20 70 6F 73 74 70  |ostpone 0= postp|
 AABF  6F 6E 65 20 69 66 20 70 6F 73 74 70 6F 6E 65 20  |one if postpone |
 AACF  32 64 72 6F 70 20 3B 20 69 6D 6D 65 64 69 61 74  |2drop ; immediat|
 AADF  65 20 63 6F 6D 70 69 6C 65 2D 6F 6E 6C 79 20 68  |e compile-only h|
 AAEF  65 78 20 3A 20 45 4E 56 49 52 4F 4E 4D 45 4E 54  |ex : ENVIRONMENT|
 AAFF  3F 20 63 61 73 65 20 73 22 20 2F 43 4F 55 4E 54  |? case s" /COUNT|
 AB0F  45 44 2D 53 54 52 49 4E 47 22 20 73 74 72 69 6E  |ED-STRING" strin|
 AB1F  67 5F 6F 66 20 37 46 46 46 20 74 72 75 65 20 65  |g_of 7FFF true e|
 AB2F  6E 64 6F 66 20 73 22 20 2F 48 4F 4C 44 22 20 73  |ndof s" /HOLD" s|
 AB3F  74 72 69 6E 67 5F 6F 66 20 46 46 20 74 72 75 65  |tring_of FF true|
 AB4F  20 65 6E 64 6F 66 20 73 22 20 2F 50 41 44 22 20  | endof s" /PAD" |
 AB5F  73 74 72 69 6E 67 5F 6F 66 20 35 34 20 74 72 75  |string_of 54 tru|
 AB6F  65 20 65 6E 64 6F 66 20 73 22 20 41 44 44 52 45  |e endof s" ADDRE|
 AB7F  53 53 2D 55 4E 49 54 2D 42 49 54 53 22 20 73 74  |SS-UNIT-BITS" st|
 AB8F  72 69 6E 67 5F 6F 66 20 38 20 74 72 75 65 20 65  |ring_of 8 true e|
 AB9F  6E 64 6F 66 20 73 22 20 46 4C 4F 4F 52 45 44 22  |ndof s" FLOORED"|
 ABAF  20 73 74 72 69 6E 67 5F 6F 66 20 66 61 6C 73 65  | string_of false|
 ABBF  20 74 72 75 65 20 65 6E 64 6F 66 20 73 22 20 4D  | true endof s" M|
 ABCF  41 58 2D 43 48 41 52 22 20 73 74 72 69 6E 67 5F  |AX-CHAR" string_|
 ABDF  6F 66 20 32 35 35 20 74 72 75 65 20 65 6E 64 6F  |of 255 true endo|
 ABEF  66 20 73 22 20 4D 41 58 2D 44 22 20 73 74 72 69  |f s" MAX-D" stri|
 ABFF  6E 67 5F 6F 66 20 37 46 46 46 46 46 46 46 2E 20  |ng_of 7FFFFFFF. |
 AC0F  74 72 75 65 20 65 6E 64 6F 66 20 73 22 20 4D 41  |true endof s" MA|
 AC1F  58 2D 4E 22 20 73 74 72 69 6E 67 5F 6F 66 20 37  |X-N" string_of 7|
 AC2F  46 46 46 20 74 72 75 65 20 65 6E 64 6F 66 20 73  |FFF true endof s|
 AC3F  22 20 4D 41 58 2D 55 22 20 73 74 72 69 6E 67 5F  |" MAX-U" string_|
 AC4F  6F 66 20 46 46 46 46 20 74 72 75 65 20 65 6E 64  |of FFFF true end|
 AC5F  6F 66 20 73 22 20 4D 41 58 2D 55 44 22 20 73 74  |of s" MAX-UD" st|
 AC6F  72 69 6E 67 5F 6F 66 20 46 46 46 46 46 46 46 46  |ring_of FFFFFFFF|
 AC7F  2E 20 74 72 75 65 20 65 6E 64 6F 66 20 73 22 20  |. true endof s" |
 AC8F  52 45 54 55 52 4E 2D 53 54 41 43 4B 2D 43 45 4C  |RETURN-STACK-CEL|
 AC9F  4C 53 22 20 73 74 72 69 6E 67 5F 6F 66 20 38 30  |LS" string_of 80|
 ACAF  20 74 72 75 65 20 65 6E 64 6F 66 20 73 22 20 53  | true endof s" S|
 ACBF  54 41 43 4B 2D 43 45 4C 4C 53 22 20 73 74 72 69  |TACK-CELLS" stri|
 ACCF  6E 67 5F 6F 66 20 32 30 20 74 72 75 65 20 65 6E  |ng_of 20 true en|
 ACDF  64 6F 66 20 32 64 72 6F 70 20 66 61 6C 73 65 20  |dof 2drop false |
 ACEF  66 61 6C 73 65 20 65 6E 64 63 61 73 65 20 3B 20  |false endcase ; |
 ACFF  64 65 63 69 6D 61 6C 20 2E 28 20 54 61 6C 69 20  |decimal .( Tali |
 AD0F  46 6F 72 74 68 20 32 20 66 6F 72 20 74 68 65 20  |Forth 2 for the |
 AD1F  36 35 63 30 32 29 20 63 72 20 2E 28 20 56 65 72  |65c02) cr .( Ver|
 AD2F  73 69 6F 6E 20 42 45 54 41 20 32 39 2E 20 4A 75  |sion BETA 29. Ju|
 AD3F  6C 79 20 32 30 31 38 20 29 20 63 72 20 2E 28 20  |ly 2018 ) cr .( |
 AD4F  43 6F 70 79 72 69 67 68 74 20 32 30 31 34 2D 32  |Copyright 2014-2|
 AD5F  30 31 38 20 53 63 6F 74 20 57 2E 20 53 74 65 76  |018 Scot W. Stev|
 AD6F  65 6E 73 6F 6E 29 20 63 72 20 2E 28 20 54 61 6C  |enson) cr .( Tal|
 AD7F  69 20 46 6F 72 74 68 20 32 20 63 6F 6D 65 73 20  |i Forth 2 comes |
 AD8F  77 69 74 68 20 61 62 73 6F 6C 75 74 65 6C 79 20  |with absolutely |
 AD9F  4E 4F 20 57 41 52 52 41 4E 54 59 29 20 63 72 20  |NO WARRANTY) cr |
 ADAF  2E 28 20 54 79 70 65 20 27 62 79 65 27 20 74 6F  |.( Type 'bye' to|
 ADBF  20 65 78 69 74 29 20 63 72 20 20 3A 20 73 65 65  | exit) cr  : see|
 ADCF  20 70 61 72 73 65 2D 6E 61 6D 65 20 66 69 6E 64  | parse-name find|
 ADDF  2D 6E 61 6D 65 20 64 75 70 20 30 3D 20 61 62 6F  |-name dup 0= abo|
 ADEF  72 74 22 20 4E 6F 20 73 75 63 68 20 6E 61 6D 65  |rt" No such name|
 ADFF  22 20 62 61 73 65 20 40 20 3E 72 20 68 65 78 20  |" base @ >r hex |
 AE0F  64 75 70 20 63 72 20 73 70 61 63 65 20 2E 22 20  |dup cr space ." |
 AE1F  6E 74 3A 20 22 20 75 2E 20 64 75 70 20 34 20 2B  |nt: " u. dup 4 +|
 AE2F  20 40 20 73 70 61 63 65 20 2E 22 20 78 74 3A 20  | @ space ." xt: |
 AE3F  22 20 75 2E 20 64 75 70 20 31 2B 20 63 40 20 31  |" u. dup 1+ c@ 1|
 AE4F  20 61 6E 64 20 69 66 20 73 70 61 63 65 20 2E 22  | and if space ."|
 AE5F  20 43 4F 20 22 20 74 68 65 6E 20 64 75 70 20 31  | CO " then dup 1|
 AE6F  2B 20 63 40 20 32 20 61 6E 64 20 69 66 20 73 70  |+ c@ 2 and if sp|
 AE7F  61 63 65 20 2E 22 20 41 4E 20 22 20 74 68 65 6E  |ace ." AN " then|
 AE8F  20 64 75 70 20 31 2B 20 63 40 20 34 20 61 6E 64  | dup 1+ c@ 4 and|
 AE9F  20 69 66 20 73 70 61 63 65 20 2E 22 20 49 4D 20  | if space ." IM |
 AEAF  22 20 74 68 65 6E 20 64 75 70 20 31 2B 20 63 40  |" then dup 1+ c@|
 AEBF  20 38 20 61 6E 64 20 69 66 20 73 70 61 63 65 20  | 8 and if space |
 AECF  2E 22 20 4E 4E 20 22 20 74 68 65 6E 20 64 75 70  |." NN " then dup|
 AEDF  20 31 2B 20 63 40 20 31 36 20 61 6E 64 20 69 66  | 1+ c@ 16 and if|
 AEEF  20 73 70 61 63 65 20 2E 22 20 55 46 20 22 20 74  | space ." UF " t|
 AEFF  68 65 6E 20 64 75 70 20 31 2B 20 63 40 20 33 32  |hen dup 1+ c@ 32|
 AF0F  20 61 6E 64 20 69 66 20 73 70 61 63 65 20 2E 22  | and if space ."|
 AF1F  20 48 43 20 22 20 74 68 65 6E 20 64 75 70 20 63  | HC " then dup c|
 AF2F  72 20 73 70 61 63 65 20 2E 22 20 73 69 7A 65 20  |r space ." size |
 AF3F  28 64 65 63 69 6D 61 6C 29 3A 20 22 20 64 65 63  |(decimal): " dec|
 AF4F  69 6D 61 6C 20 77 6F 72 64 73 69 7A 65 20 64 75  |imal wordsize du|
 AF5F  70 20 2E 20 73 77 61 70 20 6E 61 6D 65 3E 69 6E  |p . swap name>in|
 AF6F  74 20 73 77 61 70 20 68 65 78 20 63 72 20 73 70  |t swap hex cr sp|
 AF7F  61 63 65 20 32 64 75 70 20 64 75 6D 70 20 63 72  |ace 2dup dump cr|
 AF8F  20 64 69 73 61 73 6D 20 72 3E 20 62 61 73 65 20  | disasm r> base |
 AF9F  21 20 3B 20 03 00 00 00 72 83 73 83 62 79 65 04  |! ; ....r.s.bye.|
 AFAF  00 A3 AF 00 80 E2 80 63 6F 6C 64 04 10 AE AF 72  |.......cold....r|
 AFBF  9B BB 9B 77 6F 72 64 04 10 BA AF 46 8B 91 8B 66  |...word....F...f|
 AFCF  69 6E 64 06 10 C6 AF E4 94 86 95 73 65 61 72 63  |ind........searc|
 AFDF  68 07 10 D2 AF C6 84 2E 85 63 6F 6D 70 61 72 65  |h........compare|
 AFEF  06 10 E0 AF 4A 88 54 88 64 69 73 61 73 6D 02 00  |....J.T.disasm..|
 AFFF  EF AF 7C 89 BF 89 2E 73 04 10 FD AF CA 89 12 8A  |..|....s........|
 B00F  64 75 6D 70 04 00 07 B0 1C 83 21 83 62 65 6C 6C  |dump......!.bell|
 B01F  05 00 13 B0 82 82 82 82 61 6C 69 67 6E 07 00 1F  |........align...|
 B02F  B0 82 82 82 82 61 6C 69 67 6E 65 64 08 10 2C B0  |.....aligned..,.|
 B03F  F5 9B 19 9C 77 6F 72 64 73 69 7A 65 05 00 3B B0  |....wordsize..;.|
 B04F  BC 9B F4 9B 77 6F 72 64 73 06 04 4B B0 78 8E A5  |....words..K.x..|
 B05F  8E 6D 61 72 6B 65 72 05 10 58 B0 E2 82 03 83 61  |.marker..X.....a|
 B06F  74 2D 78 79 04 00 66 B0 AA 91 C7 91 70 61 67 65  |t-xy..f.....page|
 B07F  02 00 73 B0 AE 86 B3 86 63 72 05 00 7F B0 B2 8C  |..s.....cr......|
 B08F  BC 8C 69 6E 70 75 74 06 00 89 B0 7D 91 87 91 6F  |..input....}...o|
 B09F  75 74 70 75 74 04 10 96 B0 B9 95 D1 95 73 69 67  |utput........sig|
 B0AF  6E 04 10 A4 B0 79 8C 8E 8C 68 6F 6C 64 02 10 B0  |n....y...hold...|
 B0BF  B0 05 91 2A 91 23 3E 02 10 BC B0 2B 91 3F 91 23  |...*.#>....+.?.#|
 B0CF  73 01 10 C6 B0 CC 90 04 91 23 02 00 D0 B0 6A 8D  |s........#....j.|
 B0DF  77 8D 3C 23 03 00 D9 B0 12 98 1C 98 3E 69 6E 03  |w.<#........>in.|
 B0EF  00 E3 B0 9A 91 A9 91 70 61 64 05 10 EE B0 D4 83  |.......pad......|
 B0FF  12 84 63 6D 6F 76 65 06 10 F9 B0 13 84 51 84 63  |..cmove......Q.c|
 B10F  6D 6F 76 65 3E 04 18 06 B1 5A 8F 78 8F 6D 6F 76  |move>....Z.x.mov|
 B11F  65 01 04 14 B1 04 83 0C 83 5C 06 10 20 B1 13 8C  |e........\.. ...|
 B12F  4D 8C 66 6D 2F 6D 6F 64 06 10 29 B1 96 96 C2 96  |M.fm/mod..).....|
 B13F  73 6D 2F 72 65 6D 06 10 37 B1 B2 9A F7 9A 75 6D  |sm/rem..7.....um|
 B14F  2F 6D 6F 64 01 10 45 B1 1F 97 2B 97 2A 03 10 53  |/mod..E...+.*..S|
 B15F  B1 F8 9A 41 9B 75 6D 2A 02 10 5C B1 59 8E 77 8E  |...A.um*..\.Y.w.|
 B16F  6D 2A 05 10 67 B1 96 86 AD 86 63 6F 75 6E 74 07  |m*..g.....count.|
 B17F  00 71 B1 C8 87 CE 87 64 65 63 69 6D 61 6C 03 00  |.q.....decimal..|
 B18F  7E B1 72 8C 78 8C 68 65 78 07 10 8D B1 1D 98 C0  |~.r.x.hex.......|
 B19F  98 3E 6E 75 6D 62 65 72 06 10 98 B1 35 90 CB 90  |.>number....5...|
 B1AF  6E 75 6D 62 65 72 06 10 A7 B1 11 88 49 88 64 69  |number......I.di|
 B1BF  67 69 74 3F 04 00 B5 B1 0D 83 17 83 62 61 73 65  |git?........base|
 B1CF  08 10 C3 B1 AA 8A 0E 8B 65 76 61 6C 75 61 74 65  |........evaluate|
 B1DF  05 00 CF B1 2C 97 36 97 73 74 61 74 65 05 17 DF  |....,.6.state...|
 B1EF  B1 5D 82 81 82 61 67 61 69 6E 05 07 EC B1 18 83  |.]...again......|
 B1FF  1B 83 62 65 67 69 6E 04 00 F9 B1 A0 80 E2 80 71  |..begin........q|
 B20F  75 69 74 07 0D 06 B2 89 93 C5 93 72 65 63 75 72  |uit........recur|
 B21F  73 65 05 03 12 B2 60 8D 65 8D 6C 65 61 76 65 06  |se....`.e.leave.|
 B22F  03 21 B2 42 9B 48 9B 75 6E 6C 6F 6F 70 04 03 2E  |.!.B.H.unloop...|
 B23F  B2 27 8B 28 8B 65 78 69 74 05 05 3C B2 C9 8D 2F  |.'.(.exit..<.../|
 B24F  8E 2B 6C 6F 6F 70 04 05 48 B2 C2 8D 2F 8E 6C 6F  |.+loop..H.../.lo|
 B25F  6F 70 01 03 55 B2 27 8D 40 8D 6A 01 03 61 B2 8F  |op..U.'.@.j..a..|
 B26F  8C A8 8C 69 03 0D 6A B2 74 88 D4 88 3F 64 6F 02  |...i..j.t...?do.|
 B27F  0D 73 B2 7A 88 D4 88 64 6F 06 05 7E B2 E2 80 EC  |.s.z...do..~....|
 B28F  80 61 62 6F 72 74 22 05 00 88 B2 9E 80 E2 80 61  |.abort"........a|
 B29F  62 6F 72 74 08 00 96 B2 A7 9A B1 9A 75 66 2D 73  |bort........uf-s|
 B2AF  74 72 69 70 08 00 A3 B2 B8 8F C2 8F 6E 63 2D 6C  |trip........nc-l|
 B2BF  69 6D 69 74 0D 00 B3 B2 C3 82 CB 82 61 6C 77 61  |imit........alwa|
 B2CF  79 73 2D 6E 61 74 69 76 65 0C 00 C3 B2 D8 8F E0  |ys-native.......|
 B2DF  8F 6E 65 76 65 72 2D 6E 61 74 69 76 65 0C 00 D8  |.never-native...|
 B2EF  B2 4B 86 53 86 63 6F 6D 70 69 6C 65 2D 6F 6E 6C  |.K.S.compile-onl|
 B2FF  79 09 00 EC B2 A9 8C B1 8C 69 6D 6D 65 64 69 61  |y........immedia|
 B30F  74 65 08 05 00 B3 05 93 43 93 70 6F 73 74 70 6F  |te......C.postpo|
 B31F  6E 65 02 04 11 B3 47 94 CD 94 73 22 02 05 21 B3  |ne....G...s"..!.|
 B32F  71 89 7B 89 2E 22 08 15 2B B3 F6 95 69 96 73 6C  |q.{.."..+...i.sl|
 B33F  69 74 65 72 61 6C 07 15 35 B3 91 8D A2 8D 6C 69  |iteral..5.....li|
 B34F  74 65 72 61 6C 06 0D 45 B3 56 83 5D 83 62 72 61  |teral..E.V.].bra|
 B35F  6E 63 68 07 0D 54 B3 37 9C 3E 9C 30 62 72 61 6E  |nch..T.7.>.0bran|
 B36F  63 68 01 04 62 B3 08 94 0E 94 5D 01 05 71 B3 65  |ch..b.....]..q.e|
 B37F  8D 69 8D 5B 08 10 7A B3 2F 85 4A 86 63 6F 6D 70  |.i.[..z./.J.comp|
 B38F  69 6C 65 2C 07 00 83 B3 8A 84 A7 84 3A 6E 6F 6E  |ile,........:non|
 B39F  61 6D 65 01 05 93 B3 87 95 B8 95 3B 01 00 A2 B3  |ame........;....|
 B3AF  52 84 89 84 3A 09 00 AB B3 D8 96 E2 96 73 6F 75  |R...:........sou|
 B3BF  72 63 65 2D 69 64 06 00 B4 B3 C3 96 D7 96 73 6F  |rce-id........so|
 B3CF  75 72 63 65 05 10 C5 B3 2A 92 B8 92 70 61 72 73  |urce....*...pars|
 B3DF  65 0A 00 D3 B3 C8 91 B8 92 70 61 72 73 65 2D 6E  |e........parse-n|
 B3EF  61 6D 65 08 00 E0 B3 4E 8D 58 8D 6C 61 74 65 73  |ame....N.X.lates|
 B3FF  74 6E 74 08 00 F2 B3 59 8D 5F 8D 6C 61 74 65 73  |tnt....Y._.lates|
 B40F  74 78 74 05 00 02 B4 CF 87 01 88 64 65 66 65 72  |txt........defer|
 B41F  05 10 12 B4 E9 97 11 98 3E 62 6F 64 79 0B 10 1F  |........>body...|
 B42F  B4 9A 8F B7 8F 6E 61 6D 65 3E 73 74 72 69 6E 67  |.....name>string|
 B43F  08 10 2C B4 BD 8C 12 8D 69 6E 74 3E 6E 61 6D 65  |..,.....int>name|
 B44F  08 10 3F B4 79 8F 99 8F 6E 61 6D 65 3E 69 6E 74  |..?.y...name>int|
 B45F  03 05 4F B4 4F 83 55 83 5B 27 5D 01 00 5F B4 69  |..O.O.U.['].._.i|
 B46F  97 88 97 27 09 10 6A B4 92 8B 12 8C 66 69 6E 64  |...'..j.....find|
 B47F  2D 6E 61 6D 65 04 10 73 B4 63 8A A9 8A 66 69 6C  |-name..s.c...fil|
 B48F  6C 05 00 84 B4 53 8A A9 8A 62 6C 61 6E 6B 05 00  |l....S...blank..|
 B49F  90 B4 5D 8A A9 8A 65 72 61 73 65 02 10 9D B4 76  |..]...erase....v|
 B4AF  87 9A 87 64 2B 02 10 AA B4 51 87 75 87 64 2D 03  |...d+....Q.u.d-.|
 B4BF  10 B4 B4 9B 87 A4 87 64 3E 73 03 10 BE B4 CE 94  |.......d>s......|
 B4CF  E3 94 73 3E 64 02 0C C9 B4 89 97 E8 97 74 6F 05  |..s>d........to.|
 B4DF  10 D4 B4 54 86 95 86 76 61 6C 75 65 08 10 DE B4  |...T...value....|
 B4EF  54 86 95 86 63 6F 6E 73 74 61 6E 74 08 00 EB B4  |T...constant....|
 B4FF  59 9B 71 9B 76 61 72 69 61 62 6C 65 05 05 FB B4  |Y.q.variable....|
 B50F  0D 89 1B 89 64 6F 65 73 3E 06 00 0B B5 B4 86 50  |....does>......P|
 B51F  87 63 72 65 61 74 65 05 10 18 B5 83 82 C2 82 61  |.create........a|
 B52F  6C 6C 6F 74 03 00 26 B5 41 8D 4A 8D 6B 65 79 05  |llot..&.A.J.key.|
 B53F  00 33 B5 02 88 10 88 64 65 70 74 68 06 00 3E B5  |.3.....depth..>.|
 B54F  49 9B 58 9B 75 6E 75 73 65 64 06 10 4B B5 1B 81  |I.X.unused..K...|
 B55F  5C 82 61 63 63 65 70 74 06 00 59 B5 C6 93 07 94  |\.accept..Y.....|
 B56F  72 65 66 69 6C 6C 07 10 67 B5 D2 95 F5 95 2F 73  |refill..g...../s|
 B57F  74 72 69 6E 67 09 10 75 B5 1F 8F 59 8F 2D 74 72  |tring..u...Y.-tr|
 B58F  61 69 6C 69 6E 67 02 00 84 B5 22 83 2A 83 62 6C  |ailing....".*.bl|
 B59F  06 10 95 B5 E9 96 1E 97 73 70 61 63 65 73 06 10  |........spaces..|
 B5AF  9F B5 2B 83 47 83 62 6F 75 6E 64 73 02 10 AD B5  |..+.G.bounds....|
 B5BF  74 83 82 83 63 2C 07 10 BB B5 55 88 73 88 64 6E  |t...c,....U.s.dn|
 B5CF  65 67 61 74 65 06 10 C5 B5 C3 8F D7 8F 6E 65 67  |egate........neg|
 B5DF  61 74 65 06 10 D4 B5 13 8D 26 8D 69 6E 76 65 72  |ate......&.inver|
 B5EF  74 03 11 E2 B5 1B 9A 3E 9A 32 3E 72 03 01 F0 B5  |t......>.2>r....|
 B5FF  91 99 AD 99 32 72 3E 03 09 FB B5 73 99 90 99 32  |....2r>....s...2|
 B60F  72 40 09 00 06 B6 3F 9A 4D 9A 32 76 61 72 69 61  |r@....?.M.2varia|
 B61F  62 6C 65 02 10 11 B6 31 99 56 99 32 40 02 10 22  |ble....1.V.2@.."|
 B62F  B6 C9 99 F2 99 32 21 05 10 2C B6 57 99 72 99 32  |.....2!..,.W.r.2|
 B63F  6F 76 65 72 05 10 36 B6 F3 99 1A 9A 32 73 77 61  |over..6.....2swa|
 B64F  70 05 10 43 B6 09 99 14 99 32 64 72 6F 70 03 10  |p..C.....2drop..|
 B65F  50 B6 C8 8E E7 8E 6D 61 78 03 10 5D B6 E8 8E 07  |P.....max..]....|
 B66F  8F 6D 69 6E 02 10 68 B6 A6 9C B9 9C 30 3C 02 10  |.min..h.....0<..|
 B67F  73 B6 8E 9C A5 9C 30 3E 03 10 7D B6 BA 9C CF 9C  |s.....0>..}.....|
 B68F  30 3C 3E 02 10 87 B6 76 9C 8D 9C 30 3D 01 10 92  |0<>....v...0=...|
 B69F  B6 4E 8C 66 8C 3E 02 10 9C B6 8D 9A A6 9A 75 3C  |.N.f.>........u<|
 B6AF  01 10 A5 B6 78 8D 90 8D 3C 02 10 AF B6 F3 8F 14  |....x...<.......|
 B6BF  90 3C 3E 01 10 B8 B6 33 8A 52 8A 3D 02 10 C2 B6  |.<>....3.R.=....|
 B6CF  AE 99 BC 99 32 2F 02 10 CB B6 BD 99 C8 99 32 2A  |....2/........2*|
 B6DF  02 10 D5 B6 59 91 66 91 31 2B 02 10 DF B6 49 91  |....Y.f.1+....I.|
 B6EF  58 91 31 2D 04 00 E9 B6 67 8C 71 8C 68 65 72 65  |X.1-....g.q.here|
 B6FF  05 10 F3 B6 A1 83 B4 83 63 65 6C 6C 2B 05 00 FF  |........cell+...|
 B70F  B6 BD 99 C8 99 63 65 6C 6C 73 05 12 0C B7 CC 83  |.....cells......|
 B71F  D3 83 63 68 61 72 73 05 00 19 B7 59 91 66 91 63  |..chars....Y.f.c|
 B72F  68 61 72 2B 06 05 26 B7 48 83 4E 83 5B 63 68 61  |har+..&.H.N.[cha|
 B73F  72 5D 04 00 33 B7 B5 83 CB 83 63 68 61 72 04 00  |r]..3.....char..|
 B74F  41 B7 B9 92 C9 92 70 69 63 6B 06 10 4D B7 41 8E  |A.....pick..M.A.|
 B75F  58 8E 6C 73 68 69 66 74 06 10 59 B7 2F 94 46 94  |X.lshift..Y./.F.|
 B76F  72 73 68 69 66 74 03 10 67 B7 1A 9C 2F 9C 78 6F  |rshift..g.../.xo|
 B77F  72 02 10 75 B7 67 91 7C 91 6F 72 03 10 80 B7 CC  |r..u.g.|.or.....|
 B78F  82 E1 82 61 6E 64 04 10 8A B7 A5 87 C7 87 64 61  |...and........da|
 B79F  62 73 03 10 95 B7 02 81 1A 81 61 62 73 01 10 A1  |bs........abs...|
 B7AF  B7 08 8F 1E 8F 2D 01 10 AC B7 CA 92 E0 92 2B 04  |.....-........+.|
 B7BF  10 B5 B7 4B 93 62 93 3F 64 75 70 04 10 BE B7 15  |...K.b.?dup.....|
 B7CF  99 30 99 32 64 75 70 01 00 CA B7 00 99 08 99 32  |.0.2dup........2|
 B7DF  01 00 D6 B7 40 91 48 91 31 01 00 DF B7 30 9C 36  |....@.H.1....0.6|
 B7EF  9C 30 05 00 E8 B7 E3 96 E8 96 73 70 61 63 65 04  |.0........space.|
 B7FF  00 F1 B7 D9 98 E1 98 74 72 75 65 05 00 FE B7 28  |.......true....(|
 B80F  8B 2E 8B 66 61 6C 73 65 01 00 0A B8 44 93 4A 93  |...false....D.J.|
 B81F  3F 02 10 17 B8 7D 9A 8C 9A 75 2E 01 10 20 B8 4B  |?....}...u... .K|
 B82F  89 70 89 2E 04 10 2A B8 4E 9A 7C 9A 74 79 70 65  |.p....*.N.|.type|
 B83F  04 18 33 B8 25 8A 33 8A 65 6D 69 74 07 10 3F B8  |..3.%.3.emit..?.|
 B84F  0F 8B 19 8B 65 78 65 63 75 74 65 02 10 4B B8 E1  |....execute..K..|
 B85F  92 04 93 2B 21 02 10 5A B8 91 83 A0 83 63 21 02  |...+!..Z.....c!.|
 B86F  10 64 B8 83 83 90 83 63 40 01 10 6E B8 A8 84 C5  |.d.....c@..n....|
 B87F  84 2C 04 10 78 B8 E2 98 FF 98 74 75 63 6B 04 10  |.,..x.....tuck..|
 B88F  81 B8 15 90 34 90 2D 72 6F 74 03 10 8D B8 0F 94  |....4.-rot......|
 B89F  2E 94 72 6F 74 03 10 99 B8 E1 8F F2 8F 6E 69 70  |..rot........nip|
 B8AF  02 01 A4 B8 63 93 77 93 72 40 02 01 AF B8 78 93  |....c.w.r@....x.|
 B8BF  88 93 72 3E 02 11 B9 B8 C1 98 D8 98 3E 72 04 10  |..r>........>r..|
 B8CF  C3 B8 88 91 99 91 6F 76 65 72 01 10 CD B8 2F 8B  |......over..../.|
 B8DF  45 8B 40 01 10 D9 B8 37 97 50 97 21 04 10 E2 B8  |E.@....7.P.!....|
 B8EF  51 97 68 97 73 77 61 70 03 10 EB B8 13 8A 24 8A  |Q.h.swap......$.|
 B8FF  64 75 70 04 10 F7 B8 C0 89 C9 89 64 72 6F 70 1A  |dup........drop.|
 B90F  B9 1E B9 00 00 00 00 28 B9 4C B9 20 6F 6B 00 20  |.......(.L. ok. |
 B91F  63 6F 6D 70 69 6C 65 64 00 30 31 32 33 34 35 36  |compiled.0123456|
 B92F  37 38 39 61 62 63 64 65 66 67 68 69 6A 6B 6C 6D  |789abcdefghijklm|
 B93F  6E 6F 70 71 72 73 74 75 76 77 78 79 7A 30 31 32  |nopqrstuvwxyz012|
 B94F  33 34 35 36 37 38 39 41 42 43 44 45 46 47 48 49  |3456789ABCDEFGHI|
 B95F  4A 4B 4C 4D 4E 4F 50 51 52 53 54 55 56 57 58 59  |JKLMNOPQRSTUVWXY|
 B96F  5A 8C B9 CD B9 EE B9 0B BA 00 00 1C BA 32 BA 61  |Z............2.a|
 B97F  BA 78 BA AD B9 A6 BA CD BA BE BA 42 BA 41 4C 4C  |.x.........B.ALL|
 B98F  4F 54 20 75 73 69 6E 67 20 61 6C 6C 20 61 76 61  |OT using all ava|
 B99F  69 6C 61 62 6C 65 20 6D 65 6D 6F 72 79 00 49 6C  |ilable memory.Il|
 B9AF  6C 65 67 61 6C 20 53 4F 55 52 43 45 2D 49 44 20  |legal SOURCE-ID |
 B9BF  64 75 72 69 6E 67 20 52 45 46 49 4C 4C 00 49 6E  |during REFILL.In|
 B9CF  74 65 72 70 72 65 74 69 6E 67 20 61 20 63 6F 6D  |terpreting a com|
 B9DF  70 69 6C 65 2D 6F 6E 6C 79 20 77 6F 72 64 00 44  |pile-only word.D|
 B9EF  45 46 45 52 65 64 20 77 6F 72 64 20 6E 6F 74 20  |EFERed word not |
 B9FF  64 65 66 69 6E 65 64 20 79 65 74 00 44 69 76 69  |defined yet.Divi|
 BA0F  73 69 6F 6E 20 62 79 20 7A 65 72 6F 00 4E 6F 74  |sion by zero.Not|
 BA1F  20 69 6E 20 69 6E 74 65 72 70 72 65 74 20 6D 6F  | in interpret mo|
 BA2F  64 65 00 50 61 72 73 69 6E 67 20 66 61 69 6C 75  |de.Parsing failu|
 BA3F  72 65 00 4E 6F 20 73 75 63 68 20 78 74 20 66 6F  |re.No such xt fo|
 BA4F  75 6E 64 20 69 6E 20 44 69 63 74 69 6F 6E 61 72  |und in Dictionar|
 BA5F  79 00 44 69 67 69 74 20 6C 61 72 67 65 72 20 74  |y.Digit larger t|
 BA6F  68 61 6E 20 62 61 73 65 00 51 55 49 54 20 63 6F  |han base.QUIT co|
 BA7F  75 6C 64 20 6E 6F 74 20 67 65 74 20 69 6E 70 75  |uld not get inpu|
 BA8F  74 20 28 52 45 46 49 4C 4C 20 72 65 74 75 72 6E  |t (REFILL return|
 BA9F  65 64 20 2D 31 29 00 41 6C 72 65 61 64 79 20 69  |ed -1).Already i|
 BAAF  6E 20 63 6F 6D 70 69 6C 65 20 6D 6F 64 65 00 55  |n compile mode.U|
 BABF  6E 64 65 66 69 6E 65 64 20 77 6F 72 64 00 53 74  |ndefined word.St|
 BACF  61 63 6B 20 75 6E 64 65 72 66 6C 6F 77 00        |ack underflow.  |
 BADD  48        PHA  
 BADE  A9 20     LDA  #$20
 BAE0  80 03     BRA  $BAE5
 BAE2  48        PHA  
 BAE3  A9 4C     LDA  #$4C
 BAE5  20 ED BA  JSR  $BAED
 BAE8  68        PLA  
 BAE9  20 ED BA  JSR  $BAED
 BAEC  98        TYA  
 BAED  92 00     STA  ($00)
 BAEF  E6 00     INC  $00
 BAF1  D0 02     BNE  $BAF5
 BAF3  E6 01     INC  $01
 BAF5  60        RTS  
 BAF6  CA        DEX  
 BAF7  CA        DEX  
 BAF8  68        PLA  
 BAF9  85 20     STA  $20
 BAFB  68        PLA  
 BAFC  85 21     STA  $21
 BAFE  A0 01     LDY  #$01
 BB00  B1 20     LDA  ($20), Y
 BB02  95 00     STA  $00, X
 BB04  C8        INY  
 BB05  B1 20     LDA  ($20), Y
 BB07  95 01     STA  $01, X
 BB09  60        RTS  
 BB0A  68        PLA  
 BB0B  85 20     STA  $20
 BB0D  68        PLA  
 BB0E  85 21     STA  $21
 BB10  A0 01     LDY  #$01
 BB12  B1 20     LDA  ($20), Y
 BB14  85 22     STA  $22
 BB16  C8        INY  
 BB17  B1 20     LDA  ($20), Y
 BB19  85 23     STA  $23
 BB1B  6C 22 00  JMP  ($0022)
 BB1E  A9 02     LDA  #$02
 BB20  4C FD BB  JMP  $BBFD
 BB23  7A        PLY  
 BB24  68        PLA  
 BB25  C8        INY  
 BB26  D0 01     BNE  $BB29
 BB28  1A        INC  
 BB29  84 22     STY  $22
 BB2B  85 23     STA  $23
 BB2D  CA        DEX  
 BB2E  CA        DEX  
 BB2F  7A        PLY  
 BB30  68        PLA  
 BB31  C8        INY  
 BB32  18        CLC  
 BB33  D0 01     BNE  $BB36
 BB35  1A        INC  
 BB36  94 00     STY  $00, X
 BB38  95 01     STA  $01, X
 BB3A  6C 22 00  JMP  ($0022)
 BB3D  7A        PLY  
 BB3E  68        PLA  
 BB3F  C8        INY  
 BB40  D0 01     BNE  $BB43
 BB42  1A        INC  
 BB43  CA        DEX  
 BB44  CA        DEX  
 BB45  95 01     STA  $01, X
 BB47  98        TYA  
 BB48  95 00     STA  $00, X
 BB4A  60        RTS  
 BB4B  48        PHA  
 BB4C  4A        LSR  
 BB4D  4A        LSR  
 BB4E  4A        LSR  
 BB4F  4A        LSR  
 BB50  20 54 BB  JSR  $BB54
 BB53  68        PLA  
 BB54  29 0F     AND  #$0F
 BB56  09 30     ORA  #$30
 BB58  C9 3A     CMP  #$3A
 BB5A  90 02     BCC  $BB5E
 BB5C  69 06     ADC  #$06
 BB5E  4C 30 8A  JMP  $8A30
 BB61  60        RTS  
 BB62  B5 00     LDA  $00, X
 BB64  D5 02     CMP  $02, X
 BB66  F0 0A     BEQ  $BB72
 BB68  B5 01     LDA  $01, X
 BB6A  F5 03     SBC  $03, X
 BB6C  09 01     ORA  #$01
 BB6E  70 08     BVS  $BB78
 BB70  80 08     BRA  $BB7A
 BB72  B5 01     LDA  $01, X
 BB74  F5 03     SBC  $03, X
 BB76  50 04     BVC  $BB7C
 BB78  49 80     EOR  #$80
 BB7A  09 01     ORA  #$01
 BB7C  60        RTS  
 BB7D  20 C8 91  JSR  $91C8
 BB80  B5 00     LDA  $00, X
 BB82  15 01     ORA  $01, X
 BB84  F0 70     BEQ  $BBF6
 BB86  20 15 99  JSR  $9915
 BB89  20 92 8B  JSR  $8B92
 BB8C  B5 00     LDA  $00, X
 BB8E  15 01     ORA  $01, X
 BB90  D0 28     BNE  $BBBA
 BB92  E8        INX  
 BB93  E8        INX  
 BB94  20 35 90  JSR  $9035
 BB97  A5 16     LDA  $16
 BB99  F0 E2     BEQ  $BB7D
 BB9B  A9 20     LDA  #$20
 BB9D  24 34     BIT  $34
 BB9F  F0 0D     BEQ  $BBAE
 BBA1  20 51 97  JSR  $9751
 BBA4  A0 8D     LDY  #$8D
 BBA6  A9 A3     LDA  #$A3
 BBA8  20 DD BA  JSR  $BADD
 BBAB  20 A8 84  JSR  $84A8
 BBAE  A0 8D     LDY  #$8D
 BBB0  A9 A3     LDA  #$A3
 BBB2  20 DD BA  JSR  $BADD
 BBB5  20 A8 84  JSR  $84A8
 BBB8  80 C3     BRA  $BB7D
 BBBA  B5 00     LDA  $00, X
 BBBC  95 04     STA  $04, X
 BBBE  B5 01     LDA  $01, X
 BBC0  95 05     STA  $05, X
 BBC2  E8        INX  
 BBC3  E8        INX  
 BBC4  E8        INX  
 BBC5  E8        INX  
 BBC6  B5 00     LDA  $00, X
 BBC8  85 1E     STA  $1E
 BBCA  B5 01     LDA  $01, X
 BBCC  85 1F     STA  $1F
 BBCE  20 79 8F  JSR  $8F79
 BBD1  A5 16     LDA  $16
 BBD3  D0 13     BNE  $BBE8
 BBD5  A0 01     LDY  #$01
 BBD7  B1 1E     LDA  ($1E), Y
 BBD9  29 01     AND  #$01
 BBDB  F0 05     BEQ  $BBE2
 BBDD  A9 01     LDA  #$01
 BBDF  4C FD BB  JMP  $BBFD
 BBE2  20 0F 8B  JSR  $8B0F
 BBE5  4C 7D BB  JMP  $BB7D
 BBE8  A0 01     LDY  #$01
 BBEA  B1 1E     LDA  ($1E), Y
 BBEC  29 04     AND  #$04
 BBEE  D0 F2     BNE  $BBE2
 BBF0  20 2F 85  JSR  $852F
 BBF3  4C 7D BB  JMP  $BB7D
 BBF6  E8        INX  
 BBF7  E8        INX  
 BBF8  E8        INX  
 BBF9  E8        INX  
 BBFA  60        RTS  
 BBFB  A9 0B     LDA  #$0B
 BBFD  0A        ASL  
 BBFE  A8        TAY  
 BBFF  B9 70 B9  LDA  $B970, Y
 BC02  85 24     STA  $24
 BC04  C8        INY  
 BC05  B9 70 B9  LDA  $B970, Y
 BC08  85 25     STA  $25
 BC0A  20 1D BC  JSR  $BC1D
 BC0D  4C 9E 80  JMP  $809E
 BC10  0A        ASL  
 BC11  A8        TAY  
 BC12  B9 0E B9  LDA  $B90E, Y
 BC15  85 24     STA  $24
 BC17  C8        INY  
 BC18  B9 0E B9  LDA  $B90E, Y
 BC1B  85 25     STA  $25
 BC1D  20 26 BC  JSR  $BC26
 BC20  A9 0A     LDA  #$0A
 BC22  20 30 8A  JSR  $8A30
 BC25  60        RTS  
 BC26  A0 00     LDY  #$00
 BC28  B1 24     LDA  ($24), Y
 BC2A  F0 06     BEQ  $BC32
 BC2C  20 30 8A  JSR  $8A30
 BC2F  C8        INY  
 BC30  80 F6     BRA  $BC28
 BC32  60        RTS  
 BC33  CA        DEX  
 BC34  CA        DEX  
 BC35  74 00     STZ  $00, X
 BC37  74 01     STZ  $01, X
 BC39  20 6A 8D  JSR  $8D6A
 BC3C  20 2B 91  JSR  $912B
 BC3F  20 05 91  JSR  $9105
 BC42  20 4E 9A  JSR  $9A4E
 BC45  60        RTS  
 BC46  00 00 00 00 00 00 00 00 00 00 00 00 00 00 00 00  |................|
 BC56  00 00 00 00 00 00 00 00 00 00 00 00 00 00 00 00  |................|
 BC66  00 00 00 00 00 00 00 00 00 00 00 00 00 00 00 00  |................|
 BC76  00 00 00 00 00 00 00 00 00 00 00 00 00 00 00 00  |................|
 BC86  00 00 00 00 00 00 00 00 00 00 00 00 00 00 00 00  |................|
 BC96  00 00 00 00 00 00 00 00 00 00 00 00 00 00 00 00  |................|
 BCA6  00 00 00 00 00 00 00 00 00 00 00 00 00 00 00 00  |................|
 BCB6  00 00 00 00 00 00 00 00 00 00 00 00 00 00 00 00  |................|
 BCC6  00 00 00 00 00 00 00 00 00 00 00 00 00 00 00 00  |................|
 BCD6  00 00 00 00 00 00 00 00 00 00 00 00 00 00 00 00  |................|
 BCE6  00 00 00 00 00 00 00 00 00 00 00 00 00 00 00 00  |................|
 BCF6  00 00 00 00 00 00 00 00 00 00 00 00 00 00 00 00  |................|
 BD06  00 00 00 00 00 00 00 00 00 00 00 00 00 00 00 00  |................|
 BD16  00 00 00 00 00 00 00 00 00 00 00 00 00 00 00 00  |................|
 BD26  00 00 00 00 00 00 00 00 00 00 00 00 00 00 00 00  |................|
 BD36  00 00 00 00 00 00 00 00 00 00 00 00 00 00 00 00  |................|
 BD46  00 00 00 00 00 00 00 00 00 00 00 00 00 00 00 00  |................|
 BD56  00 00 00 00 00 00 00 00 00 00 00 00 00 00 00 00  |................|
 BD66  00 00 00 00 00 00 00 00 00 00 00 00 00 00 00 00  |................|
 BD76  00 00 00 00 00 00 00 00 00 00 00 00 00 00 00 00  |................|
 BD86  00 00 00 00 00 00 00 00 00 00 00 00 00 00 00 00  |................|
 BD96  00 00 00 00 00 00 00 00 00 00 00 00 00 00 00 00  |................|
 BDA6  00 00 00 00 00 00 00 00 00 00 00 00 00 00 00 00  |................|
 BDB6  00 00 00 00 00 00 00 00 00 00 00 00 00 00 00 00  |................|
 BDC6  00 00 00 00 00 00 00 00 00 00 00 00 00 00 00 00  |................|
 BDD6  00 00 00 00 00 00 00 00 00 00 00 00 00 00 00 00  |................|
 BDE6  00 00 00 00 00 00 00 00 00 00 00 00 00 00 00 00  |................|
 BDF6  00 00 00 00 00 00 00 00 00 00 00 00 00 00 00 00  |................|
 BE06  00 00 00 00 00 00 00 00 00 00 00 00 00 00 00 00  |................|
 BE16  00 00 00 00 00 00 00 00 00 00 00 00 00 00 00 00  |................|
 BE26  00 00 00 00 00 00 00 00 00 00 00 00 00 00 00 00  |................|
 BE36  00 00 00 00 00 00 00 00 00 00 00 00 00 00 00 00  |................|
 BE46  00 00 00 00 00 00 00 00 00 00 00 00 00 00 00 00  |................|
 BE56  00 00 00 00 00 00 00 00 00 00 00 00 00 00 00 00  |................|
 BE66  00 00 00 00 00 00 00 00 00 00 00 00 00 00 00 00  |................|
 BE76  00 00 00 00 00 00 00 00 00 00 00 00 00 00 00 00  |................|
 BE86  00 00 00 00 00 00 00 00 00 00 00 00 00 00 00 00  |................|
 BE96  00 00 00 00 00 00 00 00 00 00 00 00 00 00 00 00  |................|
 BEA6  00 00 00 00 00 00 00 00 00 00 00 00 00 00 00 00  |................|
 BEB6  00 00 00 00 00 00 00 00 00 00 00 00 00 00 00 00  |................|
 BEC6  00 00 00 00 00 00 00 00 00 00 00 00 00 00 00 00  |................|
 BED6  00 00 00 00 00 00 00 00 00 00 00 00 00 00 00 00  |................|
 BEE6  00 00 00 00 00 00 00 00 00 00 00 00 00 00 00 00  |................|
 BEF6  00 00 00 00 00 00 00 00 00 00 00 00 00 00 00 00  |................|
 BF06  00 00 00 00 00 00 00 00 00 00 00 00 00 00 00 00  |................|
 BF16  00 00 00 00 00 00 00 00 00 00 00 00 00 00 00 00  |................|
 BF26  00 00 00 00 00 00 00 00 00 00 00 00 00 00 00 00  |................|
 BF36  00 00 00 00 00 00 00 00 00 00 00 00 00 00 00 00  |................|
 BF46  00 00 00 00 00 00 00 00 00 00 00 00 00 00 00 00  |................|
 BF56  00 00 00 00 00 00 00 00 00 00 00 00 00 00 00 00  |................|
 BF66  00 00 00 00 00 00 00 00 00 00 00 00 00 00 00 00  |................|
 BF76  00 00 00 00 00 00 00 00 00 00 00 00 00 00 00 00  |................|
 BF86  00 00 00 00 00 00 00 00 00 00 00 00 00 00 00 00  |................|
 BF96  00 00 00 00 00 00 00 00 00 00 00 00 00 00 00 00  |................|
 BFA6  00 00 00 00 00 00 00 00 00 00 00 00 00 00 00 00  |................|
 BFB6  00 00 00 00 00 00 00 00 00 00 00 00 00 00 00 00  |................|
 BFC6  00 00 00 00 00 00 00 00 00 00 00 00 00 00 00 00  |................|
 BFD6  00 00 00 00 00 00 00 00 00 00 00 00 00 00 00 00  |................|
 BFE6  00 00 00 00 00 00 00 00 00 00 00 00 00 00 00 00  |................|
 BFF6  00 00 00 00 00 00 00 00 00 00 00 00 00 00 00 00  |................|
 C006  00 00 00 00 00 00 00 00 00 00 00 00 00 00 00 00  |................|
 C016  00 00 00 00 00 00 00 00 00 00 00 00 00 00 00 00  |................|
 C026  00 00 00 00 00 00 00 00 00 00 00 00 00 00 00 00  |................|
 C036  00 00 00 00 00 00 00 00 00 00 00 00 00 00 00 00  |................|
 C046  00 00 00 00 00 00 00 00 00 00 00 00 00 00 00 00  |................|
 C056  00 00 00 00 00 00 00 00 00 00 00 00 00 00 00 00  |................|
 C066  00 00 00 00 00 00 00 00 00 00 00 00 00 00 00 00  |................|
 C076  00 00 00 00 00 00 00 00 00 00 00 00 00 00 00 00  |................|
 C086  00 00 00 00 00 00 00 00 00 00 00 00 00 00 00 00  |................|
 C096  00 00 00 00 00 00 00 00 00 00 00 00 00 00 00 00  |................|
 C0A6  00 00 00 00 00 00 00 00 00 00 00 00 00 00 00 00  |................|
 C0B6  00 00 00 00 00 00 00 00 00 00 00 00 00 00 00 00  |................|
 C0C6  00 00 00 00 00 00 00 00 00 00 00 00 00 00 00 00  |................|
 C0D6  00 00 00 00 00 00 00 00 00 00 00 00 00 00 00 00  |................|
 C0E6  00 00 00 00 00 00 00 00 00 00 00 00 00 00 00 00  |................|
 C0F6  00 00 00 00 00 00 00 00 00 00 00 00 00 00 00 00  |................|
 C106  00 00 00 00 00 00 00 00 00 00 00 00 00 00 00 00  |................|
 C116  00 00 00 00 00 00 00 00 00 00 00 00 00 00 00 00  |................|
 C126  00 00 00 00 00 00 00 00 00 00 00 00 00 00 00 00  |................|
 C136  00 00 00 00 00 00 00 00 00 00 00 00 00 00 00 00  |................|
 C146  00 00 00 00 00 00 00 00 00 00 00 00 00 00 00 00  |................|
 C156  00 00 00 00 00 00 00 00 00 00 00 00 00 00 00 00  |................|
 C166  00 00 00 00 00 00 00 00 00 00 00 00 00 00 00 00  |................|
 C176  00 00 00 00 00 00 00 00 00 00 00 00 00 00 00 00  |................|
 C186  00 00 00 00 00 00 00 00 00 00 00 00 00 00 00 00  |................|
 C196  00 00 00 00 00 00 00 00 00 00 00 00 00 00 00 00  |................|
 C1A6  00 00 00 00 00 00 00 00 00 00 00 00 00 00 00 00  |................|
 C1B6  00 00 00 00 00 00 00 00 00 00 00 00 00 00 00 00  |................|
 C1C6  00 00 00 00 00 00 00 00 00 00 00 00 00 00 00 00  |................|
 C1D6  00 00 00 00 00 00 00 00 00 00 00 00 00 00 00 00  |................|
 C1E6  00 00 00 00 00 00 00 00 00 00 00 00 00 00 00 00  |................|
 C1F6  00 00 00 00 00 00 00 00 00 00 00 00 00 00 00 00  |................|
 C206  00 00 00 00 00 00 00 00 00 00 00 00 00 00 00 00  |................|
 C216  00 00 00 00 00 00 00 00 00 00 00 00 00 00 00 00  |................|
 C226  00 00 00 00 00 00 00 00 00 00 00 00 00 00 00 00  |................|
 C236  00 00 00 00 00 00 00 00 00 00 00 00 00 00 00 00  |................|
 C246  00 00 00 00 00 00 00 00 00 00 00 00 00 00 00 00  |................|
 C256  00 00 00 00 00 00 00 00 00 00 00 00 00 00 00 00  |................|
 C266  00 00 00 00 00 00 00 00 00 00 00 00 00 00 00 00  |................|
 C276  00 00 00 00 00 00 00 00 00 00 00 00 00 00 00 00  |................|
 C286  00 00 00 00 00 00 00 00 00 00 00 00 00 00 00 00  |................|
 C296  00 00 00 00 00 00 00 00 00 00 00 00 00 00 00 00  |................|
 C2A6  00 00 00 00 00 00 00 00 00 00 00 00 00 00 00 00  |................|
 C2B6  00 00 00 00 00 00 00 00 00 00 00 00 00 00 00 00  |................|
 C2C6  00 00 00 00 00 00 00 00 00 00 00 00 00 00 00 00  |................|
 C2D6  00 00 00 00 00 00 00 00 00 00 00 00 00 00 00 00  |................|
 C2E6  00 00 00 00 00 00 00 00 00 00 00 00 00 00 00 00  |................|
 C2F6  00 00 00 00 00 00 00 00 00 00 00 00 00 00 00 00  |................|
 C306  00 00 00 00 00 00 00 00 00 00 00 00 00 00 00 00  |................|
 C316  00 00 00 00 00 00 00 00 00 00 00 00 00 00 00 00  |................|
 C326  00 00 00 00 00 00 00 00 00 00 00 00 00 00 00 00  |................|
 C336  00 00 00 00 00 00 00 00 00 00 00 00 00 00 00 00  |................|
 C346  00 00 00 00 00 00 00 00 00 00 00 00 00 00 00 00  |................|
 C356  00 00 00 00 00 00 00 00 00 00 00 00 00 00 00 00  |................|
 C366  00 00 00 00 00 00 00 00 00 00 00 00 00 00 00 00  |................|
 C376  00 00 00 00 00 00 00 00 00 00 00 00 00 00 00 00  |................|
 C386  00 00 00 00 00 00 00 00 00 00 00 00 00 00 00 00  |................|
 C396  00 00 00 00 00 00 00 00 00 00 00 00 00 00 00 00  |................|
 C3A6  00 00 00 00 00 00 00 00 00 00 00 00 00 00 00 00  |................|
 C3B6  00 00 00 00 00 00 00 00 00 00 00 00 00 00 00 00  |................|
 C3C6  00 00 00 00 00 00 00 00 00 00 00 00 00 00 00 00  |................|
 C3D6  00 00 00 00 00 00 00 00 00 00 00 00 00 00 00 00  |................|
 C3E6  00 00 00 00 00 00 00 00 00 00 00 00 00 00 00 00  |................|
 C3F6  00 00 00 00 00 00 00 00 00 00 00 00 00 00 00 00  |................|
 C406  00 00 00 00 00 00 00 00 00 00 00 00 00 00 00 00  |................|
 C416  00 00 00 00 00 00 00 00 00 00 00 00 00 00 00 00  |................|
 C426  00 00 00 00 00 00 00 00 00 00 00 00 00 00 00 00  |................|
 C436  00 00 00 00 00 00 00 00 00 00 00 00 00 00 00 00  |................|
 C446  00 00 00 00 00 00 00 00 00 00 00 00 00 00 00 00  |................|
 C456  00 00 00 00 00 00 00 00 00 00 00 00 00 00 00 00  |................|
 C466  00 00 00 00 00 00 00 00 00 00 00 00 00 00 00 00  |................|
 C476  00 00 00 00 00 00 00 00 00 00 00 00 00 00 00 00  |................|
 C486  00 00 00 00 00 00 00 00 00 00 00 00 00 00 00 00  |................|
 C496  00 00 00 00 00 00 00 00 00 00 00 00 00 00 00 00  |................|
 C4A6  00 00 00 00 00 00 00 00 00 00 00 00 00 00 00 00  |................|
 C4B6  00 00 00 00 00 00 00 00 00 00 00 00 00 00 00 00  |................|
 C4C6  00 00 00 00 00 00 00 00 00 00 00 00 00 00 00 00  |................|
 C4D6  00 00 00 00 00 00 00 00 00 00 00 00 00 00 00 00  |................|
 C4E6  00 00 00 00 00 00 00 00 00 00 00 00 00 00 00 00  |................|
 C4F6  00 00 00 00 00 00 00 00 00 00 00 00 00 00 00 00  |................|
 C506  00 00 00 00 00 00 00 00 00 00 00 00 00 00 00 00  |................|
 C516  00 00 00 00 00 00 00 00 00 00 00 00 00 00 00 00  |................|
 C526  00 00 00 00 00 00 00 00 00 00 00 00 00 00 00 00  |................|
 C536  00 00 00 00 00 00 00 00 00 00 00 00 00 00 00 00  |................|
 C546  00 00 00 00 00 00 00 00 00 00 00 00 00 00 00 00  |................|
 C556  00 00 00 00 00 00 00 00 00 00 00 00 00 00 00 00  |................|
 C566  00 00 00 00 00 00 00 00 00 00 00 00 00 00 00 00  |................|
 C576  00 00 00 00 00 00 00 00 00 00 00 00 00 00 00 00  |................|
 C586  00 00 00 00 00 00 00 00 00 00 00 00 00 00 00 00  |................|
 C596  00 00 00 00 00 00 00 00 00 00 00 00 00 00 00 00  |................|
 C5A6  00 00 00 00 00 00 00 00 00 00 00 00 00 00 00 00  |................|
 C5B6  00 00 00 00 00 00 00 00 00 00 00 00 00 00 00 00  |................|
 C5C6  00 00 00 00 00 00 00 00 00 00 00 00 00 00 00 00  |................|
 C5D6  00 00 00 00 00 00 00 00 00 00 00 00 00 00 00 00  |................|
 C5E6  00 00 00 00 00 00 00 00 00 00 00 00 00 00 00 00  |................|
 C5F6  00 00 00 00 00 00 00 00 00 00 00 00 00 00 00 00  |................|
 C606  00 00 00 00 00 00 00 00 00 00 00 00 00 00 00 00  |................|
 C616  00 00 00 00 00 00 00 00 00 00 00 00 00 00 00 00  |................|
 C626  00 00 00 00 00 00 00 00 00 00 00 00 00 00 00 00  |................|
 C636  00 00 00 00 00 00 00 00 00 00 00 00 00 00 00 00  |................|
 C646  00 00 00 00 00 00 00 00 00 00 00 00 00 00 00 00  |................|
 C656  00 00 00 00 00 00 00 00 00 00 00 00 00 00 00 00  |................|
 C666  00 00 00 00 00 00 00 00 00 00 00 00 00 00 00 00  |................|
 C676  00 00 00 00 00 00 00 00 00 00 00 00 00 00 00 00  |................|
 C686  00 00 00 00 00 00 00 00 00 00 00 00 00 00 00 00  |................|
 C696  00 00 00 00 00 00 00 00 00 00 00 00 00 00 00 00  |................|
 C6A6  00 00 00 00 00 00 00 00 00 00 00 00 00 00 00 00  |................|
 C6B6  00 00 00 00 00 00 00 00 00 00 00 00 00 00 00 00  |................|
 C6C6  00 00 00 00 00 00 00 00 00 00 00 00 00 00 00 00  |................|
 C6D6  00 00 00 00 00 00 00 00 00 00 00 00 00 00 00 00  |................|
 C6E6  00 00 00 00 00 00 00 00 00 00 00 00 00 00 00 00  |................|
 C6F6  00 00 00 00 00 00 00 00 00 00 00 00 00 00 00 00  |................|
 C706  00 00 00 00 00 00 00 00 00 00 00 00 00 00 00 00  |................|
 C716  00 00 00 00 00 00 00 00 00 00 00 00 00 00 00 00  |................|
 C726  00 00 00 00 00 00 00 00 00 00 00 00 00 00 00 00  |................|
 C736  00 00 00 00 00 00 00 00 00 00 00 00 00 00 00 00  |................|
 C746  00 00 00 00 00 00 00 00 00 00 00 00 00 00 00 00  |................|
 C756  00 00 00 00 00 00 00 00 00 00 00 00 00 00 00 00  |................|
 C766  00 00 00 00 00 00 00 00 00 00 00 00 00 00 00 00  |................|
 C776  00 00 00 00 00 00 00 00 00 00 00 00 00 00 00 00  |................|
 C786  00 00 00 00 00 00 00 00 00 00 00 00 00 00 00 00  |................|
 C796  00 00 00 00 00 00 00 00 00 00 00 00 00 00 00 00  |................|
 C7A6  00 00 00 00 00 00 00 00 00 00 00 00 00 00 00 00  |................|
 C7B6  00 00 00 00 00 00 00 00 00 00 00 00 00 00 00 00  |................|
 C7C6  00 00 00 00 00 00 00 00 00 00 00 00 00 00 00 00  |................|
 C7D6  00 00 00 00 00 00 00 00 00 00 00 00 00 00 00 00  |................|
 C7E6  00 00 00 00 00 00 00 00 00 00 00 00 00 00 00 00  |................|
 C7F6  00 00 00 00 00 00 00 00 00 00 00 00 00 00 00 00  |................|
 C806  00 00 00 00 00 00 00 00 00 00 00 00 00 00 00 00  |................|
 C816  00 00 00 00 00 00 00 00 00 00 00 00 00 00 00 00  |................|
 C826  00 00 00 00 00 00 00 00 00 00 00 00 00 00 00 00  |................|
 C836  00 00 00 00 00 00 00 00 00 00 00 00 00 00 00 00  |................|
 C846  00 00 00 00 00 00 00 00 00 00 00 00 00 00 00 00  |................|
 C856  00 00 00 00 00 00 00 00 00 00 00 00 00 00 00 00  |................|
 C866  00 00 00 00 00 00 00 00 00 00 00 00 00 00 00 00  |................|
 C876  00 00 00 00 00 00 00 00 00 00 00 00 00 00 00 00  |................|
 C886  00 00 00 00 00 00 00 00 00 00 00 00 00 00 00 00  |................|
 C896  00 00 00 00 00 00 00 00 00 00 00 00 00 00 00 00  |................|
 C8A6  00 00 00 00 00 00 00 00 00 00 00 00 00 00 00 00  |................|
 C8B6  00 00 00 00 00 00 00 00 00 00 00 00 00 00 00 00  |................|
 C8C6  00 00 00 00 00 00 00 00 00 00 00 00 00 00 00 00  |................|
 C8D6  00 00 00 00 00 00 00 00 00 00 00 00 00 00 00 00  |................|
 C8E6  00 00 00 00 00 00 00 00 00 00 00 00 00 00 00 00  |................|
 C8F6  00 00 00 00 00 00 00 00 00 00 00 00 00 00 00 00  |................|
 C906  00 00 00 00 00 00 00 00 00 00 00 00 00 00 00 00  |................|
 C916  00 00 00 00 00 00 00 00 00 00 00 00 00 00 00 00  |................|
 C926  00 00 00 00 00 00 00 00 00 00 00 00 00 00 00 00  |................|
 C936  00 00 00 00 00 00 00 00 00 00 00 00 00 00 00 00  |................|
 C946  00 00 00 00 00 00 00 00 00 00 00 00 00 00 00 00  |................|
 C956  00 00 00 00 00 00 00 00 00 00 00 00 00 00 00 00  |................|
 C966  00 00 00 00 00 00 00 00 00 00 00 00 00 00 00 00  |................|
 C976  00 00 00 00 00 00 00 00 00 00 00 00 00 00 00 00  |................|
 C986  00 00 00 00 00 00 00 00 00 00 00 00 00 00 00 00  |................|
 C996  00 00 00 00 00 00 00 00 00 00 00 00 00 00 00 00  |................|
 C9A6  00 00 00 00 00 00 00 00 00 00 00 00 00 00 00 00  |................|
 C9B6  00 00 00 00 00 00 00 00 00 00 00 00 00 00 00 00  |................|
 C9C6  00 00 00 00 00 00 00 00 00 00 00 00 00 00 00 00  |................|
 C9D6  00 00 00 00 00 00 00 00 00 00 00 00 00 00 00 00  |................|
 C9E6  00 00 00 00 00 00 00 00 00 00 00 00 00 00 00 00  |................|
 C9F6  00 00 00 00 00 00 00 00 00 00 00 00 00 00 00 00  |................|
 CA06  00 00 00 00 00 00 00 00 00 00 00 00 00 00 00 00  |................|
 CA16  00 00 00 00 00 00 00 00 00 00 00 00 00 00 00 00  |................|
 CA26  00 00 00 00 00 00 00 00 00 00 00 00 00 00 00 00  |................|
 CA36  00 00 00 00 00 00 00 00 00 00 00 00 00 00 00 00  |................|
 CA46  00 00 00 00 00 00 00 00 00 00 00 00 00 00 00 00  |................|
 CA56  00 00 00 00 00 00 00 00 00 00 00 00 00 00 00 00  |................|
 CA66  00 00 00 00 00 00 00 00 00 00 00 00 00 00 00 00  |................|
 CA76  00 00 00 00 00 00 00 00 00 00 00 00 00 00 00 00  |................|
 CA86  00 00 00 00 00 00 00 00 00 00 00 00 00 00 00 00  |................|
 CA96  00 00 00 00 00 00 00 00 00 00 00 00 00 00 00 00  |................|
 CAA6  00 00 00 00 00 00 00 00 00 00 00 00 00 00 00 00  |................|
 CAB6  00 00 00 00 00 00 00 00 00 00 00 00 00 00 00 00  |................|
 CAC6  00 00 00 00 00 00 00 00 00 00 00 00 00 00 00 00  |................|
 CAD6  00 00 00 00 00 00 00 00 00 00 00 00 00 00 00 00  |................|
 CAE6  00 00 00 00 00 00 00 00 00 00 00 00 00 00 00 00  |................|
 CAF6  00 00 00 00 00 00 00 00 00 00 00 00 00 00 00 00  |................|
 CB06  00 00 00 00 00 00 00 00 00 00 00 00 00 00 00 00  |................|
 CB16  00 00 00 00 00 00 00 00 00 00 00 00 00 00 00 00  |................|
 CB26  00 00 00 00 00 00 00 00 00 00 00 00 00 00 00 00  |................|
 CB36  00 00 00 00 00 00 00 00 00 00 00 00 00 00 00 00  |................|
 CB46  00 00 00 00 00 00 00 00 00 00 00 00 00 00 00 00  |................|
 CB56  00 00 00 00 00 00 00 00 00 00 00 00 00 00 00 00  |................|
 CB66  00 00 00 00 00 00 00 00 00 00 00 00 00 00 00 00  |................|
 CB76  00 00 00 00 00 00 00 00 00 00 00 00 00 00 00 00  |................|
 CB86  00 00 00 00 00 00 00 00 00 00 00 00 00 00 00 00  |................|
 CB96  00 00 00 00 00 00 00 00 00 00 00 00 00 00 00 00  |................|
 CBA6  00 00 00 00 00 00 00 00 00 00 00 00 00 00 00 00  |................|
 CBB6  00 00 00 00 00 00 00 00 00 00 00 00 00 00 00 00  |................|
 CBC6  00 00 00 00 00 00 00 00 00 00 00 00 00 00 00 00  |................|
 CBD6  00 00 00 00 00 00 00 00 00 00 00 00 00 00 00 00  |................|
 CBE6  00 00 00 00 00 00 00 00 00 00 00 00 00 00 00 00  |................|
 CBF6  00 00 00 00 00 00 00 00 00 00 00 00 00 00 00 00  |................|
 CC06  00 00 00 00 00 00 00 00 00 00 00 00 00 00 00 00  |................|
 CC16  00 00 00 00 00 00 00 00 00 00 00 00 00 00 00 00  |................|
 CC26  00 00 00 00 00 00 00 00 00 00 00 00 00 00 00 00  |................|
 CC36  00 00 00 00 00 00 00 00 00 00 00 00 00 00 00 00  |................|
 CC46  00 00 00 00 00 00 00 00 00 00 00 00 00 00 00 00  |................|
 CC56  00 00 00 00 00 00 00 00 00 00 00 00 00 00 00 00  |................|
 CC66  00 00 00 00 00 00 00 00 00 00 00 00 00 00 00 00  |................|
 CC76  00 00 00 00 00 00 00 00 00 00 00 00 00 00 00 00  |................|
 CC86  00 00 00 00 00 00 00 00 00 00 00 00 00 00 00 00  |................|
 CC96  00 00 00 00 00 00 00 00 00 00 00 00 00 00 00 00  |................|
 CCA6  00 00 00 00 00 00 00 00 00 00 00 00 00 00 00 00  |................|
 CCB6  00 00 00 00 00 00 00 00 00 00 00 00 00 00 00 00  |................|
 CCC6  00 00 00 00 00 00 00 00 00 00 00 00 00 00 00 00  |................|
 CCD6  00 00 00 00 00 00 00 00 00 00 00 00 00 00 00 00  |................|
 CCE6  00 00 00 00 00 00 00 00 00 00 00 00 00 00 00 00  |................|
 CCF6  00 00 00 00 00 00 00 00 00 00 00 00 00 00 00 00  |................|
 CD06  00 00 00 00 00 00 00 00 00 00 00 00 00 00 00 00  |................|
 CD16  00 00 00 00 00 00 00 00 00 00 00 00 00 00 00 00  |................|
 CD26  00 00 00 00 00 00 00 00 00 00 00 00 00 00 00 00  |................|
 CD36  00 00 00 00 00 00 00 00 00 00 00 00 00 00 00 00  |................|
 CD46  00 00 00 00 00 00 00 00 00 00 00 00 00 00 00 00  |................|
 CD56  00 00 00 00 00 00 00 00 00 00 00 00 00 00 00 00  |................|
 CD66  00 00 00 00 00 00 00 00 00 00 00 00 00 00 00 00  |................|
 CD76  00 00 00 00 00 00 00 00 00 00 00 00 00 00 00 00  |................|
 CD86  00 00 00 00 00 00 00 00 00 00 00 00 00 00 00 00  |................|
 CD96  00 00 00 00 00 00 00 00 00 00 00 00 00 00 00 00  |................|
 CDA6  00 00 00 00 00 00 00 00 00 00 00 00 00 00 00 00  |................|
 CDB6  00 00 00 00 00 00 00 00 00 00 00 00 00 00 00 00  |................|
 CDC6  00 00 00 00 00 00 00 00 00 00 00 00 00 00 00 00  |................|
 CDD6  00 00 00 00 00 00 00 00 00 00 00 00 00 00 00 00  |................|
 CDE6  00 00 00 00 00 00 00 00 00 00 00 00 00 00 00 00  |................|
 CDF6  00 00 00 00 00 00 00 00 00 00 00 00 00 00 00 00  |................|
 CE06  00 00 00 00 00 00 00 00 00 00 00 00 00 00 00 00  |................|
 CE16  00 00 00 00 00 00 00 00 00 00 00 00 00 00 00 00  |................|
 CE26  00 00 00 00 00 00 00 00 00 00 00 00 00 00 00 00  |................|
 CE36  00 00 00 00 00 00 00 00 00 00 00 00 00 00 00 00  |................|
 CE46  00 00 00 00 00 00 00 00 00 00 00 00 00 00 00 00  |................|
 CE56  00 00 00 00 00 00 00 00 00 00 00 00 00 00 00 00  |................|
 CE66  00 00 00 00 00 00 00 00 00 00 00 00 00 00 00 00  |................|
 CE76  00 00 00 00 00 00 00 00 00 00 00 00 00 00 00 00  |................|
 CE86  00 00 00 00 00 00 00 00 00 00 00 00 00 00 00 00  |................|
 CE96  00 00 00 00 00 00 00 00 00 00 00 00 00 00 00 00  |................|
 CEA6  00 00 00 00 00 00 00 00 00 00 00 00 00 00 00 00  |................|
 CEB6  00 00 00 00 00 00 00 00 00 00 00 00 00 00 00 00  |................|
 CEC6  00 00 00 00 00 00 00 00 00 00 00 00 00 00 00 00  |................|
 CED6  00 00 00 00 00 00 00 00 00 00 00 00 00 00 00 00  |................|
 CEE6  00 00 00 00 00 00 00 00 00 00 00 00 00 00 00 00  |................|
 CEF6  00 00 00 00 00 00 00 00 00 00 00 00 00 00 00 00  |................|
 CF06  00 00 00 00 00 00 00 00 00 00 00 00 00 00 00 00  |................|
 CF16  00 00 00 00 00 00 00 00 00 00 00 00 00 00 00 00  |................|
 CF26  00 00 00 00 00 00 00 00 00 00 00 00 00 00 00 00  |................|
 CF36  00 00 00 00 00 00 00 00 00 00 00 00 00 00 00 00  |................|
 CF46  00 00 00 00 00 00 00 00 00 00 00 00 00 00 00 00  |................|
 CF56  00 00 00 00 00 00 00 00 00 00 00 00 00 00 00 00  |................|
 CF66  00 00 00 00 00 00 00 00 00 00 00 00 00 00 00 00  |................|
 CF76  00 00 00 00 00 00 00 00 00 00 00 00 00 00 00 00  |................|
 CF86  00 00 00 00 00 00 00 00 00 00 00 00 00 00 00 00  |................|
 CF96  00 00 00 00 00 00 00 00 00 00 00 00 00 00 00 00  |................|
 CFA6  00 00 00 00 00 00 00 00 00 00 00 00 00 00 00 00  |................|
 CFB6  00 00 00 00 00 00 00 00 00 00 00 00 00 00 00 00  |................|
 CFC6  00 00 00 00 00 00 00 00 00 00 00 00 00 00 00 00  |................|
 CFD6  00 00 00 00 00 00 00 00 00 00 00 00 00 00 00 00  |................|
 CFE6  00 00 00 00 00 00 00 00 00 00 00 00 00 00 00 00  |................|
 CFF6  00 00 00 00 00 00 00 00 00 00 00 00 00 00 00 00  |................|
 D006  00 00 00 00 00 00 00 00 00 00 00 00 00 00 00 00  |................|
 D016  00 00 00 00 00 00 00 00 00 00 00 00 00 00 00 00  |................|
 D026  00 00 00 00 00 00 00 00 00 00 00 00 00 00 00 00  |................|
 D036  00 00 00 00 00 00 00 00 00 00 00 00 00 00 00 00  |................|
 D046  00 00 00 00 00 00 00 00 00 00 00 00 00 00 00 00  |................|
 D056  00 00 00 00 00 00 00 00 00 00 00 00 00 00 00 00  |................|
 D066  00 00 00 00 00 00 00 00 00 00 00 00 00 00 00 00  |................|
 D076  00 00 00 00 00 00 00 00 00 00 00 00 00 00 00 00  |................|
 D086  00 00 00 00 00 00 00 00 00 00 00 00 00 00 00 00  |................|
 D096  00 00 00 00 00 00 00 00 00 00 00 00 00 00 00 00  |................|
 D0A6  00 00 00 00 00 00 00 00 00 00 00 00 00 00 00 00  |................|
 D0B6  00 00 00 00 00 00 00 00 00 00 00 00 00 00 00 00  |................|
 D0C6  00 00 00 00 00 00 00 00 00 00 00 00 00 00 00 00  |................|
 D0D6  00 00 00 00 00 00 00 00 00 00 00 00 00 00 00 00  |................|
 D0E6  00 00 00 00 00 00 00 00 00 00 00 00 00 00 00 00  |................|
 D0F6  00 00 00 00 00 00 00 00 00 00 00 00 00 00 00 00  |................|
 D106  00 00 00 00 00 00 00 00 00 00 00 00 00 00 00 00  |................|
 D116  00 00 00 00 00 00 00 00 00 00 00 00 00 00 00 00  |................|
 D126  00 00 00 00 00 00 00 00 00 00 00 00 00 00 00 00  |................|
 D136  00 00 00 00 00 00 00 00 00 00 00 00 00 00 00 00  |................|
 D146  00 00 00 00 00 00 00 00 00 00 00 00 00 00 00 00  |................|
 D156  00 00 00 00 00 00 00 00 00 00 00 00 00 00 00 00  |................|
 D166  00 00 00 00 00 00 00 00 00 00 00 00 00 00 00 00  |................|
 D176  00 00 00 00 00 00 00 00 00 00 00 00 00 00 00 00  |................|
 D186  00 00 00 00 00 00 00 00 00 00 00 00 00 00 00 00  |................|
 D196  00 00 00 00 00 00 00 00 00 00 00 00 00 00 00 00  |................|
 D1A6  00 00 00 00 00 00 00 00 00 00 00 00 00 00 00 00  |................|
 D1B6  00 00 00 00 00 00 00 00 00 00 00 00 00 00 00 00  |................|
 D1C6  00 00 00 00 00 00 00 00 00 00 00 00 00 00 00 00  |................|
 D1D6  00 00 00 00 00 00 00 00 00 00 00 00 00 00 00 00  |................|
 D1E6  00 00 00 00 00 00 00 00 00 00 00 00 00 00 00 00  |................|
 D1F6  00 00 00 00 00 00 00 00 00 00 00 00 00 00 00 00  |................|
 D206  00 00 00 00 00 00 00 00 00 00 00 00 00 00 00 00  |................|
 D216  00 00 00 00 00 00 00 00 00 00 00 00 00 00 00 00  |................|
 D226  00 00 00 00 00 00 00 00 00 00 00 00 00 00 00 00  |................|
 D236  00 00 00 00 00 00 00 00 00 00 00 00 00 00 00 00  |................|
 D246  00 00 00 00 00 00 00 00 00 00 00 00 00 00 00 00  |................|
 D256  00 00 00 00 00 00 00 00 00 00 00 00 00 00 00 00  |................|
 D266  00 00 00 00 00 00 00 00 00 00 00 00 00 00 00 00  |................|
 D276  00 00 00 00 00 00 00 00 00 00 00 00 00 00 00 00  |................|
 D286  00 00 00 00 00 00 00 00 00 00 00 00 00 00 00 00  |................|
 D296  00 00 00 00 00 00 00 00 00 00 00 00 00 00 00 00  |................|
 D2A6  00 00 00 00 00 00 00 00 00 00 00 00 00 00 00 00  |................|
 D2B6  00 00 00 00 00 00 00 00 00 00 00 00 00 00 00 00  |................|
 D2C6  00 00 00 00 00 00 00 00 00 00 00 00 00 00 00 00  |................|
 D2D6  00 00 00 00 00 00 00 00 00 00 00 00 00 00 00 00  |................|
 D2E6  00 00 00 00 00 00 00 00 00 00 00 00 00 00 00 00  |................|
 D2F6  00 00 00 00 00 00 00 00 00 00 00 00 00 00 00 00  |................|
 D306  00 00 00 00 00 00 00 00 00 00 00 00 00 00 00 00  |................|
 D316  00 00 00 00 00 00 00 00 00 00 00 00 00 00 00 00  |................|
 D326  00 00 00 00 00 00 00 00 00 00 00 00 00 00 00 00  |................|
 D336  00 00 00 00 00 00 00 00 00 00 00 00 00 00 00 00  |................|
 D346  00 00 00 00 00 00 00 00 00 00 00 00 00 00 00 00  |................|
 D356  00 00 00 00 00 00 00 00 00 00 00 00 00 00 00 00  |................|
 D366  00 00 00 00 00 00 00 00 00 00 00 00 00 00 00 00  |................|
 D376  00 00 00 00 00 00 00 00 00 00 00 00 00 00 00 00  |................|
 D386  00 00 00 00 00 00 00 00 00 00 00 00 00 00 00 00  |................|
 D396  00 00 00 00 00 00 00 00 00 00 00 00 00 00 00 00  |................|
 D3A6  00 00 00 00 00 00 00 00 00 00 00 00 00 00 00 00  |................|
 D3B6  00 00 00 00 00 00 00 00 00 00 00 00 00 00 00 00  |................|
 D3C6  00 00 00 00 00 00 00 00 00 00 00 00 00 00 00 00  |................|
 D3D6  00 00 00 00 00 00 00 00 00 00 00 00 00 00 00 00  |................|
 D3E6  00 00 00 00 00 00 00 00 00 00 00 00 00 00 00 00  |................|
 D3F6  00 00 00 00 00 00 00 00 00 00 00 00 00 00 00 00  |................|
 D406  00 00 00 00 00 00 00 00 00 00 00 00 00 00 00 00  |................|
 D416  00 00 00 00 00 00 00 00 00 00 00 00 00 00 00 00  |................|
 D426  00 00 00 00 00 00 00 00 00 00 00 00 00 00 00 00  |................|
 D436  00 00 00 00 00 00 00 00 00 00 00 00 00 00 00 00  |................|
 D446  00 00 00 00 00 00 00 00 00 00 00 00 00 00 00 00  |................|
 D456  00 00 00 00 00 00 00 00 00 00 00 00 00 00 00 00  |................|
 D466  00 00 00 00 00 00 00 00 00 00 00 00 00 00 00 00  |................|
 D476  00 00 00 00 00 00 00 00 00 00 00 00 00 00 00 00  |................|
 D486  00 00 00 00 00 00 00 00 00 00 00 00 00 00 00 00  |................|
 D496  00 00 00 00 00 00 00 00 00 00 00 00 00 00 00 00  |................|
 D4A6  00 00 00 00 00 00 00 00 00 00 00 00 00 00 00 00  |................|
 D4B6  00 00 00 00 00 00 00 00 00 00 00 00 00 00 00 00  |................|
 D4C6  00 00 00 00 00 00 00 00 00 00 00 00 00 00 00 00  |................|
 D4D6  00 00 00 00 00 00 00 00 00 00 00 00 00 00 00 00  |................|
 D4E6  00 00 00 00 00 00 00 00 00 00 00 00 00 00 00 00  |................|
 D4F6  00 00 00 00 00 00 00 00 00 00 00 00 00 00 00 00  |................|
 D506  00 00 00 00 00 00 00 00 00 00 00 00 00 00 00 00  |................|
 D516  00 00 00 00 00 00 00 00 00 00 00 00 00 00 00 00  |................|
 D526  00 00 00 00 00 00 00 00 00 00 00 00 00 00 00 00  |................|
 D536  00 00 00 00 00 00 00 00 00 00 00 00 00 00 00 00  |................|
 D546  00 00 00 00 00 00 00 00 00 00 00 00 00 00 00 00  |................|
 D556  00 00 00 00 00 00 00 00 00 00 00 00 00 00 00 00  |................|
 D566  00 00 00 00 00 00 00 00 00 00 00 00 00 00 00 00  |................|
 D576  00 00 00 00 00 00 00 00 00 00 00 00 00 00 00 00  |................|
 D586  00 00 00 00 00 00 00 00 00 00 00 00 00 00 00 00  |................|
 D596  00 00 00 00 00 00 00 00 00 00 00 00 00 00 00 00  |................|
 D5A6  00 00 00 00 00 00 00 00 00 00 00 00 00 00 00 00  |................|
 D5B6  00 00 00 00 00 00 00 00 00 00 00 00 00 00 00 00  |................|
 D5C6  00 00 00 00 00 00 00 00 00 00 00 00 00 00 00 00  |................|
 D5D6  00 00 00 00 00 00 00 00 00 00 00 00 00 00 00 00  |................|
 D5E6  00 00 00 00 00 00 00 00 00 00 00 00 00 00 00 00  |................|
 D5F6  00 00 00 00 00 00 00 00 00 00 00 00 00 00 00 00  |................|
 D606  00 00 00 00 00 00 00 00 00 00 00 00 00 00 00 00  |................|
 D616  00 00 00 00 00 00 00 00 00 00 00 00 00 00 00 00  |................|
 D626  00 00 00 00 00 00 00 00 00 00 00 00 00 00 00 00  |................|
 D636  00 00 00 00 00 00 00 00 00 00 00 00 00 00 00 00  |................|
 D646  00 00 00 00 00 00 00 00 00 00 00 00 00 00 00 00  |................|
 D656  00 00 00 00 00 00 00 00 00 00 00 00 00 00 00 00  |................|
 D666  00 00 00 00 00 00 00 00 00 00 00 00 00 00 00 00  |................|
 D676  00 00 00 00 00 00 00 00 00 00 00 00 00 00 00 00  |................|
 D686  00 00 00 00 00 00 00 00 00 00 00 00 00 00 00 00  |................|
 D696  00 00 00 00 00 00 00 00 00 00 00 00 00 00 00 00  |................|
 D6A6  00 00 00 00 00 00 00 00 00 00 00 00 00 00 00 00  |................|
 D6B6  00 00 00 00 00 00 00 00 00 00 00 00 00 00 00 00  |................|
 D6C6  00 00 00 00 00 00 00 00 00 00 00 00 00 00 00 00  |................|
 D6D6  00 00 00 00 00 00 00 00 00 00 00 00 00 00 00 00  |................|
 D6E6  00 00 00 00 00 00 00 00 00 00 00 00 00 00 00 00  |................|
 D6F6  00 00 00 00 00 00 00 00 00 00 00 00 00 00 00 00  |................|
 D706  00 00 00 00 00 00 00 00 00 00 00 00 00 00 00 00  |................|
 D716  00 00 00 00 00 00 00 00 00 00 00 00 00 00 00 00  |................|
 D726  00 00 00 00 00 00 00 00 00 00 00 00 00 00 00 00  |................|
 D736  00 00 00 00 00 00 00 00 00 00 00 00 00 00 00 00  |................|
 D746  00 00 00 00 00 00 00 00 00 00 00 00 00 00 00 00  |................|
 D756  00 00 00 00 00 00 00 00 00 00 00 00 00 00 00 00  |................|
 D766  00 00 00 00 00 00 00 00 00 00 00 00 00 00 00 00  |................|
 D776  00 00 00 00 00 00 00 00 00 00 00 00 00 00 00 00  |................|
 D786  00 00 00 00 00 00 00 00 00 00 00 00 00 00 00 00  |................|
 D796  00 00 00 00 00 00 00 00 00 00 00 00 00 00 00 00  |................|
 D7A6  00 00 00 00 00 00 00 00 00 00 00 00 00 00 00 00  |................|
 D7B6  00 00 00 00 00 00 00 00 00 00 00 00 00 00 00 00  |................|
 D7C6  00 00 00 00 00 00 00 00 00 00 00 00 00 00 00 00  |................|
 D7D6  00 00 00 00 00 00 00 00 00 00 00 00 00 00 00 00  |................|
 D7E6  00 00 00 00 00 00 00 00 00 00 00 00 00 00 00 00  |................|
 D7F6  00 00 00 00 00 00 00 00 00 00 00 00 00 00 00 00  |................|
 D806  00 00 00 00 00 00 00 00 00 00 00 00 00 00 00 00  |................|
 D816  00 00 00 00 00 00 00 00 00 00 00 00 00 00 00 00  |................|
 D826  00 00 00 00 00 00 00 00 00 00 00 00 00 00 00 00  |................|
 D836  00 00 00 00 00 00 00 00 00 00 00 00 00 00 00 00  |................|
 D846  00 00 00 00 00 00 00 00 00 00 00 00 00 00 00 00  |................|
 D856  00 00 00 00 00 00 00 00 00 00 00 00 00 00 00 00  |................|
 D866  00 00 00 00 00 00 00 00 00 00 00 00 00 00 00 00  |................|
 D876  00 00 00 00 00 00 00 00 00 00 00 00 00 00 00 00  |................|
 D886  00 00 00 00 00 00 00 00 00 00 00 00 00 00 00 00  |................|
 D896  00 00 00 00 00 00 00 00 00 00 00 00 00 00 00 00  |................|
 D8A6  00 00 00 00 00 00 00 00 00 00 00 00 00 00 00 00  |................|
 D8B6  00 00 00 00 00 00 00 00 00 00 00 00 00 00 00 00  |................|
 D8C6  00 00 00 00 00 00 00 00 00 00 00 00 00 00 00 00  |................|
 D8D6  00 00 00 00 00 00 00 00 00 00 00 00 00 00 00 00  |................|
 D8E6  00 00 00 00 00 00 00 00 00 00 00 00 00 00 00 00  |................|
 D8F6  00 00 00 00 00 00 00 00 00 00 00 00 00 00 00 00  |................|
 D906  00 00 00 00 00 00 00 00 00 00 00 00 00 00 00 00  |................|
 D916  00 00 00 00 00 00 00 00 00 00 00 00 00 00 00 00  |................|
 D926  00 00 00 00 00 00 00 00 00 00 00 00 00 00 00 00  |................|
 D936  00 00 00 00 00 00 00 00 00 00 00 00 00 00 00 00  |................|
 D946  00 00 00 00 00 00 00 00 00 00 00 00 00 00 00 00  |................|
 D956  00 00 00 00 00 00 00 00 00 00 00 00 00 00 00 00  |................|
 D966  00 00 00 00 00 00 00 00 00 00 00 00 00 00 00 00  |................|
 D976  00 00 00 00 00 00 00 00 00 00 00 00 00 00 00 00  |................|
 D986  00 00 00 00 00 00 00 00 00 00 00 00 00 00 00 00  |................|
 D996  00 00 00 00 00 00 00 00 00 00 00 00 00 00 00 00  |................|
 D9A6  00 00 00 00 00 00 00 00 00 00 00 00 00 00 00 00  |................|
 D9B6  00 00 00 00 00 00 00 00 00 00 00 00 00 00 00 00  |................|
 D9C6  00 00 00 00 00 00 00 00 00 00 00 00 00 00 00 00  |................|
 D9D6  00 00 00 00 00 00 00 00 00 00 00 00 00 00 00 00  |................|
 D9E6  00 00 00 00 00 00 00 00 00 00 00 00 00 00 00 00  |................|
 D9F6  00 00 00 00 00 00 00 00 00 00 00 00 00 00 00 00  |................|
 DA06  00 00 00 00 00 00 00 00 00 00 00 00 00 00 00 00  |................|
 DA16  00 00 00 00 00 00 00 00 00 00 00 00 00 00 00 00  |................|
 DA26  00 00 00 00 00 00 00 00 00 00 00 00 00 00 00 00  |................|
 DA36  00 00 00 00 00 00 00 00 00 00 00 00 00 00 00 00  |................|
 DA46  00 00 00 00 00 00 00 00 00 00 00 00 00 00 00 00  |................|
 DA56  00 00 00 00 00 00 00 00 00 00 00 00 00 00 00 00  |................|
 DA66  00 00 00 00 00 00 00 00 00 00 00 00 00 00 00 00  |................|
 DA76  00 00 00 00 00 00 00 00 00 00 00 00 00 00 00 00  |................|
 DA86  00 00 00 00 00 00 00 00 00 00 00 00 00 00 00 00  |................|
 DA96  00 00 00 00 00 00 00 00 00 00 00 00 00 00 00 00  |................|
 DAA6  00 00 00 00 00 00 00 00 00 00 00 00 00 00 00 00  |................|
 DAB6  00 00 00 00 00 00 00 00 00 00 00 00 00 00 00 00  |................|
 DAC6  00 00 00 00 00 00 00 00 00 00 00 00 00 00 00 00  |................|
 DAD6  00 00 00 00 00 00 00 00 00 00 00 00 00 00 00 00  |................|
 DAE6  00 00 00 00 00 00 00 00 00 00 00 00 00 00 00 00  |................|
 DAF6  00 00 00 00 00 00 00 00 00 00 00 00 00 00 00 00  |................|
 DB06  00 00 00 00 00 00 00 00 00 00 00 00 00 00 00 00  |................|
 DB16  00 00 00 00 00 00 00 00 00 00 00 00 00 00 00 00  |................|
 DB26  00 00 00 00 00 00 00 00 00 00 00 00 00 00 00 00  |................|
 DB36  00 00 00 00 00 00 00 00 00 00 00 00 00 00 00 00  |................|
 DB46  00 00 00 00 00 00 00 00 00 00 00 00 00 00 00 00  |................|
 DB56  00 00 00 00 00 00 00 00 00 00 00 00 00 00 00 00  |................|
 DB66  00 00 00 00 00 00 00 00 00 00 00 00 00 00 00 00  |................|
 DB76  00 00 00 00 00 00 00 00 00 00 00 00 00 00 00 00  |................|
 DB86  00 00 00 00 00 00 00 00 00 00 00 00 00 00 00 00  |................|
 DB96  00 00 00 00 00 00 00 00 00 00 00 00 00 00 00 00  |................|
 DBA6  00 00 00 00 00 00 00 00 00 00 00 00 00 00 00 00  |................|
 DBB6  00 00 00 00 00 00 00 00 00 00 00 00 00 00 00 00  |................|
 DBC6  00 00 00 00 00 00 00 00 00 00 00 00 00 00 00 00  |................|
 DBD6  00 00 00 00 00 00 00 00 00 00 00 00 00 00 00 00  |................|
 DBE6  00 00 00 00 00 00 00 00 00 00 00 00 00 00 00 00  |................|
 DBF6  00 00 00 00 00 00 00 00 00 00 00 00 00 00 00 00  |................|
 DC06  00 00 00 00 00 00 00 00 00 00 00 00 00 00 00 00  |................|
 DC16  00 00 00 00 00 00 00 00 00 00 00 00 00 00 00 00  |................|
 DC26  00 00 00 00 00 00 00 00 00 00 00 00 00 00 00 00  |................|
 DC36  00 00 00 00 00 00 00 00 00 00 00 00 00 00 00 00  |................|
 DC46  00 00 00 00 00 00 00 00 00 00 00 00 00 00 00 00  |................|
 DC56  00 00 00 00 00 00 00 00 00 00 00 00 00 00 00 00  |................|
 DC66  00 00 00 00 00 00 00 00 00 00 00 00 00 00 00 00  |................|
 DC76  00 00 00 00 00 00 00 00 00 00 00 00 00 00 00 00  |................|
 DC86  00 00 00 00 00 00 00 00 00 00 00 00 00 00 00 00  |................|
 DC96  00 00 00 00 00 00 00 00 00 00 00 00 00 00 00 00  |................|
 DCA6  00 00 00 00 00 00 00 00 00 00 00 00 00 00 00 00  |................|
 DCB6  00 00 00 00 00 00 00 00 00 00 00 00 00 00 00 00  |................|
 DCC6  00 00 00 00 00 00 00 00 00 00 00 00 00 00 00 00  |................|
 DCD6  00 00 00 00 00 00 00 00 00 00 00 00 00 00 00 00  |................|
 DCE6  00 00 00 00 00 00 00 00 00 00 00 00 00 00 00 00  |................|
 DCF6  00 00 00 00 00 00 00 00 00 00 00 00 00 00 00 00  |................|
 DD06  00 00 00 00 00 00 00 00 00 00 00 00 00 00 00 00  |................|
 DD16  00 00 00 00 00 00 00 00 00 00 00 00 00 00 00 00  |................|
 DD26  00 00 00 00 00 00 00 00 00 00 00 00 00 00 00 00  |................|
 DD36  00 00 00 00 00 00 00 00 00 00 00 00 00 00 00 00  |................|
 DD46  00 00 00 00 00 00 00 00 00 00 00 00 00 00 00 00  |................|
 DD56  00 00 00 00 00 00 00 00 00 00 00 00 00 00 00 00  |................|
 DD66  00 00 00 00 00 00 00 00 00 00 00 00 00 00 00 00  |................|
 DD76  00 00 00 00 00 00 00 00 00 00 00 00 00 00 00 00  |................|
 DD86  00 00 00 00 00 00 00 00 00 00 00 00 00 00 00 00  |................|
 DD96  00 00 00 00 00 00 00 00 00 00 00 00 00 00 00 00  |................|
 DDA6  00 00 00 00 00 00 00 00 00 00 00 00 00 00 00 00  |................|
 DDB6  00 00 00 00 00 00 00 00 00 00 00 00 00 00 00 00  |................|
 DDC6  00 00 00 00 00 00 00 00 00 00 00 00 00 00 00 00  |................|
 DDD6  00 00 00 00 00 00 00 00 00 00 00 00 00 00 00 00  |................|
 DDE6  00 00 00 00 00 00 00 00 00 00 00 00 00 00 00 00  |................|
 DDF6  00 00 00 00 00 00 00 00 00 00 00 00 00 00 00 00  |................|
 DE06  00 00 00 00 00 00 00 00 00 00 00 00 00 00 00 00  |................|
 DE16  00 00 00 00 00 00 00 00 00 00 00 00 00 00 00 00  |................|
 DE26  00 00 00 00 00 00 00 00 00 00 00 00 00 00 00 00  |................|
 DE36  00 00 00 00 00 00 00 00 00 00 00 00 00 00 00 00  |................|
 DE46  00 00 00 00 00 00 00 00 00 00 00 00 00 00 00 00  |................|
 DE56  00 00 00 00 00 00 00 00 00 00 00 00 00 00 00 00  |................|
 DE66  00 00 00 00 00 00 00 00 00 00 00 00 00 00 00 00  |................|
 DE76  00 00 00 00 00 00 00 00 00 00 00 00 00 00 00 00  |................|
 DE86  00 00 00 00 00 00 00 00 00 00 00 00 00 00 00 00  |................|
 DE96  00 00 00 00 00 00 00 00 00 00 00 00 00 00 00 00  |................|
 DEA6  00 00 00 00 00 00 00 00 00 00 00 00 00 00 00 00  |................|
 DEB6  00 00 00 00 00 00 00 00 00 00 00 00 00 00 00 00  |................|
 DEC6  00 00 00 00 00 00 00 00 00 00 00 00 00 00 00 00  |................|
 DED6  00 00 00 00 00 00 00 00 00 00 00 00 00 00 00 00  |................|
 DEE6  00 00 00 00 00 00 00 00 00 00 00 00 00 00 00 00  |................|
 DEF6  00 00 00 00 00 00 00 00 00 00 00 00 00 00 00 00  |................|
 DF06  00 00 00 00 00 00 00 00 00 00 00 00 00 00 00 00  |................|
 DF16  00 00 00 00 00 00 00 00 00 00 00 00 00 00 00 00  |................|
 DF26  00 00 00 00 00 00 00 00 00 00 00 00 00 00 00 00  |................|
 DF36  00 00 00 00 00 00 00 00 00 00 00 00 00 00 00 00  |................|
 DF46  00 00 00 00 00 00 00 00 00 00 00 00 00 00 00 00  |................|
 DF56  00 00 00 00 00 00 00 00 00 00 00 00 00 00 00 00  |................|
 DF66  00 00 00 00 00 00 00 00 00 00 00 00 00 00 00 00  |................|
 DF76  00 00 00 00 00 00 00 00 00 00 00 00 00 00 00 00  |................|
 DF86  00 00 00 00 00 00 00 00 00 00 00 00 00 00 00 00  |................|
 DF96  00 00 00 00 00 00 00 00 00 00 00 00 00 00 00 00  |................|
 DFA6  00 00 00 00 00 00 00 00 00 00 00 00 00 00 00 00  |................|
 DFB6  00 00 00 00 00 00 00 00 00 00 00 00 00 00 00 00  |................|
 DFC6  00 00 00 00 00 00 00 00 00 00 00 00 00 00 00 00  |................|
 DFD6  00 00 00 00 00 00 00 00 00 00 00 00 00 00 00 00  |................|
 DFE6  00 00 00 00 00 00 00 00 00 00 00 00 00 00 00 00  |................|
 DFF6  00 00 00 00 00 00 00 00 00 00 00 00 00 00 00 00  |................|
 E006  00 00 00 00 00 00 00 00 00 00 00 00 00 00 00 00  |................|
 E016  00 00 00 00 00 00 00 00 00 00 00 00 00 00 00 00  |................|
 E026  00 00 00 00 00 00 00 00 00 00 00 00 00 00 00 00  |................|
 E036  00 00 00 00 00 00 00 00 00 00 00 00 00 00 00 00  |................|
 E046  00 00 00 00 00 00 00 00 00 00 00 00 00 00 00 00  |................|
 E056  00 00 00 00 00 00 00 00 00 00 00 00 00 00 00 00  |................|
 E066  00 00 00 00 00 00 00 00 00 00 00 00 00 00 00 00  |................|
 E076  00 00 00 00 00 00 00 00 00 00 00 00 00 00 00 00  |................|
 E086  00 00 00 00 00 00 00 00 00 00 00 00 00 00 00 00  |................|
 E096  00 00 00 00 00 00 00 00 00 00 00 00 00 00 00 00  |................|
 E0A6  00 00 00 00 00 00 00 00 00 00 00 00 00 00 00 00  |................|
 E0B6  00 00 00 00 00 00 00 00 00 00 00 00 00 00 00 00  |................|
 E0C6  00 00 00 00 00 00 00 00 00 00 00 00 00 00 00 00  |................|
 E0D6  00 00 00 00 00 00 00 00 00 00 00 00 00 00 00 00  |................|
 E0E6  00 00 00 00 00 00 00 00 00 00 00 00 00 00 00 00  |................|
 E0F6  00 00 00 00 00 00 00 00 00 00 00 00 00 00 00 00  |................|
 E106  00 00 00 00 00 00 00 00 00 00 00 00 00 00 00 00  |................|
 E116  00 00 00 00 00 00 00 00 00 00 00 00 00 00 00 00  |................|
 E126  00 00 00 00 00 00 00 00 00 00 00 00 00 00 00 00  |................|
 E136  00 00 00 00 00 00 00 00 00 00 00 00 00 00 00 00  |................|
 E146  00 00 00 00 00 00 00 00 00 00 00 00 00 00 00 00  |................|
 E156  00 00 00 00 00 00 00 00 00 00 00 00 00 00 00 00  |................|
 E166  00 00 00 00 00 00 00 00 00 00 00 00 00 00 00 00  |................|
 E176  00 00 00 00 00 00 00 00 00 00 00 00 00 00 00 00  |................|
 E186  00 00 00 00 00 00 00 00 00 00 00 00 00 00 00 00  |................|
 E196  00 00 00 00 00 00 00 00 00 00 00 00 00 00 00 00  |................|
 E1A6  00 00 00 00 00 00 00 00 00 00 00 00 00 00 00 00  |................|
 E1B6  00 00 00 00 00 00 00 00 00 00 00 00 00 00 00 00  |................|
 E1C6  00 00 00 00 00 00 00 00 00 00 00 00 00 00 00 00  |................|
 E1D6  00 00 00 00 00 00 00 00 00 00 00 00 00 00 00 00  |................|
 E1E6  00 00 00 00 00 00 00 00 00 00 00 00 00 00 00 00  |................|
 E1F6  00 00 00 00 00 00 00 00 00 00 00 00 00 00 00 00  |................|
 E206  00 00 00 00 00 00 00 00 00 00 00 00 00 00 00 00  |................|
 E216  00 00 00 00 00 00 00 00 00 00 00 00 00 00 00 00  |................|
 E226  00 00 00 00 00 00 00 00 00 00 00 00 00 00 00 00  |................|
 E236  00 00 00 00 00 00 00 00 00 00 00 00 00 00 00 00  |................|
 E246  00 00 00 00 00 00 00 00 00 00 00 00 00 00 00 00  |................|
 E256  00 00 00 00 00 00 00 00 00 00 00 00 00 00 00 00  |................|
 E266  00 00 00 00 00 00 00 00 00 00 00 00 00 00 00 00  |................|
 E276  00 00 00 00 00 00 00 00 00 00 00 00 00 00 00 00  |................|
 E286  00 00 00 00 00 00 00 00 00 00 00 00 00 00 00 00  |................|
 E296  00 00 00 00 00 00 00 00 00 00 00 00 00 00 00 00  |................|
 E2A6  00 00 00 00 00 00 00 00 00 00 00 00 00 00 00 00  |................|
 E2B6  00 00 00 00 00 00 00 00 00 00 00 00 00 00 00 00  |................|
 E2C6  00 00 00 00 00 00 00 00 00 00 00 00 00 00 00 00  |................|
 E2D6  00 00 00 00 00 00 00 00 00 00 00 00 00 00 00 00  |................|
 E2E6  00 00 00 00 00 00 00 00 00 00 00 00 00 00 00 00  |................|
 E2F6  00 00 00 00 00 00 00 00 00 00 00 00 00 00 00 00  |................|
 E306  00 00 00 00 00 00 00 00 00 00 00 00 00 00 00 00  |................|
 E316  00 00 00 00 00 00 00 00 00 00 00 00 00 00 00 00  |................|
 E326  00 00 00 00 00 00 00 00 00 00 00 00 00 00 00 00  |................|
 E336  00 00 00 00 00 00 00 00 00 00 00 00 00 00 00 00  |................|
 E346  00 00 00 00 00 00 00 00 00 00 00 00 00 00 00 00  |................|
 E356  00 00 00 00 00 00 00 00 00 00 00 00 00 00 00 00  |................|
 E366  00 00 00 00 00 00 00 00 00 00 00 00 00 00 00 00  |................|
 E376  00 00 00 00 00 00 00 00 00 00 00 00 00 00 00 00  |................|
 E386  00 00 00 00 00 00 00 00 00 00 00 00 00 00 00 00  |................|
 E396  00 00 00 00 00 00 00 00 00 00 00 00 00 00 00 00  |................|
 E3A6  00 00 00 00 00 00 00 00 00 00 00 00 00 00 00 00  |................|
 E3B6  00 00 00 00 00 00 00 00 00 00 00 00 00 00 00 00  |................|
 E3C6  00 00 00 00 00 00 00 00 00 00 00 00 00 00 00 00  |................|
 E3D6  00 00 00 00 00 00 00 00 00 00 00 00 00 00 00 00  |................|
 E3E6  00 00 00 00 00 00 00 00 00 00 00 00 00 00 00 00  |................|
 E3F6  00 00 00 00 00 00 00 00 00 00 00 00 00 00 00 00  |................|
 E406  00 00 00 00 00 00 00 00 00 00 00 00 00 00 00 00  |................|
 E416  00 00 00 00 00 00 00 00 00 00 00 00 00 00 00 00  |................|
 E426  00 00 00 00 00 00 00 00 00 00 00 00 00 00 00 00  |................|
 E436  00 00 00 00 00 00 00 00 00 00 00 00 00 00 00 00  |................|
 E446  00 00 00 00 00 00 00 00 00 00 00 00 00 00 00 00  |................|
 E456  00 00 00 00 00 00 00 00 00 00 00 00 00 00 00 00  |................|
 E466  00 00 00 00 00 00 00 00 00 00 00 00 00 00 00 00  |................|
 E476  00 00 00 00 00 00 00 00 00 00 00 00 00 00 00 00  |................|
 E486  00 00 00 00 00 00 00 00 00 00 00 00 00 00 00 00  |................|
 E496  00 00 00 00 00 00 00 00 00 00 00 00 00 00 00 00  |................|
 E4A6  00 00 00 00 00 00 00 00 00 00 00 00 00 00 00 00  |................|
 E4B6  00 00 00 00 00 00 00 00 00 00 00 00 00 00 00 00  |................|
 E4C6  00 00 00 00 00 00 00 00 00 00 00 00 00 00 00 00  |................|
 E4D6  00 00 00 00 00 00 00 00 00 00 00 00 00 00 00 00  |................|
 E4E6  00 00 00 00 00 00 00 00 00 00 00 00 00 00 00 00  |................|
 E4F6  00 00 00 00 00 00 00 00 00 00 00 00 00 00 00 00  |................|
 E506  00 00 00 00 00 00 00 00 00 00 00 00 00 00 00 00  |................|
 E516  00 00 00 00 00 00 00 00 00 00 00 00 00 00 00 00  |................|
 E526  00 00 00 00 00 00 00 00 00 00 00 00 00 00 00 00  |................|
 E536  00 00 00 00 00 00 00 00 00 00 00 00 00 00 00 00  |................|
 E546  00 00 00 00 00 00 00 00 00 00 00 00 00 00 00 00  |................|
 E556  00 00 00 00 00 00 00 00 00 00 00 00 00 00 00 00  |................|
 E566  00 00 00 00 00 00 00 00 00 00 00 00 00 00 00 00  |................|
 E576  00 00 00 00 00 00 00 00 00 00 00 00 00 00 00 00  |................|
 E586  00 00 00 00 00 00 00 00 00 00 00 00 00 00 00 00  |................|
 E596  00 00 00 00 00 00 00 00 00 00 00 00 00 00 00 00  |................|
 E5A6  00 00 00 00 00 00 00 00 00 00 00 00 00 00 00 00  |................|
 E5B6  00 00 00 00 00 00 00 00 00 00 00 00 00 00 00 00  |................|
 E5C6  00 00 00 00 00 00 00 00 00 00 00 00 00 00 00 00  |................|
 E5D6  00 00 00 00 00 00 00 00 00 00 00 00 00 00 00 00  |................|
 E5E6  00 00 00 00 00 00 00 00 00 00 00 00 00 00 00 00  |................|
 E5F6  00 00 00 00 00 00 00 00 00 00 00 00 00 00 00 00  |................|
 E606  00 00 00 00 00 00 00 00 00 00 00 00 00 00 00 00  |................|
 E616  00 00 00 00 00 00 00 00 00 00 00 00 00 00 00 00  |................|
 E626  00 00 00 00 00 00 00 00 00 00 00 00 00 00 00 00  |................|
 E636  00 00 00 00 00 00 00 00 00 00 00 00 00 00 00 00  |................|
 E646  00 00 00 00 00 00 00 00 00 00 00 00 00 00 00 00  |................|
 E656  00 00 00 00 00 00 00 00 00 00 00 00 00 00 00 00  |................|
 E666  00 00 00 00 00 00 00 00 00 00 00 00 00 00 00 00  |................|
 E676  00 00 00 00 00 00 00 00 00 00 00 00 00 00 00 00  |................|
 E686  00 00 00 00 00 00 00 00 00 00 00 00 00 00 00 00  |................|
 E696  00 00 00 00 00 00 00 00 00 00 00 00 00 00 00 00  |................|
 E6A6  00 00 00 00 00 00 00 00 00 00 00 00 00 00 00 00  |................|
 E6B6  00 00 00 00 00 00 00 00 00 00 00 00 00 00 00 00  |................|
 E6C6  00 00 00 00 00 00 00 00 00 00 00 00 00 00 00 00  |................|
 E6D6  00 00 00 00 00 00 00 00 00 00 00 00 00 00 00 00  |................|
 E6E6  00 00 00 00 00 00 00 00 00 00 00 00 00 00 00 00  |................|
 E6F6  00 00 00 00 00 00 00 00 00 00 00 00 00 00 00 00  |................|
 E706  00 00 00 00 00 00 00 00 00 00 00 00 00 00 00 00  |................|
 E716  00 00 00 00 00 00 00 00 00 00 00 00 00 00 00 00  |................|
 E726  00 00 00 00 00 00 00 00 00 00 00 00 00 00 00 00  |................|
 E736  00 00 00 00 00 00 00 00 00 00 00 00 00 00 00 00  |................|
 E746  00 00 00 00 00 00 00 00 00 00 00 00 00 00 00 00  |................|
 E756  00 00 00 00 00 00 00 00 00 00 00 00 00 00 00 00  |................|
 E766  00 00 00 00 00 00 00 00 00 00 00 00 00 00 00 00  |................|
 E776  00 00 00 00 00 00 00 00 00 00 00 00 00 00 00 00  |................|
 E786  00 00 00 00 00 00 00 00 00 00 00 00 00 00 00 00  |................|
 E796  00 00 00 00 00 00 00 00 00 00 00 00 00 00 00 00  |................|
 E7A6  00 00 00 00 00 00 00 00 00 00 00 00 00 00 00 00  |................|
 E7B6  00 00 00 00 00 00 00 00 00 00 00 00 00 00 00 00  |................|
 E7C6  00 00 00 00 00 00 00 00 00 00 00 00 00 00 00 00  |................|
 E7D6  00 00 00 00 00 00 00 00 00 00 00 00 00 00 00 00  |................|
 E7E6  00 00 00 00 00 00 00 00 00 00 00 00 00 00 00 00  |................|
 E7F6  00 00 00 00 00 00 00 00 00 00 00 00 00 00 00 00  |................|
 E806  00 00 00 00 00 00 00 00 00 00 00 00 00 00 00 00  |................|
 E816  00 00 00 00 00 00 00 00 00 00 00 00 00 00 00 00  |................|
 E826  00 00 00 00 00 00 00 00 00 00 00 00 00 00 00 00  |................|
 E836  00 00 00 00 00 00 00 00 00 00 00 00 00 00 00 00  |................|
 E846  00 00 00 00 00 00 00 00 00 00 00 00 00 00 00 00  |................|
 E856  00 00 00 00 00 00 00 00 00 00 00 00 00 00 00 00  |................|
 E866  00 00 00 00 00 00 00 00 00 00 00 00 00 00 00 00  |................|
 E876  00 00 00 00 00 00 00 00 00 00 00 00 00 00 00 00  |................|
 E886  00 00 00 00 00 00 00 00 00 00 00 00 00 00 00 00  |................|
 E896  00 00 00 00 00 00 00 00 00 00 00 00 00 00 00 00  |................|
 E8A6  00 00 00 00 00 00 00 00 00 00 00 00 00 00 00 00  |................|
 E8B6  00 00 00 00 00 00 00 00 00 00 00 00 00 00 00 00  |................|
 E8C6  00 00 00 00 00 00 00 00 00 00 00 00 00 00 00 00  |................|
 E8D6  00 00 00 00 00 00 00 00 00 00 00 00 00 00 00 00  |................|
 E8E6  00 00 00 00 00 00 00 00 00 00 00 00 00 00 00 00  |................|
 E8F6  00 00 00 00 00 00 00 00 00 00 00 00 00 00 00 00  |................|
 E906  00 00 00 00 00 00 00 00 00 00 00 00 00 00 00 00  |................|
 E916  00 00 00 00 00 00 00 00 00 00 00 00 00 00 00 00  |................|
 E926  00 00 00 00 00 00 00 00 00 00 00 00 00 00 00 00  |................|
 E936  00 00 00 00 00 00 00 00 00 00 00 00 00 00 00 00  |................|
 E946  00 00 00 00 00 00 00 00 00 00 00 00 00 00 00 00  |................|
 E956  00 00 00 00 00 00 00 00 00 00 00 00 00 00 00 00  |................|
 E966  00 00 00 00 00 00 00 00 00 00 00 00 00 00 00 00  |................|
 E976  00 00 00 00 00 00 00 00 00 00 00 00 00 00 00 00  |................|
 E986  00 00 00 00 00 00 00 00 00 00 00 00 00 00 00 00  |................|
 E996  00 00 00 00 00 00 00 00 00 00 00 00 00 00 00 00  |................|
 E9A6  00 00 00 00 00 00 00 00 00 00 00 00 00 00 00 00  |................|
 E9B6  00 00 00 00 00 00 00 00 00 00 00 00 00 00 00 00  |................|
 E9C6  00 00 00 00 00 00 00 00 00 00 00 00 00 00 00 00  |................|
 E9D6  00 00 00 00 00 00 00 00 00 00 00 00 00 00 00 00  |................|
 E9E6  00 00 00 00 00 00 00 00 00 00 00 00 00 00 00 00  |................|
 E9F6  00 00 00 00 00 00 00 00 00 00 00 00 00 00 00 00  |................|
 EA06  00 00 00 00 00 00 00 00 00 00 00 00 00 00 00 00  |................|
 EA16  00 00 00 00 00 00 00 00 00 00 00 00 00 00 00 00  |................|
 EA26  00 00 00 00 00 00 00 00 00 00 00 00 00 00 00 00  |................|
 EA36  00 00 00 00 00 00 00 00 00 00 00 00 00 00 00 00  |................|
 EA46  00 00 00 00 00 00 00 00 00 00 00 00 00 00 00 00  |................|
 EA56  00 00 00 00 00 00 00 00 00 00 00 00 00 00 00 00  |................|
 EA66  00 00 00 00 00 00 00 00 00 00 00 00 00 00 00 00  |................|
 EA76  00 00 00 00 00 00 00 00 00 00 00 00 00 00 00 00  |................|
 EA86  00 00 00 00 00 00 00 00 00 00 00 00 00 00 00 00  |................|
 EA96  00 00 00 00 00 00 00 00 00 00 00 00 00 00 00 00  |................|
 EAA6  00 00 00 00 00 00 00 00 00 00 00 00 00 00 00 00  |................|
 EAB6  00 00 00 00 00 00 00 00 00 00 00 00 00 00 00 00  |................|
 EAC6  00 00 00 00 00 00 00 00 00 00 00 00 00 00 00 00  |................|
 EAD6  00 00 00 00 00 00 00 00 00 00 00 00 00 00 00 00  |................|
 EAE6  00 00 00 00 00 00 00 00 00 00 00 00 00 00 00 00  |................|
 EAF6  00 00 00 00 00 00 00 00 00 00 00 00 00 00 00 00  |................|
 EB06  00 00 00 00 00 00 00 00 00 00 00 00 00 00 00 00  |................|
 EB16  00 00 00 00 00 00 00 00 00 00 00 00 00 00 00 00  |................|
 EB26  00 00 00 00 00 00 00 00 00 00 00 00 00 00 00 00  |................|
 EB36  00 00 00 00 00 00 00 00 00 00 00 00 00 00 00 00  |................|
 EB46  00 00 00 00 00 00 00 00 00 00 00 00 00 00 00 00  |................|
 EB56  00 00 00 00 00 00 00 00 00 00 00 00 00 00 00 00  |................|
 EB66  00 00 00 00 00 00 00 00 00 00 00 00 00 00 00 00  |................|
 EB76  00 00 00 00 00 00 00 00 00 00 00 00 00 00 00 00  |................|
 EB86  00 00 00 00 00 00 00 00 00 00 00 00 00 00 00 00  |................|
 EB96  00 00 00 00 00 00 00 00 00 00 00 00 00 00 00 00  |................|
 EBA6  00 00 00 00 00 00 00 00 00 00 00 00 00 00 00 00  |................|
 EBB6  00 00 00 00 00 00 00 00 00 00 00 00 00 00 00 00  |................|
 EBC6  00 00 00 00 00 00 00 00 00 00 00 00 00 00 00 00  |................|
 EBD6  00 00 00 00 00 00 00 00 00 00 00 00 00 00 00 00  |................|
 EBE6  00 00 00 00 00 00 00 00 00 00 00 00 00 00 00 00  |................|
 EBF6  00 00 00 00 00 00 00 00 00 00 00 00 00 00 00 00  |................|
 EC06  00 00 00 00 00 00 00 00 00 00 00 00 00 00 00 00  |................|
 EC16  00 00 00 00 00 00 00 00 00 00 00 00 00 00 00 00  |................|
 EC26  00 00 00 00 00 00 00 00 00 00 00 00 00 00 00 00  |................|
 EC36  00 00 00 00 00 00 00 00 00 00 00 00 00 00 00 00  |................|
 EC46  00 00 00 00 00 00 00 00 00 00 00 00 00 00 00 00  |................|
 EC56  00 00 00 00 00 00 00 00 00 00 00 00 00 00 00 00  |................|
 EC66  00 00 00 00 00 00 00 00 00 00 00 00 00 00 00 00  |................|
 EC76  00 00 00 00 00 00 00 00 00 00 00 00 00 00 00 00  |................|
 EC86  00 00 00 00 00 00 00 00 00 00 00 00 00 00 00 00  |................|
 EC96  00 00 00 00 00 00 00 00 00 00 00 00 00 00 00 00  |................|
 ECA6  00 00 00 00 00 00 00 00 00 00 00 00 00 00 00 00  |................|
 ECB6  00 00 00 00 00 00 00 00 00 00 00 00 00 00 00 00  |................|
 ECC6  00 00 00 00 00 00 00 00 00 00 00 00 00 00 00 00  |................|
 ECD6  00 00 00 00 00 00 00 00 00 00 00 00 00 00 00 00  |................|
 ECE6  00 00 00 00 00 00 00 00 00 00 00 00 00 00 00 00  |................|
 ECF6  00 00 00 00 00 00 00 00 00 00 00 00 00 00 00 00  |................|
 ED06  00 00 00 00 00 00 00 00 00 00 00 00 00 00 00 00  |................|
 ED16  00 00 00 00 00 00 00 00 00 00 00 00 00 00 00 00  |................|
 ED26  00 00 00 00 00 00 00 00 00 00 00 00 00 00 00 00  |................|
 ED36  00 00 00 00 00 00 00 00 00 00 00 00 00 00 00 00  |................|
 ED46  00 00 00 00 00 00 00 00 00 00 00 00 00 00 00 00  |................|
 ED56  00 00 00 00 00 00 00 00 00 00 00 00 00 00 00 00  |................|
 ED66  00 00 00 00 00 00 00 00 00 00 00 00 00 00 00 00  |................|
 ED76  00 00 00 00 00 00 00 00 00 00 00 00 00 00 00 00  |................|
 ED86  00 00 00 00 00 00 00 00 00 00 00 00 00 00 00 00  |................|
 ED96  00 00 00 00 00 00 00 00 00 00 00 00 00 00 00 00  |................|
 EDA6  00 00 00 00 00 00 00 00 00 00 00 00 00 00 00 00  |................|
 EDB6  00 00 00 00 00 00 00 00 00 00 00 00 00 00 00 00  |................|
 EDC6  00 00 00 00 00 00 00 00 00 00 00 00 00 00 00 00  |................|
 EDD6  00 00 00 00 00 00 00 00 00 00 00 00 00 00 00 00  |................|
 EDE6  00 00 00 00 00 00 00 00 00 00 00 00 00 00 00 00  |................|
 EDF6  00 00 00 00 00 00 00 00 00 00 00 00 00 00 00 00  |................|
 EE06  00 00 00 00 00 00 00 00 00 00 00 00 00 00 00 00  |................|
 EE16  00 00 00 00 00 00 00 00 00 00 00 00 00 00 00 00  |................|
 EE26  00 00 00 00 00 00 00 00 00 00 00 00 00 00 00 00  |................|
 EE36  00 00 00 00 00 00 00 00 00 00 00 00 00 00 00 00  |................|
 EE46  00 00 00 00 00 00 00 00 00 00 00 00 00 00 00 00  |................|
 EE56  00 00 00 00 00 00 00 00 00 00 00 00 00 00 00 00  |................|
 EE66  00 00 00 00 00 00 00 00 00 00 00 00 00 00 00 00  |................|
 EE76  00 00 00 00 00 00 00 00 00 00 00 00 00 00 00 00  |................|
 EE86  00 00 00 00 00 00 00 00 00 00 00 00 00 00 00 00  |................|
 EE96  00 00 00 00 00 00 00 00 00 00 00 00 00 00 00 00  |................|
 EEA6  00 00 00 00 00 00 00 00 00 00 00 00 00 00 00 00  |................|
 EEB6  00 00 00 00 00 00 00 00 00 00 00 00 00 00 00 00  |................|
 EEC6  00 00 00 00 00 00 00 00 00 00 00 00 00 00 00 00  |................|
 EED6  00 00 00 00 00 00 00 00 00 00 00 00 00 00 00 00  |................|
 EEE6  00 00 00 00 00 00 00 00 00 00 00 00 00 00 00 00  |................|
 EEF6  00 00 00 00 00 00 00 00 00 00 00 00 00 00 00 00  |................|
 EF06  00 00 00 00 00 00 00 00 00 00 00 00 00 00 00 00  |................|
 EF16  00 00 00 00 00 00 00 00 00 00 00 00 00 00 00 00  |................|
 EF26  00 00 00 00 00 00 00 00 00 00 00 00 00 00 00 00  |................|
 EF36  00 00 00 00 00 00 00 00 00 00 00 00 00 00 00 00  |................|
 EF46  00 00 00 00 00 00 00 00 00 00 00 00 00 00 00 00  |................|
 EF56  00 00 00 00 00 00 00 00 00 00 00 00 00 00 00 00  |................|
 EF66  00 00 00 00 00 00 00 00 00 00 00 00 00 00 00 00  |................|
 EF76  00 00 00 00 00 00 00 00 00 00 00 00 00 00 00 00  |................|
 EF86  00 00 00 00 00 00 00 00 00 00 00 00 00 00 00 00  |................|
 EF96  00 00 00 00 00 00 00 00 00 00 00 00 00 00 00 00  |................|
 EFA6  00 00 00 00 00 00 00 00 00 00 00 00 00 00 00 00  |................|
 EFB6  00 00 00 00 00 00 00 00 00 00 00 00 00 00 00 00  |................|
 EFC6  00 00 00 00 00 00 00 00 00 00 00 00 00 00 00 00  |................|
 EFD6  00 00 00 00 00 00 00 00 00 00 00 00 00 00 00 00  |................|
 EFE6  00 00 00 00 00 00 00 00 00 00 00 00 00 00 00 00  |................|
 EFF6  00 00 00 00 00 00 00 00 00 00 00 00 00 00 00 00  |................|
 F006  00 00 00 00 00 00 00 00 00 00                    |..........      |
 F010  A2 00     LDX  #$00
 F012  BD 2A F0  LDA  $F02A, X
 F015  F0 06     BEQ  $F01D
 F017  20 26 F0  JSR  $F026
 F01A  E8        INX  
 F01B  80 F5     BRA  $F012
 F01D  4C 00 80  JMP  $8000
 F020  AD 04 F0  LDA  $F004
 F023  F0 FB     BEQ  $F020
 F025  60        RTS  
 F026  8D 01 F0  STA  $F001
 F029  60        RTS  
 F02A  54 61 6C 69 20 46 6F 72 74 68 20 32 20 64 65 66  |Tali Forth 2 def|
 F03A  61 75 6C 74 20 6B 65 72 6E 65 6C 20 66 6F 72 20  |ault kernel for |
 F04A  70 79 36 35 6D 6F 6E 20 28 31 38 2E 20 46 65 62  |py65mon (18. Feb|
 F05A  20 32 30 31 38 29 0A 00 00 00 00 00 00 00 00 00  | 2018)..........|
 F06A  00 00 00 00 00 00 00 00 00 00 00 00 00 00 00 00  |................|
 F07A  00 00 00 00 00 00 00 00 00 00 00 00 00 00 00 00  |................|
 F08A  00 00 00 00 00 00 00 00 00 00 00 00 00 00 00 00  |................|
 F09A  00 00 00 00 00 00 00 00 00 00 00 00 00 00 00 00  |................|
 F0AA  00 00 00 00 00 00 00 00 00 00 00 00 00 00 00 00  |................|
 F0BA  00 00 00 00 00 00 00 00 00 00 00 00 00 00 00 00  |................|
 F0CA  00 00 00 00 00 00 00 00 00 00 00 00 00 00 00 00  |................|
 F0DA  00 00 00 00 00 00 00 00 00 00 00 00 00 00 00 00  |................|
 F0EA  00 00 00 00 00 00 00 00 00 00 00 00 00 00 00 00  |................|
 F0FA  00 00 00 00 00 00 00 00 00 00 00 00 00 00 00 00  |................|
 F10A  00 00 00 00 00 00 00 00 00 00 00 00 00 00 00 00  |................|
 F11A  00 00 00 00 00 00 00 00 00 00 00 00 00 00 00 00  |................|
 F12A  00 00 00 00 00 00 00 00 00 00 00 00 00 00 00 00  |................|
 F13A  00 00 00 00 00 00 00 00 00 00 00 00 00 00 00 00  |................|
 F14A  00 00 00 00 00 00 00 00 00 00 00 00 00 00 00 00  |................|
 F15A  00 00 00 00 00 00 00 00 00 00 00 00 00 00 00 00  |................|
 F16A  00 00 00 00 00 00 00 00 00 00 00 00 00 00 00 00  |................|
 F17A  00 00 00 00 00 00 00 00 00 00 00 00 00 00 00 00  |................|
 F18A  00 00 00 00 00 00 00 00 00 00 00 00 00 00 00 00  |................|
 F19A  00 00 00 00 00 00 00 00 00 00 00 00 00 00 00 00  |................|
 F1AA  00 00 00 00 00 00 00 00 00 00 00 00 00 00 00 00  |................|
 F1BA  00 00 00 00 00 00 00 00 00 00 00 00 00 00 00 00  |................|
 F1CA  00 00 00 00 00 00 00 00 00 00 00 00 00 00 00 00  |................|
 F1DA  00 00 00 00 00 00 00 00 00 00 00 00 00 00 00 00  |................|
 F1EA  00 00 00 00 00 00 00 00 00 00 00 00 00 00 00 00  |................|
 F1FA  00 00 00 00 00 00 00 00 00 00 00 00 00 00 00 00  |................|
 F20A  00 00 00 00 00 00 00 00 00 00 00 00 00 00 00 00  |................|
 F21A  00 00 00 00 00 00 00 00 00 00 00 00 00 00 00 00  |................|
 F22A  00 00 00 00 00 00 00 00 00 00 00 00 00 00 00 00  |................|
 F23A  00 00 00 00 00 00 00 00 00 00 00 00 00 00 00 00  |................|
 F24A  00 00 00 00 00 00 00 00 00 00 00 00 00 00 00 00  |................|
 F25A  00 00 00 00 00 00 00 00 00 00 00 00 00 00 00 00  |................|
 F26A  00 00 00 00 00 00 00 00 00 00 00 00 00 00 00 00  |................|
 F27A  00 00 00 00 00 00 00 00 00 00 00 00 00 00 00 00  |................|
 F28A  00 00 00 00 00 00 00 00 00 00 00 00 00 00 00 00  |................|
 F29A  00 00 00 00 00 00 00 00 00 00 00 00 00 00 00 00  |................|
 F2AA  00 00 00 00 00 00 00 00 00 00 00 00 00 00 00 00  |................|
 F2BA  00 00 00 00 00 00 00 00 00 00 00 00 00 00 00 00  |................|
 F2CA  00 00 00 00 00 00 00 00 00 00 00 00 00 00 00 00  |................|
 F2DA  00 00 00 00 00 00 00 00 00 00 00 00 00 00 00 00  |................|
 F2EA  00 00 00 00 00 00 00 00 00 00 00 00 00 00 00 00  |................|
 F2FA  00 00 00 00 00 00 00 00 00 00 00 00 00 00 00 00  |................|
 F30A  00 00 00 00 00 00 00 00 00 00 00 00 00 00 00 00  |................|
 F31A  00 00 00 00 00 00 00 00 00 00 00 00 00 00 00 00  |................|
 F32A  00 00 00 00 00 00 00 00 00 00 00 00 00 00 00 00  |................|
 F33A  00 00 00 00 00 00 00 00 00 00 00 00 00 00 00 00  |................|
 F34A  00 00 00 00 00 00 00 00 00 00 00 00 00 00 00 00  |................|
 F35A  00 00 00 00 00 00 00 00 00 00 00 00 00 00 00 00  |................|
 F36A  00 00 00 00 00 00 00 00 00 00 00 00 00 00 00 00  |................|
 F37A  00 00 00 00 00 00 00 00 00 00 00 00 00 00 00 00  |................|
 F38A  00 00 00 00 00 00 00 00 00 00 00 00 00 00 00 00  |................|
 F39A  00 00 00 00 00 00 00 00 00 00 00 00 00 00 00 00  |................|
 F3AA  00 00 00 00 00 00 00 00 00 00 00 00 00 00 00 00  |................|
 F3BA  00 00 00 00 00 00 00 00 00 00 00 00 00 00 00 00  |................|
 F3CA  00 00 00 00 00 00 00 00 00 00 00 00 00 00 00 00  |................|
 F3DA  00 00 00 00 00 00 00 00 00 00 00 00 00 00 00 00  |................|
 F3EA  00 00 00 00 00 00 00 00 00 00 00 00 00 00 00 00  |................|
 F3FA  00 00 00 00 00 00 00 00 00 00 00 00 00 00 00 00  |................|
 F40A  00 00 00 00 00 00 00 00 00 00 00 00 00 00 00 00  |................|
 F41A  00 00 00 00 00 00 00 00 00 00 00 00 00 00 00 00  |................|
 F42A  00 00 00 00 00 00 00 00 00 00 00 00 00 00 00 00  |................|
 F43A  00 00 00 00 00 00 00 00 00 00 00 00 00 00 00 00  |................|
 F44A  00 00 00 00 00 00 00 00 00 00 00 00 00 00 00 00  |................|
 F45A  00 00 00 00 00 00 00 00 00 00 00 00 00 00 00 00  |................|
 F46A  00 00 00 00 00 00 00 00 00 00 00 00 00 00 00 00  |................|
 F47A  00 00 00 00 00 00 00 00 00 00 00 00 00 00 00 00  |................|
 F48A  00 00 00 00 00 00 00 00 00 00 00 00 00 00 00 00  |................|
 F49A  00 00 00 00 00 00 00 00 00 00 00 00 00 00 00 00  |................|
 F4AA  00 00 00 00 00 00 00 00 00 00 00 00 00 00 00 00  |................|
 F4BA  00 00 00 00 00 00 00 00 00 00 00 00 00 00 00 00  |................|
 F4CA  00 00 00 00 00 00 00 00 00 00 00 00 00 00 00 00  |................|
 F4DA  00 00 00 00 00 00 00 00 00 00 00 00 00 00 00 00  |................|
 F4EA  00 00 00 00 00 00 00 00 00 00 00 00 00 00 00 00  |................|
 F4FA  00 00 00 00 00 00 00 00 00 00 00 00 00 00 00 00  |................|
 F50A  00 00 00 00 00 00 00 00 00 00 00 00 00 00 00 00  |................|
 F51A  00 00 00 00 00 00 00 00 00 00 00 00 00 00 00 00  |................|
 F52A  00 00 00 00 00 00 00 00 00 00 00 00 00 00 00 00  |................|
 F53A  00 00 00 00 00 00 00 00 00 00 00 00 00 00 00 00  |................|
 F54A  00 00 00 00 00 00 00 00 00 00 00 00 00 00 00 00  |................|
 F55A  00 00 00 00 00 00 00 00 00 00 00 00 00 00 00 00  |................|
 F56A  00 00 00 00 00 00 00 00 00 00 00 00 00 00 00 00  |................|
 F57A  00 00 00 00 00 00 00 00 00 00 00 00 00 00 00 00  |................|
 F58A  00 00 00 00 00 00 00 00 00 00 00 00 00 00 00 00  |................|
 F59A  00 00 00 00 00 00 00 00 00 00 00 00 00 00 00 00  |................|
 F5AA  00 00 00 00 00 00 00 00 00 00 00 00 00 00 00 00  |................|
 F5BA  00 00 00 00 00 00 00 00 00 00 00 00 00 00 00 00  |................|
 F5CA  00 00 00 00 00 00 00 00 00 00 00 00 00 00 00 00  |................|
 F5DA  00 00 00 00 00 00 00 00 00 00 00 00 00 00 00 00  |................|
 F5EA  00 00 00 00 00 00 00 00 00 00 00 00 00 00 00 00  |................|
 F5FA  00 00 00 00 00 00 00 00 00 00 00 00 00 00 00 00  |................|
 F60A  00 00 00 00 00 00 00 00 00 00 00 00 00 00 00 00  |................|
 F61A  00 00 00 00 00 00 00 00 00 00 00 00 00 00 00 00  |................|
 F62A  00 00 00 00 00 00 00 00 00 00 00 00 00 00 00 00  |................|
 F63A  00 00 00 00 00 00 00 00 00 00 00 00 00 00 00 00  |................|
 F64A  00 00 00 00 00 00 00 00 00 00 00 00 00 00 00 00  |................|
 F65A  00 00 00 00 00 00 00 00 00 00 00 00 00 00 00 00  |................|
 F66A  00 00 00 00 00 00 00 00 00 00 00 00 00 00 00 00  |................|
 F67A  00 00 00 00 00 00 00 00 00 00 00 00 00 00 00 00  |................|
 F68A  00 00 00 00 00 00 00 00 00 00 00 00 00 00 00 00  |................|
 F69A  00 00 00 00 00 00 00 00 00 00 00 00 00 00 00 00  |................|
 F6AA  00 00 00 00 00 00 00 00 00 00 00 00 00 00 00 00  |................|
 F6BA  00 00 00 00 00 00 00 00 00 00 00 00 00 00 00 00  |................|
 F6CA  00 00 00 00 00 00 00 00 00 00 00 00 00 00 00 00  |................|
 F6DA  00 00 00 00 00 00 00 00 00 00 00 00 00 00 00 00  |................|
 F6EA  00 00 00 00 00 00 00 00 00 00 00 00 00 00 00 00  |................|
 F6FA  00 00 00 00 00 00 00 00 00 00 00 00 00 00 00 00  |................|
 F70A  00 00 00 00 00 00 00 00 00 00 00 00 00 00 00 00  |................|
 F71A  00 00 00 00 00 00 00 00 00 00 00 00 00 00 00 00  |................|
 F72A  00 00 00 00 00 00 00 00 00 00 00 00 00 00 00 00  |................|
 F73A  00 00 00 00 00 00 00 00 00 00 00 00 00 00 00 00  |................|
 F74A  00 00 00 00 00 00 00 00 00 00 00 00 00 00 00 00  |................|
 F75A  00 00 00 00 00 00 00 00 00 00 00 00 00 00 00 00  |................|
 F76A  00 00 00 00 00 00 00 00 00 00 00 00 00 00 00 00  |................|
 F77A  00 00 00 00 00 00 00 00 00 00 00 00 00 00 00 00  |................|
 F78A  00 00 00 00 00 00 00 00 00 00 00 00 00 00 00 00  |................|
 F79A  00 00 00 00 00 00 00 00 00 00 00 00 00 00 00 00  |................|
 F7AA  00 00 00 00 00 00 00 00 00 00 00 00 00 00 00 00  |................|
 F7BA  00 00 00 00 00 00 00 00 00 00 00 00 00 00 00 00  |................|
 F7CA  00 00 00 00 00 00 00 00 00 00 00 00 00 00 00 00  |................|
 F7DA  00 00 00 00 00 00 00 00 00 00 00 00 00 00 00 00  |................|
 F7EA  00 00 00 00 00 00 00 00 00 00 00 00 00 00 00 00  |................|
 F7FA  00 00 00 00 00 00 00 00 00 00 00 00 00 00 00 00  |................|
 F80A  00 00 00 00 00 00 00 00 00 00 00 00 00 00 00 00  |................|
 F81A  00 00 00 00 00 00 00 00 00 00 00 00 00 00 00 00  |................|
 F82A  00 00 00 00 00 00 00 00 00 00 00 00 00 00 00 00  |................|
 F83A  00 00 00 00 00 00 00 00 00 00 00 00 00 00 00 00  |................|
 F84A  00 00 00 00 00 00 00 00 00 00 00 00 00 00 00 00  |................|
 F85A  00 00 00 00 00 00 00 00 00 00 00 00 00 00 00 00  |................|
 F86A  00 00 00 00 00 00 00 00 00 00 00 00 00 00 00 00  |................|
 F87A  00 00 00 00 00 00 00 00 00 00 00 00 00 00 00 00  |................|
 F88A  00 00 00 00 00 00 00 00 00 00 00 00 00 00 00 00  |................|
 F89A  00 00 00 00 00 00 00 00 00 00 00 00 00 00 00 00  |................|
 F8AA  00 00 00 00 00 00 00 00 00 00 00 00 00 00 00 00  |................|
 F8BA  00 00 00 00 00 00 00 00 00 00 00 00 00 00 00 00  |................|
 F8CA  00 00 00 00 00 00 00 00 00 00 00 00 00 00 00 00  |................|
 F8DA  00 00 00 00 00 00 00 00 00 00 00 00 00 00 00 00  |................|
 F8EA  00 00 00 00 00 00 00 00 00 00 00 00 00 00 00 00  |................|
 F8FA  00 00 00 00 00 00 00 00 00 00 00 00 00 00 00 00  |................|
 F90A  00 00 00 00 00 00 00 00 00 00 00 00 00 00 00 00  |................|
 F91A  00 00 00 00 00 00 00 00 00 00 00 00 00 00 00 00  |................|
 F92A  00 00 00 00 00 00 00 00 00 00 00 00 00 00 00 00  |................|
 F93A  00 00 00 00 00 00 00 00 00 00 00 00 00 00 00 00  |................|
 F94A  00 00 00 00 00 00 00 00 00 00 00 00 00 00 00 00  |................|
 F95A  00 00 00 00 00 00 00 00 00 00 00 00 00 00 00 00  |................|
 F96A  00 00 00 00 00 00 00 00 00 00 00 00 00 00 00 00  |................|
 F97A  00 00 00 00 00 00 00 00 00 00 00 00 00 00 00 00  |................|
 F98A  00 00 00 00 00 00 00 00 00 00 00 00 00 00 00 00  |................|
 F99A  00 00 00 00 00 00 00 00 00 00 00 00 00 00 00 00  |................|
 F9AA  00 00 00 00 00 00 00 00 00 00 00 00 00 00 00 00  |................|
 F9BA  00 00 00 00 00 00 00 00 00 00 00 00 00 00 00 00  |................|
 F9CA  00 00 00 00 00 00 00 00 00 00 00 00 00 00 00 00  |................|
 F9DA  00 00 00 00 00 00 00 00 00 00 00 00 00 00 00 00  |................|
 F9EA  00 00 00 00 00 00 00 00 00 00 00 00 00 00 00 00  |................|
 F9FA  00 00 00 00 00 00 00 00 00 00 00 00 00 00 00 00  |................|
 FA0A  00 00 00 00 00 00 00 00 00 00 00 00 00 00 00 00  |................|
 FA1A  00 00 00 00 00 00 00 00 00 00 00 00 00 00 00 00  |................|
 FA2A  00 00 00 00 00 00 00 00 00 00 00 00 00 00 00 00  |................|
 FA3A  00 00 00 00 00 00 00 00 00 00 00 00 00 00 00 00  |................|
 FA4A  00 00 00 00 00 00 00 00 00 00 00 00 00 00 00 00  |................|
 FA5A  00 00 00 00 00 00 00 00 00 00 00 00 00 00 00 00  |................|
 FA6A  00 00 00 00 00 00 00 00 00 00 00 00 00 00 00 00  |................|
 FA7A  00 00 00 00 00 00 00 00 00 00 00 00 00 00 00 00  |................|
 FA8A  00 00 00 00 00 00 00 00 00 00 00 00 00 00 00 00  |................|
 FA9A  00 00 00 00 00 00 00 00 00 00 00 00 00 00 00 00  |................|
 FAAA  00 00 00 00 00 00 00 00 00 00 00 00 00 00 00 00  |................|
 FABA  00 00 00 00 00 00 00 00 00 00 00 00 00 00 00 00  |................|
 FACA  00 00 00 00 00 00 00 00 00 00 00 00 00 00 00 00  |................|
 FADA  00 00 00 00 00 00 00 00 00 00 00 00 00 00 00 00  |................|
 FAEA  00 00 00 00 00 00 00 00 00 00 00 00 00 00 00 00  |................|
 FAFA  00 00 00 00 00 00 00 00 00 00 00 00 00 00 00 00  |................|
 FB0A  00 00 00 00 00 00 00 00 00 00 00 00 00 00 00 00  |................|
 FB1A  00 00 00 00 00 00 00 00 00 00 00 00 00 00 00 00  |................|
 FB2A  00 00 00 00 00 00 00 00 00 00 00 00 00 00 00 00  |................|
 FB3A  00 00 00 00 00 00 00 00 00 00 00 00 00 00 00 00  |................|
 FB4A  00 00 00 00 00 00 00 00 00 00 00 00 00 00 00 00  |................|
 FB5A  00 00 00 00 00 00 00 00 00 00 00 00 00 00 00 00  |................|
 FB6A  00 00 00 00 00 00 00 00 00 00 00 00 00 00 00 00  |................|
 FB7A  00 00 00 00 00 00 00 00 00 00 00 00 00 00 00 00  |................|
 FB8A  00 00 00 00 00 00 00 00 00 00 00 00 00 00 00 00  |................|
 FB9A  00 00 00 00 00 00 00 00 00 00 00 00 00 00 00 00  |................|
 FBAA  00 00 00 00 00 00 00 00 00 00 00 00 00 00 00 00  |................|
 FBBA  00 00 00 00 00 00 00 00 00 00 00 00 00 00 00 00  |................|
 FBCA  00 00 00 00 00 00 00 00 00 00 00 00 00 00 00 00  |................|
 FBDA  00 00 00 00 00 00 00 00 00 00 00 00 00 00 00 00  |................|
 FBEA  00 00 00 00 00 00 00 00 00 00 00 00 00 00 00 00  |................|
 FBFA  00 00 00 00 00 00 00 00 00 00 00 00 00 00 00 00  |................|
 FC0A  00 00 00 00 00 00 00 00 00 00 00 00 00 00 00 00  |................|
 FC1A  00 00 00 00 00 00 00 00 00 00 00 00 00 00 00 00  |................|
 FC2A  00 00 00 00 00 00 00 00 00 00 00 00 00 00 00 00  |................|
 FC3A  00 00 00 00 00 00 00 00 00 00 00 00 00 00 00 00  |................|
 FC4A  00 00 00 00 00 00 00 00 00 00 00 00 00 00 00 00  |................|
 FC5A  00 00 00 00 00 00 00 00 00 00 00 00 00 00 00 00  |................|
 FC6A  00 00 00 00 00 00 00 00 00 00 00 00 00 00 00 00  |................|
 FC7A  00 00 00 00 00 00 00 00 00 00 00 00 00 00 00 00  |................|
 FC8A  00 00 00 00 00 00 00 00 00 00 00 00 00 00 00 00  |................|
 FC9A  00 00 00 00 00 00 00 00 00 00 00 00 00 00 00 00  |................|
 FCAA  00 00 00 00 00 00 00 00 00 00 00 00 00 00 00 00  |................|
 FCBA  00 00 00 00 00 00 00 00 00 00 00 00 00 00 00 00  |................|
 FCCA  00 00 00 00 00 00 00 00 00 00 00 00 00 00 00 00  |................|
 FCDA  00 00 00 00 00 00 00 00 00 00 00 00 00 00 00 00  |................|
 FCEA  00 00 00 00 00 00 00 00 00 00 00 00 00 00 00 00  |................|
 FCFA  00 00 00 00 00 00 00 00 00 00 00 00 00 00 00 00  |................|
 FD0A  00 00 00 00 00 00 00 00 00 00 00 00 00 00 00 00  |................|
 FD1A  00 00 00 00 00 00 00 00 00 00 00 00 00 00 00 00  |................|
 FD2A  00 00 00 00 00 00 00 00 00 00 00 00 00 00 00 00  |................|
 FD3A  00 00 00 00 00 00 00 00 00 00 00 00 00 00 00 00  |................|
 FD4A  00 00 00 00 00 00 00 00 00 00 00 00 00 00 00 00  |................|
 FD5A  00 00 00 00 00 00 00 00 00 00 00 00 00 00 00 00  |................|
 FD6A  00 00 00 00 00 00 00 00 00 00 00 00 00 00 00 00  |................|
 FD7A  00 00 00 00 00 00 00 00 00 00 00 00 00 00 00 00  |................|
 FD8A  00 00 00 00 00 00 00 00 00 00 00 00 00 00 00 00  |................|
 FD9A  00 00 00 00 00 00 00 00 00 00 00 00 00 00 00 00  |................|
 FDAA  00 00 00 00 00 00 00 00 00 00 00 00 00 00 00 00  |................|
 FDBA  00 00 00 00 00 00 00 00 00 00 00 00 00 00 00 00  |................|
 FDCA  00 00 00 00 00 00 00 00 00 00 00 00 00 00 00 00  |................|
 FDDA  00 00 00 00 00 00 00 00 00 00 00 00 00 00 00 00  |................|
 FDEA  00 00 00 00 00 00 00 00 00 00 00 00 00 00 00 00  |................|
 FDFA  00 00 00 00 00 00 00 00 00 00 00 00 00 00 00 00  |................|
 FE0A  00 00 00 00 00 00 00 00 00 00 00 00 00 00 00 00  |................|
 FE1A  00 00 00 00 00 00 00 00 00 00 00 00 00 00 00 00  |................|
 FE2A  00 00 00 00 00 00 00 00 00 00 00 00 00 00 00 00  |................|
 FE3A  00 00 00 00 00 00 00 00 00 00 00 00 00 00 00 00  |................|
 FE4A  00 00 00 00 00 00 00 00 00 00 00 00 00 00 00 00  |................|
 FE5A  00 00 00 00 00 00 00 00 00 00 00 00 00 00 00 00  |................|
 FE6A  00 00 00 00 00 00 00 00 00 00 00 00 00 00 00 00  |................|
 FE7A  00 00 00 00 00 00 00 00 00 00 00 00 00 00 00 00  |................|
 FE8A  00 00 00 00 00 00 00 00 00 00 00 00 00 00 00 00  |................|
 FE9A  00 00 00 00 00 00 00 00 00 00 00 00 00 00 00 00  |................|
 FEAA  00 00 00 00 00 00 00 00 00 00 00 00 00 00 00 00  |................|
 FEBA  00 00 00 00 00 00 00 00 00 00 00 00 00 00 00 00  |................|
 FECA  00 00 00 00 00 00 00 00 00 00 00 00 00 00 00 00  |................|
 FEDA  00 00 00 00 00 00 00 00 00 00 00 00 00 00 00 00  |................|
 FEEA  00 00 00 00 00 00 00 00 00 00 00 00 00 00 00 00  |................|
 FEFA  00 00 00 00 00 00 00 00 00 00 00 00 00 00 00 00  |................|
 FF0A  00 00 00 00 00 00 00 00 00 00 00 00 00 00 00 00  |................|
 FF1A  00 00 00 00 00 00 00 00 00 00 00 00 00 00 00 00  |................|
 FF2A  00 00 00 00 00 00 00 00 00 00 00 00 00 00 00 00  |................|
 FF3A  00 00 00 00 00 00 00 00 00 00 00 00 00 00 00 00  |................|
 FF4A  00 00 00 00 00 00 00 00 00 00 00 00 00 00 00 00  |................|
 FF5A  00 00 00 00 00 00 00 00 00 00 00 00 00 00 00 00  |................|
 FF6A  00 00 00 00 00 00 00 00 00 00 00 00 00 00 00 00  |................|
 FF7A  00 00 00 00 00 00 00 00 00 00 00 00 00 00 00 00  |................|
 FF8A  00 00 00 00 00 00 00 00 00 00 00 00 00 00 00 00  |................|
 FF9A  00 00 00 00 00 00 00 00 00 00 00 00 00 00 00 00  |................|
 FFAA  00 00 00 00 00 00 00 00 00 00 00 00 00 00 00 00  |................|
 FFBA  00 00 00 00 00 00 00 00 00 00 00 00 00 00 00 00  |................|
 FFCA  00 00 00 00 00 00 00 00 00 00 00 00 00 00 00 00  |................|
 FFDA  00 00 00 00 00 00 00 00 00 00 00 00 00 00 00 00  |................|
 FFEA  00 00 00 00 00 00 00 00 00 00 00 00 00 00 00 00  |................|
 FFFA  10 F0 10 F0 10 F0                                |......          |
