 8000  D8        CLD  
 8001  A9 27     LDA  #$27
 8003  85 10     STA  $10
 8005  A9 F0     LDA  #$F0
 8007  85 11     STA  $11
 8009  A2 21     LDX  #$21
 800B  BD C5 80  LDA  $80C5, X
 800E  95 00     STA  $00, X
 8010  CA        DEX  
 8011  D0 F8     BNE  $800B
 8013  AD C5 80  LDA  $80C5
 8016  85 00     STA  $00
 8018  A2 FF     LDX  #$FF
 801A  9A        TXS  
 801B  A2 78     LDX  #$78
 801D  A0 31     LDY  #$31
 801F  A9 00     LDA  #$00
 8021  B9 E7 80  LDA  $80E7, Y
 8024  91 1E     STA  ($1E), Y
 8026  88        DEY  
 8027  D0 F8     BNE  $8021
 8029  AD E7 80  LDA  $80E7
 802C  92 1E     STA  ($1E)
 802E  20 11 8A  JSR  $8A11
 8031  CA        DEX  
 8032  CA        DEX  
 8033  CA        DEX  
 8034  CA        DEX  
 8035  A9 B8     LDA  #$B8
 8037  95 02     STA  $02, X
 8039  A9 BA     LDA  #$BA
 803B  95 03     STA  $03, X
 803D  A9 63     LDA  #$63
 803F  38        SEC  
 8040  E9 B8     SBC  #$B8
 8042  95 00     STA  $00, X
 8044  A9 BC     LDA  #$BC
 8046  E9 BA     SBC  #$BA
 8048  95 01     STA  $01, X
 804A  20 40 91  JSR  $9140
 804D  CA        DEX  
 804E  CA        DEX  
 804F  CA        DEX  
 8050  CA        DEX  
 8051  A9 63     LDA  #$63
 8053  95 02     STA  $02, X
 8055  A9 BC     LDA  #$BC
 8057  95 03     STA  $03, X
 8059  A9 65     LDA  #$65
 805B  38        SEC  
 805C  E9 63     SBC  #$63
 805E  95 00     STA  $00, X
 8060  A9 BC     LDA  #$BC
 8062  E9 BC     SBC  #$BC
 8064  95 01     STA  $01, X
 8066  20 40 91  JSR  $9140
 8069  9C 00 7C  STZ  $7C00
 806C  9C 80 7C  STZ  $7C80
 806F  9C 00 7D  STZ  $7D00
 8072  9C 80 7D  STZ  $7D80
 8075  9C 00 7E  STZ  $7E00
 8078  9C 80 7E  STZ  $7E80
 807B  9C 00 7F  STZ  $7F00
 807E  9C 80 7F  STZ  $7F80
 8081  A2 78     LDX  #$78
 8083  8A        TXA  
 8084  A2 FF     LDX  #$FF
 8086  9A        TXS  
 8087  AA        TAX  
 8088  64 0E     STZ  $0E
 808A  64 0F     STZ  $0F
 808C  64 06     STZ  $06
 808E  64 07     STZ  $07
 8090  64 16     STZ  $16
 8092  64 17     STZ  $17
 8094  A9 00     LDA  #$00
 8096  85 08     STA  $08
 8098  A9 02     LDA  #$02
 809A  85 09     STA  $09
 809C  64 0A     STZ  $0A
 809E  64 0B     STZ  $0B
 80A0  20 A7 9A  JSR  $9AA7
 80A3  B5 00     LDA  $00, X
 80A5  D0 05     BNE  $80AC
 80A7  A9 06     LDA  #$06
 80A9  4C 52 D7  JMP  $D752
 80AC  E8        INX  
 80AD  E8        INX  
 80AE  20 A9 D6  JSR  $D6A9
 80B1  E0 78     CPX  #$78
 80B3  F0 05     BEQ  $80BA
 80B5  90 03     BCC  $80BA
 80B7  4C 50 D7  JMP  $D750
 80BA  A5 16     LDA  $16
 80BC  F0 02     BEQ  $80C0
 80BE  A9 01     LDA  #$01
 80C0  20 65 D7  JSR  $D765
 80C3  80 CF     BRA  $8094
 80C5  FF 07 24 CA 00 00 00 00 00 02 00 00 00 00 00 00  |..$.............|
 80D5  27 F0 21 F0 00 00 00 00 0A 00 14 00 00 00 FF 02  |'.!.............|
 80E5  00 00 00 00 00 00 00 04 24 CA B8 CA 7D D3 60 CA  |........$...}.`.|
 80F5  00 00 00 00 00 00 00 00 00 00 00 00 00 00 00 00  |................|
 8105  01 00 00 00 00 00 00 00 00 00 FF 03 00 00 00 00  |................|
 8115  80 85 80 85                                      |....            |
 8119  20 54 9D  JSR  $9D54
 811C  A0 81     LDY  #$81
 811E  A9 24     LDA  #$24
 8120  20 09 D6  JSR  $D609
 8123  60        RTS  
 8124  B5 04     LDA  $04, X
 8126  15 05     ORA  $05, X
 8128  F0 09     BEQ  $8133
 812A  20 53 A5  JSR  $A553
 812D  20 11 8A  JSR  $8A11
 8130  4C 81 80  JMP  $8081
 8133  8A        TXA  
 8134  18        CLC  
 8135  69 06     ADC  #$06
 8137  AA        TAX  
 8138  60        RTS  
 8139  A9 01     LDA  #$01
 813B  20 41 D7  JSR  $D741
 813E  B5 01     LDA  $01, X
 8140  10 0D     BPL  $814F
 8142  38        SEC  
 8143  A9 00     LDA  #$00
 8145  F5 00     SBC  $00, X
 8147  95 00     STA  $00, X
 8149  A9 00     LDA  #$00
 814B  F5 01     SBC  $01, X
 814D  95 01     STA  $01, X
 814F  60        RTS  
 8150  A9 02     LDA  #$02
 8152  20 41 D7  JSR  $D741
 8155  B5 00     LDA  $00, X
 8157  15 01     ORA  $01, X
 8159  D0 09     BNE  $8164
 815B  E8        INX  
 815C  E8        INX  
 815D  74 00     STZ  $00, X
 815F  74 01     STZ  $01, X
 8161  4C 50 82  JMP  $8250
 8164  B5 00     LDA  $00, X
 8166  85 26     STA  $26
 8168  64 27     STZ  $27
 816A  B5 02     LDA  $02, X
 816C  85 24     STA  $24
 816E  B5 03     LDA  $03, X
 8170  85 25     STA  $25
 8172  E8        INX  
 8173  E8        INX  
 8174  A0 00     LDY  #$00
 8176  A5 20     LDA  $20
 8178  29 F7     AND  #$F7
 817A  1A        INC  
 817B  09 08     ORA  #$08
 817D  85 20     STA  $20
 817F  20 8B 93  JSR  $938B
 8182  C9 0A     CMP  #$0A
 8184  F0 20     BEQ  $81A6
 8186  C9 0D     CMP  #$0D
 8188  F0 1C     BEQ  $81A6
 818A  C9 08     CMP  #$08
 818C  F0 22     BEQ  $81B0
 818E  C9 7F     CMP  #$7F
 8190  F0 1E     BEQ  $81B0
 8192  C9 10     CMP  #$10
 8194  F0 36     BEQ  $81CC
 8196  C9 0E     CMP  #$0E
 8198  F0 44     BEQ  $81DE
 819A  20 78 8E  JSR  $8E78
 819D  91 24     STA  ($24), Y
 819F  C8        INY  
 81A0  C4 26     CPY  $26
 81A2  D0 DB     BNE  $817F
 81A4  80 03     BRA  $81A9
 81A6  20 57 A1  JSR  $A157
 81A9  94 00     STY  $00, X
 81AB  74 01     STZ  $01, X
 81AD  4C 50 82  JMP  $8250
 81B0  C0 00     CPY  #$00
 81B2  D0 06     BNE  $81BA
 81B4  A9 07     LDA  #$07
 81B6  20 78 8E  JSR  $8E78
 81B9  C8        INY  
 81BA  88        DEY  
 81BB  A9 08     LDA  #$08
 81BD  20 78 8E  JSR  $8E78
 81C0  A9 20     LDA  #$20
 81C2  20 78 8E  JSR  $8E78
 81C5  A9 08     LDA  #$08
 81C7  20 78 8E  JSR  $8E78
 81CA  80 B3     BRA  $817F
 81CC  A5 20     LDA  $20
 81CE  29 07     AND  #$07
 81D0  D0 08     BNE  $81DA
 81D2  A5 20     LDA  $20
 81D4  09 07     ORA  #$07
 81D6  85 20     STA  $20
 81D8  80 11     BRA  $81EB
 81DA  C6 20     DEC  $20
 81DC  80 0D     BRA  $81EB
 81DE  A9 08     LDA  #$08
 81E0  24 20     BIT  $20
 81E2  D0 07     BNE  $81EB
 81E4  A5 20     LDA  $20
 81E6  29 F7     AND  #$F7
 81E8  1A        INC  
 81E9  85 20     STA  $20
 81EB  A5 20     LDA  $20
 81ED  29 F7     AND  #$F7
 81EF  85 20     STA  $20
 81F1  A9 00     LDA  #$00
 81F3  85 28     STA  $28
 81F5  A9 7C     LDA  #$7C
 81F7  85 29     STA  $29
 81F9  A5 20     LDA  $20
 81FB  6A        ROR  
 81FC  29 03     AND  #$03
 81FE  18        CLC  
 81FF  65 29     ADC  $29
 8201  85 29     STA  $29
 8203  A5 20     LDA  $20
 8205  6A        ROR  
 8206  6A        ROR  
 8207  29 80     AND  #$80
 8209  18        CLC  
 820A  65 28     ADC  $28
 820C  85 28     STA  $28
 820E  90 02     BCC  $8212
 8210  E6 29     INC  $29
 8212  A9 0D     LDA  #$0D
 8214  20 78 8E  JSR  $8E78
 8217  C0 00     CPY  #$00
 8219  F0 08     BEQ  $8223
 821B  A9 20     LDA  #$20
 821D  20 78 8E  JSR  $8E78
 8220  88        DEY  
 8221  80 F4     BRA  $8217
 8223  A9 0D     LDA  #$0D
 8225  20 78 8E  JSR  $8E78
 8228  B1 28     LDA  ($28), Y
 822A  85 21     STA  $21
 822C  E6 28     INC  $28
 822E  D0 02     BNE  $8232
 8230  E6 29     INC  $29
 8232  A9 0D     LDA  #$0D
 8234  20 78 8E  JSR  $8E78
 8237  C4 21     CPY  $21
 8239  D0 03     BNE  $823E
 823B  4C 7F 81  JMP  $817F
 823E  C4 26     CPY  $26
 8240  F0 0A     BEQ  $824C
 8242  B1 28     LDA  ($28), Y
 8244  91 24     STA  ($24), Y
 8246  20 78 8E  JSR  $8E78
 8249  C8        INY  
 824A  80 EB     BRA  $8237
 824C  88        DEY  
 824D  4C 7F 81  JMP  $817F
 8250  A9 00     LDA  #$00
 8252  85 28     STA  $28
 8254  A9 7C     LDA  #$7C
 8256  85 29     STA  $29
 8258  A5 20     LDA  $20
 825A  6A        ROR  
 825B  29 03     AND  #$03
 825D  18        CLC  
 825E  65 29     ADC  $29
 8260  85 29     STA  $29
 8262  A5 20     LDA  $20
 8264  6A        ROR  
 8265  6A        ROR  
 8266  29 80     AND  #$80
 8268  18        CLC  
 8269  65 28     ADC  $28
 826B  85 28     STA  $28
 826D  90 02     BCC  $8271
 826F  E6 29     INC  $29
 8271  98        TYA  
 8272  C9 80     CMP  #$80
 8274  90 02     BCC  $8278
 8276  A9 7F     LDA  #$7F
 8278  85 21     STA  $21
 827A  A0 00     LDY  #$00
 827C  91 28     STA  ($28), Y
 827E  E6 28     INC  $28
 8280  D0 02     BNE  $8284
 8282  E6 29     INC  $29
 8284  C4 21     CPY  $21
 8286  F0 07     BEQ  $828F
 8288  B1 24     LDA  ($24), Y
 828A  91 28     STA  ($28), Y
 828C  C8        INY  
 828D  80 F5     BRA  $8284
 828F  60        RTS  
 8290  A5 16     LDA  $16
 8292  05 17     ORA  $17
 8294  F0 0C     BEQ  $82A2
 8296  20 C5 85  JSR  $85C5
 8299  A0 8B     LDY  #$8B
 829B  A9 63     LDA  #$63
 829D  20 09 D6  JSR  $D609
 82A0  80 06     BRA  $82A8
 82A2  20 41 A2  JSR  $A241
 82A5  20 63 8B  JSR  $8B63
 82A8  60        RTS  
 82A9  A9 01     LDA  #$01
 82AB  20 41 D7  JSR  $D741
 82AE  A0 00     LDY  #$00
 82B0  A9 4C     LDA  #$4C
 82B2  91 00     STA  ($00), Y
 82B4  C8        INY  
 82B5  B5 00     LDA  $00, X
 82B7  91 00     STA  ($00), Y
 82B9  C8        INY  
 82BA  B5 01     LDA  $01, X
 82BC  91 00     STA  ($00), Y
 82BE  C8        INY  
 82BF  98        TYA  
 82C0  18        CLC  
 82C1  65 00     ADC  $00
 82C3  85 00     STA  $00
 82C5  90 02     BCC  $82C9
 82C7  E6 01     INC  $01
 82C9  E8        INX  
 82CA  E8        INX  
 82CB  60        RTS  
 82CC  60        RTS  
 82CD  A9 01     LDA  #$01
 82CF  20 41 D7  JSR  $D741
 82D2  B5 01     LDA  $01, X
 82D4  30 22     BMI  $82F8
 82D6  18        CLC  
 82D7  A5 00     LDA  $00
 82D9  75 00     ADC  $00, X
 82DB  85 00     STA  $00
 82DD  A5 01     LDA  $01
 82DF  75 01     ADC  $01, X
 82E1  85 01     STA  $01
 82E3  A0 00     LDY  #$00
 82E5  C4 00     CPY  $00
 82E7  A9 7C     LDA  #$7C
 82E9  E5 01     SBC  $01
 82EB  B0 48     BCS  $8335
 82ED  84 00     STY  $00
 82EF  A9 7C     LDA  #$7C
 82F1  85 01     STA  $01
 82F3  A9 00     LDA  #$00
 82F5  4C 52 D7  JMP  $D752
 82F8  CA        DEX  
 82F9  CA        DEX  
 82FA  A5 00     LDA  $00
 82FC  95 00     STA  $00, X
 82FE  A5 01     LDA  $01
 8300  95 01     STA  $01, X
 8302  20 A4 99  JSR  $99A4
 8305  CA        DEX  
 8306  CA        DEX  
 8307  A9 FF     LDA  #$FF
 8309  95 00     STA  $00, X
 830B  A9 02     LDA  #$02
 830D  95 01     STA  $01, X
 830F  20 8E D6  JSR  $D68E
 8312  F0 17     BEQ  $832B
 8314  30 15     BMI  $832B
 8316  A9 FF     LDA  #$FF
 8318  85 00     STA  $00
 831A  A9 02     LDA  #$02
 831C  85 01     STA  $01
 831E  A9 24     LDA  #$24
 8320  85 02     STA  $02
 8322  A9 CA     LDA  #$CA
 8324  85 03     STA  $03
 8326  A9 0A     LDA  #$0A
 8328  4C 52 D7  JMP  $D752
 832B  B5 02     LDA  $02, X
 832D  85 00     STA  $00
 832F  B5 03     LDA  $03, X
 8331  85 01     STA  $01
 8333  E8        INX  
 8334  E8        INX  
 8335  E8        INX  
 8336  E8        INX  
 8337  60        RTS  
 8338  20 9B D7  JSR  $D79B
 833B  A0 01     LDY  #$01
 833D  B1 02     LDA  ($02), Y
 833F  29 F5     AND  #$F5
 8341  91 02     STA  ($02), Y
 8343  60        RTS  
 8344  20 CB 91  JSR  $91CB
 8347  20 50 98  JSR  $9850
 834A  20 DA A1  JSR  $A1DA
 834D  20 19 98  JSR  $9819
 8350  20 20 9D  JSR  $9D20
 8353  60        RTS  
 8354  20 9B D7  JSR  $D79B
 8357  A0 01     LDY  #$01
 8359  B1 02     LDA  ($02), Y
 835B  09 02     ORA  #$02
 835D  29 F7     AND  #$F7
 835F  91 02     STA  ($02), Y
 8361  60        RTS  
 8362  A9 02     LDA  #$02
 8364  20 41 D7  JSR  $D741
 8367  B5 00     LDA  $00, X
 8369  35 02     AND  $02, X
 836B  95 02     STA  $02, X
 836D  B5 01     LDA  $01, X
 836F  35 03     AND  $03, X
 8371  95 03     STA  $03, X
 8373  E8        INX  
 8374  E8        INX  
 8375  60        RTS  
 8376  CA        DEX  
 8377  CA        DEX  
 8378  A9 02     LDA  #$02
 837A  95 00     STA  $00, X
 837C  74 01     STZ  $01, X
 837E  60        RTS  
 837F  A9 02     LDA  #$02
 8381  20 41 D7  JSR  $D741
 8384  A9 1B     LDA  #$1B
 8386  20 78 8E  JSR  $8E78
 8389  A9 5B     LDA  #$5B
 838B  20 78 8E  JSR  $8E78
 838E  20 88 D7  JSR  $D788
 8391  A9 3B     LDA  #$3B
 8393  20 78 8E  JSR  $8E78
 8396  20 88 D7  JSR  $D788
 8399  A9 48     LDA  #$48
 839B  20 78 8E  JSR  $8E78
 839E  60        RTS  
 839F  A5 0A     LDA  $0A
 83A1  85 0C     STA  $0C
 83A3  A5 0B     LDA  $0B
 83A5  85 0D     STA  $0D
 83A7  60        RTS  
 83A8  CA        DEX  
 83A9  CA        DEX  
 83AA  A9 18     LDA  #$18
 83AC  95 00     STA  $00, X
 83AE  A9 00     LDA  #$00
 83B0  95 01     STA  $01, X
 83B2  60        RTS  
 83B3  20 0B 92  JSR  $920B
 83B6  60        RTS  
 83B7  A9 07     LDA  #$07
 83B9  20 78 8E  JSR  $8E78
 83BC  60        RTS  
 83BD  CA        DEX  
 83BE  CA        DEX  
 83BF  A9 20     LDA  #$20
 83C1  95 00     STA  $00, X
 83C3  74 01     STZ  $01, X
 83C5  60        RTS  
 83C6  CA        DEX  
 83C7  CA        DEX  
 83C8  18        CLC  
 83C9  A5 1E     LDA  $1E
 83CB  69 00     ADC  #$00
 83CD  95 00     STA  $00, X
 83CF  A5 1F     LDA  $1F
 83D1  69 00     ADC  #$00
 83D3  95 01     STA  $01, X
 83D5  60        RTS  
 83D6  CA        DEX  
 83D7  CA        DEX  
 83D8  A0 28     LDY  #$28
 83DA  B1 1E     LDA  ($1E), Y
 83DC  95 00     STA  $00, X
 83DE  C8        INY  
 83DF  B1 1E     LDA  ($1E), Y
 83E1  95 01     STA  $01, X
 83E3  60        RTS  
 83E4  A0 2A     LDY  #$2A
 83E6  B1 1E     LDA  ($1E), Y
 83E8  D5 00     CMP  $00, X
 83EA  D0 0F     BNE  $83FB
 83EC  C8        INY  
 83ED  B1 1E     LDA  ($1E), Y
 83EF  D5 01     CMP  $01, X
 83F1  D0 08     BNE  $83FB
 83F3  A0 2C     LDY  #$2C
 83F5  B1 1E     LDA  ($1E), Y
 83F7  29 01     AND  #$01
 83F9  D0 30     BNE  $842B
 83FB  A0 2C     LDY  #$2C
 83FD  B1 1E     LDA  ($1E), Y
 83FF  C9 03     CMP  #$03
 8401  D0 0C     BNE  $840F
 8403  20 D6 83  JSR  $83D6
 8406  20 E8 85  JSR  $85E8
 8409  20 E3 8F  JSR  $8FE3
 840C  20 85 85  JSR  $8585
 840F  A0 2A     LDY  #$2A
 8411  B5 00     LDA  $00, X
 8413  91 1E     STA  ($1E), Y
 8415  C8        INY  
 8416  B5 01     LDA  $01, X
 8418  91 1E     STA  ($1E), Y
 841A  20 D6 83  JSR  $83D6
 841D  20 DA A1  JSR  $A1DA
 8420  20 62 85  JSR  $8562
 8423  A9 01     LDA  #$01
 8425  A0 2C     LDY  #$2C
 8427  91 1E     STA  ($1E), Y
 8429  CA        DEX  
 842A  CA        DEX  
 842B  A0 28     LDY  #$28
 842D  B1 1E     LDA  ($1E), Y
 842F  95 00     STA  $00, X
 8431  C8        INY  
 8432  B1 1E     LDA  ($1E), Y
 8434  95 01     STA  $01, X
 8436  60        RTS  
 8437  A9 01     LDA  #$01
 8439  20 41 D7  JSR  $D741
 843C  4C 57 85  JMP  $8557
 843F  62 61 73 65 20 40 20 73 77 61 70 20 64 65 63 69  |base @ swap deci|
 844F  6D 61 6C 20 31 30 32 34 20 2A 20 64 75 70 20 62  |mal 1024 * dup b|
 845F  75 66 66 65 72 3A 20 72 61 6D 64 72 69 76 65 20  |uffer: ramdrive |
 846F  3A 20 62 6C 6F 63 6B 2D 72 65 61 64 2D 72 61 6D  |: block-read-ram|
 847F  64 72 69 76 65 20 72 61 6D 64 72 69 76 65 20 73  |drive ramdrive s|
 848F  77 61 70 20 31 30 32 34 20 2A 20 2B 20 73 77 61  |wap 1024 * + swa|
 849F  70 20 31 30 32 34 20 6D 6F 76 65 20 3B 20 3A 20  |p 1024 move ; : |
 84AF  62 6C 6F 63 6B 2D 77 72 69 74 65 2D 72 61 6D 64  |block-write-ramd|
 84BF  72 69 76 65 20 72 61 6D 64 72 69 76 65 20 73 77  |rive ramdrive sw|
 84CF  61 70 20 31 30 32 34 20 2A 20 2B 20 31 30 32 34  |ap 1024 * + 1024|
 84DF  20 6D 6F 76 65 20 3B 20 27 20 62 6C 6F 63 6B 2D  | move ; ' block-|
 84EF  72 65 61 64 2D 72 61 6D 64 72 69 76 65 20 62 6C  |read-ramdrive bl|
 84FF  6F 63 6B 2D 72 65 61 64 2D 76 65 63 74 6F 72 20  |ock-read-vector |
 850F  21 20 27 20 62 6C 6F 63 6B 2D 77 72 69 74 65 2D  |! ' block-write-|
 851F  72 61 6D 64 72 69 76 65 20 62 6C 6F 63 6B 2D 77  |ramdrive block-w|
 852F  72 69 74 65 2D 76 65 63 74 6F 72 20 21 20 72 61  |rite-vector ! ra|
 853F  6D 64 72 69 76 65 20 73 77 61 70 20 62 6C 61 6E  |mdrive swap blan|
 854F  6B 20 62 61 73 65 20 21                          |k base !        |
 8557  20 E0 A0  JSR  $A0E0
 855A  3F 84 18 01                                      |?...            |
 855E  20 40 91  JSR  $9140
 8561  60        RTS  
 8562  A0 2E     LDY  #$2E
 8564  B1 1E     LDA  ($1E), Y
 8566  85 24     STA  $24
 8568  C8        INY  
 8569  B1 1E     LDA  ($1E), Y
 856B  85 25     STA  $25
 856D  6C 24 00  JMP  ($0024)
 8570  CA        DEX  
 8571  CA        DEX  
 8572  18        CLC  
 8573  A5 1E     LDA  $1E
 8575  69 2E     ADC  #$2E
 8577  95 00     STA  $00, X
 8579  A5 1F     LDA  $1F
 857B  69 00     ADC  #$00
 857D  95 01     STA  $01, X
 857F  60        RTS  
 8580  A9 0C     LDA  #$0C
 8582  4C 52 D7  JMP  $D752
 8585  A0 30     LDY  #$30
 8587  B1 1E     LDA  ($1E), Y
 8589  85 24     STA  $24
 858B  C8        INY  
 858C  B1 1E     LDA  ($1E), Y
 858E  85 25     STA  $25
 8590  6C 24 00  JMP  ($0024)
 8593  CA        DEX  
 8594  CA        DEX  
 8595  18        CLC  
 8596  A5 1E     LDA  $1E
 8598  69 30     ADC  #$30
 859A  95 00     STA  $00, X
 859C  A5 1F     LDA  $1F
 859E  69 00     ADC  #$00
 85A0  95 01     STA  $01, X
 85A2  60        RTS  
 85A3  A9 02     LDA  #$02
 85A5  20 41 D7  JSR  $D741
 85A8  18        CLC  
 85A9  B5 00     LDA  $00, X
 85AB  B4 02     LDY  $02, X
 85AD  75 02     ADC  $02, X
 85AF  95 02     STA  $02, X
 85B1  94 00     STY  $00, X
 85B3  B5 01     LDA  $01, X
 85B5  B4 03     LDY  $03, X
 85B7  75 03     ADC  $03, X
 85B9  95 03     STA  $03, X
 85BB  94 01     STY  $01, X
 85BD  60        RTS  
 85BE  20 7B 86  JSR  $867B
 85C1  20 E1 93  JSR  $93E1
 85C4  60        RTS  
 85C5  20 41 A2  JSR  $A241
 85C8  20 E1 93  JSR  $93E1
 85CB  60        RTS  
 85CC  A0 85     LDY  #$85
 85CE  A9 D4     LDA  #$D4
 85D0  20 09 D6  JSR  $D609
 85D3  60        RTS  
 85D4  68        PLA  
 85D5  85 22     STA  $22
 85D7  68        PLA  
 85D8  85 23     STA  $23
 85DA  A0 01     LDY  #$01
 85DC  B1 22     LDA  ($22), Y
 85DE  85 24     STA  $24
 85E0  C8        INY  
 85E1  B1 22     LDA  ($22), Y
 85E3  85 25     STA  $25
 85E5  6C 24 00  JMP  ($0024)
 85E8  CA        DEX  
 85E9  CA        DEX  
 85EA  18        CLC  
 85EB  A5 1E     LDA  $1E
 85ED  69 2A     ADC  #$2A
 85EF  95 00     STA  $00, X
 85F1  A5 1F     LDA  $1F
 85F3  69 00     ADC  #$00
 85F5  95 01     STA  $01, X
 85F7  60        RTS  
 85F8  A0 2C     LDY  #$2C
 85FA  B1 1E     LDA  ($1E), Y
 85FC  C9 03     CMP  #$03
 85FE  D0 0C     BNE  $860C
 8600  20 D6 83  JSR  $83D6
 8603  20 E8 85  JSR  $85E8
 8606  20 E3 8F  JSR  $8FE3
 8609  20 85 85  JSR  $8585
 860C  A0 2A     LDY  #$2A
 860E  B5 00     LDA  $00, X
 8610  91 1E     STA  ($1E), Y
 8612  C8        INY  
 8613  B5 01     LDA  $01, X
 8615  91 1E     STA  ($1E), Y
 8617  A9 01     LDA  #$01
 8619  A0 2C     LDY  #$2C
 861B  91 1E     STA  ($1E), Y
 861D  A0 28     LDY  #$28
 861F  B1 1E     LDA  ($1E), Y
 8621  95 00     STA  $00, X
 8623  C8        INY  
 8624  B1 1E     LDA  ($1E), Y
 8626  95 01     STA  $01, X
 8628  60        RTS  
 8629  20 17 8A  JSR  $8A17
 862C  20 CD 82  JSR  $82CD
 862F  60        RTS  
 8630  CA        DEX  
 8631  CA        DEX  
 8632  18        CLC  
 8633  A5 1E     LDA  $1E
 8635  69 2C     ADC  #$2C
 8637  95 00     STA  $00, X
 8639  A5 1F     LDA  $1F
 863B  69 00     ADC  #$00
 863D  95 01     STA  $01, X
 863F  60        RTS  
 8640  00        BRK  
 8641  60        RTS  
 8642  A9 01     LDA  #$01
 8644  20 41 D7  JSR  $D741
 8647  B5 00     LDA  $00, X
 8649  20 19 D6  JSR  $D619
 864C  E8        INX  
 864D  E8        INX  
 864E  60        RTS  
 864F  A9 01     LDA  #$01
 8651  20 41 D7  JSR  $D741
 8654  A1 00     LDA  ($00, X)
 8656  95 00     STA  $00, X
 8658  74 01     STZ  $01, X
 865A  60        RTS  
 865B  A9 02     LDA  #$02
 865D  20 41 D7  JSR  $D741
 8660  B5 02     LDA  $02, X
 8662  81 00     STA  ($00, X)
 8664  E8        INX  
 8665  E8        INX  
 8666  E8        INX  
 8667  E8        INX  
 8668  60        RTS  
 8669  A9 01     LDA  #$01
 866B  20 41 D7  JSR  $D741
 866E  F6 00     INC  $00, X
 8670  D0 02     BNE  $8674
 8672  F6 01     INC  $01, X
 8674  F6 00     INC  $00, X
 8676  D0 02     BNE  $867A
 8678  F6 01     INC  $01, X
 867A  60        RTS  
 867B  20 9E 98  JSR  $989E
 867E  B5 00     LDA  $00, X
 8680  15 01     ORA  $01, X
 8682  D0 05     BNE  $8689
 8684  A9 05     LDA  #$05
 8686  4C 52 D7  JMP  $D752
 8689  E8        INX  
 868A  E8        INX  
 868B  A1 00     LDA  ($00, X)
 868D  95 00     STA  $00, X
 868F  74 01     STZ  $01, X
 8691  60        RTS  
 8692  A9 01     LDA  #$01
 8694  20 41 D7  JSR  $D741
 8697  60        RTS  
 8698  A9 03     LDA  #$03
 869A  20 41 D7  JSR  $D741
 869D  B5 00     LDA  $00, X
 869F  20 34 D7  JSR  $D734
 86A2  90 02     BCC  $86A6
 86A4  A9 20     LDA  #$20
 86A6  A8        TAY  
 86A7  CA        DEX  
 86A8  CA        DEX  
 86A9  B5 04     LDA  $04, X
 86AB  95 00     STA  $00, X
 86AD  B5 05     LDA  $05, X
 86AF  95 01     STA  $01, X
 86B1  B5 06     LDA  $06, X
 86B3  95 02     STA  $02, X
 86B5  B5 07     LDA  $07, X
 86B7  95 03     STA  $03, X
 86B9  B5 00     LDA  $00, X
 86BB  15 01     ORA  $01, X
 86BD  F0 79     BEQ  $8738
 86BF  98        TYA  
 86C0  C9 20     CMP  #$20
 86C2  D0 09     BNE  $86CD
 86C4  A1 02     LDA  ($02, X)
 86C6  20 34 D7  JSR  $D734
 86C9  B0 32     BCS  $86FD
 86CB  80 04     BRA  $86D1
 86CD  C1 02     CMP  ($02, X)
 86CF  F0 2C     BEQ  $86FD
 86D1  B5 00     LDA  $00, X
 86D3  D0 02     BNE  $86D7
 86D5  D6 01     DEC  $01, X
 86D7  D6 00     DEC  $00, X
 86D9  B5 00     LDA  $00, X
 86DB  15 01     ORA  $01, X
 86DD  F0 08     BEQ  $86E7
 86DF  F6 02     INC  $02, X
 86E1  D0 02     BNE  $86E5
 86E3  F6 03     INC  $03, X
 86E5  80 D8     BRA  $86BF
 86E7  B5 04     LDA  $04, X
 86E9  95 00     STA  $00, X
 86EB  B5 05     LDA  $05, X
 86ED  95 01     STA  $01, X
 86EF  B5 06     LDA  $06, X
 86F1  95 02     STA  $02, X
 86F3  B5 07     LDA  $07, X
 86F5  95 03     STA  $03, X
 86F7  74 04     STZ  $04, X
 86F9  74 05     STZ  $05, X
 86FB  80 3B     BRA  $8738
 86FD  B5 06     LDA  $06, X
 86FF  48        PHA  
 8700  B5 07     LDA  $07, X
 8702  48        PHA  
 8703  B5 02     LDA  $02, X
 8705  95 06     STA  $06, X
 8707  B5 03     LDA  $03, X
 8709  95 07     STA  $07, X
 870B  F6 06     INC  $06, X
 870D  D0 02     BNE  $8711
 870F  F6 07     INC  $07, X
 8711  68        PLA  
 8712  95 03     STA  $03, X
 8714  68        PLA  
 8715  95 02     STA  $02, X
 8717  B5 05     LDA  $05, X
 8719  48        PHA  
 871A  B5 04     LDA  $04, X
 871C  48        PHA  
 871D  B5 00     LDA  $00, X
 871F  95 04     STA  $04, X
 8721  B5 01     LDA  $01, X
 8723  95 05     STA  $05, X
 8725  68        PLA  
 8726  38        SEC  
 8727  F5 00     SBC  $00, X
 8729  95 00     STA  $00, X
 872B  68        PLA  
 872C  F5 01     SBC  $01, X
 872E  95 01     STA  $01, X
 8730  B5 04     LDA  $04, X
 8732  D0 02     BNE  $8736
 8734  D6 05     DEC  $05, X
 8736  D6 04     DEC  $04, X
 8738  60        RTS  
 8739  A9 03     LDA  #$03
 873B  20 41 D7  JSR  $D741
 873E  B5 02     LDA  $02, X
 8740  85 26     STA  $26
 8742  B5 03     LDA  $03, X
 8744  85 27     STA  $27
 8746  B5 04     LDA  $04, X
 8748  85 24     STA  $24
 874A  B5 05     LDA  $05, X
 874C  85 25     STA  $25
 874E  A0 00     LDY  #$00
 8750  B5 01     LDA  $01, X
 8752  F0 0F     BEQ  $8763
 8754  B1 24     LDA  ($24), Y
 8756  91 26     STA  ($26), Y
 8758  C8        INY  
 8759  D0 F9     BNE  $8754
 875B  E6 25     INC  $25
 875D  E6 27     INC  $27
 875F  D6 01     DEC  $01, X
 8761  D0 F1     BNE  $8754
 8763  B5 00     LDA  $00, X
 8765  F0 09     BEQ  $8770
 8767  B1 24     LDA  ($24), Y
 8769  91 26     STA  ($26), Y
 876B  C8        INY  
 876C  D6 00     DEC  $00, X
 876E  D0 F7     BNE  $8767
 8770  8A        TXA  
 8771  18        CLC  
 8772  69 06     ADC  #$06
 8774  AA        TAX  
 8775  60        RTS  
 8776  A9 03     LDA  #$03
 8778  20 41 D7  JSR  $D741
 877B  B5 02     LDA  $02, X
 877D  85 26     STA  $26
 877F  B5 03     LDA  $03, X
 8781  18        CLC  
 8782  75 01     ADC  $01, X
 8784  85 27     STA  $27
 8786  B5 04     LDA  $04, X
 8788  85 24     STA  $24
 878A  B5 05     LDA  $05, X
 878C  18        CLC  
 878D  75 01     ADC  $01, X
 878F  85 25     STA  $25
 8791  F6 01     INC  $01, X
 8793  B4 00     LDY  $00, X
 8795  F0 0E     BEQ  $87A5
 8797  88        DEY  
 8798  F0 07     BEQ  $87A1
 879A  B1 24     LDA  ($24), Y
 879C  91 26     STA  ($26), Y
 879E  88        DEY  
 879F  D0 F9     BNE  $879A
 87A1  B2 24     LDA  ($24)
 87A3  92 26     STA  ($26)
 87A5  C6 25     DEC  $25
 87A7  C6 27     DEC  $27
 87A9  D6 01     DEC  $01, X
 87AB  D0 EA     BNE  $8797
 87AD  8A        TXA  
 87AE  18        CLC  
 87AF  69 06     ADC  #$06
 87B1  AA        TAX  
 87B2  60        RTS  
 87B3  A5 16     LDA  $16
 87B5  05 17     ORA  $17
 87B7  F0 05     BEQ  $87BE
 87B9  A9 07     LDA  #$07
 87BB  4C 52 D7  JMP  $D752
 87BE  C6 16     DEC  $16
 87C0  C6 17     DEC  $17
 87C2  A9 40     LDA  #$40
 87C4  05 20     ORA  $20
 87C6  85 20     STA  $20
 87C8  20 9B D7  JSR  $D79B
 87CB  A5 03     LDA  $03
 87CD  48        PHA  
 87CE  A5 02     LDA  $02
 87D0  48        PHA  
 87D1  20 17 8A  JSR  $8A17
 87D4  20 9B D7  JSR  $D79B
 87D7  A5 02     LDA  $02
 87D9  85 04     STA  $04
 87DB  A5 03     LDA  $03
 87DD  85 05     STA  $05
 87DF  68        PLA  
 87E0  85 02     STA  $02
 87E2  68        PLA  
 87E3  85 03     STA  $03
 87E5  20 AE D7  JSR  $D7AE
 87E8  A5 00     LDA  $00
 87EA  38        SEC  
 87EB  E9 03     SBC  #$03
 87ED  85 00     STA  $00
 87EF  B0 02     BCS  $87F3
 87F1  C6 01     DEC  $01
 87F3  60        RTS  
 87F4  A5 16     LDA  $16
 87F6  05 17     ORA  $17
 87F8  F0 05     BEQ  $87FF
 87FA  A9 07     LDA  #$07
 87FC  4C 52 D7  JMP  $D752
 87FF  C6 16     DEC  $16
 8801  C6 17     DEC  $17
 8803  A9 BF     LDA  #$BF
 8805  25 20     AND  $20
 8807  85 20     STA  $20
 8809  A5 00     LDA  $00
 880B  85 04     STA  $04
 880D  A5 01     LDA  $01
 880F  85 05     STA  $05
 8811  60        RTS  
 8812  A9 01     LDA  #$01
 8814  20 41 D7  JSR  $D741
 8817  B5 00     LDA  $00, X
 8819  92 00     STA  ($00)
 881B  E6 00     INC  $00
 881D  D0 02     BNE  $8821
 881F  E6 01     INC  $01
 8821  B5 01     LDA  $01, X
 8823  92 00     STA  ($00)
 8825  E6 00     INC  $00
 8827  D0 02     BNE  $882B
 8829  E6 01     INC  $01
 882B  E8        INX  
 882C  E8        INX  
 882D  60        RTS  
 882E  A9 04     LDA  #$04
 8830  20 41 D7  JSR  $D741
 8833  B5 02     LDA  $02, X
 8835  85 26     STA  $26
 8837  B5 03     LDA  $03, X
 8839  85 27     STA  $27
 883B  B5 06     LDA  $06, X
 883D  85 24     STA  $24
 883F  B5 07     LDA  $07, X
 8841  85 25     STA  $25
 8843  B5 04     LDA  $04, X
 8845  15 05     ORA  $05, X
 8847  F0 2C     BEQ  $8875
 8849  B5 00     LDA  $00, X
 884B  15 01     ORA  $01, X
 884D  F0 3A     BEQ  $8889
 884F  B2 24     LDA  ($24)
 8851  D2 26     CMP  ($26)
 8853  90 26     BCC  $887B
 8855  D0 32     BNE  $8889
 8857  E6 24     INC  $24
 8859  D0 02     BNE  $885D
 885B  E6 25     INC  $25
 885D  E6 26     INC  $26
 885F  D0 02     BNE  $8863
 8861  E6 27     INC  $27
 8863  B5 04     LDA  $04, X
 8865  D0 02     BNE  $8869
 8867  D6 05     DEC  $05, X
 8869  D6 04     DEC  $04, X
 886B  B5 00     LDA  $00, X
 886D  D0 02     BNE  $8871
 886F  D6 01     DEC  $01, X
 8871  D6 00     DEC  $00, X
 8873  80 CE     BRA  $8843
 8875  B5 00     LDA  $00, X
 8877  15 01     ORA  $01, X
 8879  F0 08     BEQ  $8883
 887B  A9 FF     LDA  #$FF
 887D  95 06     STA  $06, X
 887F  95 07     STA  $07, X
 8881  80 0C     BRA  $888F
 8883  74 06     STZ  $06, X
 8885  74 07     STZ  $07, X
 8887  80 06     BRA  $888F
 8889  A9 01     LDA  #$01
 888B  95 06     STA  $06, X
 888D  74 07     STZ  $07, X
 888F  8A        TXA  
 8890  18        CLC  
 8891  69 06     ADC  #$06
 8893  AA        TAX  
 8894  60        RTS  
 8895  A9 01     LDA  #$01
 8897  20 41 D7  JSR  $D741
 889A  B5 01     LDA  $01, X
 889C  48        PHA  
 889D  B5 00     LDA  $00, X
 889F  48        PHA  
 88A0  20 C7 92  JSR  $92C7
 88A3  B5 00     LDA  $00, X
 88A5  15 01     ORA  $01, X
 88A7  D0 03     BNE  $88AC
 88A9  4C 94 89  JMP  $8994
 88AC  B5 00     LDA  $00, X
 88AE  85 2C     STA  $2C
 88B0  B5 01     LDA  $01, X
 88B2  85 2D     STA  $2D
 88B4  F6 00     INC  $00, X
 88B6  D0 02     BNE  $88BA
 88B8  F6 01     INC  $01, X
 88BA  A1 00     LDA  ($00, X)
 88BC  85 28     STA  $28
 88BE  29 02     AND  #$02
 88C0  F0 0D     BEQ  $88CF
 88C2  A5 2C     LDA  $2C
 88C4  95 00     STA  $00, X
 88C6  A5 2D     LDA  $2D
 88C8  95 01     STA  $01, X
 88CA  20 DD A7  JSR  $A7DD
 88CD  80 27     BRA  $88F6
 88CF  A5 28     LDA  $28
 88D1  29 08     AND  #$08
 88D3  F0 03     BEQ  $88D8
 88D5  4C 94 89  JMP  $8994
 88D8  A5 2C     LDA  $2C
 88DA  95 00     STA  $00, X
 88DC  A5 2D     LDA  $2D
 88DE  95 01     STA  $01, X
 88E0  20 DD A7  JSR  $A7DD
 88E3  B5 01     LDA  $01, X
 88E5  C5 1B     CMP  $1B
 88E7  90 0D     BCC  $88F6
 88E9  D0 08     BNE  $88F3
 88EB  B5 00     LDA  $00, X
 88ED  C5 1A     CMP  $1A
 88EF  90 05     BCC  $88F6
 88F1  F0 03     BEQ  $88F6
 88F3  4C 94 89  JMP  $8994
 88F6  CA        DEX  
 88F7  CA        DEX  
 88F8  CA        DEX  
 88F9  CA        DEX  
 88FA  B5 04     LDA  $04, X
 88FC  95 00     STA  $00, X
 88FE  B5 05     LDA  $05, X
 8900  95 01     STA  $01, X
 8902  68        PLA  
 8903  95 04     STA  $04, X
 8905  68        PLA  
 8906  95 05     STA  $05, X
 8908  A5 00     LDA  $00
 890A  95 02     STA  $02, X
 890C  A5 01     LDA  $01
 890E  95 03     STA  $03, X
 8910  A0 00     LDY  #$00
 8912  B9 82 89  LDA  $8982, Y
 8915  D5 04     CMP  $04, X
 8917  D0 07     BNE  $8920
 8919  B9 83 89  LDA  $8983, Y
 891C  D5 05     CMP  $05, X
 891E  F0 0C     BEQ  $892C
 8920  B9 82 89  LDA  $8982, Y
 8923  19 83 89  ORA  $8983, Y
 8926  F0 22     BEQ  $894A
 8928  C8        INY  
 8929  C8        INY  
 892A  80 E6     BRA  $8912
 892C  98        TYA  
 892D  4A        LSR  
 892E  A8        TAY  
 892F  B9 8E 89  LDA  $898E, Y
 8932  85 2C     STA  $2C
 8934  18        CLC  
 8935  75 04     ADC  $04, X
 8937  95 04     STA  $04, X
 8939  90 02     BCC  $893D
 893B  F6 05     INC  $05, X
 893D  06 2C     ASL  $2C
 893F  38        SEC  
 8940  B5 00     LDA  $00, X
 8942  E5 2C     SBC  $2C
 8944  95 00     STA  $00, X
 8946  B0 02     BCS  $894A
 8948  D6 01     DEC  $01, X
 894A  A5 1C     LDA  $1C
 894C  05 1D     ORA  $1D
 894E  F0 1C     BEQ  $896C
 8950  A5 28     LDA  $28
 8952  29 10     AND  #$10
 8954  F0 16     BEQ  $896C
 8956  18        CLC  
 8957  B5 04     LDA  $04, X
 8959  69 05     ADC  #$05
 895B  95 04     STA  $04, X
 895D  90 02     BCC  $8961
 895F  F6 05     INC  $05, X
 8961  38        SEC  
 8962  B5 00     LDA  $00, X
 8964  E9 05     SBC  #$05
 8966  95 00     STA  $00, X
 8968  B0 02     BCS  $896C
 896A  D6 01     DEC  $01, X
 896C  B5 01     LDA  $01, X
 896E  48        PHA  
 896F  B5 00     LDA  $00, X
 8971  48        PHA  
 8972  20 12 96  JSR  $9612
 8975  18        CLC  
 8976  68        PLA  
 8977  65 00     ADC  $00
 8979  85 00     STA  $00
 897B  68        PLA  
 897C  65 01     ADC  $01
 897E  85 01     STA  $01
 8980  80 2C     BRA  $89AE
 8982  59 9A 44 9A A6 A3 EC A4 6A A4 00 00 04 04 04 06  |Y.D.....j.......|
 8992  06 00                                            |..              |
 8994  A9 20     LDA  #$20
 8996  92 00     STA  ($00)
 8998  A0 01     LDY  #$01
 899A  68        PLA  
 899B  91 00     STA  ($00), Y
 899D  C8        INY  
 899E  68        PLA  
 899F  91 00     STA  ($00), Y
 89A1  A9 03     LDA  #$03
 89A3  18        CLC  
 89A4  65 00     ADC  $00
 89A6  85 00     STA  $00
 89A8  90 02     BCC  $89AC
 89AA  E6 01     INC  $01
 89AC  E8        INX  
 89AD  E8        INX  
 89AE  60        RTS  
 89AF  20 9B D7  JSR  $D79B
 89B2  A0 01     LDY  #$01
 89B4  B1 02     LDA  ($02), Y
 89B6  09 01     ORA  #$01
 89B8  91 02     STA  ($02), Y
 89BA  60        RTS  
 89BB  A9 01     LDA  #$01
 89BD  20 41 D7  JSR  $D741
 89C0  20 17 8A  JSR  $8A17
 89C3  38        SEC  
 89C4  A5 00     LDA  $00
 89C6  E9 02     SBC  #$02
 89C8  85 24     STA  $24
 89CA  A5 01     LDA  $01
 89CC  E9 00     SBC  #$00
 89CE  85 25     STA  $25
 89D0  A9 22     LDA  #$22
 89D2  92 24     STA  ($24)
 89D4  A0 01     LDY  #$01
 89D6  A9 D6     LDA  #$D6
 89D8  91 24     STA  ($24), Y
 89DA  20 12 88  JSR  $8812
 89DD  20 8E 93  JSR  $938E
 89E0  B5 00     LDA  $00, X
 89E2  85 24     STA  $24
 89E4  B5 01     LDA  $01, X
 89E6  85 25     STA  $25
 89E8  A0 06     LDY  #$06
 89EA  B1 24     LDA  ($24), Y
 89EC  18        CLC  
 89ED  69 02     ADC  #$02
 89EF  91 24     STA  ($24), Y
 89F1  C8        INY  
 89F2  B1 24     LDA  ($24), Y
 89F4  69 00     ADC  #$00
 89F6  91 24     STA  ($24), Y
 89F8  E8        INX  
 89F9  E8        INX  
 89FA  60        RTS  
 89FB  A9 01     LDA  #$01
 89FD  20 41 D7  JSR  $D741
 8A00  A1 00     LDA  ($00, X)
 8A02  A8        TAY  
 8A03  F6 00     INC  $00, X
 8A05  D0 02     BNE  $8A09
 8A07  F6 01     INC  $01, X
 8A09  98        TYA  
 8A0A  CA        DEX  
 8A0B  CA        DEX  
 8A0C  95 00     STA  $00, X
 8A0E  74 01     STZ  $01, X
 8A10  60        RTS  
 8A11  A9 0A     LDA  #$0A
 8A13  20 78 8E  JSR  $8E78
 8A16  60        RTS  
 8A17  20 9E 98  JSR  $989E
 8A1A  B5 00     LDA  $00, X
 8A1C  15 01     ORA  $01, X
 8A1E  D0 05     BNE  $8A25
 8A20  A9 05     LDA  #$05
 8A22  4C 52 D7  JMP  $D752
 8A25  74 01     STZ  $01, X
 8A27  B5 00     LDA  $00, X
 8A29  85 26     STA  $26
 8A2B  A5 00     LDA  $00
 8A2D  85 24     STA  $24
 8A2F  A5 01     LDA  $01
 8A31  85 25     STA  $25
 8A33  B5 00     LDA  $00, X
 8A35  18        CLC  
 8A36  69 08     ADC  #$08
 8A38  85 28     STA  $28
 8A3A  18        CLC  
 8A3B  69 03     ADC  #$03
 8A3D  95 00     STA  $00, X
 8A3F  74 01     STZ  $01, X
 8A41  20 CD 82  JSR  $82CD
 8A44  20 9B D7  JSR  $D79B
 8A47  A0 00     LDY  #$00
 8A49  A5 26     LDA  $26
 8A4B  91 24     STA  ($24), Y
 8A4D  A9 08     LDA  #$08
 8A4F  09 20     ORA  #$20
 8A51  C8        INY  
 8A52  91 24     STA  ($24), Y
 8A54  C8        INY  
 8A55  A5 02     LDA  $02
 8A57  91 24     STA  ($24), Y
 8A59  C8        INY  
 8A5A  A5 03     LDA  $03
 8A5C  91 24     STA  ($24), Y
 8A5E  C8        INY  
 8A5F  A5 25     LDA  $25
 8A61  85 03     STA  $03
 8A63  A5 24     LDA  $24
 8A65  85 02     STA  $02
 8A67  18        CLC  
 8A68  65 28     ADC  $28
 8A6A  91 24     STA  ($24), Y
 8A6C  48        PHA  
 8A6D  C8        INY  
 8A6E  A5 25     LDA  $25
 8A70  69 00     ADC  #$00
 8A72  91 24     STA  ($24), Y
 8A74  C8        INY  
 8A75  68        PLA  
 8A76  18        CLC  
 8A77  69 03     ADC  #$03
 8A79  91 24     STA  ($24), Y
 8A7B  88        DEY  
 8A7C  B1 24     LDA  ($24), Y
 8A7E  69 00     ADC  #$00
 8A80  C8        INY  
 8A81  C8        INY  
 8A82  91 24     STA  ($24), Y
 8A84  C8        INY  
 8A85  B5 00     LDA  $00, X
 8A87  38        SEC  
 8A88  E9 08     SBC  #$08
 8A8A  85 2C     STA  $2C
 8A8C  B5 01     LDA  $01, X
 8A8E  E9 00     SBC  #$00
 8A90  85 2D     STA  $2D
 8A92  B1 2C     LDA  ($2C), Y
 8A94  C9 5B     CMP  #$5B
 8A96  B0 07     BCS  $8A9F
 8A98  C9 41     CMP  #$41
 8A9A  90 03     BCC  $8A9F
 8A9C  18        CLC  
 8A9D  69 20     ADC  #$20
 8A9F  91 24     STA  ($24), Y
 8AA1  C8        INY  
 8AA2  C6 26     DEC  $26
 8AA4  D0 EC     BNE  $8A92
 8AA6  A9 20     LDA  #$20
 8AA8  91 24     STA  ($24), Y
 8AAA  C8        INY  
 8AAB  A9 69     LDA  #$69
 8AAD  91 24     STA  ($24), Y
 8AAF  C8        INY  
 8AB0  A9 D6     LDA  #$D6
 8AB2  91 24     STA  ($24), Y
 8AB4  20 AE D7  JSR  $D7AE
 8AB7  E8        INX  
 8AB8  E8        INX  
 8AB9  60        RTS  
 8ABA  A9 04     LDA  #$04
 8ABC  20 41 D7  JSR  $D741
 8ABF  38        SEC  
 8AC0  B5 06     LDA  $06, X
 8AC2  F5 02     SBC  $02, X
 8AC4  95 06     STA  $06, X
 8AC6  B5 07     LDA  $07, X
 8AC8  F5 03     SBC  $03, X
 8ACA  95 07     STA  $07, X
 8ACC  B5 04     LDA  $04, X
 8ACE  F5 00     SBC  $00, X
 8AD0  95 04     STA  $04, X
 8AD2  B5 05     LDA  $05, X
 8AD4  F5 01     SBC  $01, X
 8AD6  95 05     STA  $05, X
 8AD8  E8        INX  
 8AD9  E8        INX  
 8ADA  E8        INX  
 8ADB  E8        INX  
 8ADC  60        RTS  
 8ADD  A9 04     LDA  #$04
 8ADF  20 41 D7  JSR  $D741
 8AE2  18        CLC  
 8AE3  B5 02     LDA  $02, X
 8AE5  75 06     ADC  $06, X
 8AE7  95 06     STA  $06, X
 8AE9  B5 03     LDA  $03, X
 8AEB  75 07     ADC  $07, X
 8AED  95 07     STA  $07, X
 8AEF  B5 00     LDA  $00, X
 8AF1  75 04     ADC  $04, X
 8AF3  95 04     STA  $04, X
 8AF5  B5 01     LDA  $01, X
 8AF7  75 05     ADC  $05, X
 8AF9  95 05     STA  $05, X
 8AFB  E8        INX  
 8AFC  E8        INX  
 8AFD  E8        INX  
 8AFE  E8        INX  
 8AFF  60        RTS  
 8B00  A9 02     LDA  #$02
 8B02  20 41 D7  JSR  $D741
 8B05  E8        INX  
 8B06  E8        INX  
 8B07  60        RTS  
 8B08  A9 02     LDA  #$02
 8B0A  20 41 D7  JSR  $D741
 8B0D  B5 01     LDA  $01, X
 8B0F  10 17     BPL  $8B28
 8B11  A0 00     LDY  #$00
 8B13  38        SEC  
 8B14  98        TYA  
 8B15  F5 02     SBC  $02, X
 8B17  95 02     STA  $02, X
 8B19  98        TYA  
 8B1A  F5 03     SBC  $03, X
 8B1C  95 03     STA  $03, X
 8B1E  98        TYA  
 8B1F  F5 00     SBC  $00, X
 8B21  95 00     STA  $00, X
 8B23  98        TYA  
 8B24  F5 01     SBC  $01, X
 8B26  95 01     STA  $01, X
 8B28  60        RTS  
 8B29  A9 0A     LDA  #$0A
 8B2B  85 18     STA  $18
 8B2D  64 19     STZ  $19
 8B2F  60        RTS  
 8B30  20 17 8A  JSR  $8A17
 8B33  A5 00     LDA  $00
 8B35  38        SEC  
 8B36  E9 02     SBC  #$02
 8B38  85 24     STA  $24
 8B3A  A5 01     LDA  $01
 8B3C  E9 00     SBC  #$00
 8B3E  85 25     STA  $25
 8B40  A0 00     LDY  #$00
 8B42  A9 36     LDA  #$36
 8B44  91 24     STA  ($24), Y
 8B46  C8        INY  
 8B47  A9 D6     LDA  #$D6
 8B49  91 24     STA  ($24), Y
 8B4B  A9 4A     LDA  #$4A
 8B4D  92 00     STA  ($00)
 8B4F  E6 00     INC  $00
 8B51  D0 02     BNE  $8B55
 8B53  E6 01     INC  $01
 8B55  A9 D6     LDA  #$D6
 8B57  92 00     STA  ($00)
 8B59  E6 00     INC  $00
 8B5B  D0 02     BNE  $8B5F
 8B5D  E6 01     INC  $01
 8B5F  20 DD 89  JSR  $89DD
 8B62  60        RTS  
 8B63  20 BF A2  JSR  $A2BF
 8B66  20 E3 8F  JSR  $8FE3
 8B69  60        RTS  
 8B6A  20 BF A2  JSR  $A2BF
 8B6D  20 C2 A1  JSR  $A1C2
 8B70  60        RTS  
 8B71  A0 1F     LDY  #$1F
 8B73  B1 1E     LDA  ($1E), Y
 8B75  A0 04     LDY  #$04
 8B77  91 1E     STA  ($1E), Y
 8B79  60        RTS  
 8B7A  A9 78     LDA  #$78
 8B7C  86 2A     STX  $2A
 8B7E  38        SEC  
 8B7F  E5 2A     SBC  $2A
 8B81  4A        LSR  
 8B82  CA        DEX  
 8B83  CA        DEX  
 8B84  95 00     STA  $00, X
 8B86  74 01     STZ  $01, X
 8B88  60        RTS  
 8B89  A9 01     LDA  #$01
 8B8B  20 41 D7  JSR  $D741
 8B8E  CA        DEX  
 8B8F  CA        DEX  
 8B90  74 00     STZ  $00, X
 8B92  74 01     STZ  $01, X
 8B94  74 03     STZ  $03, X
 8B96  B5 02     LDA  $02, X
 8B98  C9 30     CMP  #$30
 8B9A  90 23     BCC  $8BBF
 8B9C  C9 3A     CMP  #$3A
 8B9E  90 12     BCC  $8BB2
 8BA0  C9 41     CMP  #$41
 8BA2  90 1B     BCC  $8BBF
 8BA4  C9 61     CMP  #$61
 8BA6  90 07     BCC  $8BAF
 8BA8  C9 7B     CMP  #$7B
 8BAA  B0 03     BCS  $8BAF
 8BAC  18        CLC  
 8BAD  69 E0     ADC  #$E0
 8BAF  38        SEC  
 8BB0  E9 07     SBC  #$07
 8BB2  38        SEC  
 8BB3  E9 30     SBC  #$30
 8BB5  C5 18     CMP  $18
 8BB7  B0 06     BCS  $8BBF
 8BB9  95 02     STA  $02, X
 8BBB  D6 00     DEC  $00, X
 8BBD  D6 01     DEC  $01, X
 8BBF  60        RTS  
 8BC0  A9 02     LDA  #$02
 8BC2  20 41 D7  JSR  $D741
 8BC5  20 71 AD  JSR  $AD71
 8BC8  60        RTS  
 8BC9  A9 02     LDA  #$02
 8BCB  20 41 D7  JSR  $D741
 8BCE  A0 00     LDY  #$00
 8BD0  38        SEC  
 8BD1  98        TYA  
 8BD2  F5 02     SBC  $02, X
 8BD4  95 02     STA  $02, X
 8BD6  98        TYA  
 8BD7  F5 03     SBC  $03, X
 8BD9  95 03     STA  $03, X
 8BDB  98        TYA  
 8BDC  F5 00     SBC  $00, X
 8BDE  95 00     STA  $00, X
 8BE0  98        TYA  
 8BE1  F5 01     SBC  $01, X
 8BE3  95 01     STA  $01, X
 8BE5  60        RTS  
 8BE6  A9 FF     LDA  #$FF
 8BE8  85 24     STA  $24
 8BEA  80 02     BRA  $8BEE
 8BEC  64 24     STZ  $24
 8BEE  CA        DEX  
 8BEF  CA        DEX  
 8BF0  A5 00     LDA  $00
 8BF2  95 00     STA  $00, X
 8BF4  A5 01     LDA  $01
 8BF6  95 01     STA  $01, X
 8BF8  A9 05     LDA  #$05
 8BFA  A8        TAY  
 8BFB  91 00     STA  ($00), Y
 8BFD  88        DEY  
 8BFE  10 FB     BPL  $8BFB
 8C00  1A        INC  
 8C01  18        CLC  
 8C02  65 00     ADC  $00
 8C04  85 00     STA  $00
 8C06  90 02     BCC  $8C0A
 8C08  E6 01     INC  $01
 8C0A  A5 24     LDA  $24
 8C0C  F0 17     BEQ  $8C25
 8C0E  A0 14     LDY  #$14
 8C10  5A        PHY  
 8C11  B9 6B 8C  LDA  $8C6B, Y
 8C14  91 00     STA  ($00), Y
 8C16  88        DEY  
 8C17  10 F8     BPL  $8C11
 8C19  68        PLA  
 8C1A  18        CLC  
 8C1B  65 00     ADC  $00
 8C1D  85 00     STA  $00
 8C1F  A5 01     LDA  $01
 8C21  69 00     ADC  #$00
 8C23  85 01     STA  $01
 8C25  A0 24     LDY  #$24
 8C27  5A        PHY  
 8C28  B9 47 8C  LDA  $8C47, Y
 8C2B  91 00     STA  ($00), Y
 8C2D  88        DEY  
 8C2E  10 F8     BPL  $8C28
 8C30  68        PLA  
 8C31  18        CLC  
 8C32  65 00     ADC  $00
 8C34  85 00     STA  $00
 8C36  A5 01     LDA  $01
 8C38  69 00     ADC  #$00
 8C3A  85 01     STA  $01
 8C3C  CA        DEX  
 8C3D  CA        DEX  
 8C3E  A5 00     LDA  $00
 8C40  95 00     STA  $00, X
 8C42  A5 01     LDA  $01
 8C44  95 01     STA  $01, X
 8C46  60        RTS  
 8C47  38        SEC  
 8C48  A9 00     LDA  #$00
 8C4A  F5 02     SBC  $02, X
 8C4C  95 02     STA  $02, X
 8C4E  A9 80     LDA  #$80
 8C50  F5 03     SBC  $03, X
 8C52  95 03     STA  $03, X
 8C54  48        PHA  
 8C55  B5 02     LDA  $02, X
 8C57  48        PHA  
 8C58  18        CLC  
 8C59  B5 00     LDA  $00, X
 8C5B  75 02     ADC  $02, X
 8C5D  95 00     STA  $00, X
 8C5F  B5 01     LDA  $01, X
 8C61  75 03     ADC  $03, X
 8C63  48        PHA  
 8C64  B5 00     LDA  $00, X
 8C66  48        PHA  
 8C67  E8        INX  
 8C68  E8        INX  
 8C69  E8        INX  
 8C6A  E8        INX  
 8C6B  20 F4 A3  JSR  $A3F4
 8C6E  20 52 8F  JSR  $8F52
 8C71  B5 00     LDA  $00, X
 8C73  15 01     ORA  $01, X
 8C75  F0 06     BEQ  $8C7D
 8C77  8A        TXA  
 8C78  18        CLC  
 8C79  69 06     ADC  #$06
 8C7B  AA        TAX  
 8C7C  60        RTS  
 8C7D  E8        INX  
 8C7E  E8        INX  
 8C7F  A0 8C     LDY  #$8C
 8C81  A9 8E     LDA  #$8E
 8C83  20 09 D6  JSR  $D609
 8C86  A0 D6     LDY  #$D6
 8C88  A9 4F     LDA  #$4F
 8C8A  20 09 D6  JSR  $D609
 8C8D  60        RTS  
 8C8E  7A        PLY  
 8C8F  68        PLA  
 8C90  C8        INY  
 8C91  D0 01     BNE  $8C94
 8C93  1A        INC  
 8C94  84 24     STY  $24
 8C96  85 25     STA  $25
 8C98  20 9B D7  JSR  $D79B
 8C9B  A5 02     LDA  $02
 8C9D  18        CLC  
 8C9E  69 04     ADC  #$04
 8CA0  85 26     STA  $26
 8CA2  A5 03     LDA  $03
 8CA4  69 00     ADC  #$00
 8CA6  85 27     STA  $27
 8CA8  B2 26     LDA  ($26)
 8CAA  18        CLC  
 8CAB  69 01     ADC  #$01
 8CAD  85 28     STA  $28
 8CAF  A0 01     LDY  #$01
 8CB1  B1 26     LDA  ($26), Y
 8CB3  69 00     ADC  #$00
 8CB5  85 29     STA  $29
 8CB7  A5 24     LDA  $24
 8CB9  92 28     STA  ($28)
 8CBB  A5 25     LDA  $25
 8CBD  91 28     STA  ($28), Y
 8CBF  60        RTS  
 8CC0  A9 01     LDA  #$01
 8CC2  20 41 D7  JSR  $D741
 8CC5  20 45 8E  JSR  $8E45
 8CC8  20 39 81  JSR  $8139
 8CCB  20 14 A8  JSR  $A814
 8CCE  20 AD 93  JSR  $93AD
 8CD1  20 D6 97  JSR  $97D6
 8CD4  20 06 9B  JSR  $9B06
 8CD7  20 18 A0  JSR  $A018
 8CDA  20 B2 97  JSR  $97B2
 8CDD  20 53 A5  JSR  $A553
 8CE0  20 57 A1  JSR  $A157
 8CE3  60        RTS  
 8CE4  CA        DEX  
 8CE5  CA        DEX  
 8CE6  A9 29     LDA  #$29
 8CE8  95 00     STA  $00, X
 8CEA  74 01     STZ  $01, X
 8CEC  20 F9 98  JSR  $98F9
 8CEF  20 53 A5  JSR  $A553
 8CF2  60        RTS  
 8CF3  20 54 9D  JSR  $9D54
 8CF6  A0 A5     LDY  #$A5
 8CF8  A9 53     LDA  #$53
 8CFA  20 09 D6  JSR  $D609
 8CFD  60        RTS  
 8CFE  A9 02     LDA  #$02
 8D00  20 41 D7  JSR  $D741
 8D03  20 A6 A3  JSR  $A3A6
 8D06  20 45 8E  JSR  $8E45
 8D09  20 39 81  JSR  $8139
 8D0C  20 14 A8  JSR  $A814
 8D0F  20 AD 93  JSR  $93AD
 8D12  20 D6 97  JSR  $97D6
 8D15  20 06 9B  JSR  $9B06
 8D18  20 18 A0  JSR  $A018
 8D1B  20 B2 97  JSR  $97B2
 8D1E  20 59 9A  JSR  $9A59
 8D21  20 50 98  JSR  $9850
 8D24  20 B3 95  JSR  $95B3
 8D27  20 5D A1  JSR  $A15D
 8D2A  20 53 A5  JSR  $A553
 8D2D  60        RTS  
 8D2E  20 7A 8B  JSR  $8B7A
 8D31  A9 3C     LDA  #$3C
 8D33  20 78 8E  JSR  $8E78
 8D36  B5 00     LDA  $00, X
 8D38  48        PHA  
 8D39  CA        DEX  
 8D3A  CA        DEX  
 8D3B  95 00     STA  $00, X
 8D3D  74 01     STZ  $01, X
 8D3F  20 88 D7  JSR  $D788
 8D42  A9 3E     LDA  #$3E
 8D44  20 78 8E  JSR  $8E78
 8D47  A9 20     LDA  #$20
 8D49  20 78 8E  JSR  $8E78
 8D4C  E8        INX  
 8D4D  E8        INX  
 8D4E  E0 78     CPX  #$78
 8D50  F0 1E     BEQ  $8D70
 8D52  7A        PLY  
 8D53  A9 77     LDA  #$77
 8D55  85 28     STA  $28
 8D57  64 29     STZ  $29
 8D59  CA        DEX  
 8D5A  CA        DEX  
 8D5B  B2 28     LDA  ($28)
 8D5D  95 01     STA  $01, X
 8D5F  C6 28     DEC  $28
 8D61  B2 28     LDA  ($28)
 8D63  95 00     STA  $00, X
 8D65  C6 28     DEC  $28
 8D67  5A        PHY  
 8D68  20 C0 8C  JSR  $8CC0
 8D6B  7A        PLY  
 8D6C  88        DEY  
 8D6D  D0 EA     BNE  $8D59
 8D6F  48        PHA  
 8D70  68        PLA  
 8D71  60        RTS  
 8D72  A9 02     LDA  #$02
 8D74  20 41 D7  JSR  $D741
 8D77  20 C5 A3  JSR  $A3C5
 8D7A  20 08 8B  JSR  $8B08
 8D7D  20 AD 93  JSR  $93AD
 8D80  20 D6 97  JSR  $97D6
 8D83  20 06 9B  JSR  $9B06
 8D86  20 18 A0  JSR  $A018
 8D89  20 B2 97  JSR  $97B2
 8D8C  20 53 A5  JSR  $A553
 8D8F  20 57 A1  JSR  $A157
 8D92  60        RTS  
 8D93  A9 03     LDA  #$03
 8D95  20 41 D7  JSR  $D741
 8D98  20 A6 A3  JSR  $A3A6
 8D9B  20 C5 A3  JSR  $A3C5
 8D9E  20 08 8B  JSR  $8B08
 8DA1  20 AD 93  JSR  $93AD
 8DA4  20 D6 97  JSR  $97D6
 8DA7  20 06 9B  JSR  $9B06
 8DAA  20 18 A0  JSR  $A018
 8DAD  20 B2 97  JSR  $97B2
 8DB0  20 59 9A  JSR  $9A59
 8DB3  20 50 98  JSR  $9850
 8DB6  20 B3 95  JSR  $95B3
 8DB9  20 5D A1  JSR  $A15D
 8DBC  20 53 A5  JSR  $A553
 8DBF  60        RTS  
 8DC0  A9 01     LDA  #$01
 8DC2  20 41 D7  JSR  $D741
 8DC5  E8        INX  
 8DC6  E8        INX  
 8DC7  60        RTS  
 8DC8  A9 02     LDA  #$02
 8DCA  20 41 D7  JSR  $D741
 8DCD  A0 10     LDY  #$10
 8DCF  64 26     STZ  $26
 8DD1  20 11 8A  JSR  $8A11
 8DD4  B5 03     LDA  $03, X
 8DD6  20 77 D6  JSR  $D677
 8DD9  B5 02     LDA  $02, X
 8DDB  20 77 D6  JSR  $D677
 8DDE  20 57 A1  JSR  $A157
 8DE1  20 57 A1  JSR  $A157
 8DE4  B5 00     LDA  $00, X
 8DE6  15 01     ORA  $01, X
 8DE8  F0 39     BEQ  $8E23
 8DEA  A1 02     LDA  ($02, X)
 8DEC  48        PHA  
 8DED  20 77 D6  JSR  $D677
 8DF0  20 57 A1  JSR  $A157
 8DF3  68        PLA  
 8DF4  20 27 D7  JSR  $D727
 8DF7  B0 02     BCS  $8DFB
 8DF9  A9 2E     LDA  #$2E
 8DFB  5A        PHY  
 8DFC  A4 26     LDY  $26
 8DFE  91 00     STA  ($00), Y
 8E00  E6 26     INC  $26
 8E02  7A        PLY  
 8E03  C0 09     CPY  #$09
 8E05  D0 03     BNE  $8E0A
 8E07  20 57 A1  JSR  $A157
 8E0A  F6 02     INC  $02, X
 8E0C  D0 02     BNE  $8E10
 8E0E  F6 03     INC  $03, X
 8E10  B5 00     LDA  $00, X
 8E12  D0 02     BNE  $8E16
 8E14  D6 01     DEC  $01, X
 8E16  D6 00     DEC  $00, X
 8E18  88        DEY  
 8E19  D0 C9     BNE  $8DE4
 8E1B  20 57 A1  JSR  $A157
 8E1E  20 31 8E  JSR  $8E31
 8E21  80 AA     BRA  $8DCD
 8E23  A5 26     LDA  $26
 8E25  F0 06     BEQ  $8E2D
 8E27  20 57 A1  JSR  $A157
 8E2A  20 31 8E  JSR  $8E31
 8E2D  20 EA A3  JSR  $A3EA
 8E30  60        RTS  
 8E31  A0 00     LDY  #$00
 8E33  B1 00     LDA  ($00), Y
 8E35  20 78 8E  JSR  $8E78
 8E38  C8        INY  
 8E39  C0 08     CPY  #$08
 8E3B  D0 03     BNE  $8E40
 8E3D  20 57 A1  JSR  $A157
 8E40  C6 26     DEC  $26
 8E42  D0 EF     BNE  $8E33
 8E44  60        RTS  
 8E45  A9 01     LDA  #$01
 8E47  20 41 D7  JSR  $D741
 8E4A  CA        DEX  
 8E4B  CA        DEX  
 8E4C  B5 02     LDA  $02, X
 8E4E  95 00     STA  $00, X
 8E50  B5 03     LDA  $03, X
 8E52  95 01     STA  $01, X
 8E54  60        RTS  
 8E55  20 AF B4  JSR  $B4AF
 8E58  60        RTS  
 8E59  20 CC 85  JSR  $85CC
 8E5C  20 0B 92  JSR  $920B
 8E5F  20 14 A8  JSR  $A814
 8E62  20 12 88  JSR  $8812
 8E65  20 0B 92  JSR  $920B
 8E68  20 06 9B  JSR  $9B06
 8E6B  20 C2 A1  JSR  $A1C2
 8E6E  60        RTS  
 8E6F  A9 01     LDA  #$01
 8E71  20 41 D7  JSR  $D741
 8E74  B5 00     LDA  $00, X
 8E76  E8        INX  
 8E77  E8        INX  
 8E78  6C 10 00  JMP  ($0010)
 8E7B  A0 2C     LDY  #$2C
 8E7D  A9 00     LDA  #$00
 8E7F  91 1E     STA  ($1E), Y
 8E81  60        RTS  
 8E82  A0 8D     LDY  #$8D
 8E84  A9 C0     LDA  #$C0
 8E86  20 09 D6  JSR  $D609
 8E89  B5 00     LDA  $00, X
 8E8B  15 01     ORA  $01, X
 8E8D  F0 05     BEQ  $8E94
 8E8F  20 F0 A1  JSR  $A1F0
 8E92  80 F5     BRA  $8E89
 8E94  E8        INX  
 8E95  E8        INX  
 8E96  60        RTS  
 8E97  A9 01     LDA  #$01
 8E99  20 41 D7  JSR  $D741
 8E9C  A0 00     LDY  #$00
 8E9E  5A        PHY  
 8E9F  20 F4 A3  JSR  $A3F4
 8EA2  CA        DEX  
 8EA3  CA        DEX  
 8EA4  B9 16 8F  LDA  $8F16, Y
 8EA7  95 00     STA  $00, X
 8EA9  C8        INY  
 8EAA  B9 16 8F  LDA  $8F16, Y
 8EAD  95 01     STA  $01, X
 8EAF  C8        INY  
 8EB0  15 00     ORA  $00, X
 8EB2  F0 4D     BEQ  $8F01
 8EB4  5A        PHY  
 8EB5  20 FB 89  JSR  $89FB
 8EB8  20 2E 88  JSR  $882E
 8EBB  7A        PLY  
 8EBC  B5 00     LDA  $00, X
 8EBE  15 01     ORA  $01, X
 8EC0  F0 04     BEQ  $8EC6
 8EC2  E8        INX  
 8EC3  E8        INX  
 8EC4  80 D9     BRA  $8E9F
 8EC6  E8        INX  
 8EC7  E8        INX  
 8EC8  88        DEY  
 8EC9  88        DEY  
 8ECA  68        PLA  
 8ECB  D0 0D     BNE  $8EDA
 8ECD  B9 34 8F  LDA  $8F34, Y
 8ED0  95 02     STA  $02, X
 8ED2  C8        INY  
 8ED3  B9 34 8F  LDA  $8F34, Y
 8ED6  95 03     STA  $03, X
 8ED8  80 1F     BRA  $8EF9
 8EDA  CA        DEX  
 8EDB  CA        DEX  
 8EDC  98        TYA  
 8EDD  38        SEC  
 8EDE  E9 18     SBC  #$18
 8EE0  0A        ASL  
 8EE1  A8        TAY  
 8EE2  B9 4A 8F  LDA  $8F4A, Y
 8EE5  95 02     STA  $02, X
 8EE7  C8        INY  
 8EE8  B9 4A 8F  LDA  $8F4A, Y
 8EEB  95 03     STA  $03, X
 8EED  C8        INY  
 8EEE  B9 4A 8F  LDA  $8F4A, Y
 8EF1  95 04     STA  $04, X
 8EF3  C8        INY  
 8EF4  B9 4A 8F  LDA  $8F4A, Y
 8EF7  95 05     STA  $05, X
 8EF9  A9 FF     LDA  #$FF
 8EFB  95 00     STA  $00, X
 8EFD  95 01     STA  $01, X
 8EFF  80 14     BRA  $8F15
 8F01  68        PLA  
 8F02  D0 09     BNE  $8F0D
 8F04  1A        INC  
 8F05  48        PHA  
 8F06  8A        TXA  
 8F07  18        CLC  
 8F08  69 06     ADC  #$06
 8F0A  AA        TAX  
 8F0B  80 92     BRA  $8E9F
 8F0D  8A        TXA  
 8F0E  18        CLC  
 8F0F  69 0A     ADC  #$0A
 8F11  AA        TAX  
 8F12  20 DC 8F  JSR  $8FDC
 8F15  60        RTS  
 8F16  89 D5 99 D5 9F D5 A4 D5 B6 D5 BE D5 C7 D5 CD D5  |................|
 8F26  D3 D5 E6 D5 F2 D5 00 00 FC D5 02 D6 00 00 FF 7F  |................|
 8F36  FF 00 54 00 08 00 00 00 FF 00 FF 7F FF FF 80 00  |..T.............|
 8F46  20 00 09 00 FF 7F FF FF FF FF FF FF              | ...........    |
 8F52  A9 02     LDA  #$02
 8F54  20 41 D7  JSR  $D741
 8F57  B5 00     LDA  $00, X
 8F59  D5 02     CMP  $02, X
 8F5B  D0 0A     BNE  $8F67
 8F5D  B5 01     LDA  $01, X
 8F5F  D5 03     CMP  $03, X
 8F61  D0 04     BNE  $8F67
 8F63  A9 FF     LDA  #$FF
 8F65  80 02     BRA  $8F69
 8F67  A9 00     LDA  #$00
 8F69  95 02     STA  $02, X
 8F6B  95 03     STA  $03, X
 8F6D  E8        INX  
 8F6E  E8        INX  
 8F6F  60        RTS  
 8F70  CA        DEX  
 8F71  CA        DEX  
 8F72  A9 20     LDA  #$20
 8F74  95 00     STA  $00, X
 8F76  74 01     STZ  $01, X
 8F78  80 06     BRA  $8F80
 8F7A  CA        DEX  
 8F7B  CA        DEX  
 8F7C  74 00     STZ  $00, X
 8F7E  74 01     STZ  $01, X
 8F80  A9 03     LDA  #$03
 8F82  20 41 D7  JSR  $D741
 8F85  B5 04     LDA  $04, X
 8F87  85 24     STA  $24
 8F89  B5 05     LDA  $05, X
 8F8B  85 25     STA  $25
 8F8D  B5 02     LDA  $02, X
 8F8F  85 26     STA  $26
 8F91  B5 03     LDA  $03, X
 8F93  85 27     STA  $27
 8F95  B5 00     LDA  $00, X
 8F97  A8        TAY  
 8F98  A9 7F     LDA  #$7F
 8F9A  C5 25     CMP  $25
 8F9C  90 21     BCC  $8FBF
 8F9E  D0 06     BNE  $8FA6
 8FA0  A9 FF     LDA  #$FF
 8FA2  C5 24     CMP  $24
 8FA4  90 19     BCC  $8FBF
 8FA6  A5 26     LDA  $26
 8FA8  05 27     ORA  $27
 8FAA  F0 13     BEQ  $8FBF
 8FAC  98        TYA  
 8FAD  92 24     STA  ($24)
 8FAF  A5 26     LDA  $26
 8FB1  D0 02     BNE  $8FB5
 8FB3  C6 27     DEC  $27
 8FB5  C6 26     DEC  $26
 8FB7  E6 24     INC  $24
 8FB9  D0 DD     BNE  $8F98
 8FBB  E6 25     INC  $25
 8FBD  80 D9     BRA  $8F98
 8FBF  8A        TXA  
 8FC0  18        CLC  
 8FC1  69 06     ADC  #$06
 8FC3  AA        TAX  
 8FC4  60        RTS  
 8FC5  A9 01     LDA  #$01
 8FC7  20 41 D7  JSR  $D741
 8FCA  20 CE 8F  JSR  $8FCE
 8FCD  60        RTS  
 8FCE  B5 00     LDA  $00, X
 8FD0  85 0E     STA  $0E
 8FD2  B5 01     LDA  $01, X
 8FD4  85 0F     STA  $0F
 8FD6  E8        INX  
 8FD7  E8        INX  
 8FD8  6C 0E 00  JMP  ($000E)
 8FDB  60        RTS  
 8FDC  CA        DEX  
 8FDD  CA        DEX  
 8FDE  74 00     STZ  $00, X
 8FE0  74 01     STZ  $01, X
 8FE2  60        RTS  
 8FE3  A9 01     LDA  #$01
 8FE5  20 41 D7  JSR  $D741
 8FE8  A1 00     LDA  ($00, X)
 8FEA  A8        TAY  
 8FEB  F6 00     INC  $00, X
 8FED  D0 02     BNE  $8FF1
 8FEF  F6 01     INC  $01, X
 8FF1  A1 00     LDA  ($00, X)
 8FF3  95 01     STA  $01, X
 8FF5  94 00     STY  $00, X
 8FF7  60        RTS  
 8FF8  A9 01     LDA  #$01
 8FFA  20 41 D7  JSR  $D741
 8FFD  B5 01     LDA  $01, X
 8FFF  48        PHA  
 9000  B5 00     LDA  $00, X
 9002  48        PHA  
 9003  20 FB 89  JSR  $89FB
 9006  20 42 90  JSR  $9042
 9009  B5 00     LDA  $00, X
 900B  15 01     ORA  $01, X
 900D  D0 0B     BNE  $901A
 900F  20 DC 8F  JSR  $8FDC
 9012  68        PLA  
 9013  95 02     STA  $02, X
 9015  68        PLA  
 9016  95 03     STA  $03, X
 9018  80 27     BRA  $9041
 901A  68        PLA  
 901B  68        PLA  
 901C  20 45 8E  JSR  $8E45
 901F  20 31 96  JSR  $9631
 9022  20 DA A1  JSR  $A1DA
 9025  A0 00     LDY  #$00
 9027  F6 00     INC  $00, X
 9029  D0 02     BNE  $902D
 902B  F6 01     INC  $01, X
 902D  A1 00     LDA  ($00, X)
 902F  29 04     AND  #$04
 9031  D0 08     BNE  $903B
 9033  A9 FF     LDA  #$FF
 9035  95 00     STA  $00, X
 9037  95 01     STA  $01, X
 9039  80 06     BRA  $9041
 903B  A9 01     LDA  #$01
 903D  95 00     STA  $00, X
 903F  74 01     STZ  $01, X
 9041  60        RTS  
 9042  A9 02     LDA  #$02
 9044  20 41 D7  JSR  $D741
 9047  B5 00     LDA  $00, X
 9049  15 01     ORA  $01, X
 904B  D0 03     BNE  $9050
 904D  4C E9 90  JMP  $90E9
 9050  64 28     STZ  $28
 9052  A0 1E     LDY  #$1E
 9054  A5 28     LDA  $28
 9056  D1 1E     CMP  ($1E), Y
 9058  D0 03     BNE  $905D
 905A  4C E9 90  JMP  $90E9
 905D  18        CLC  
 905E  69 1F     ADC  #$1F
 9060  A8        TAY  
 9061  B1 1E     LDA  ($1E), Y
 9063  0A        ASL  
 9064  18        CLC  
 9065  69 06     ADC  #$06
 9067  A8        TAY  
 9068  B1 1E     LDA  ($1E), Y
 906A  85 24     STA  $24
 906C  C8        INY  
 906D  B1 1E     LDA  ($1E), Y
 906F  85 25     STA  $25
 9071  B5 02     LDA  $02, X
 9073  85 26     STA  $26
 9075  B5 03     LDA  $03, X
 9077  85 27     STA  $27
 9079  B2 24     LDA  ($24)
 907B  D5 00     CMP  $00, X
 907D  D0 54     BNE  $90D3
 907F  B2 26     LDA  ($26)
 9081  C9 5B     CMP  #$5B
 9083  B0 07     BCS  $908C
 9085  C9 41     CMP  #$41
 9087  90 03     BCC  $908C
 9089  18        CLC  
 908A  69 20     ADC  #$20
 908C  A0 08     LDY  #$08
 908E  D1 24     CMP  ($24), Y
 9090  D0 41     BNE  $90D3
 9092  B5 00     LDA  $00, X
 9094  3A        DEC  
 9095  F0 2C     BEQ  $90C3
 9097  A5 24     LDA  $24
 9099  48        PHA  
 909A  18        CLC  
 909B  69 08     ADC  #$08
 909D  85 24     STA  $24
 909F  A5 25     LDA  $25
 90A1  48        PHA  
 90A2  69 00     ADC  #$00
 90A4  85 25     STA  $25
 90A6  B4 00     LDY  $00, X
 90A8  88        DEY  
 90A9  B1 26     LDA  ($26), Y
 90AB  C9 5B     CMP  #$5B
 90AD  B0 07     BCS  $90B6
 90AF  C9 41     CMP  #$41
 90B1  90 03     BCC  $90B6
 90B3  18        CLC  
 90B4  69 20     ADC  #$20
 90B6  D1 24     CMP  ($24), Y
 90B8  D0 13     BNE  $90CD
 90BA  88        DEY  
 90BB  D0 EC     BNE  $90A9
 90BD  68        PLA  
 90BE  85 25     STA  $25
 90C0  68        PLA  
 90C1  85 24     STA  $24
 90C3  A5 24     LDA  $24
 90C5  95 02     STA  $02, X
 90C7  A5 25     LDA  $25
 90C9  95 03     STA  $03, X
 90CB  80 20     BRA  $90ED
 90CD  68        PLA  
 90CE  85 25     STA  $25
 90D0  68        PLA  
 90D1  85 24     STA  $24
 90D3  A0 02     LDY  #$02
 90D5  B1 24     LDA  ($24), Y
 90D7  48        PHA  
 90D8  C8        INY  
 90D9  B1 24     LDA  ($24), Y
 90DB  85 25     STA  $25
 90DD  68        PLA  
 90DE  85 24     STA  $24
 90E0  05 25     ORA  $25
 90E2  D0 95     BNE  $9079
 90E4  E6 28     INC  $28
 90E6  4C 52 90  JMP  $9052
 90E9  74 02     STZ  $02, X
 90EB  74 03     STZ  $03, X
 90ED  E8        INX  
 90EE  E8        INX  
 90EF  60        RTS  
 90F0  20 C5 9E  JSR  $9EC5
 90F3  A0 2C     LDY  #$2C
 90F5  A9 00     LDA  #$00
 90F7  91 1E     STA  ($1E), Y
 90F9  60        RTS  
 90FA  A9 03     LDA  #$03
 90FC  20 41 D7  JSR  $D741
 90FF  64 26     STZ  $26
 9101  B5 01     LDA  $01, X
 9103  10 0E     BPL  $9113
 9105  E6 26     INC  $26
 9107  20 77 96  JSR  $9677
 910A  20 A6 A3  JSR  $A3A6
 910D  20 C9 8B  JSR  $8BC9
 9110  20 59 9A  JSR  $9A59
 9113  B5 03     LDA  $03, X
 9115  10 0D     BPL  $9124
 9117  18        CLC  
 9118  B5 00     LDA  $00, X
 911A  75 02     ADC  $02, X
 911C  95 02     STA  $02, X
 911E  B5 01     LDA  $01, X
 9120  75 03     ADC  $03, X
 9122  95 03     STA  $03, X
 9124  20 23 A6  JSR  $A623
 9127  A5 26     LDA  $26
 9129  F0 07     BEQ  $9132
 912B  E8        INX  
 912C  E8        INX  
 912D  20 77 96  JSR  $9677
 9130  CA        DEX  
 9131  CA        DEX  
 9132  60        RTS  
 9133  A0 1F     LDY  #$1F
 9135  A9 00     LDA  #$00
 9137  91 1E     STA  ($1E), Y
 9139  60        RTS  
 913A  A9 FF     LDA  #$FF
 913C  85 24     STA  $24
 913E  80 13     BRA  $9153
 9140  A9 02     LDA  #$02
 9142  20 41 D7  JSR  $D741
 9145  64 24     STZ  $24
 9147  B5 00     LDA  $00, X
 9149  15 01     ORA  $01, X
 914B  D0 06     BNE  $9153
 914D  E8        INX  
 914E  E8        INX  
 914F  E8        INX  
 9150  E8        INX  
 9151  80 6C     BRA  $91BF
 9153  A0 01     LDY  #$01
 9155  B1 1E     LDA  ($1E), Y
 9157  48        PHA  
 9158  88        DEY  
 9159  B1 1E     LDA  ($1E), Y
 915B  48        PHA  
 915C  A5 24     LDA  $24
 915E  D0 05     BNE  $9165
 9160  91 1E     STA  ($1E), Y
 9162  C8        INY  
 9163  91 1E     STA  ($1E), Y
 9165  A5 0D     LDA  $0D
 9167  48        PHA  
 9168  A5 0C     LDA  $0C
 916A  48        PHA  
 916B  A5 07     LDA  $07
 916D  48        PHA  
 916E  A5 06     LDA  $06
 9170  48        PHA  
 9171  A5 09     LDA  $09
 9173  48        PHA  
 9174  A5 08     LDA  $08
 9176  48        PHA  
 9177  A5 0B     LDA  $0B
 9179  48        PHA  
 917A  A5 0A     LDA  $0A
 917C  48        PHA  
 917D  A9 FF     LDA  #$FF
 917F  85 06     STA  $06
 9181  85 07     STA  $07
 9183  64 0C     STZ  $0C
 9185  64 0D     STZ  $0D
 9187  B5 00     LDA  $00, X
 9189  85 0A     STA  $0A
 918B  B5 01     LDA  $01, X
 918D  85 0B     STA  $0B
 918F  B5 02     LDA  $02, X
 9191  85 08     STA  $08
 9193  B5 03     LDA  $03, X
 9195  85 09     STA  $09
 9197  E8        INX  
 9198  E8        INX  
 9199  E8        INX  
 919A  E8        INX  
 919B  20 A9 D6  JSR  $D6A9
 919E  68        PLA  
 919F  85 0A     STA  $0A
 91A1  68        PLA  
 91A2  85 0B     STA  $0B
 91A4  68        PLA  
 91A5  85 08     STA  $08
 91A7  68        PLA  
 91A8  85 09     STA  $09
 91AA  68        PLA  
 91AB  85 06     STA  $06
 91AD  68        PLA  
 91AE  85 07     STA  $07
 91B0  68        PLA  
 91B1  85 0C     STA  $0C
 91B3  68        PLA  
 91B4  85 0D     STA  $0D
 91B6  A0 00     LDY  #$00
 91B8  68        PLA  
 91B9  91 1E     STA  ($1E), Y
 91BB  C8        INY  
 91BC  68        PLA  
 91BD  91 1E     STA  ($1E), Y
 91BF  60        RTS  
 91C0  CA        DEX  
 91C1  CA        DEX  
 91C2  A0 04     LDY  #$04
 91C4  B1 1E     LDA  ($1E), Y
 91C6  95 00     STA  $00, X
 91C8  74 01     STZ  $01, X
 91CA  60        RTS  
 91CB  A0 1E     LDY  #$1E
 91CD  B1 1E     LDA  ($1E), Y
 91CF  85 24     STA  $24
 91D1  F0 16     BEQ  $91E9
 91D3  C6 24     DEC  $24
 91D5  A9 1F     LDA  #$1F
 91D7  18        CLC  
 91D8  65 24     ADC  $24
 91DA  A8        TAY  
 91DB  CA        DEX  
 91DC  CA        DEX  
 91DD  B1 1E     LDA  ($1E), Y
 91DF  95 00     STA  $00, X
 91E1  74 01     STZ  $01, X
 91E3  A9 00     LDA  #$00
 91E5  C5 24     CMP  $24
 91E7  D0 EA     BNE  $91D3
 91E9  CA        DEX  
 91EA  CA        DEX  
 91EB  A0 1E     LDY  #$1E
 91ED  B1 1E     LDA  ($1E), Y
 91EF  95 00     STA  $00, X
 91F1  74 01     STZ  $01, X
 91F3  60        RTS  
 91F4  A9 02     LDA  #$02
 91F6  20 41 D7  JSR  $D741
 91F9  A0 00     LDY  #$00
 91FB  20 8E D6  JSR  $D68E
 91FE  F0 03     BEQ  $9203
 9200  10 01     BPL  $9203
 9202  88        DEY  
 9203  98        TYA  
 9204  E8        INX  
 9205  E8        INX  
 9206  95 00     STA  $00, X
 9208  95 01     STA  $01, X
 920A  60        RTS  
 920B  CA        DEX  
 920C  CA        DEX  
 920D  A5 00     LDA  $00
 920F  95 00     STA  $00, X
 9211  A5 01     LDA  $01
 9213  95 01     STA  $01, X
 9215  60        RTS  
 9216  A9 10     LDA  #$10
 9218  85 18     STA  $18
 921A  64 19     STZ  $19
 921C  60        RTS  
 921D  A9 03     LDA  #$03
 921F  20 41 D7  JSR  $D741
 9222  20 45 8E  JSR  $8E45
 9225  20 EC A4  JSR  $A4EC
 9228  B5 00     LDA  $00, X
 922A  15 01     ORA  $01, X
 922C  F0 39     BEQ  $9267
 922E  20 BD 83  JSR  $83BD
 9231  20 98 86  JSR  $8698
 9234  20 EC A4  JSR  $A4EC
 9237  20 14 A8  JSR  $A814
 923A  20 14 A8  JSR  $A814
 923D  20 6A A4  JSR  $A46A
 9240  20 F1 A2  JSR  $A2F1
 9243  B5 00     LDA  $00, X
 9245  15 01     ORA  $01, X
 9247  D0 17     BNE  $9260
 9249  20 EA A3  JSR  $A3EA
 924C  20 00 8B  JSR  $8B00
 924F  20 44 9A  JSR  $9A44
 9252  20 5B 86  JSR  $865B
 9255  20 59 9A  JSR  $9A59
 9258  20 19 98  JSR  $9819
 925B  20 A6 A3  JSR  $A3A6
 925E  80 C8     BRA  $9228
 9260  8A        TXA  
 9261  18        CLC  
 9262  69 08     ADC  #$08
 9264  AA        TAX  
 9265  80 C1     BRA  $9228
 9267  E8        INX  
 9268  E8        INX  
 9269  E8        INX  
 926A  E8        INX  
 926B  20 6A A4  JSR  $A46A
 926E  20 DA A1  JSR  $A1DA
 9271  20 B3 95  JSR  $95B3
 9274  60        RTS  
 9275  A9 01     LDA  #$01
 9277  20 41 D7  JSR  $D741
 927A  A5 34     LDA  $34
 927C  D0 02     BNE  $9280
 927E  C6 35     DEC  $35
 9280  C6 34     DEC  $34
 9282  B5 00     LDA  $00, X
 9284  92 34     STA  ($34)
 9286  E8        INX  
 9287  E8        INX  
 9288  60        RTS  
 9289  CA        DEX  
 928A  CA        DEX  
 928B  86 2A     STX  $2A
 928D  BA        TSX  
 928E  38        SEC  
 928F  BD 01 01  LDA  $0101, X
 9292  FD 03 01  SBC  $0103, X
 9295  A8        TAY  
 9296  BD 02 01  LDA  $0102, X
 9299  FD 04 01  SBC  $0104, X
 929C  A6 2A     LDX  $2A
 929E  95 01     STA  $01, X
 92A0  94 00     STY  $00, X
 92A2  60        RTS  
 92A3  20 1B A8  JSR  $A81B
 92A6  20 0B 92  JSR  $920B
 92A9  20 14 A8  JSR  $A814
 92AC  20 12 88  JSR  $8812
 92AF  60        RTS  
 92B0  20 9B D7  JSR  $D79B
 92B3  A0 01     LDY  #$01
 92B5  B1 02     LDA  ($02), Y
 92B7  09 04     ORA  #$04
 92B9  91 02     STA  ($02), Y
 92BB  60        RTS  
 92BC  CA        DEX  
 92BD  CA        DEX  
 92BE  A9 12     LDA  #$12
 92C0  95 00     STA  $00, X
 92C2  A9 00     LDA  #$00
 92C4  95 01     STA  $01, X
 92C6  60        RTS  
 92C7  A9 01     LDA  #$01
 92C9  20 41 D7  JSR  $D741
 92CC  CA        DEX  
 92CD  CA        DEX  
 92CE  74 00     STZ  $00, X
 92D0  74 01     STZ  $01, X
 92D2  B5 00     LDA  $00, X
 92D4  0A        ASL  
 92D5  18        CLC  
 92D6  69 06     ADC  #$06
 92D8  A8        TAY  
 92D9  B1 1E     LDA  ($1E), Y
 92DB  85 26     STA  $26
 92DD  C8        INY  
 92DE  B1 1E     LDA  ($1E), Y
 92E0  85 27     STA  $27
 92E2  A5 26     LDA  $26
 92E4  05 27     ORA  $27
 92E6  F0 38     BEQ  $9320
 92E8  B5 02     LDA  $02, X
 92EA  85 28     STA  $28
 92EC  B5 03     LDA  $03, X
 92EE  85 29     STA  $29
 92F0  A0 04     LDY  #$04
 92F2  B1 26     LDA  ($26), Y
 92F4  C5 28     CMP  $28
 92F6  D0 07     BNE  $92FF
 92F8  C8        INY  
 92F9  B1 26     LDA  ($26), Y
 92FB  C5 29     CMP  $29
 92FD  F0 32     BEQ  $9331
 92FF  18        CLC  
 9300  A5 26     LDA  $26
 9302  69 02     ADC  #$02
 9304  85 26     STA  $26
 9306  A5 27     LDA  $27
 9308  69 00     ADC  #$00
 930A  85 27     STA  $27
 930C  A0 00     LDY  #$00
 930E  B1 26     LDA  ($26), Y
 9310  48        PHA  
 9311  C8        INY  
 9312  11 26     ORA  ($26), Y
 9314  F0 09     BEQ  $931F
 9316  B1 26     LDA  ($26), Y
 9318  85 27     STA  $27
 931A  68        PLA  
 931B  85 26     STA  $26
 931D  80 D1     BRA  $92F0
 931F  68        PLA  
 9320  B5 00     LDA  $00, X
 9322  1A        INC  
 9323  95 00     STA  $00, X
 9325  C9 0C     CMP  #$0C
 9327  D0 A9     BNE  $92D2
 9329  E8        INX  
 932A  E8        INX  
 932B  74 00     STZ  $00, X
 932D  74 01     STZ  $01, X
 932F  80 0A     BRA  $933B
 9331  E8        INX  
 9332  E8        INX  
 9333  A5 26     LDA  $26
 9335  95 00     STA  $00, X
 9337  A5 27     LDA  $27
 9339  95 01     STA  $01, X
 933B  60        RTS  
 933C  A9 01     LDA  #$01
 933E  20 41 D7  JSR  $D741
 9341  A9 FF     LDA  #$FF
 9343  55 00     EOR  $00, X
 9345  95 00     STA  $00, X
 9347  A9 FF     LDA  #$FF
 9349  55 01     EOR  $01, X
 934B  95 01     STA  $01, X
 934D  60        RTS  
 934E  A5 16     LDA  $16
 9350  05 17     ORA  $17
 9352  F0 0C     BEQ  $9360
 9354  20 C5 85  JSR  $85C5
 9357  A0 8B     LDY  #$8B
 9359  A9 6A     LDA  #$6A
 935B  20 09 D6  JSR  $D609
 935E  80 06     BRA  $9366
 9360  20 41 A2  JSR  $A241
 9363  20 6A 8B  JSR  $8B6A
 9366  60        RTS  
 9367  CA        DEX  
 9368  CA        DEX  
 9369  86 2A     STX  $2A
 936B  BA        TSX  
 936C  38        SEC  
 936D  BD 07 01  LDA  $0107, X
 9370  FD 09 01  SBC  $0109, X
 9373  A8        TAY  
 9374  BD 08 01  LDA  $0108, X
 9377  FD 0A 01  SBC  $010A, X
 937A  A6 2A     LDX  $2A
 937C  95 01     STA  $01, X
 937E  94 00     STY  $00, X
 9380  60        RTS  
 9381  20 8B 93  JSR  $938B
 9384  CA        DEX  
 9385  CA        DEX  
 9386  95 00     STA  $00, X
 9388  74 01     STZ  $01, X
 938A  60        RTS  
 938B  6C 12 00  JMP  ($0012)
 938E  CA        DEX  
 938F  CA        DEX  
 9390  20 9B D7  JSR  $D79B
 9393  A5 02     LDA  $02
 9395  95 00     STA  $00, X
 9397  A5 03     LDA  $03
 9399  95 01     STA  $01, X
 939B  60        RTS  
 939C  20 8E 93  JSR  $938E
 939F  20 31 96  JSR  $9631
 93A2  60        RTS  
 93A3  68        PLA  
 93A4  68        PLA  
 93A5  68        PLA  
 93A6  68        PLA  
 93A7  60        RTS  
 93A8  64 16     STZ  $16
 93AA  64 17     STZ  $17
 93AC  60        RTS  
 93AD  20 60 98  JSR  $9860
 93B0  B5 00     LDA  $00, X
 93B2  85 34     STA  $34
 93B4  B5 01     LDA  $01, X
 93B6  85 35     STA  $35
 93B8  E8        INX  
 93B9  E8        INX  
 93BA  60        RTS  
 93BB  A9 02     LDA  #$02
 93BD  20 41 D7  JSR  $D741
 93C0  A0 00     LDY  #$00
 93C2  20 8E D6  JSR  $D68E
 93C5  F0 03     BEQ  $93CA
 93C7  30 01     BMI  $93CA
 93C9  88        DEY  
 93CA  98        TYA  
 93CB  E8        INX  
 93CC  E8        INX  
 93CD  95 00     STA  $00, X
 93CF  95 01     STA  $01, X
 93D1  60        RTS  
 93D2  A9 01     LDA  #$01
 93D4  20 41 D7  JSR  $D741
 93D7  20 E0 9E  JSR  $9EE0
 93DA  20 C2 A1  JSR  $A1C2
 93DD  20 F9 A8  JSR  $A8F9
 93E0  60        RTS  
 93E1  A9 01     LDA  #$01
 93E3  20 41 D7  JSR  $D741
 93E6  A0 93     LDY  #$93
 93E8  A9 F1     LDA  #$F1
 93EA  20 09 D6  JSR  $D609
 93ED  20 12 88  JSR  $8812
 93F0  60        RTS  
 93F1  CA        DEX  
 93F2  CA        DEX  
 93F3  68        PLA  
 93F4  85 24     STA  $24
 93F6  68        PLA  
 93F7  85 25     STA  $25
 93F9  A0 01     LDY  #$01
 93FB  B1 24     LDA  ($24), Y
 93FD  95 00     STA  $00, X
 93FF  C8        INY  
 9400  B1 24     LDA  ($24), Y
 9402  95 01     STA  $01, X
 9404  98        TYA  
 9405  18        CLC  
 9406  65 24     ADC  $24
 9408  A8        TAY  
 9409  A5 25     LDA  $25
 940B  69 00     ADC  #$00
 940D  48        PHA  
 940E  5A        PHY  
 940F  60        RTS  
 9410  A9 01     LDA  #$01
 9412  20 41 D7  JSR  $D741
 9415  A0 01     LDY  #$01
 9417  B1 1E     LDA  ($1E), Y
 9419  48        PHA  
 941A  88        DEY  
 941B  B1 1E     LDA  ($1E), Y
 941D  48        PHA  
 941E  B5 00     LDA  $00, X
 9420  91 1E     STA  ($1E), Y
 9422  C8        INY  
 9423  B5 01     LDA  $01, X
 9425  91 1E     STA  ($1E), Y
 9427  20 E4 83  JSR  $83E4
 942A  CA        DEX  
 942B  CA        DEX  
 942C  A9 04     LDA  #$04
 942E  95 01     STA  $01, X
 9430  74 00     STZ  $00, X
 9432  20 3A 91  JSR  $913A
 9435  A0 00     LDY  #$00
 9437  68        PLA  
 9438  91 1E     STA  ($1E), Y
 943A  C8        INY  
 943B  68        PLA  
 943C  91 1E     STA  ($1E), Y
 943E  88        DEY  
 943F  11 1E     ORA  ($1E), Y
 9441  F0 12     BEQ  $9455
 9443  CA        DEX  
 9444  CA        DEX  
 9445  A0 00     LDY  #$00
 9447  B1 1E     LDA  ($1E), Y
 9449  95 00     STA  $00, X
 944B  C8        INY  
 944C  B1 1E     LDA  ($1E), Y
 944E  95 01     STA  $01, X
 9450  20 E4 83  JSR  $83E4
 9453  E8        INX  
 9454  E8        INX  
 9455  60        RTS  
 9456  A0 98     LDY  #$98
 9458  A9 02     LDA  #$02
 945A  20 09 D6  JSR  $D609
 945D  A0 11     LDY  #$11
 945F  5A        PHY  
 9460  B9 C4 94  LDA  $94C4, Y
 9463  91 00     STA  ($00), Y
 9465  88        DEY  
 9466  10 F8     BPL  $9460
 9468  68        PLA  
 9469  18        CLC  
 946A  65 00     ADC  $00
 946C  85 00     STA  $00
 946E  A5 01     LDA  $01
 9470  69 00     ADC  #$00
 9472  85 01     STA  $01
 9474  20 12 88  JSR  $8812
 9477  A9 68     LDA  #$68
 9479  A0 06     LDY  #$06
 947B  91 00     STA  ($00), Y
 947D  88        DEY  
 947E  10 FB     BPL  $947B
 9480  A9 06     LDA  #$06
 9482  18        CLC  
 9483  65 00     ADC  $00
 9485  85 00     STA  $00
 9487  A5 01     LDA  $01
 9489  69 00     ADC  #$00
 948B  85 01     STA  $01
 948D  B5 00     LDA  $00, X
 948F  85 24     STA  $24
 9491  B5 01     LDA  $01, X
 9493  85 25     STA  $25
 9495  E8        INX  
 9496  E8        INX  
 9497  A5 00     LDA  $00
 9499  38        SEC  
 949A  E9 01     SBC  #$01
 949C  85 26     STA  $26
 949E  A5 01     LDA  $01
 94A0  E9 00     SBC  #$00
 94A2  85 27     STA  $27
 94A4  A0 00     LDY  #$00
 94A6  A9 A9     LDA  #$A9
 94A8  91 24     STA  ($24), Y
 94AA  C8        INY  
 94AB  A5 27     LDA  $27
 94AD  91 24     STA  ($24), Y
 94AF  C8        INY  
 94B0  A9 48     LDA  #$48
 94B2  91 24     STA  ($24), Y
 94B4  C8        INY  
 94B5  A9 A9     LDA  #$A9
 94B7  91 24     STA  ($24), Y
 94B9  C8        INY  
 94BA  A5 26     LDA  $26
 94BC  91 24     STA  ($24), Y
 94BE  C8        INY  
 94BF  A9 48     LDA  #$48
 94C1  91 24     STA  ($24), Y
 94C3  60        RTS  
 94C4  18        CLC  
 94C5  68        PLA  
 94C6  75 00     ADC  $00, X
 94C8  A8        TAY  
 94C9  B8        CLV  
 94CA  68        PLA  
 94CB  75 01     ADC  $01, X
 94CD  48        PHA  
 94CE  98        TYA  
 94CF  48        PHA  
 94D0  E8        INX  
 94D1  E8        INX  
 94D2  70 03     BVS  $94D7
 94D4  4C                                               |L               |
 94D5  A9 02     LDA  #$02
 94D7  20 41 D7  JSR  $D741
 94DA  B5 00     LDA  $00, X
 94DC  29 0F     AND  #$0F
 94DE  F0 08     BEQ  $94E8
 94E0  A8        TAY  
 94E1  16 02     ASL  $02, X
 94E3  36 03     ROL  $03, X
 94E5  88        DEY  
 94E6  D0 F9     BNE  $94E1
 94E8  E8        INX  
 94E9  E8        INX  
 94EA  60        RTS  
 94EB  A9 02     LDA  #$02
 94ED  20 41 D7  JSR  $D741
 94F0  B5 01     LDA  $01, X
 94F2  55 03     EOR  $03, X
 94F4  48        PHA  
 94F5  20 39 81  JSR  $8139
 94F8  20 DA A1  JSR  $A1DA
 94FB  20 39 81  JSR  $8139
 94FE  20 67 A6  JSR  $A667
 9501  68        PLA  
 9502  10 03     BPL  $9507
 9504  20 C9 8B  JSR  $8BC9
 9507  60        RTS  
 9508  20 9B D7  JSR  $D79B
 950B  A5 02     LDA  $02
 950D  48        PHA  
 950E  A5 03     LDA  $03
 9510  48        PHA  
 9511  A5 00     LDA  $00
 9513  48        PHA  
 9514  A5 01     LDA  $01
 9516  48        PHA  
 9517  20 17 8A  JSR  $8A17
 951A  A5 00     LDA  $00
 951C  38        SEC  
 951D  E9 02     SBC  #$02
 951F  85 00     STA  $00
 9521  A5 01     LDA  $01
 9523  E9 00     SBC  #$00
 9525  85 01     STA  $01
 9527  A0 95     LDY  #$95
 9529  A9 46     LDA  #$46
 952B  20 15 D6  JSR  $D615
 952E  7A        PLY  
 952F  68        PLA  
 9530  20 15 D6  JSR  $D615
 9533  7A        PLY  
 9534  68        PLA  
 9535  20 15 D6  JSR  $D615
 9538  A0 04     LDY  #$04
 953A  B1 1E     LDA  ($1E), Y
 953C  20 19 D6  JSR  $D619
 953F  C8        INY  
 9540  98        TYA  
 9541  C9 28     CMP  #$28
 9543  D0 F5     BNE  $953A
 9545  60        RTS  
 9546  68        PLA  
 9547  85 24     STA  $24
 9549  68        PLA  
 954A  85 25     STA  $25
 954C  E6 24     INC  $24
 954E  D0 02     BNE  $9552
 9550  E6 25     INC  $25
 9552  A0 00     LDY  #$00
 9554  B1 24     LDA  ($24), Y
 9556  85 00     STA  $00
 9558  C8        INY  
 9559  B1 24     LDA  ($24), Y
 955B  85 01     STA  $01
 955D  C8        INY  
 955E  B1 24     LDA  ($24), Y
 9560  85 02     STA  $02
 9562  C8        INY  
 9563  B1 24     LDA  ($24), Y
 9565  85 03     STA  $03
 9567  A0 04     LDY  #$04
 9569  B1 24     LDA  ($24), Y
 956B  91 1E     STA  ($1E), Y
 956D  C8        INY  
 956E  98        TYA  
 956F  C9 28     CMP  #$28
 9571  D0 F6     BNE  $9569
 9573  20 AE D7  JSR  $D7AE
 9576  60        RTS  
 9577  A9 02     LDA  #$02
 9579  20 41 D7  JSR  $D741
 957C  B5 00     LDA  $00, X
 957E  D5 02     CMP  $02, X
 9580  B5 01     LDA  $01, X
 9582  F5 03     SBC  $03, X
 9584  50 02     BVC  $9588
 9586  49 80     EOR  #$80
 9588  30 08     BMI  $9592
 958A  B5 00     LDA  $00, X
 958C  95 02     STA  $02, X
 958E  B5 01     LDA  $01, X
 9590  95 03     STA  $03, X
 9592  E8        INX  
 9593  E8        INX  
 9594  60        RTS  
 9595  A9 02     LDA  #$02
 9597  20 41 D7  JSR  $D741
 959A  B5 00     LDA  $00, X
 959C  D5 02     CMP  $02, X
 959E  B5 01     LDA  $01, X
 95A0  F5 03     SBC  $03, X
 95A2  50 02     BVC  $95A6
 95A4  49 80     EOR  #$80
 95A6  10 08     BPL  $95B0
 95A8  B5 00     LDA  $00, X
 95AA  95 02     STA  $02, X
 95AC  B5 01     LDA  $01, X
 95AE  95 03     STA  $03, X
 95B0  E8        INX  
 95B1  E8        INX  
 95B2  60        RTS  
 95B3  A9 02     LDA  #$02
 95B5  20 41 D7  JSR  $D741
 95B8  38        SEC  
 95B9  B5 02     LDA  $02, X
 95BB  F5 00     SBC  $00, X
 95BD  95 02     STA  $02, X
 95BF  B5 03     LDA  $03, X
 95C1  F5 01     SBC  $01, X
 95C3  95 03     STA  $03, X
 95C5  E8        INX  
 95C6  E8        INX  
 95C7  60        RTS  
 95C8  A9 02     LDA  #$02
 95CA  20 41 D7  JSR  $D741
 95CD  B5 00     LDA  $00, X
 95CF  15 01     ORA  $01, X
 95D1  F0 33     BEQ  $9606
 95D3  18        CLC  
 95D4  B5 02     LDA  $02, X
 95D6  75 00     ADC  $00, X
 95D8  85 24     STA  $24
 95DA  B5 03     LDA  $03, X
 95DC  75 01     ADC  $01, X
 95DE  85 25     STA  $25
 95E0  A5 24     LDA  $24
 95E2  D0 02     BNE  $95E6
 95E4  C6 25     DEC  $25
 95E6  C6 24     DEC  $24
 95E8  B2 24     LDA  ($24)
 95EA  C9 20     CMP  #$20
 95EC  D0 18     BNE  $9606
 95EE  A5 24     LDA  $24
 95F0  D0 02     BNE  $95F4
 95F2  C6 25     DEC  $25
 95F4  C6 24     DEC  $24
 95F6  B5 00     LDA  $00, X
 95F8  D0 02     BNE  $95FC
 95FA  D6 01     DEC  $01, X
 95FC  D6 00     DEC  $00, X
 95FE  B5 00     LDA  $00, X
 9600  15 01     ORA  $01, X
 9602  F0 02     BEQ  $9606
 9604  80 E2     BRA  $95E8
 9606  60        RTS  
 9607  A9 02     LDA  #$02
 9609  20 41 D7  JSR  $D741
 960C  20 34 A0  JSR  $A034
 960F  E8        INX  
 9610  E8        INX  
 9611  60        RTS  
 9612  B5 03     LDA  $03, X
 9614  D5 05     CMP  $05, X
 9616  F0 05     BEQ  $961D
 9618  B0 0E     BCS  $9628
 961A  4C 39 87  JMP  $8739
 961D  B5 02     LDA  $02, X
 961F  D5 04     CMP  $04, X
 9621  F0 08     BEQ  $962B
 9623  B0 03     BCS  $9628
 9625  4C 39 87  JMP  $8739
 9628  4C 76 87  JMP  $8776
 962B  8A        TXA  
 962C  18        CLC  
 962D  69 06     ADC  #$06
 962F  AA        TAX  
 9630  60        RTS  
 9631  A9 01     LDA  #$01
 9633  20 41 D7  JSR  $D741
 9636  B5 00     LDA  $00, X
 9638  18        CLC  
 9639  69 04     ADC  #$04
 963B  85 28     STA  $28
 963D  B5 01     LDA  $01, X
 963F  90 01     BCC  $9642
 9641  1A        INC  
 9642  85 29     STA  $29
 9644  A0 00     LDY  #$00
 9646  B1 28     LDA  ($28), Y
 9648  95 00     STA  $00, X
 964A  C8        INY  
 964B  B1 28     LDA  ($28), Y
 964D  95 01     STA  $01, X
 964F  60        RTS  
 9650  A9 01     LDA  #$01
 9652  20 41 D7  JSR  $D741
 9655  CA        DEX  
 9656  CA        DEX  
 9657  A1 02     LDA  ($02, X)
 9659  95 00     STA  $00, X
 965B  74 01     STZ  $01, X
 965D  B5 02     LDA  $02, X
 965F  18        CLC  
 9660  69 08     ADC  #$08
 9662  A8        TAY  
 9663  B5 03     LDA  $03, X
 9665  69 00     ADC  #$00
 9667  95 03     STA  $03, X
 9669  94 02     STY  $02, X
 966B  60        RTS  
 966C  CA        DEX  
 966D  CA        DEX  
 966E  A9 1A     LDA  #$1A
 9670  95 00     STA  $00, X
 9672  A9 00     LDA  #$00
 9674  95 01     STA  $01, X
 9676  60        RTS  
 9677  A9 01     LDA  #$01
 9679  20 41 D7  JSR  $D741
 967C  A9 00     LDA  #$00
 967E  38        SEC  
 967F  F5 00     SBC  $00, X
 9681  95 00     STA  $00, X
 9683  A9 00     LDA  #$00
 9685  F5 01     SBC  $01, X
 9687  95 01     STA  $01, X
 9689  60        RTS  
 968A  20 9B D7  JSR  $D79B
 968D  A0 01     LDY  #$01
 968F  B1 02     LDA  ($02), Y
 9691  09 08     ORA  #$08
 9693  29 FD     AND  #$FD
 9695  91 02     STA  ($02), Y
 9697  60        RTS  
 9698  A9 02     LDA  #$02
 969A  20 41 D7  JSR  $D741
 969D  B5 00     LDA  $00, X
 969F  95 02     STA  $02, X
 96A1  B5 01     LDA  $01, X
 96A3  95 03     STA  $03, X
 96A5  E8        INX  
 96A6  E8        INX  
 96A7  60        RTS  
 96A8  A9 02     LDA  #$02
 96AA  20 41 D7  JSR  $D741
 96AD  A0 00     LDY  #$00
 96AF  B5 00     LDA  $00, X
 96B1  D5 02     CMP  $02, X
 96B3  D0 0A     BNE  $96BF
 96B5  B5 01     LDA  $01, X
 96B7  D5 03     CMP  $03, X
 96B9  D0 04     BNE  $96BF
 96BB  A9 FF     LDA  #$FF
 96BD  80 01     BRA  $96C0
 96BF  88        DEY  
 96C0  98        TYA  
 96C1  E8        INX  
 96C2  E8        INX  
 96C3  95 00     STA  $00, X
 96C5  95 01     STA  $01, X
 96C7  60        RTS  
 96C8  A9 03     LDA  #$03
 96CA  20 41 D7  JSR  $D741
 96CD  B4 01     LDY  $01, X
 96CF  B5 03     LDA  $03, X
 96D1  95 01     STA  $01, X
 96D3  B5 05     LDA  $05, X
 96D5  95 03     STA  $03, X
 96D7  94 05     STY  $05, X
 96D9  B4 00     LDY  $00, X
 96DB  B5 02     LDA  $02, X
 96DD  95 00     STA  $00, X
 96DF  B5 04     LDA  $04, X
 96E1  95 02     STA  $02, X
 96E3  94 04     STY  $04, X
 96E5  60        RTS  
 96E6  A9 02     LDA  #$02
 96E8  20 41 D7  JSR  $D741
 96EB  64 2A     STZ  $2A
 96ED  64 2B     STZ  $2B
 96EF  A1 02     LDA  ($02, X)
 96F1  C9 2D     CMP  #$2D
 96F3  D0 0A     BNE  $96FF
 96F5  C6 2B     DEC  $2B
 96F7  F6 02     INC  $02, X
 96F9  D0 02     BNE  $96FD
 96FB  F6 03     INC  $03, X
 96FD  D6 00     DEC  $00, X
 96FF  B5 02     LDA  $02, X
 9701  18        CLC  
 9702  75 00     ADC  $00, X
 9704  85 2C     STA  $2C
 9706  B5 03     LDA  $03, X
 9708  69 00     ADC  #$00
 970A  85 2D     STA  $2D
 970C  A5 2C     LDA  $2C
 970E  D0 02     BNE  $9712
 9710  C6 2D     DEC  $2D
 9712  C6 2C     DEC  $2C
 9714  B2 2C     LDA  ($2C)
 9716  C9 2E     CMP  #$2E
 9718  D0 04     BNE  $971E
 971A  C6 2A     DEC  $2A
 971C  D6 00     DEC  $00, X
 971E  CA        DEX  
 971F  CA        DEX  
 9720  CA        DEX  
 9721  CA        DEX  
 9722  B5 04     LDA  $04, X
 9724  95 00     STA  $00, X
 9726  74 01     STZ  $01, X
 9728  B5 06     LDA  $06, X
 972A  95 02     STA  $02, X
 972C  B5 07     LDA  $07, X
 972E  95 03     STA  $03, X
 9730  74 04     STZ  $04, X
 9732  74 05     STZ  $05, X
 9734  74 06     STZ  $06, X
 9736  74 07     STZ  $07, X
 9738  20 F1 A2  JSR  $A2F1
 973B  B5 00     LDA  $00, X
 973D  F0 15     BEQ  $9754
 973F  A9 3E     LDA  #$3E
 9741  20 78 8E  JSR  $8E78
 9744  20 53 A5  JSR  $A553
 9747  A9 3C     LDA  #$3C
 9749  20 78 8E  JSR  $8E78
 974C  20 57 A1  JSR  $A157
 974F  A9 08     LDA  #$08
 9751  4C 52 D7  JMP  $D752
 9754  E8        INX  
 9755  E8        INX  
 9756  E8        INX  
 9757  E8        INX  
 9758  A5 2A     LDA  $2A
 975A  F0 0F     BEQ  $976B
 975C  A5 20     LDA  $20
 975E  09 20     ORA  #$20
 9760  85 20     STA  $20
 9762  A5 2B     LDA  $2B
 9764  F0 14     BEQ  $977A
 9766  20 C9 8B  JSR  $8BC9
 9769  80 0F     BRA  $977A
 976B  E8        INX  
 976C  E8        INX  
 976D  A5 20     LDA  $20
 976F  29 DF     AND  #$DF
 9771  85 20     STA  $20
 9773  A5 2B     LDA  $2B
 9775  F0 03     BEQ  $977A
 9777  20 77 96  JSR  $9677
 977A  60        RTS  
 977B  A9 02     LDA  #$02
 977D  20 41 D7  JSR  $D741
 9780  20 A8 83  JSR  $83A8
 9783  20 E3 8F  JSR  $8FE3
 9786  20 A6 A3  JSR  $A3A6
 9789  20 14 A8  JSR  $A814
 978C  20 44 9A  JSR  $9A44
 978F  20 23 A6  JSR  $A623
 9792  20 06 9B  JSR  $9B06
 9795  20 06 9B  JSR  $9B06
 9798  20 59 9A  JSR  $9A59
 979B  20 23 A6  JSR  $A623
 979E  20 06 9B  JSR  $9B06
 97A1  20 06 9B  JSR  $9B06
 97A4  B5 00     LDA  $00, X
 97A6  A8        TAY  
 97A7  B9 D4 D3  LDA  $D3D4, Y
 97AA  95 00     STA  $00, X
 97AC  74 01     STZ  $01, X
 97AE  20 75 92  JSR  $9275
 97B1  60        RTS  
 97B2  A9 02     LDA  #$02
 97B4  20 41 D7  JSR  $D741
 97B7  A5 34     LDA  $34
 97B9  95 00     STA  $00, X
 97BB  95 02     STA  $02, X
 97BD  A5 35     LDA  $35
 97BF  95 01     STA  $01, X
 97C1  95 03     STA  $03, X
 97C3  20 60 98  JSR  $9860
 97C6  38        SEC  
 97C7  B5 00     LDA  $00, X
 97C9  F5 02     SBC  $02, X
 97CB  95 02     STA  $02, X
 97CD  B5 01     LDA  $01, X
 97CF  F5 03     SBC  $03, X
 97D1  95 03     STA  $03, X
 97D3  E8        INX  
 97D4  E8        INX  
 97D5  60        RTS  
 97D6  A9 02     LDA  #$02
 97D8  20 41 D7  JSR  $D741
 97DB  20 7B 97  JSR  $977B
 97DE  B5 00     LDA  $00, X
 97E0  15 01     ORA  $01, X
 97E2  15 02     ORA  $02, X
 97E4  15 03     ORA  $03, X
 97E6  D0 F3     BNE  $97DB
 97E8  60        RTS  
 97E9  A0 98     LDY  #$98
 97EB  A9 50     LDA  #$50
 97ED  20 09 D6  JSR  $D609
 97F0  A0 8F     LDY  #$8F
 97F2  A9 52     LDA  #$52
 97F4  20 09 D6  JSR  $D609
 97F7  20 A3 92  JSR  $92A3
 97FA  A0 8D     LDY  #$8D
 97FC  A9 C0     LDA  #$C0
 97FE  20 09 D6  JSR  $D609
 9801  60        RTS  
 9802  CA        DEX  
 9803  CA        DEX  
 9804  A9 01     LDA  #$01
 9806  95 00     STA  $00, X
 9808  74 01     STZ  $01, X
 980A  60        RTS  
 980B  A9 01     LDA  #$01
 980D  20 41 D7  JSR  $D741
 9810  B5 00     LDA  $00, X
 9812  D0 02     BNE  $9816
 9814  D6 01     DEC  $01, X
 9816  D6 00     DEC  $00, X
 9818  60        RTS  
 9819  A9 01     LDA  #$01
 981B  20 41 D7  JSR  $D741
 981E  F6 00     INC  $00, X
 9820  D0 02     BNE  $9824
 9822  F6 01     INC  $01, X
 9824  60        RTS  
 9825  CA        DEX  
 9826  CA        DEX  
 9827  A9 FF     LDA  #$FF
 9829  95 00     STA  $00, X
 982B  95 01     STA  $01, X
 982D  20 20 9D  JSR  $9D20
 9830  60        RTS  
 9831  A9 02     LDA  #$02
 9833  20 41 D7  JSR  $D741
 9836  B5 00     LDA  $00, X
 9838  15 02     ORA  $02, X
 983A  95 02     STA  $02, X
 983C  B5 01     LDA  $01, X
 983E  15 03     ORA  $03, X
 9840  95 03     STA  $03, X
 9842  E8        INX  
 9843  E8        INX  
 9844  60        RTS  
 9845  CA        DEX  
 9846  CA        DEX  
 9847  A9 10     LDA  #$10
 9849  95 00     STA  $00, X
 984B  A9 00     LDA  #$00
 984D  95 01     STA  $01, X
 984F  60        RTS  
 9850  A9 02     LDA  #$02
 9852  20 41 D7  JSR  $D741
 9855  CA        DEX  
 9856  CA        DEX  
 9857  B5 04     LDA  $04, X
 9859  95 00     STA  $00, X
 985B  B5 05     LDA  $05, X
 985D  95 01     STA  $01, X
 985F  60        RTS  
 9860  CA        DEX  
 9861  CA        DEX  
 9862  A5 00     LDA  $00
 9864  18        CLC  
 9865  69 FF     ADC  #$FF
 9867  95 00     STA  $00, X
 9869  A5 01     LDA  $01
 986B  69 00     ADC  #$00
 986D  95 01     STA  $01, X
 986F  60        RTS  
 9870  A9 1B     LDA  #$1B
 9872  20 78 8E  JSR  $8E78
 9875  A9 5B     LDA  #$5B
 9877  20 78 8E  JSR  $8E78
 987A  A9 32     LDA  #$32
 987C  20 78 8E  JSR  $8E78
 987F  A9 4A     LDA  #$4A
 9881  20 78 8E  JSR  $8E78
 9884  20 14 A8  JSR  $A814
 9887  20 14 A8  JSR  $A814
 988A  20 7F 83  JSR  $837F
 988D  60        RTS  
 988E  CA        DEX  
 988F  CA        DEX  
 9890  A9 29     LDA  #$29
 9892  95 00     STA  $00, X
 9894  74 01     STZ  $01, X
 9896  20 F9 98  JSR  $98F9
 9899  E8        INX  
 989A  E8        INX  
 989B  E8        INX  
 989C  E8        INX  
 989D  60        RTS  
 989E  A5 0A     LDA  $0A
 98A0  38        SEC  
 98A1  E5 0C     SBC  $0C
 98A3  85 24     STA  $24
 98A5  A5 0B     LDA  $0B
 98A7  E5 0D     SBC  $0D
 98A9  85 25     STA  $25
 98AB  A5 24     LDA  $24
 98AD  05 25     ORA  $25
 98AF  F0 28     BEQ  $98D9
 98B1  A5 08     LDA  $08
 98B3  18        CLC  
 98B4  65 0C     ADC  $0C
 98B6  85 26     STA  $26
 98B8  A5 09     LDA  $09
 98BA  65 0D     ADC  $0D
 98BC  85 27     STA  $27
 98BE  B2 26     LDA  ($26)
 98C0  20 34 D7  JSR  $D734
 98C3  90 1F     BCC  $98E4
 98C5  E6 26     INC  $26
 98C7  D0 02     BNE  $98CB
 98C9  E6 27     INC  $27
 98CB  A5 24     LDA  $24
 98CD  D0 02     BNE  $98D1
 98CF  C6 25     DEC  $25
 98D1  C6 24     DEC  $24
 98D3  A5 24     LDA  $24
 98D5  05 25     ORA  $25
 98D7  D0 E5     BNE  $98BE
 98D9  CA        DEX  
 98DA  CA        DEX  
 98DB  CA        DEX  
 98DC  CA        DEX  
 98DD  74 00     STZ  $00, X
 98DF  74 01     STZ  $01, X
 98E1  4C 92 99  JMP  $9992
 98E4  A5 26     LDA  $26
 98E6  38        SEC  
 98E7  E5 08     SBC  $08
 98E9  85 0C     STA  $0C
 98EB  A5 27     LDA  $27
 98ED  E5 09     SBC  $09
 98EF  85 0D     STA  $0D
 98F1  CA        DEX  
 98F2  CA        DEX  
 98F3  A9 20     LDA  #$20
 98F5  95 00     STA  $00, X
 98F7  74 01     STZ  $01, X
 98F9  A9 01     LDA  #$01
 98FB  20 41 D7  JSR  $D741
 98FE  A5 0A     LDA  $0A
 9900  05 0B     ORA  $0B
 9902  F0 0C     BEQ  $9910
 9904  A5 0D     LDA  $0D
 9906  C5 0B     CMP  $0B
 9908  90 0E     BCC  $9918
 990A  A5 0C     LDA  $0C
 990C  C5 0A     CMP  $0A
 990E  90 08     BCC  $9918
 9910  CA        DEX  
 9911  CA        DEX  
 9912  74 00     STZ  $00, X
 9914  74 01     STZ  $01, X
 9916  80 7A     BRA  $9992
 9918  B5 00     LDA  $00, X
 991A  85 2C     STA  $2C
 991C  CA        DEX  
 991D  CA        DEX  
 991E  A5 08     LDA  $08
 9920  18        CLC  
 9921  65 0C     ADC  $0C
 9923  85 24     STA  $24
 9925  85 26     STA  $26
 9927  95 02     STA  $02, X
 9929  A5 09     LDA  $09
 992B  65 0D     ADC  $0D
 992D  85 25     STA  $25
 992F  85 27     STA  $27
 9931  95 03     STA  $03, X
 9933  A5 08     LDA  $08
 9935  18        CLC  
 9936  65 0A     ADC  $0A
 9938  85 28     STA  $28
 993A  A5 09     LDA  $09
 993C  65 0B     ADC  $0B
 993E  85 29     STA  $29
 9940  64 2D     STZ  $2D
 9942  A5 26     LDA  $26
 9944  C5 28     CMP  $28
 9946  D0 06     BNE  $994E
 9948  A5 27     LDA  $27
 994A  C5 29     CMP  $29
 994C  F0 1D     BEQ  $996B
 994E  B2 26     LDA  ($26)
 9950  A4 2C     LDY  $2C
 9952  C0 20     CPY  #$20
 9954  D0 07     BNE  $995D
 9956  20 34 D7  JSR  $D734
 9959  90 02     BCC  $995D
 995B  80 0C     BRA  $9969
 995D  C5 2C     CMP  $2C
 995F  F0 08     BEQ  $9969
 9961  E6 26     INC  $26
 9963  D0 DD     BNE  $9942
 9965  E6 27     INC  $27
 9967  80 D9     BRA  $9942
 9969  E6 2D     INC  $2D
 996B  A5 26     LDA  $26
 996D  38        SEC  
 996E  E5 24     SBC  $24
 9970  95 00     STA  $00, X
 9972  A5 27     LDA  $27
 9974  E5 25     SBC  $25
 9976  95 01     STA  $01, X
 9978  A5 26     LDA  $26
 997A  38        SEC  
 997B  E5 08     SBC  $08
 997D  85 0C     STA  $0C
 997F  A5 27     LDA  $27
 9981  E5 09     SBC  $09
 9983  85 0D     STA  $0D
 9985  A5 0C     LDA  $0C
 9987  18        CLC  
 9988  65 2D     ADC  $2D
 998A  85 0C     STA  $0C
 998C  A5 0D     LDA  $0D
 998E  69 00     ADC  #$00
 9990  85 0D     STA  $0D
 9992  60        RTS  
 9993  16 00     ASL  $00, X
 9995  8A        TXA  
 9996  75 00     ADC  $00, X
 9998  A8        TAY  
 9999  B9 02 00  LDA  $0002, Y
 999C  95 00     STA  $00, X
 999E  B9 03 00  LDA  $0003, Y
 99A1  95 01     STA  $01, X
 99A3  60        RTS  
 99A4  A9 02     LDA  #$02
 99A6  20 41 D7  JSR  $D741
 99A9  18        CLC  
 99AA  B5 00     LDA  $00, X
 99AC  75 02     ADC  $02, X
 99AE  95 02     STA  $02, X
 99B0  B5 01     LDA  $01, X
 99B2  75 03     ADC  $03, X
 99B4  95 03     STA  $03, X
 99B6  E8        INX  
 99B7  E8        INX  
 99B8  60        RTS  
 99B9  A9 02     LDA  #$02
 99BB  20 41 D7  JSR  $D741
 99BE  B5 00     LDA  $00, X
 99C0  85 24     STA  $24
 99C2  B5 01     LDA  $01, X
 99C4  85 25     STA  $25
 99C6  A0 00     LDY  #$00
 99C8  B1 24     LDA  ($24), Y
 99CA  18        CLC  
 99CB  75 02     ADC  $02, X
 99CD  91 24     STA  ($24), Y
 99CF  C8        INY  
 99D0  B1 24     LDA  ($24), Y
 99D2  75 03     ADC  $03, X
 99D4  91 24     STA  ($24), Y
 99D6  E8        INX  
 99D7  E8        INX  
 99D8  E8        INX  
 99D9  E8        INX  
 99DA  60        RTS  
 99DB  20 9E 98  JSR  $989E
 99DE  B5 00     LDA  $00, X
 99E0  15 01     ORA  $01, X
 99E2  D0 05     BNE  $99E9
 99E4  A9 05     LDA  #$05
 99E6  4C 52 D7  JMP  $D752
 99E9  20 42 90  JSR  $9042
 99EC  D0 05     BNE  $99F3
 99EE  A9 05     LDA  #$05
 99F0  4C 52 D7  JMP  $D752
 99F3  B5 00     LDA  $00, X
 99F5  85 24     STA  $24
 99F7  B5 01     LDA  $01, X
 99F9  85 25     STA  $25
 99FB  20 31 96  JSR  $9631
 99FE  E6 24     INC  $24
 9A00  D0 02     BNE  $9A04
 9A02  E6 25     INC  $25
 9A04  B2 24     LDA  ($24)
 9A06  29 04     AND  #$04
 9A08  F0 05     BEQ  $9A0F
 9A0A  20 95 88  JSR  $8895
 9A0D  80 0A     BRA  $9A19
 9A0F  20 E1 93  JSR  $93E1
 9A12  A0 88     LDY  #$88
 9A14  A9 95     LDA  #$95
 9A16  20 09 D6  JSR  $D609
 9A19  60        RTS  
 9A1A  20 CB 91  JSR  $91CB
 9A1D  20 98 96  JSR  $9698
 9A20  20 0B 98  JSR  $980B
 9A23  20 20 9D  JSR  $9D20
 9A26  60        RTS  
 9A27  20 E3 8F  JSR  $8FE3
 9A2A  20 C0 8C  JSR  $8CC0
 9A2D  60        RTS  
 9A2E  A9 01     LDA  #$01
 9A30  20 41 D7  JSR  $D741
 9A33  B5 00     LDA  $00, X
 9A35  15 01     ORA  $01, X
 9A37  F0 0A     BEQ  $9A43
 9A39  CA        DEX  
 9A3A  CA        DEX  
 9A3B  B5 02     LDA  $02, X
 9A3D  95 00     STA  $00, X
 9A3F  B5 03     LDA  $03, X
 9A41  95 01     STA  $01, X
 9A43  60        RTS  
 9A44  7A        PLY  
 9A45  84 24     STY  $24
 9A47  7A        PLY  
 9A48  CA        DEX  
 9A49  CA        DEX  
 9A4A  68        PLA  
 9A4B  95 00     STA  $00, X
 9A4D  68        PLA  
 9A4E  95 01     STA  $01, X
 9A50  48        PHA  
 9A51  B5 00     LDA  $00, X
 9A53  48        PHA  
 9A54  5A        PHY  
 9A55  A4 24     LDY  $24
 9A57  5A        PHY  
 9A58  60        RTS  
 9A59  68        PLA  
 9A5A  85 2C     STA  $2C
 9A5C  7A        PLY  
 9A5D  CA        DEX  
 9A5E  CA        DEX  
 9A5F  68        PLA  
 9A60  95 00     STA  $00, X
 9A62  68        PLA  
 9A63  95 01     STA  $01, X
 9A65  5A        PHY  
 9A66  A5 2C     LDA  $2C
 9A68  48        PHA  
 9A69  60        RTS  
 9A6A  A0 00     LDY  #$00
 9A6C  A9 20     LDA  #$20
 9A6E  91 00     STA  ($00), Y
 9A70  C8        INY  
 9A71  24 20     BIT  $20
 9A73  70 0C     BVS  $9A81
 9A75  A5 04     LDA  $04
 9A77  91 00     STA  ($00), Y
 9A79  C8        INY  
 9A7A  A5 05     LDA  $05
 9A7C  91 00     STA  ($00), Y
 9A7E  C8        INY  
 9A7F  80 1B     BRA  $9A9C
 9A81  A5 04     LDA  $04
 9A83  18        CLC  
 9A84  69 04     ADC  #$04
 9A86  85 24     STA  $24
 9A88  A5 05     LDA  $05
 9A8A  69 00     ADC  #$00
 9A8C  85 25     STA  $25
 9A8E  B2 24     LDA  ($24)
 9A90  91 00     STA  ($00), Y
 9A92  5A        PHY  
 9A93  A0 01     LDY  #$01
 9A95  B1 24     LDA  ($24), Y
 9A97  7A        PLY  
 9A98  C8        INY  
 9A99  91 00     STA  ($00), Y
 9A9B  C8        INY  
 9A9C  98        TYA  
 9A9D  18        CLC  
 9A9E  65 00     ADC  $00
 9AA0  85 00     STA  $00
 9AA2  90 02     BCC  $9AA6
 9AA4  E6 01     INC  $01
 9AA6  60        RTS  
 9AA7  A5 06     LDA  $06
 9AA9  D0 2D     BNE  $9AD8
 9AAB  CA        DEX  
 9AAC  CA        DEX  
 9AAD  CA        DEX  
 9AAE  CA        DEX  
 9AAF  A5 08     LDA  $08
 9AB1  95 02     STA  $02, X
 9AB3  A5 09     LDA  $09
 9AB5  95 03     STA  $03, X
 9AB7  64 0A     STZ  $0A
 9AB9  64 0B     STZ  $0B
 9ABB  A9 FF     LDA  #$FF
 9ABD  95 00     STA  $00, X
 9ABF  74 01     STZ  $01, X
 9AC1  20 50 81  JSR  $8150
 9AC4  B5 00     LDA  $00, X
 9AC6  85 0A     STA  $0A
 9AC8  B5 01     LDA  $01, X
 9ACA  85 0B     STA  $0B
 9ACC  64 0C     STZ  $0C
 9ACE  64 0D     STZ  $0D
 9AD0  A9 FF     LDA  #$FF
 9AD2  95 00     STA  $00, X
 9AD4  95 01     STA  $01, X
 9AD6  80 10     BRA  $9AE8
 9AD8  1A        INC  
 9AD9  D0 08     BNE  $9AE3
 9ADB  CA        DEX  
 9ADC  CA        DEX  
 9ADD  74 00     STZ  $00, X
 9ADF  74 01     STZ  $01, X
 9AE1  80 05     BRA  $9AE8
 9AE3  A9 01     LDA  #$01
 9AE5  4C 52 D7  JMP  $D752
 9AE8  60        RTS  
 9AE9  20 A9 82  JSR  $82A9
 9AEC  20 0B 92  JSR  $920B
 9AEF  20 DA A1  JSR  $A1DA
 9AF2  20 C2 A1  JSR  $A1C2
 9AF5  60        RTS  
 9AF6  A9 FF     LDA  #$FF
 9AF8  85 16     STA  $16
 9AFA  85 17     STA  $17
 9AFC  60        RTS  
 9AFD  CA        DEX  
 9AFE  CA        DEX  
 9AFF  A9 03     LDA  #$03
 9B01  95 00     STA  $00, X
 9B03  74 01     STZ  $01, X
 9B05  60        RTS  
 9B06  A9 03     LDA  #$03
 9B08  20 41 D7  JSR  $D741
 9B0B  B4 05     LDY  $05, X
 9B0D  B5 03     LDA  $03, X
 9B0F  95 05     STA  $05, X
 9B11  B5 01     LDA  $01, X
 9B13  95 03     STA  $03, X
 9B15  94 01     STY  $01, X
 9B17  B4 04     LDY  $04, X
 9B19  B5 02     LDA  $02, X
 9B1B  95 04     STA  $04, X
 9B1D  B5 00     LDA  $00, X
 9B1F  95 02     STA  $02, X
 9B21  94 00     STY  $00, X
 9B23  60        RTS  
 9B24  A9 02     LDA  #$02
 9B26  20 41 D7  JSR  $D741
 9B29  B5 00     LDA  $00, X
 9B2B  29 0F     AND  #$0F
 9B2D  F0 08     BEQ  $9B37
 9B2F  A8        TAY  
 9B30  56 03     LSR  $03, X
 9B32  76 02     ROR  $02, X
 9B34  88        DEY  
 9B35  D0 F9     BNE  $9B30
 9B37  E8        INX  
 9B38  E8        INX  
 9B39  60        RTS  
 9B3A  A9 FF     LDA  #$FF
 9B3C  85 26     STA  $26
 9B3E  64 27     STZ  $27
 9B40  20 58 9D  JSR  $9D58
 9B43  60        RTS  
 9B44  C9 41     CMP  #$41
 9B46  90 06     BCC  $9B4E
 9B48  29 DF     AND  #$DF
 9B4A  38        SEC  
 9B4B  E9 37     SBC  #$37
 9B4D  60        RTS  
 9B4E  38        SEC  
 9B4F  E9 30     SBC  #$30
 9B51  60        RTS  
 9B52  A9 03     LDA  #$03
 9B54  20 41 D7  JSR  $D741
 9B57  A5 1E     LDA  $1E
 9B59  18        CLC  
 9B5A  69 06     ADC  #$06
 9B5C  85 26     STA  $26
 9B5E  A5 1F     LDA  $1F
 9B60  69 00     ADC  #$00
 9B62  85 27     STA  $27
 9B64  B5 00     LDA  $00, X
 9B66  0A        ASL  
 9B67  65 26     ADC  $26
 9B69  85 26     STA  $26
 9B6B  90 02     BCC  $9B6F
 9B6D  E6 27     INC  $27
 9B6F  E8        INX  
 9B70  E8        INX  
 9B71  B5 00     LDA  $00, X
 9B73  15 01     ORA  $01, X
 9B75  D0 03     BNE  $9B7A
 9B77  4C 32 9C  JMP  $9C32
 9B7A  A5 26     LDA  $26
 9B7C  05 27     ORA  $27
 9B7E  D0 03     BNE  $9B83
 9B80  4C 32 9C  JMP  $9C32
 9B83  B2 26     LDA  ($26)
 9B85  85 24     STA  $24
 9B87  E6 26     INC  $26
 9B89  D0 02     BNE  $9B8D
 9B8B  E6 27     INC  $27
 9B8D  B2 26     LDA  ($26)
 9B8F  85 25     STA  $25
 9B91  B5 02     LDA  $02, X
 9B93  85 26     STA  $26
 9B95  B5 03     LDA  $03, X
 9B97  85 27     STA  $27
 9B99  B2 24     LDA  ($24)
 9B9B  D5 00     CMP  $00, X
 9B9D  D0 7B     BNE  $9C1A
 9B9F  B2 26     LDA  ($26)
 9BA1  C9 5B     CMP  #$5B
 9BA3  B0 07     BCS  $9BAC
 9BA5  C9 41     CMP  #$41
 9BA7  90 03     BCC  $9BAC
 9BA9  18        CLC  
 9BAA  69 20     ADC  #$20
 9BAC  A0 08     LDY  #$08
 9BAE  D1 24     CMP  ($24), Y
 9BB0  D0 68     BNE  $9C1A
 9BB2  B5 00     LDA  $00, X
 9BB4  3A        DEC  
 9BB5  F0 2C     BEQ  $9BE3
 9BB7  A5 24     LDA  $24
 9BB9  48        PHA  
 9BBA  18        CLC  
 9BBB  69 08     ADC  #$08
 9BBD  85 24     STA  $24
 9BBF  A5 25     LDA  $25
 9BC1  48        PHA  
 9BC2  69 00     ADC  #$00
 9BC4  85 25     STA  $25
 9BC6  B4 00     LDY  $00, X
 9BC8  88        DEY  
 9BC9  B1 26     LDA  ($26), Y
 9BCB  C9 5B     CMP  #$5B
 9BCD  B0 07     BCS  $9BD6
 9BCF  C9 41     CMP  #$41
 9BD1  90 03     BCC  $9BD6
 9BD3  18        CLC  
 9BD4  69 20     ADC  #$20
 9BD6  D1 24     CMP  ($24), Y
 9BD8  D0 3A     BNE  $9C14
 9BDA  88        DEY  
 9BDB  D0 EC     BNE  $9BC9
 9BDD  68        PLA  
 9BDE  85 25     STA  $25
 9BE0  68        PLA  
 9BE1  85 24     STA  $24
 9BE3  E8        INX  
 9BE4  E8        INX  
 9BE5  A5 24     LDA  $24
 9BE7  95 00     STA  $00, X
 9BE9  A5 25     LDA  $25
 9BEB  95 01     STA  $01, X
 9BED  20 45 8E  JSR  $8E45
 9BF0  20 31 96  JSR  $9631
 9BF3  20 DA A1  JSR  $A1DA
 9BF6  A0 00     LDY  #$00
 9BF8  F6 00     INC  $00, X
 9BFA  D0 02     BNE  $9BFE
 9BFC  F6 01     INC  $01, X
 9BFE  A1 00     LDA  ($00, X)
 9C00  29 04     AND  #$04
 9C02  D0 08     BNE  $9C0C
 9C04  A9 FF     LDA  #$FF
 9C06  95 00     STA  $00, X
 9C08  95 01     STA  $01, X
 9C0A  80 28     BRA  $9C34
 9C0C  A9 01     LDA  #$01
 9C0E  95 00     STA  $00, X
 9C10  74 01     STZ  $01, X
 9C12  80 20     BRA  $9C34
 9C14  68        PLA  
 9C15  85 25     STA  $25
 9C17  68        PLA  
 9C18  85 24     STA  $24
 9C1A  A0 02     LDY  #$02
 9C1C  B1 24     LDA  ($24), Y
 9C1E  48        PHA  
 9C1F  C8        INY  
 9C20  B1 24     LDA  ($24), Y
 9C22  85 25     STA  $25
 9C24  68        PLA  
 9C25  85 24     STA  $24
 9C27  05 25     ORA  $25
 9C29  F0 03     BEQ  $9C2E
 9C2B  4C 99 9B  JMP  $9B99
 9C2E  74 02     STZ  $02, X
 9C30  74 03     STZ  $03, X
 9C32  E8        INX  
 9C33  E8        INX  
 9C34  60        RTS  
 9C35  20 9E 98  JSR  $989E
 9C38  20 42 90  JSR  $9042
 9C3B  B5 00     LDA  $00, X
 9C3D  15 01     ORA  $01, X
 9C3F  D0 05     BNE  $9C46
 9C41  A9 05     LDA  #$05
 9C43  4C 52 D7  JMP  $D752
 9C46  20 11 8A  JSR  $8A11
 9C49  A5 18     LDA  $18
 9C4B  48        PHA  
 9C4C  20 16 92  JSR  $9216
 9C4F  A9 F7     LDA  #$F7
 9C51  85 28     STA  $28
 9C53  A9 9C     LDA  #$9C
 9C55  85 29     STA  $29
 9C57  20 7B D7  JSR  $D77B
 9C5A  20 45 8E  JSR  $8E45
 9C5D  20 80 A5  JSR  $A580
 9C60  20 57 A1  JSR  $A157
 9C63  20 45 8E  JSR  $8E45
 9C66  20 31 96  JSR  $9631
 9C69  A9 FC     LDA  #$FC
 9C6B  85 28     STA  $28
 9C6D  A9 9C     LDA  #$9C
 9C6F  85 29     STA  $29
 9C71  20 7B D7  JSR  $D77B
 9C74  20 45 8E  JSR  $8E45
 9C77  20 80 A5  JSR  $A580
 9C7A  20 11 8A  JSR  $8A11
 9C7D  A9 DB     LDA  #$DB
 9C7F  85 28     STA  $28
 9C81  A9 9C     LDA  #$9C
 9C83  85 29     STA  $29
 9C85  20 7B D7  JSR  $D77B
 9C88  20 50 98  JSR  $9850
 9C8B  20 19 98  JSR  $9819
 9C8E  20 E3 8F  JSR  $8FE3
 9C91  B5 00     LDA  $00, X
 9C93  A0 06     LDY  #$06
 9C95  48        PHA  
 9C96  29 01     AND  #$01
 9C98  18        CLC  
 9C99  69 30     ADC  #$30
 9C9B  20 78 8E  JSR  $8E78
 9C9E  20 57 A1  JSR  $A157
 9CA1  68        PLA  
 9CA2  6A        ROR  
 9CA3  88        DEY  
 9CA4  D0 EF     BNE  $9C95
 9CA6  20 11 8A  JSR  $8A11
 9CA9  E8        INX  
 9CAA  E8        INX  
 9CAB  A9 01     LDA  #$01
 9CAD  85 28     STA  $28
 9CAF  A9 9D     LDA  #$9D
 9CB1  85 29     STA  $29
 9CB3  20 7B D7  JSR  $D77B
 9CB6  20 DA A1  JSR  $A1DA
 9CB9  20 DD A7  JSR  $A7DD
 9CBC  20 45 8E  JSR  $8E45
 9CBF  20 29 8B  JSR  $8B29
 9CC2  20 80 A5  JSR  $A580
 9CC5  20 16 92  JSR  $9216
 9CC8  20 11 8A  JSR  $8A11
 9CCB  20 F4 A3  JSR  $A3F4
 9CCE  20 C8 8D  JSR  $8DC8
 9CD1  20 11 8A  JSR  $8A11
 9CD4  20 C0 8B  JSR  $8BC0
 9CD7  68        PLA  
 9CD8  85 18     STA  $18
 9CDA  60        RTS  
 9CDB  66 6C 61 67 73 20 28 43 4F 20 41 4E 20 49 4D 20  |flags (CO AN IM |
 9CEB  4E 4E 20 55 46 20 48 43 29 3A 20 00 6E 74 3A 20  |NN UF HC): .nt: |
 9CFB  00 78 74 3A 20 00 73 69 7A 65 20 28 64 65 63 69  |.xt: .size (deci|
 9D0B  6D 61 6C 29 3A 20 00                             |mal): .         |
 9D12  A9 01     LDA  #$01
 9D14  20 41 D7  JSR  $D741
 9D17  A0 04     LDY  #$04
 9D19  B5 00     LDA  $00, X
 9D1B  91 1E     STA  ($1E), Y
 9D1D  E8        INX  
 9D1E  E8        INX  
 9D1F  60        RTS  
 9D20  A9 FF     LDA  #$FF
 9D22  D5 01     CMP  $01, X
 9D24  D0 12     BNE  $9D38
 9D26  D5 00     CMP  $00, X
 9D28  D0 0E     BNE  $9D38
 9D2A  CA        DEX  
 9D2B  CA        DEX  
 9D2C  74 03     STZ  $03, X
 9D2E  A9 03     LDA  #$03
 9D30  95 02     STA  $02, X
 9D32  74 01     STZ  $01, X
 9D34  A9 01     LDA  #$01
 9D36  95 00     STA  $00, X
 9D38  A0 1E     LDY  #$1E
 9D3A  B5 00     LDA  $00, X
 9D3C  91 1E     STA  ($1E), Y
 9D3E  85 24     STA  $24
 9D40  E8        INX  
 9D41  E8        INX  
 9D42  A5 24     LDA  $24
 9D44  F0 0D     BEQ  $9D53
 9D46  A0 1F     LDY  #$1F
 9D48  B5 00     LDA  $00, X
 9D4A  91 1E     STA  ($1E), Y
 9D4C  C8        INY  
 9D4D  E8        INX  
 9D4E  E8        INX  
 9D4F  C6 24     DEC  $24
 9D51  D0 F5     BNE  $9D48
 9D53  60        RTS  
 9D54  64 26     STZ  $26
 9D56  64 27     STZ  $27
 9D58  CA        DEX  
 9D59  CA        DEX  
 9D5A  CA        DEX  
 9D5B  CA        DEX  
 9D5C  A9 4C     LDA  #$4C
 9D5E  20 19 D6  JSR  $D619
 9D61  20 19 D6  JSR  $D619
 9D64  20 19 D6  JSR  $D619
 9D67  A5 00     LDA  $00
 9D69  95 02     STA  $02, X
 9D6B  A5 01     LDA  $01
 9D6D  95 03     STA  $03, X
 9D6F  A5 0D     LDA  $0D
 9D71  C5 0B     CMP  $0B
 9D73  90 2A     BCC  $9D9F
 9D75  A5 0C     LDA  $0C
 9D77  C5 0A     CMP  $0A
 9D79  90 24     BCC  $9D9F
 9D7B  A5 26     LDA  $26
 9D7D  48        PHA  
 9D7E  A5 27     LDA  $27
 9D80  48        PHA  
 9D81  A5 28     LDA  $28
 9D83  48        PHA  
 9D84  20 A7 9A  JSR  $9AA7
 9D87  68        PLA  
 9D88  85 28     STA  $28
 9D8A  68        PLA  
 9D8B  85 27     STA  $27
 9D8D  68        PLA  
 9D8E  85 26     STA  $26
 9D90  B5 00     LDA  $00, X
 9D92  15 01     ORA  $01, X
 9D94  D0 05     BNE  $9D9B
 9D96  A9 06     LDA  #$06
 9D98  4C 52 D7  JMP  $D752
 9D9B  E8        INX  
 9D9C  E8        INX  
 9D9D  80 D0     BRA  $9D6F
 9D9F  A5 08     LDA  $08
 9DA1  18        CLC  
 9DA2  65 0C     ADC  $0C
 9DA4  85 24     STA  $24
 9DA6  A5 09     LDA  $09
 9DA8  65 0D     ADC  $0D
 9DAA  85 25     STA  $25
 9DAC  B2 24     LDA  ($24)
 9DAE  24 26     BIT  $26
 9DB0  30 03     BMI  $9DB5
 9DB2  4C 6D 9E  JMP  $9E6D
 9DB5  24 27     BIT  $27
 9DB7  30 03     BMI  $9DBC
 9DB9  4C 63 9E  JMP  $9E63
 9DBC  70 22     BVS  $9DE0
 9DBE  A9 01     LDA  #$01
 9DC0  24 27     BIT  $27
 9DC2  D0 10     BNE  $9DD4
 9DC4  E6 27     INC  $27
 9DC6  B2 24     LDA  ($24)
 9DC8  20 44 9B  JSR  $9B44
 9DCB  0A        ASL  
 9DCC  0A        ASL  
 9DCD  0A        ASL  
 9DCE  0A        ASL  
 9DCF  85 28     STA  $28
 9DD1  4C 74 9E  JMP  $9E74
 9DD4  64 27     STZ  $27
 9DD6  B2 24     LDA  ($24)
 9DD8  20 44 9B  JSR  $9B44
 9DDB  05 28     ORA  $28
 9DDD  4C 71 9E  JMP  $9E71
 9DE0  64 27     STZ  $27
 9DE2  C9 61     CMP  #$61
 9DE4  D0 05     BNE  $9DEB
 9DE6  A9 07     LDA  #$07
 9DE8  4C 71 9E  JMP  $9E71
 9DEB  C9 62     CMP  #$62
 9DED  D0 05     BNE  $9DF4
 9DEF  A9 08     LDA  #$08
 9DF1  4C 71 9E  JMP  $9E71
 9DF4  C9 65     CMP  #$65
 9DF6  D0 04     BNE  $9DFC
 9DF8  A9 1B     LDA  #$1B
 9DFA  80 75     BRA  $9E71
 9DFC  C9 66     CMP  #$66
 9DFE  D0 04     BNE  $9E04
 9E00  A9 0C     LDA  #$0C
 9E02  80 6D     BRA  $9E71
 9E04  C9 6C     CMP  #$6C
 9E06  D0 04     BNE  $9E0C
 9E08  A9 0A     LDA  #$0A
 9E0A  80 65     BRA  $9E71
 9E0C  C9 6D     CMP  #$6D
 9E0E  D0 09     BNE  $9E19
 9E10  A9 0D     LDA  #$0D
 9E12  20 19 D6  JSR  $D619
 9E15  A9 0A     LDA  #$0A
 9E17  80 58     BRA  $9E71
 9E19  C9 6E     CMP  #$6E
 9E1B  D0 04     BNE  $9E21
 9E1D  A9 0A     LDA  #$0A
 9E1F  80 50     BRA  $9E71
 9E21  C9 71     CMP  #$71
 9E23  D0 04     BNE  $9E29
 9E25  A9 22     LDA  #$22
 9E27  80 48     BRA  $9E71
 9E29  C9 72     CMP  #$72
 9E2B  D0 04     BNE  $9E31
 9E2D  A9 0D     LDA  #$0D
 9E2F  80 40     BRA  $9E71
 9E31  C9 74     CMP  #$74
 9E33  D0 04     BNE  $9E39
 9E35  A9 09     LDA  #$09
 9E37  80 38     BRA  $9E71
 9E39  C9 76     CMP  #$76
 9E3B  D0 04     BNE  $9E41
 9E3D  A9 0B     LDA  #$0B
 9E3F  80 30     BRA  $9E71
 9E41  C9 7A     CMP  #$7A
 9E43  D0 04     BNE  $9E49
 9E45  A9 00     LDA  #$00
 9E47  80 28     BRA  $9E71
 9E49  C9 22     CMP  #$22
 9E4B  D0 04     BNE  $9E51
 9E4D  A9 22     LDA  #$22
 9E4F  80 20     BRA  $9E71
 9E51  C9 78     CMP  #$78
 9E53  D0 06     BNE  $9E5B
 9E55  A9 BE     LDA  #$BE
 9E57  85 27     STA  $27
 9E59  80 19     BRA  $9E74
 9E5B  C9 5C     CMP  #$5C
 9E5D  D0 04     BNE  $9E63
 9E5F  A9 5C     LDA  #$5C
 9E61  80 0E     BRA  $9E71
 9E63  C9 5C     CMP  #$5C
 9E65  D0 06     BNE  $9E6D
 9E67  A9 FF     LDA  #$FF
 9E69  85 27     STA  $27
 9E6B  80 07     BRA  $9E74
 9E6D  C9 22     CMP  #$22
 9E6F  F0 0C     BEQ  $9E7D
 9E71  20 19 D6  JSR  $D619
 9E74  E6 0C     INC  $0C
 9E76  D0 02     BNE  $9E7A
 9E78  E6 0D     INC  $0D
 9E7A  4C 6F 9D  JMP  $9D6F
 9E7D  E6 0C     INC  $0C
 9E7F  D0 02     BNE  $9E83
 9E81  E6 0D     INC  $0D
 9E83  A5 00     LDA  $00
 9E85  38        SEC  
 9E86  F5 02     SBC  $02, X
 9E88  95 00     STA  $00, X
 9E8A  A5 01     LDA  $01
 9E8C  F5 03     SBC  $03, X
 9E8E  95 01     STA  $01, X
 9E90  B5 02     LDA  $02, X
 9E92  38        SEC  
 9E93  E9 02     SBC  #$02
 9E95  85 24     STA  $24
 9E97  B5 03     LDA  $03, X
 9E99  E9 00     SBC  #$00
 9E9B  85 25     STA  $25
 9E9D  A5 00     LDA  $00
 9E9F  92 24     STA  ($24)
 9EA1  A0 01     LDY  #$01
 9EA3  A5 01     LDA  $01
 9EA5  91 24     STA  ($24), Y
 9EA7  A5 16     LDA  $16
 9EA9  05 17     ORA  $17
 9EAB  F0 03     BEQ  $9EB0
 9EAD  20 C6 A0  JSR  $A0C6
 9EB0  60        RTS  
 9EB1  A9 01     LDA  #$01
 9EB3  20 41 D7  JSR  $D741
 9EB6  CA        DEX  
 9EB7  CA        DEX  
 9EB8  74 00     STZ  $00, X
 9EBA  74 01     STZ  $01, X
 9EBC  B5 03     LDA  $03, X
 9EBE  10 04     BPL  $9EC4
 9EC0  D6 00     DEC  $00, X
 9EC2  D6 01     DEC  $01, X
 9EC4  60        RTS  
 9EC5  A0 2C     LDY  #$2C
 9EC7  B1 1E     LDA  ($1E), Y
 9EC9  C9 03     CMP  #$03
 9ECB  D0 12     BNE  $9EDF
 9ECD  20 D6 83  JSR  $83D6
 9ED0  20 E8 85  JSR  $85E8
 9ED3  20 E3 8F  JSR  $8FE3
 9ED6  20 85 85  JSR  $8585
 9ED9  A9 01     LDA  #$01
 9EDB  A0 2C     LDY  #$2C
 9EDD  91 1E     STA  ($1E), Y
 9EDF  60        RTS  
 9EE0  CA        DEX  
 9EE1  CA        DEX  
 9EE2  18        CLC  
 9EE3  A5 1E     LDA  $1E
 9EE5  69 02     ADC  #$02
 9EE7  95 00     STA  $00, X
 9EE9  A5 1F     LDA  $1F
 9EEB  69 00     ADC  #$00
 9EED  95 01     STA  $01, X
 9EEF  60        RTS  
 9EF0  A9 04     LDA  #$04
 9EF2  20 41 D7  JSR  $D741
 9EF5  B5 00     LDA  $00, X
 9EF7  15 01     ORA  $01, X
 9EF9  D0 0B     BNE  $9F06
 9EFB  E8        INX  
 9EFC  E8        INX  
 9EFD  A9 FF     LDA  #$FF
 9EFF  95 00     STA  $00, X
 9F01  95 01     STA  $01, X
 9F03  4C 90 9F  JMP  $9F90
 9F06  20 14 A8  JSR  $A814
 9F09  18        CLC  
 9F0A  B5 00     LDA  $00, X
 9F0C  75 02     ADC  $02, X
 9F0E  85 24     STA  $24
 9F10  B5 01     LDA  $01, X
 9F12  75 03     ADC  $03, X
 9F14  D5 07     CMP  $07, X
 9F16  90 12     BCC  $9F2A
 9F18  D0 06     BNE  $9F20
 9F1A  B5 06     LDA  $06, X
 9F1C  C5 24     CMP  $24
 9F1E  B0 0A     BCS  $9F2A
 9F20  E8        INX  
 9F21  E8        INX  
 9F22  E8        INX  
 9F23  E8        INX  
 9F24  74 00     STZ  $00, X
 9F26  74 01     STZ  $01, X
 9F28  80 66     BRA  $9F90
 9F2A  18        CLC  
 9F2B  B5 08     LDA  $08, X
 9F2D  75 00     ADC  $00, X
 9F2F  85 24     STA  $24
 9F31  B5 09     LDA  $09, X
 9F33  75 01     ADC  $01, X
 9F35  85 25     STA  $25
 9F37  B5 04     LDA  $04, X
 9F39  85 26     STA  $26
 9F3B  B5 05     LDA  $05, X
 9F3D  85 27     STA  $27
 9F3F  B5 02     LDA  $02, X
 9F41  85 28     STA  $28
 9F43  B5 03     LDA  $03, X
 9F45  85 29     STA  $29
 9F47  B2 24     LDA  ($24)
 9F49  D2 26     CMP  ($26)
 9F4B  F0 05     BEQ  $9F52
 9F4D  20 19 98  JSR  $9819
 9F50  80 B7     BRA  $9F09
 9F52  E6 24     INC  $24
 9F54  D0 02     BNE  $9F58
 9F56  E6 25     INC  $25
 9F58  E6 26     INC  $26
 9F5A  D0 02     BNE  $9F5E
 9F5C  E6 27     INC  $27
 9F5E  A5 28     LDA  $28
 9F60  D0 02     BNE  $9F64
 9F62  C6 29     DEC  $29
 9F64  C6 28     DEC  $28
 9F66  A5 28     LDA  $28
 9F68  05 29     ORA  $29
 9F6A  D0 DB     BNE  $9F47
 9F6C  18        CLC  
 9F6D  B5 00     LDA  $00, X
 9F6F  75 08     ADC  $08, X
 9F71  95 08     STA  $08, X
 9F73  B5 01     LDA  $01, X
 9F75  75 09     ADC  $09, X
 9F77  95 09     STA  $09, X
 9F79  38        SEC  
 9F7A  B5 06     LDA  $06, X
 9F7C  F5 00     SBC  $00, X
 9F7E  95 06     STA  $06, X
 9F80  B5 07     LDA  $07, X
 9F82  F5 01     SBC  $01, X
 9F84  95 07     STA  $07, X
 9F86  E8        INX  
 9F87  E8        INX  
 9F88  E8        INX  
 9F89  E8        INX  
 9F8A  A9 FF     LDA  #$FF
 9F8C  95 00     STA  $00, X
 9F8E  95 01     STA  $01, X
 9F90  60        RTS  
 9F91  24 20     BIT  $20
 9F93  70 11     BVS  $9FA6
 9F95  A9 60     LDA  #$60
 9F97  20 19 D6  JSR  $D619
 9F9A  CA        DEX  
 9F9B  CA        DEX  
 9F9C  A5 04     LDA  $04
 9F9E  95 00     STA  $00, X
 9FA0  A5 05     LDA  $05
 9FA2  95 01     STA  $01, X
 9FA4  80 6D     BRA  $A013
 9FA6  A0 06     LDY  #$06
 9FA8  A5 00     LDA  $00
 9FAA  91 04     STA  ($04), Y
 9FAC  C8        INY  
 9FAD  A5 01     LDA  $01
 9FAF  91 04     STA  ($04), Y
 9FB1  A9 60     LDA  #$60
 9FB3  20 19 D6  JSR  $D619
 9FB6  CA        DEX  
 9FB7  CA        DEX  
 9FB8  CA        DEX  
 9FB9  CA        DEX  
 9FBA  B2 04     LDA  ($04)
 9FBC  95 00     STA  $00, X
 9FBE  74 01     STZ  $01, X
 9FC0  A5 04     LDA  $04
 9FC2  18        CLC  
 9FC3  69 08     ADC  #$08
 9FC5  95 02     STA  $02, X
 9FC7  A5 05     LDA  $05
 9FC9  69 00     ADC  #$00
 9FCB  95 03     STA  $03, X
 9FCD  20 42 90  JSR  $9042
 9FD0  B5 00     LDA  $00, X
 9FD2  15 01     ORA  $01, X
 9FD4  F0 30     BEQ  $A006
 9FD6  A9 A5     LDA  #$A5
 9FD8  85 28     STA  $28
 9FDA  A9 D3     LDA  #$D3
 9FDC  85 29     STA  $29
 9FDE  20 7B D7  JSR  $D77B
 9FE1  CA        DEX  
 9FE2  CA        DEX  
 9FE3  B5 02     LDA  $02, X
 9FE5  95 00     STA  $00, X
 9FE7  B5 03     LDA  $03, X
 9FE9  95 01     STA  $01, X
 9FEB  A1 00     LDA  ($00, X)
 9FED  95 00     STA  $00, X
 9FEF  74 01     STZ  $01, X
 9FF1  B5 02     LDA  $02, X
 9FF3  18        CLC  
 9FF4  69 08     ADC  #$08
 9FF6  95 02     STA  $02, X
 9FF8  B5 03     LDA  $03, X
 9FFA  69 00     ADC  #$00
 9FFC  95 03     STA  $03, X
 9FFE  20 53 A5  JSR  $A553
 A001  20 57 A1  JSR  $A157
 A004  80 02     BRA  $A008
 A006  E8        INX  
 A007  E8        INX  
 A008  A5 04     LDA  $04
 A00A  85 02     STA  $02
 A00C  A5 05     LDA  $05
 A00E  85 03     STA  $03
 A010  20 AE D7  JSR  $D7AE
 A013  64 16     STZ  $16
 A015  64 17     STZ  $17
 A017  60        RTS  
 A018  A9 01     LDA  #$01
 A01A  20 41 D7  JSR  $D741
 A01D  B5 01     LDA  $01, X
 A01F  30 04     BMI  $A025
 A021  E8        INX  
 A022  E8        INX  
 A023  80 09     BRA  $A02E
 A025  A9 2D     LDA  #$2D
 A027  95 00     STA  $00, X
 A029  74 01     STZ  $01, X
 A02B  20 75 92  JSR  $9275
 A02E  60        RTS  
 A02F  A9 00     LDA  #$00
 A031  48        PHA  
 A032  80 03     BRA  $A037
 A034  A9 FF     LDA  #$FF
 A036  48        PHA  
 A037  20 A6 A3  JSR  $A3A6
 A03A  20 B1 9E  JSR  $9EB1
 A03D  20 59 9A  JSR  $9A59
 A040  20 0C A1  JSR  $A10C
 A043  68        PLA  
 A044  D0 05     BNE  $A04B
 A046  20 DA A1  JSR  $A1DA
 A049  E8        INX  
 A04A  E8        INX  
 A04B  60        RTS  
 A04C  A9 03     LDA  #$03
 A04E  20 41 D7  JSR  $D741
 A051  18        CLC  
 A052  B5 00     LDA  $00, X
 A054  75 04     ADC  $04, X
 A056  95 04     STA  $04, X
 A058  B5 01     LDA  $01, X
 A05A  75 05     ADC  $05, X
 A05C  95 05     STA  $05, X
 A05E  38        SEC  
 A05F  B5 02     LDA  $02, X
 A061  F5 00     SBC  $00, X
 A063  95 02     STA  $02, X
 A065  B5 03     LDA  $03, X
 A067  F5 01     SBC  $01, X
 A069  95 03     STA  $03, X
 A06B  E8        INX  
 A06C  E8        INX  
 A06D  60        RTS  
 A06E  A9 02     LDA  #$02
 A070  20 41 D7  JSR  $D741
 A073  A9 4C     LDA  #$4C
 A075  20 19 D6  JSR  $D619
 A078  20 19 D6  JSR  $D619
 A07B  20 19 D6  JSR  $D619
 A07E  8A        TXA  
 A07F  38        SEC  
 A080  E9 06     SBC  #$06
 A082  AA        TAX  
 A083  B5 08     LDA  $08, X
 A085  95 04     STA  $04, X
 A087  B5 09     LDA  $09, X
 A089  95 05     STA  $05, X
 A08B  B5 06     LDA  $06, X
 A08D  95 00     STA  $00, X
 A08F  B5 07     LDA  $07, X
 A091  95 01     STA  $01, X
 A093  A5 00     LDA  $00
 A095  95 08     STA  $08, X
 A097  95 02     STA  $02, X
 A099  A5 01     LDA  $01
 A09B  95 09     STA  $09, X
 A09D  95 03     STA  $03, X
 A09F  20 12 96  JSR  $9612
 A0A2  18        CLC  
 A0A3  A5 00     LDA  $00
 A0A5  75 00     ADC  $00, X
 A0A7  85 00     STA  $00
 A0A9  A5 01     LDA  $01
 A0AB  75 01     ADC  $01, X
 A0AD  85 01     STA  $01
 A0AF  B5 02     LDA  $02, X
 A0B1  38        SEC  
 A0B2  E9 02     SBC  #$02
 A0B4  85 24     STA  $24
 A0B6  B5 03     LDA  $03, X
 A0B8  E9 00     SBC  #$00
 A0BA  85 25     STA  $25
 A0BC  A5 00     LDA  $00
 A0BE  92 24     STA  ($24)
 A0C0  A0 01     LDY  #$01
 A0C2  A5 01     LDA  $01
 A0C4  91 24     STA  ($24), Y
 A0C6  A0 A0     LDY  #$A0
 A0C8  A9 E0     LDA  #$E0
 A0CA  20 09 D6  JSR  $D609
 A0CD  B4 03     LDY  $03, X
 A0CF  B5 02     LDA  $02, X
 A0D1  20 15 D6  JSR  $D615
 A0D4  B4 01     LDY  $01, X
 A0D6  B5 00     LDA  $00, X
 A0D8  20 15 D6  JSR  $D615
 A0DB  E8        INX  
 A0DC  E8        INX  
 A0DD  E8        INX  
 A0DE  E8        INX  
 A0DF  60        RTS  
 A0E0  CA        DEX  
 A0E1  CA        DEX  
 A0E2  CA        DEX  
 A0E3  CA        DEX  
 A0E4  68        PLA  
 A0E5  85 24     STA  $24
 A0E7  68        PLA  
 A0E8  85 25     STA  $25
 A0EA  A0 01     LDY  #$01
 A0EC  B1 24     LDA  ($24), Y
 A0EE  95 02     STA  $02, X
 A0F0  C8        INY  
 A0F1  B1 24     LDA  ($24), Y
 A0F3  95 03     STA  $03, X
 A0F5  C8        INY  
 A0F6  B1 24     LDA  ($24), Y
 A0F8  95 00     STA  $00, X
 A0FA  C8        INY  
 A0FB  B1 24     LDA  ($24), Y
 A0FD  95 01     STA  $01, X
 A0FF  18        CLC  
 A100  A5 24     LDA  $24
 A102  69 04     ADC  #$04
 A104  A8        TAY  
 A105  A5 25     LDA  $25
 A107  69 00     ADC  #$00
 A109  48        PHA  
 A10A  5A        PHY  
 A10B  60        RTS  
 A10C  A9 03     LDA  #$03
 A10E  20 41 D7  JSR  $D741
 A111  B5 03     LDA  $03, X
 A113  48        PHA  
 A114  B5 01     LDA  $01, X
 A116  55 03     EOR  $03, X
 A118  48        PHA  
 A119  20 39 81  JSR  $8139
 A11C  E8        INX  
 A11D  E8        INX  
 A11E  20 08 8B  JSR  $8B08
 A121  CA        DEX  
 A122  CA        DEX  
 A123  20 23 A6  JSR  $A623
 A126  68        PLA  
 A127  10 03     BPL  $A12C
 A129  20 77 96  JSR  $9677
 A12C  68        PLA  
 A12D  10 07     BPL  $A136
 A12F  E8        INX  
 A130  E8        INX  
 A131  20 77 96  JSR  $9677
 A134  CA        DEX  
 A135  CA        DEX  
 A136  60        RTS  
 A137  CA        DEX  
 A138  CA        DEX  
 A139  A5 08     LDA  $08
 A13B  95 00     STA  $00, X
 A13D  A5 09     LDA  $09
 A13F  95 01     STA  $01, X
 A141  CA        DEX  
 A142  CA        DEX  
 A143  A5 0A     LDA  $0A
 A145  95 00     STA  $00, X
 A147  A5 0B     LDA  $0B
 A149  95 01     STA  $01, X
 A14B  60        RTS  
 A14C  CA        DEX  
 A14D  CA        DEX  
 A14E  A5 06     LDA  $06
 A150  95 00     STA  $00, X
 A152  A5 07     LDA  $07
 A154  95 01     STA  $01, X
 A156  60        RTS  
 A157  A9 20     LDA  #$20
 A159  20 78 8E  JSR  $8E78
 A15C  60        RTS  
 A15D  A9 01     LDA  #$01
 A15F  20 41 D7  JSR  $D741
 A162  B5 00     LDA  $00, X
 A164  15 01     ORA  $01, X
 A166  F0 26     BEQ  $A18E
 A168  A9 20     LDA  #$20
 A16A  B4 01     LDY  $01, X
 A16C  D0 0A     BNE  $A178
 A16E  B4 00     LDY  $00, X
 A170  20 78 8E  JSR  $8E78
 A173  88        DEY  
 A174  F0 18     BEQ  $A18E
 A176  80 F8     BRA  $A170
 A178  B4 00     LDY  $00, X
 A17A  F0 06     BEQ  $A182
 A17C  20 78 8E  JSR  $8E78
 A17F  88        DEY  
 A180  80 F8     BRA  $A17A
 A182  A0 00     LDY  #$00
 A184  20 78 8E  JSR  $8E78
 A187  88        DEY  
 A188  D0 FA     BNE  $A184
 A18A  D6 01     DEC  $01, X
 A18C  D0 F4     BNE  $A182
 A18E  E8        INX  
 A18F  E8        INX  
 A190  60        RTS  
 A191  A9 02     LDA  #$02
 A193  20 41 D7  JSR  $D741
 A196  20 67 A6  JSR  $A667
 A199  E8        INX  
 A19A  E8        INX  
 A19B  60        RTS  
 A19C  20 A5 A1  JSR  $A1A5
 A19F  20 DA A1  JSR  $A1DA
 A1A2  E8        INX  
 A1A3  E8        INX  
 A1A4  60        RTS  
 A1A5  A9 03     LDA  #$03
 A1A7  20 41 D7  JSR  $D741
 A1AA  20 A6 A3  JSR  $A3A6
 A1AD  20 EB 94  JSR  $94EB
 A1B0  20 59 9A  JSR  $9A59
 A1B3  20 0C A1  JSR  $A10C
 A1B6  60        RTS  
 A1B7  CA        DEX  
 A1B8  CA        DEX  
 A1B9  A9 16     LDA  #$16
 A1BB  95 00     STA  $00, X
 A1BD  A9 00     LDA  #$00
 A1BF  95 01     STA  $01, X
 A1C1  60        RTS  
 A1C2  A9 02     LDA  #$02
 A1C4  20 41 D7  JSR  $D741
 A1C7  B5 02     LDA  $02, X
 A1C9  81 00     STA  ($00, X)
 A1CB  F6 00     INC  $00, X
 A1CD  D0 02     BNE  $A1D1
 A1CF  F6 01     INC  $01, X
 A1D1  B5 03     LDA  $03, X
 A1D3  81 00     STA  ($00, X)
 A1D5  E8        INX  
 A1D6  E8        INX  
 A1D7  E8        INX  
 A1D8  E8        INX  
 A1D9  60        RTS  
 A1DA  A9 02     LDA  #$02
 A1DC  20 41 D7  JSR  $D741
 A1DF  B5 00     LDA  $00, X
 A1E1  B4 02     LDY  $02, X
 A1E3  95 02     STA  $02, X
 A1E5  94 00     STY  $00, X
 A1E7  B5 01     LDA  $01, X
 A1E9  B4 03     LDY  $03, X
 A1EB  95 03     STA  $03, X
 A1ED  94 01     STY  $01, X
 A1EF  60        RTS  
 A1F0  20 0B 92  JSR  $920B
 A1F3  20 DA A1  JSR  $A1DA
 A1F6  20 C2 A1  JSR  $A1C2
 A1F9  60        RTS  
 A1FA  A9 02     LDA  #$02
 A1FC  20 41 D7  JSR  $D741
 A1FF  B5 01     LDA  $01, X
 A201  48        PHA  
 A202  B5 00     LDA  $00, X
 A204  48        PHA  
 A205  E8        INX  
 A206  E8        INX  
 A207  B5 01     LDA  $01, X
 A209  48        PHA  
 A20A  B5 00     LDA  $00, X
 A20C  48        PHA  
 A20D  20 10 94  JSR  $9410
 A210  68        PLA  
 A211  85 24     STA  $24
 A213  68        PLA  
 A214  85 25     STA  $25
 A216  68        PLA  
 A217  85 26     STA  $26
 A219  68        PLA  
 A21A  85 27     STA  $27
 A21C  C5 25     CMP  $25
 A21E  D0 08     BNE  $A228
 A220  A5 26     LDA  $26
 A222  C5 24     CMP  $24
 A224  D0 02     BNE  $A228
 A226  80 18     BRA  $A240
 A228  A5 27     LDA  $27
 A22A  48        PHA  
 A22B  A5 26     LDA  $26
 A22D  48        PHA  
 A22E  E6 24     INC  $24
 A230  D0 02     BNE  $A234
 A232  E6 25     INC  $25
 A234  CA        DEX  
 A235  CA        DEX  
 A236  A5 24     LDA  $24
 A238  95 00     STA  $00, X
 A23A  A5 25     LDA  $25
 A23C  95 01     STA  $01, X
 A23E  80 C7     BRA  $A207
 A240  60        RTS  
 A241  20 9E 98  JSR  $989E
 A244  B5 00     LDA  $00, X
 A246  15 01     ORA  $01, X
 A248  D0 05     BNE  $A24F
 A24A  A9 05     LDA  #$05
 A24C  4C 52 D7  JMP  $D752
 A24F  20 42 90  JSR  $9042
 A252  B5 00     LDA  $00, X
 A254  15 01     ORA  $01, X
 A256  D0 05     BNE  $A25D
 A258  A9 08     LDA  #$08
 A25A  4C 52 D7  JMP  $D752
 A25D  20 31 96  JSR  $9631
 A260  60        RTS  
 A261  20 41 A2  JSR  $A241
 A264  B5 00     LDA  $00, X
 A266  18        CLC  
 A267  69 03     ADC  #$03
 A269  85 24     STA  $24
 A26B  B5 01     LDA  $01, X
 A26D  69 00     ADC  #$00
 A26F  85 25     STA  $25
 A271  E8        INX  
 A272  E8        INX  
 A273  A5 16     LDA  $16
 A275  05 17     ORA  $17
 A277  F0 34     BEQ  $A2AD
 A279  A0 00     LDY  #$00
 A27B  A9 B5     LDA  #$B5
 A27D  20 15 D6  JSR  $D615
 A280  A9 8D     LDA  #$8D
 A282  20 19 D6  JSR  $D619
 A285  A4 25     LDY  $25
 A287  A5 24     LDA  $24
 A289  20 15 D6  JSR  $D615
 A28C  A0 01     LDY  #$01
 A28E  A9 B5     LDA  #$B5
 A290  20 15 D6  JSR  $D615
 A293  A9 8D     LDA  #$8D
 A295  20 19 D6  JSR  $D619
 A298  E6 24     INC  $24
 A29A  D0 02     BNE  $A29E
 A29C  E6 25     INC  $25
 A29E  A4 25     LDY  $25
 A2A0  A5 24     LDA  $24
 A2A2  20 15 D6  JSR  $D615
 A2A5  A0 E8     LDY  #$E8
 A2A7  98        TYA  
 A2A8  20 15 D6  JSR  $D615
 A2AB  80 11     BRA  $A2BE
 A2AD  A9 01     LDA  #$01
 A2AF  20 41 D7  JSR  $D741
 A2B2  B5 00     LDA  $00, X
 A2B4  92 24     STA  ($24)
 A2B6  A0 01     LDY  #$01
 A2B8  B5 01     LDA  $01, X
 A2BA  91 24     STA  ($24), Y
 A2BC  E8        INX  
 A2BD  E8        INX  
 A2BE  60        RTS  
 A2BF  A9 01     LDA  #$01
 A2C1  20 41 D7  JSR  $D741
 A2C4  20 45 8E  JSR  $8E45
 A2C7  20 C7 92  JSR  $92C7
 A2CA  F6 00     INC  $00, X
 A2CC  D0 02     BNE  $A2D0
 A2CE  F6 01     INC  $01, X
 A2D0  A1 00     LDA  ($00, X)
 A2D2  29 20     AND  #$20
 A2D4  F0 0D     BEQ  $A2E3
 A2D6  18        CLC  
 A2D7  B5 02     LDA  $02, X
 A2D9  69 03     ADC  #$03
 A2DB  95 02     STA  $02, X
 A2DD  B5 03     LDA  $03, X
 A2DF  69 00     ADC  #$00
 A2E1  95 03     STA  $03, X
 A2E3  E8        INX  
 A2E4  E8        INX  
 A2E5  60        RTS  
 A2E6  CA        DEX  
 A2E7  CA        DEX  
 A2E8  A9 0C     LDA  #$0C
 A2EA  95 00     STA  $00, X
 A2EC  A9 00     LDA  #$00
 A2EE  95 01     STA  $01, X
 A2F0  60        RTS  
 A2F1  A9 04     LDA  #$04
 A2F3  20 41 D7  JSR  $D741
 A2F6  B5 06     LDA  $06, X
 A2F8  85 36     STA  $36
 A2FA  B5 07     LDA  $07, X
 A2FC  85 37     STA  $37
 A2FE  B5 04     LDA  $04, X
 A300  85 38     STA  $38
 A302  B5 05     LDA  $05, X
 A304  85 39     STA  $39
 A306  CA        DEX  
 A307  CA        DEX  
 A308  A1 04     LDA  ($04, X)
 A30A  95 00     STA  $00, X
 A30C  74 01     STZ  $01, X
 A30E  20 89 8B  JSR  $8B89
 A311  B5 00     LDA  $00, X
 A313  D0 04     BNE  $A319
 A315  E8        INX  
 A316  E8        INX  
 A317  80 67     BRA  $A380
 A319  B5 02     LDA  $02, X
 A31B  85 3A     STA  $3A
 A31D  B5 03     LDA  $03, X
 A31F  85 3B     STA  $3B
 A321  A5 38     LDA  $38
 A323  95 02     STA  $02, X
 A325  A5 39     LDA  $39
 A327  95 03     STA  $03, X
 A329  A5 18     LDA  $18
 A32B  95 00     STA  $00, X
 A32D  74 01     STZ  $01, X
 A32F  20 67 A6  JSR  $A667
 A332  B5 02     LDA  $02, X
 A334  85 3C     STA  $3C
 A336  B5 03     LDA  $03, X
 A338  85 3D     STA  $3D
 A33A  A5 36     LDA  $36
 A33C  95 02     STA  $02, X
 A33E  A5 37     LDA  $37
 A340  95 03     STA  $03, X
 A342  A5 18     LDA  $18
 A344  95 00     STA  $00, X
 A346  74 01     STZ  $01, X
 A348  20 67 A6  JSR  $A667
 A34B  B5 00     LDA  $00, X
 A34D  85 38     STA  $38
 A34F  B5 01     LDA  $01, X
 A351  85 39     STA  $39
 A353  B5 02     LDA  $02, X
 A355  85 36     STA  $36
 A357  B5 03     LDA  $03, X
 A359  85 37     STA  $37
 A35B  18        CLC  
 A35C  A5 36     LDA  $36
 A35E  65 3A     ADC  $3A
 A360  85 36     STA  $36
 A362  A5 37     LDA  $37
 A364  65 3B     ADC  $3B
 A366  85 37     STA  $37
 A368  A5 38     LDA  $38
 A36A  65 3C     ADC  $3C
 A36C  85 38     STA  $38
 A36E  A5 39     LDA  $39
 A370  65 3D     ADC  $3D
 A372  85 39     STA  $39
 A374  E8        INX  
 A375  E8        INX  
 A376  F6 04     INC  $04, X
 A378  D0 02     BNE  $A37C
 A37A  F6 05     INC  $05, X
 A37C  D6 02     DEC  $02, X
 A37E  D0 88     BNE  $A308
 A380  E8        INX  
 A381  E8        INX  
 A382  A5 36     LDA  $36
 A384  95 06     STA  $06, X
 A386  A5 37     LDA  $37
 A388  95 07     STA  $07, X
 A38A  A5 38     LDA  $38
 A38C  95 04     STA  $04, X
 A38E  A5 39     LDA  $39
 A390  95 05     STA  $05, X
 A392  60        RTS  
 A393  20 A6 A3  JSR  $A3A6
 A396  20 CB 91  JSR  $91CB
 A399  20 59 9A  JSR  $9A59
 A39C  20 DA A1  JSR  $A1DA
 A39F  20 19 98  JSR  $9819
 A3A2  20 20 9D  JSR  $9D20
 A3A5  60        RTS  
 A3A6  68        PLA  
 A3A7  85 2C     STA  $2C
 A3A9  7A        PLY  
 A3AA  A9 01     LDA  #$01
 A3AC  20 41 D7  JSR  $D741
 A3AF  B5 01     LDA  $01, X
 A3B1  48        PHA  
 A3B2  B5 00     LDA  $00, X
 A3B4  48        PHA  
 A3B5  E8        INX  
 A3B6  E8        INX  
 A3B7  5A        PHY  
 A3B8  A5 2C     LDA  $2C
 A3BA  48        PHA  
 A3BB  60        RTS  
 A3BC  CA        DEX  
 A3BD  CA        DEX  
 A3BE  A9 FF     LDA  #$FF
 A3C0  95 00     STA  $00, X
 A3C2  95 01     STA  $01, X
 A3C4  60        RTS  
 A3C5  A9 02     LDA  #$02
 A3C7  20 41 D7  JSR  $D741
 A3CA  CA        DEX  
 A3CB  CA        DEX  
 A3CC  B4 04     LDY  $04, X
 A3CE  B5 02     LDA  $02, X
 A3D0  95 04     STA  $04, X
 A3D2  94 02     STY  $02, X
 A3D4  95 00     STA  $00, X
 A3D6  B4 05     LDY  $05, X
 A3D8  B5 03     LDA  $03, X
 A3DA  95 05     STA  $05, X
 A3DC  94 03     STY  $03, X
 A3DE  95 01     STA  $01, X
 A3E0  60        RTS  
 A3E1  CA        DEX  
 A3E2  CA        DEX  
 A3E3  A9 02     LDA  #$02
 A3E5  95 00     STA  $00, X
 A3E7  74 01     STZ  $01, X
 A3E9  60        RTS  
 A3EA  A9 02     LDA  #$02
 A3EC  20 41 D7  JSR  $D741
 A3EF  E8        INX  
 A3F0  E8        INX  
 A3F1  E8        INX  
 A3F2  E8        INX  
 A3F3  60        RTS  
 A3F4  A9 02     LDA  #$02
 A3F6  20 41 D7  JSR  $D741
 A3F9  CA        DEX  
 A3FA  CA        DEX  
 A3FB  CA        DEX  
 A3FC  CA        DEX  
 A3FD  B5 04     LDA  $04, X
 A3FF  95 00     STA  $00, X
 A401  B5 05     LDA  $05, X
 A403  95 01     STA  $01, X
 A405  B5 06     LDA  $06, X
 A407  95 02     STA  $02, X
 A409  B5 07     LDA  $07, X
 A40B  95 03     STA  $03, X
 A40D  60        RTS  
 A40E  A9 01     LDA  #$01
 A410  20 41 D7  JSR  $D741
 A413  B5 00     LDA  $00, X
 A415  85 24     STA  $24
 A417  B4 01     LDY  $01, X
 A419  84 25     STY  $25
 A41B  CA        DEX  
 A41C  CA        DEX  
 A41D  B2 24     LDA  ($24)
 A41F  95 00     STA  $00, X
 A421  A0 01     LDY  #$01
 A423  B1 24     LDA  ($24), Y
 A425  95 01     STA  $01, X
 A427  C8        INY  
 A428  B1 24     LDA  ($24), Y
 A42A  95 02     STA  $02, X
 A42C  C8        INY  
 A42D  B1 24     LDA  ($24), Y
 A42F  95 03     STA  $03, X
 A431  60        RTS  
 A432  A9 04     LDA  #$04
 A434  20 41 D7  JSR  $D741
 A437  CA        DEX  
 A438  CA        DEX  
 A439  CA        DEX  
 A43A  CA        DEX  
 A43B  B5 08     LDA  $08, X
 A43D  95 00     STA  $00, X
 A43F  B5 09     LDA  $09, X
 A441  95 01     STA  $01, X
 A443  B5 0A     LDA  $0A, X
 A445  95 02     STA  $02, X
 A447  B5 0B     LDA  $0B, X
 A449  95 03     STA  $03, X
 A44B  60        RTS  
 A44C  CA        DEX  
 A44D  CA        DEX  
 A44E  CA        DEX  
 A44F  CA        DEX  
 A450  8A        TXA  
 A451  BA        TSX  
 A452  DA        PHX  
 A453  7A        PLY  
 A454  AA        TAX  
 A455  B9 03 01  LDA  $0103, Y
 A458  95 00     STA  $00, X
 A45A  B9 04 01  LDA  $0104, Y
 A45D  95 01     STA  $01, X
 A45F  B9 05 01  LDA  $0105, Y
 A462  95 02     STA  $02, X
 A464  B9 06 01  LDA  $0106, Y
 A467  95 03     STA  $03, X
 A469  60        RTS  
 A46A  68        PLA  
 A46B  85 24     STA  $24
 A46D  68        PLA  
 A46E  85 25     STA  $25
 A470  CA        DEX  
 A471  CA        DEX  
 A472  CA        DEX  
 A473  CA        DEX  
 A474  68        PLA  
 A475  95 00     STA  $00, X
 A477  68        PLA  
 A478  95 01     STA  $01, X
 A47A  68        PLA  
 A47B  95 02     STA  $02, X
 A47D  68        PLA  
 A47E  95 03     STA  $03, X
 A480  A5 25     LDA  $25
 A482  48        PHA  
 A483  A5 24     LDA  $24
 A485  48        PHA  
 A486  60        RTS  
 A487  A9 01     LDA  #$01
 A489  20 41 D7  JSR  $D741
 A48C  B5 01     LDA  $01, X
 A48E  0A        ASL  
 A48F  76 01     ROR  $01, X
 A491  76 00     ROR  $00, X
 A493  60        RTS  
 A494  A9 01     LDA  #$01
 A496  20 41 D7  JSR  $D741
 A499  16 00     ASL  $00, X
 A49B  36 01     ROL  $01, X
 A49D  60        RTS  
 A49E  A9 03     LDA  #$03
 A4A0  20 41 D7  JSR  $D741
 A4A3  B5 00     LDA  $00, X
 A4A5  85 24     STA  $24
 A4A7  B4 01     LDY  $01, X
 A4A9  84 25     STY  $25
 A4AB  E8        INX  
 A4AC  E8        INX  
 A4AD  B5 00     LDA  $00, X
 A4AF  92 24     STA  ($24)
 A4B1  B5 01     LDA  $01, X
 A4B3  A0 01     LDY  #$01
 A4B5  91 24     STA  ($24), Y
 A4B7  B5 02     LDA  $02, X
 A4B9  C8        INY  
 A4BA  91 24     STA  ($24), Y
 A4BC  B5 03     LDA  $03, X
 A4BE  C8        INY  
 A4BF  91 24     STA  ($24), Y
 A4C1  E8        INX  
 A4C2  E8        INX  
 A4C3  E8        INX  
 A4C4  E8        INX  
 A4C5  60        RTS  
 A4C6  A9 04     LDA  #$04
 A4C8  20 41 D7  JSR  $D741
 A4CB  B5 00     LDA  $00, X
 A4CD  B4 04     LDY  $04, X
 A4CF  95 04     STA  $04, X
 A4D1  94 00     STY  $00, X
 A4D3  B5 01     LDA  $01, X
 A4D5  B4 05     LDY  $05, X
 A4D7  95 05     STA  $05, X
 A4D9  94 01     STY  $01, X
 A4DB  B5 02     LDA  $02, X
 A4DD  B4 06     LDY  $06, X
 A4DF  95 06     STA  $06, X
 A4E1  94 02     STY  $02, X
 A4E3  B5 03     LDA  $03, X
 A4E5  B4 07     LDY  $07, X
 A4E7  95 07     STA  $07, X
 A4E9  94 03     STY  $03, X
 A4EB  60        RTS  
 A4EC  68        PLA  
 A4ED  85 24     STA  $24
 A4EF  68        PLA  
 A4F0  85 25     STA  $25
 A4F2  A9 02     LDA  #$02
 A4F4  20 41 D7  JSR  $D741
 A4F7  B5 03     LDA  $03, X
 A4F9  48        PHA  
 A4FA  B5 02     LDA  $02, X
 A4FC  48        PHA  
 A4FD  B5 01     LDA  $01, X
 A4FF  48        PHA  
 A500  B5 00     LDA  $00, X
 A502  48        PHA  
 A503  E8        INX  
 A504  E8        INX  
 A505  E8        INX  
 A506  E8        INX  
 A507  A5 25     LDA  $25
 A509  48        PHA  
 A50A  A5 24     LDA  $24
 A50C  48        PHA  
 A50D  60        RTS  
 A50E  A9 02     LDA  #$02
 A510  20 41 D7  JSR  $D741
 A513  20 17 8A  JSR  $8A17
 A516  20 DA A1  JSR  $A1DA
 A519  20 12 88  JSR  $8812
 A51C  20 12 88  JSR  $8812
 A51F  20 8E 8C  JSR  $8C8E
 A522  20 4F D6  JSR  $D64F
 A525  20 45 8E  JSR  $8E45
 A528  20 E3 8F  JSR  $8FE3
 A52B  20 DA A1  JSR  $A1DA
 A52E  20 69 86  JSR  $8669
 A531  20 E3 8F  JSR  $8FE3
 A534  60        RTS  
 A535  A9 02     LDA  #$02
 A537  20 41 D7  JSR  $D741
 A53A  20 DA A1  JSR  $A1DA
 A53D  20 E1 93  JSR  $93E1
 A540  20 E1 93  JSR  $93E1
 A543  60        RTS  
 A544  20 17 8A  JSR  $8A17
 A547  CA        DEX  
 A548  CA        DEX  
 A549  A9 04     LDA  #$04
 A54B  95 00     STA  $00, X
 A54D  74 01     STZ  $01, X
 A54F  20 CD 82  JSR  $82CD
 A552  60        RTS  
 A553  A9 02     LDA  #$02
 A555  20 41 D7  JSR  $D741
 A558  B5 02     LDA  $02, X
 A55A  85 24     STA  $24
 A55C  B5 03     LDA  $03, X
 A55E  85 25     STA  $25
 A560  B5 00     LDA  $00, X
 A562  15 01     ORA  $01, X
 A564  F0 15     BEQ  $A57B
 A566  B2 24     LDA  ($24)
 A568  20 78 8E  JSR  $8E78
 A56B  E6 24     INC  $24
 A56D  D0 02     BNE  $A571
 A56F  E6 25     INC  $25
 A571  B5 00     LDA  $00, X
 A573  D0 02     BNE  $A577
 A575  D6 01     DEC  $01, X
 A577  D6 00     DEC  $00, X
 A579  80 E5     BRA  $A560
 A57B  E8        INX  
 A57C  E8        INX  
 A57D  E8        INX  
 A57E  E8        INX  
 A57F  60        RTS  
 A580  A9 01     LDA  #$01
 A582  20 41 D7  JSR  $D741
 A585  20 88 D7  JSR  $D788
 A588  A9 20     LDA  #$20
 A58A  20 78 8E  JSR  $8E78
 A58D  60        RTS  
 A58E  A9 02     LDA  #$02
 A590  20 41 D7  JSR  $D741
 A593  20 A6 A3  JSR  $A3A6
 A596  20 14 A8  JSR  $A814
 A599  20 AD 93  JSR  $93AD
 A59C  20 D6 97  JSR  $97D6
 A59F  20 B2 97  JSR  $97B2
 A5A2  20 59 9A  JSR  $9A59
 A5A5  20 50 98  JSR  $9850
 A5A8  20 B3 95  JSR  $95B3
 A5AB  20 5D A1  JSR  $A15D
 A5AE  20 53 A5  JSR  $A553
 A5B1  60        RTS  
 A5B2  A9 02     LDA  #$02
 A5B4  20 41 D7  JSR  $D741
 A5B7  B5 00     LDA  $00, X
 A5B9  D5 02     CMP  $02, X
 A5BB  B5 01     LDA  $01, X
 A5BD  F5 03     SBC  $03, X
 A5BF  E8        INX  
 A5C0  E8        INX  
 A5C1  A9 00     LDA  #$00
 A5C3  69 FF     ADC  #$FF
 A5C5  95 00     STA  $00, X
 A5C7  95 01     STA  $01, X
 A5C9  60        RTS  
 A5CA  A9 02     LDA  #$02
 A5CC  20 41 D7  JSR  $D741
 A5CF  B5 02     LDA  $02, X
 A5D1  D5 00     CMP  $00, X
 A5D3  B5 03     LDA  $03, X
 A5D5  F5 01     SBC  $01, X
 A5D7  E8        INX  
 A5D8  E8        INX  
 A5D9  A9 00     LDA  #$00
 A5DB  69 FF     ADC  #$FF
 A5DD  95 00     STA  $00, X
 A5DF  95 01     STA  $01, X
 A5E1  60        RTS  
 A5E2  A9 02     LDA  #$02
 A5E4  20 41 D7  JSR  $D741
 A5E7  20 AD 93  JSR  $93AD
 A5EA  20 D6 97  JSR  $97D6
 A5ED  20 B2 97  JSR  $97B2
 A5F0  20 53 A5  JSR  $A553
 A5F3  20 57 A1  JSR  $A157
 A5F6  60        RTS  
 A5F7  A9 03     LDA  #$03
 A5F9  20 41 D7  JSR  $D741
 A5FC  20 A6 A3  JSR  $A3A6
 A5FF  20 AD 93  JSR  $93AD
 A602  20 D6 97  JSR  $97D6
 A605  20 B2 97  JSR  $97B2
 A608  20 59 9A  JSR  $9A59
 A60B  20 50 98  JSR  $9850
 A60E  20 B3 95  JSR  $95B3
 A611  20 5D A1  JSR  $A15D
 A614  20 53 A5  JSR  $A553
 A617  60        RTS  
 A618  CA        DEX  
 A619  CA        DEX  
 A61A  A9 1C     LDA  #$1C
 A61C  95 00     STA  $00, X
 A61E  A9 00     LDA  #$00
 A620  95 01     STA  $01, X
 A622  60        RTS  
 A623  A9 03     LDA  #$03
 A625  20 41 D7  JSR  $D741
 A628  B5 00     LDA  $00, X
 A62A  15 01     ORA  $01, X
 A62C  D0 05     BNE  $A633
 A62E  A9 04     LDA  #$04
 A630  4C 52 D7  JMP  $D752
 A633  A9 11     LDA  #$11
 A635  85 2C     STA  $2C
 A637  36 04     ROL  $04, X
 A639  36 05     ROL  $05, X
 A63B  C6 2C     DEC  $2C
 A63D  F0 22     BEQ  $A661
 A63F  36 02     ROL  $02, X
 A641  36 03     ROL  $03, X
 A643  64 24     STZ  $24
 A645  26 24     ROL  $24
 A647  38        SEC  
 A648  B5 02     LDA  $02, X
 A64A  F5 00     SBC  $00, X
 A64C  85 25     STA  $25
 A64E  B5 03     LDA  $03, X
 A650  F5 01     SBC  $01, X
 A652  A8        TAY  
 A653  A5 24     LDA  $24
 A655  E9 00     SBC  #$00
 A657  90 DE     BCC  $A637
 A659  A5 25     LDA  $25
 A65B  95 02     STA  $02, X
 A65D  94 03     STY  $03, X
 A65F  80 D6     BRA  $A637
 A661  E8        INX  
 A662  E8        INX  
 A663  20 DA A1  JSR  $A1DA
 A666  60        RTS  
 A667  A9 02     LDA  #$02
 A669  20 41 D7  JSR  $D741
 A66C  18        CLC  
 A66D  B5 00     LDA  $00, X
 A66F  E9 00     SBC  #$00
 A671  85 26     STA  $26
 A673  B5 01     LDA  $01, X
 A675  E9 00     SBC  #$00
 A677  90 31     BCC  $A6AA
 A679  85 27     STA  $27
 A67B  A9 00     LDA  #$00
 A67D  85 24     STA  $24
 A67F  86 28     STX  $28
 A681  CA        DEX  
 A682  CA        DEX  
 A683  A0 08     LDY  #$08
 A685  56 04     LSR  $04, X
 A687  90 0C     BCC  $A695
 A689  85 25     STA  $25
 A68B  A5 24     LDA  $24
 A68D  65 26     ADC  $26
 A68F  85 24     STA  $24
 A691  A5 25     LDA  $25
 A693  65 27     ADC  $27
 A695  6A        ROR  
 A696  66 24     ROR  $24
 A698  76 04     ROR  $04, X
 A69A  88        DEY  
 A69B  D0 EA     BNE  $A687
 A69D  E8        INX  
 A69E  E4 28     CPX  $28
 A6A0  D0 E1     BNE  $A683
 A6A2  95 01     STA  $01, X
 A6A4  A5 24     LDA  $24
 A6A6  95 00     STA  $00, X
 A6A8  80 04     BRA  $A6AE
 A6AA  74 02     STZ  $02, X
 A6AC  74 03     STZ  $03, X
 A6AE  60        RTS  
 A6AF  68        PLA  
 A6B0  68        PLA  
 A6B1  68        PLA  
 A6B2  68        PLA  
 A6B3  68        PLA  
 A6B4  68        PLA  
 A6B5  60        RTS  
 A6B6  20 1B A8  JSR  $A81B
 A6B9  20 12 88  JSR  $8812
 A6BC  60        RTS  
 A6BD  CA        DEX  
 A6BE  CA        DEX  
 A6BF  A9 00     LDA  #$00
 A6C1  38        SEC  
 A6C2  E5 00     SBC  $00
 A6C4  95 00     STA  $00, X
 A6C6  A9 7C     LDA  #$7C
 A6C8  E5 01     SBC  $01
 A6CA  95 01     STA  $01, X
 A6CC  60        RTS  
 A6CD  A0 2C     LDY  #$2C
 A6CF  B1 1E     LDA  ($1E), Y
 A6D1  09 02     ORA  #$02
 A6D3  91 1E     STA  ($1E), Y
 A6D5  60        RTS  
 A6D6  CA        DEX  
 A6D7  CA        DEX  
 A6D8  A9 1E     LDA  #$1E
 A6DA  95 00     STA  $00, X
 A6DC  A9 00     LDA  #$00
 A6DE  95 01     STA  $01, X
 A6E0  60        RTS  
 A6E1  20 17 8A  JSR  $8A17
 A6E4  A9 00     LDA  #$00
 A6E6  92 00     STA  ($00)
 A6E8  E6 00     INC  $00
 A6EA  D0 02     BNE  $A6EE
 A6EC  E6 01     INC  $01
 A6EE  92 00     STA  ($00)
 A6F0  E6 00     INC  $00
 A6F2  D0 02     BNE  $A6F6
 A6F4  E6 01     INC  $01
 A6F6  20 DD 89  JSR  $89DD
 A6F9  60        RTS  
 A6FA  20 1B A8  JSR  $A81B
 A6FD  20 0B 92  JSR  $920B
 A700  20 14 A8  JSR  $A814
 A703  20 12 88  JSR  $8812
 A706  20 DA A1  JSR  $A1DA
 A709  60        RTS  
 A70A  A9 03     LDA  #$03
 A70C  20 41 D7  JSR  $D741
 A70F  20 50 98  JSR  $9850
 A712  20 B3 95  JSR  $95B3
 A715  20 A6 A3  JSR  $A3A6
 A718  20 B3 95  JSR  $95B3
 A71B  20 59 9A  JSR  $9A59
 A71E  20 CA A5  JSR  $A5CA
 A721  60        RTS  
 A722  A9 01     LDA  #$01
 A724  20 41 D7  JSR  $D741
 A727  A4 0C     LDY  $0C
 A729  C4 0A     CPY  $0A
 A72B  F0 09     BEQ  $A736
 A72D  B1 08     LDA  ($08), Y
 A72F  D5 00     CMP  $00, X
 A731  D0 03     BNE  $A736
 A733  C8        INY  
 A734  80 F3     BRA  $A729
 A736  84 0C     STY  $0C
 A738  20 F9 98  JSR  $98F9
 A73B  B5 00     LDA  $00, X
 A73D  92 00     STA  ($00)
 A73F  48        PHA  
 A740  20 45 8E  JSR  $8E45
 A743  A5 00     LDA  $00
 A745  18        CLC  
 A746  69 01     ADC  #$01
 A748  95 02     STA  $02, X
 A74A  A5 01     LDA  $01
 A74C  69 00     ADC  #$00
 A74E  95 03     STA  $03, X
 A750  20 12 96  JSR  $9612
 A753  CA        DEX  
 A754  CA        DEX  
 A755  A5 00     LDA  $00
 A757  95 00     STA  $00, X
 A759  A5 01     LDA  $01
 A75B  95 01     STA  $01, X
 A75D  68        PLA  
 A75E  18        CLC  
 A75F  65 00     ADC  $00
 A761  85 00     STA  $00
 A763  A5 01     LDA  $01
 A765  69 00     ADC  #$00
 A767  85 01     STA  $01
 A769  60        RTS  
 A76A  A0 05     LDY  #$05
 A76C  B1 1E     LDA  ($1E), Y
 A76E  C9 0C     CMP  #$0C
 A770  D0 05     BNE  $A777
 A772  A9 0B     LDA  #$0B
 A774  4C 52 D7  JMP  $D752
 A777  1A        INC  
 A778  91 1E     STA  ($1E), Y
 A77A  CA        DEX  
 A77B  CA        DEX  
 A77C  95 00     STA  $00, X
 A77E  74 01     STZ  $01, X
 A780  60        RTS  
 A781  20 11 8A  JSR  $8A11
 A784  A9 00     LDA  #$00
 A786  48        PHA  
 A787  CA        DEX  
 A788  CA        DEX  
 A789  64 28     STZ  $28
 A78B  A0 1E     LDY  #$1E
 A78D  A5 28     LDA  $28
 A78F  D1 1E     CMP  ($1E), Y
 A791  D0 02     BNE  $A795
 A793  80 44     BRA  $A7D9
 A795  18        CLC  
 A796  69 1F     ADC  #$1F
 A798  A8        TAY  
 A799  B1 1E     LDA  ($1E), Y
 A79B  0A        ASL  
 A79C  18        CLC  
 A79D  69 06     ADC  #$06
 A79F  A8        TAY  
 A7A0  B1 1E     LDA  ($1E), Y
 A7A2  95 00     STA  $00, X
 A7A4  C8        INY  
 A7A5  B1 1E     LDA  ($1E), Y
 A7A7  95 01     STA  $01, X
 A7A9  20 45 8E  JSR  $8E45
 A7AC  20 50 96  JSR  $9650
 A7AF  68        PLA  
 A7B0  18        CLC  
 A7B1  75 00     ADC  $00, X
 A7B3  1A        INC  
 A7B4  C9 4F     CMP  #$4F
 A7B6  90 05     BCC  $A7BD
 A7B8  20 11 8A  JSR  $8A11
 A7BB  A9 00     LDA  #$00
 A7BD  48        PHA  
 A7BE  20 53 A5  JSR  $A553
 A7C1  A9 20     LDA  #$20
 A7C3  20 78 8E  JSR  $8E78
 A7C6  20 19 98  JSR  $9819
 A7C9  20 19 98  JSR  $9819
 A7CC  20 E3 8F  JSR  $8FE3
 A7CF  B5 00     LDA  $00, X
 A7D1  15 01     ORA  $01, X
 A7D3  D0 D4     BNE  $A7A9
 A7D5  E6 28     INC  $28
 A7D7  80 B2     BRA  $A78B
 A7D9  68        PLA  
 A7DA  E8        INX  
 A7DB  E8        INX  
 A7DC  60        RTS  
 A7DD  A9 01     LDA  #$01
 A7DF  20 41 D7  JSR  $D741
 A7E2  B5 00     LDA  $00, X
 A7E4  85 24     STA  $24
 A7E6  B5 01     LDA  $01, X
 A7E8  85 25     STA  $25
 A7EA  A0 06     LDY  #$06
 A7EC  B1 24     LDA  ($24), Y
 A7EE  88        DEY  
 A7EF  88        DEY  
 A7F0  38        SEC  
 A7F1  F1 24     SBC  ($24), Y
 A7F3  95 00     STA  $00, X
 A7F5  A0 07     LDY  #$07
 A7F7  B1 24     LDA  ($24), Y
 A7F9  88        DEY  
 A7FA  88        DEY  
 A7FB  F1 24     SBC  ($24), Y
 A7FD  95 01     STA  $01, X
 A7FF  60        RTS  
 A800  A9 02     LDA  #$02
 A802  20 41 D7  JSR  $D741
 A805  B5 00     LDA  $00, X
 A807  55 02     EOR  $02, X
 A809  95 02     STA  $02, X
 A80B  B5 01     LDA  $01, X
 A80D  55 03     EOR  $03, X
 A80F  95 03     STA  $03, X
 A811  E8        INX  
 A812  E8        INX  
 A813  60        RTS  
 A814  CA        DEX  
 A815  CA        DEX  
 A816  74 00     STZ  $00, X
 A818  74 01     STZ  $01, X
 A81A  60        RTS  
 A81B  A0 A8     LDY  #$A8
 A81D  A9 23     LDA  #$23
 A81F  20 09 D6  JSR  $D609
 A822  60        RTS  
 A823  68        PLA  
 A824  85 22     STA  $22
 A826  68        PLA  
 A827  85 23     STA  $23
 A829  B5 00     LDA  $00, X
 A82B  15 01     ORA  $01, X
 A82D  F0 0F     BEQ  $A83E
 A82F  A5 22     LDA  $22
 A831  18        CLC  
 A832  69 02     ADC  #$02
 A834  85 24     STA  $24
 A836  A5 23     LDA  $23
 A838  69 00     ADC  #$00
 A83A  85 25     STA  $25
 A83C  80 13     BRA  $A851
 A83E  A0 01     LDY  #$01
 A840  B1 22     LDA  ($22), Y
 A842  85 24     STA  $24
 A844  C8        INY  
 A845  B1 22     LDA  ($22), Y
 A847  85 25     STA  $25
 A849  A5 24     LDA  $24
 A84B  D0 02     BNE  $A84F
 A84D  C6 25     DEC  $25
 A84F  C6 24     DEC  $24
 A851  A5 25     LDA  $25
 A853  48        PHA  
 A854  A5 24     LDA  $24
 A856  48        PHA  
 A857  E8        INX  
 A858  E8        INX  
 A859  60        RTS  
 A85A  A9 01     LDA  #$01
 A85C  20 41 D7  JSR  $D741
 A85F  B5 00     LDA  $00, X
 A861  15 01     ORA  $01, X
 A863  F0 04     BEQ  $A869
 A865  A9 00     LDA  #$00
 A867  80 02     BRA  $A86B
 A869  A9 FF     LDA  #$FF
 A86B  95 00     STA  $00, X
 A86D  95 01     STA  $01, X
 A86F  60        RTS  
 A870  A9 01     LDA  #$01
 A872  20 41 D7  JSR  $D741
 A875  A0 00     LDY  #$00
 A877  B5 01     LDA  $01, X
 A879  30 05     BMI  $A880
 A87B  15 00     ORA  $00, X
 A87D  F0 01     BEQ  $A880
 A87F  88        DEY  
 A880  98        TYA  
 A881  95 00     STA  $00, X
 A883  95 01     STA  $01, X
 A885  60        RTS  
 A886  A9 01     LDA  #$01
 A888  20 41 D7  JSR  $D741
 A88B  A0 00     LDY  #$00
 A88D  B5 01     LDA  $01, X
 A88F  10 01     BPL  $A892
 A891  88        DEY  
 A892  98        TYA  
 A893  95 00     STA  $00, X
 A895  95 01     STA  $01, X
 A897  60        RTS  
 A898  A9 01     LDA  #$01
 A89A  20 41 D7  JSR  $D741
 A89D  A0 00     LDY  #$00
 A89F  B5 00     LDA  $00, X
 A8A1  15 01     ORA  $01, X
 A8A3  F0 01     BEQ  $A8A6
 A8A5  88        DEY  
 A8A6  98        TYA  
 A8A7  95 00     STA  $00, X
 A8A9  95 01     STA  $01, X
 A8AB  60        RTS  
 A8AC  20 45 8E  JSR  $8E45
 A8AF  20 E0 9E  JSR  $9EE0
 A8B2  20 C2 A1  JSR  $A1C2
 A8B5  20 F8 85  JSR  $85F8
 A8B8  60        RTS  
 A8B9  20 AC A8  JSR  $A8AC
 A8BC  20 C0 8D  JSR  $8DC0
 A8BF  64 2E     STZ  $2E
 A8C1  CA        DEX  
 A8C2  CA        DEX  
 A8C3  A5 2E     LDA  $2E
 A8C5  95 00     STA  $00, X
 A8C7  74 01     STZ  $01, X
 A8C9  20 90 A9  JSR  $A990
 A8CC  E6 2E     INC  $2E
 A8CE  A9 10     LDA  #$10
 A8D0  C5 2E     CMP  $2E
 A8D2  D0 ED     BNE  $A8C1
 A8D4  60        RTS  
 A8D5  20 AC A8  JSR  $A8AC
 A8D8  CA        DEX  
 A8D9  CA        DEX  
 A8DA  74 00     STZ  $00, X
 A8DC  A9 04     LDA  #$04
 A8DE  95 01     STA  $01, X
 A8E0  20 70 8F  JSR  $8F70
 A8E3  20 CD A6  JSR  $A6CD
 A8E6  60        RTS  
 A8E7  20 75 A9  JSR  $A975
 A8EA  CA        DEX  
 A8EB  CA        DEX  
 A8EC  A9 40     LDA  #$40
 A8EE  95 00     STA  $00, X
 A8F0  74 01     STZ  $01, X
 A8F2  20 70 8F  JSR  $8F70
 A8F5  20 CD A6  JSR  $A6CD
 A8F8  60        RTS  
 A8F9  CA        DEX  
 A8FA  CA        DEX  
 A8FB  A0 02     LDY  #$02
 A8FD  B1 1E     LDA  ($1E), Y
 A8FF  95 00     STA  $00, X
 A901  C8        INY  
 A902  B1 1E     LDA  ($1E), Y
 A904  95 01     STA  $01, X
 A906  20 E4 83  JSR  $83E4
 A909  20 11 8A  JSR  $8A11
 A90C  80 08     BRA  $A916
 A90E  53 63 72 65 65 6E 20 23                          |Screen #        |
 A916  20 E0 A0  JSR  $A0E0
 A919  0E A9 08 00                                      |....            |
 A91D  20 53 A5  JSR  $A553
 A920  20 E0 9E  JSR  $9EE0
 A923  20 E3 8F  JSR  $8FE3
 A926  CA        DEX  
 A927  CA        DEX  
 A928  A9 04     LDA  #$04
 A92A  95 00     STA  $00, X
 A92C  74 01     STZ  $01, X
 A92E  20 8E A5  JSR  $A58E
 A931  64 28     STZ  $28
 A933  20 11 8A  JSR  $8A11
 A936  CA        DEX  
 A937  CA        DEX  
 A938  CA        DEX  
 A939  CA        DEX  
 A93A  74 03     STZ  $03, X
 A93C  A5 28     LDA  $28
 A93E  95 02     STA  $02, X
 A940  74 01     STZ  $01, X
 A942  A9 02     LDA  #$02
 A944  95 00     STA  $00, X
 A946  20 8E A5  JSR  $A58E
 A949  20 57 A1  JSR  $A157
 A94C  20 45 8E  JSR  $8E45
 A94F  CA        DEX  
 A950  CA        DEX  
 A951  A9 40     LDA  #$40
 A953  95 00     STA  $00, X
 A955  74 01     STZ  $01, X
 A957  20 53 A5  JSR  $A553
 A95A  18        CLC  
 A95B  A9 40     LDA  #$40
 A95D  75 00     ADC  $00, X
 A95F  95 00     STA  $00, X
 A961  B5 01     LDA  $01, X
 A963  69 00     ADC  #$00
 A965  95 01     STA  $01, X
 A967  E6 28     INC  $28
 A969  A5 28     LDA  $28
 A96B  C9 10     CMP  #$10
 A96D  D0 C4     BNE  $A933
 A96F  20 11 8A  JSR  $8A11
 A972  E8        INX  
 A973  E8        INX  
 A974  60        RTS  
 A975  A9 01     LDA  #$01
 A977  20 41 D7  JSR  $D741
 A97A  A0 06     LDY  #$06
 A97C  16 00     ASL  $00, X
 A97E  36 01     ROL  $01, X
 A980  88        DEY  
 A981  D0 F9     BNE  $A97C
 A983  20 E0 9E  JSR  $9EE0
 A986  20 E3 8F  JSR  $8FE3
 A989  20 E4 83  JSR  $83E4
 A98C  20 A4 99  JSR  $99A4
 A98F  60        RTS  
 A990  20 45 8E  JSR  $8E45
 A993  20 E7 A8  JSR  $A8E7
 A996  20 11 8A  JSR  $8A11
 A999  20 45 8E  JSR  $8E45
 A99C  20 E1 A3  JSR  $A3E1
 A99F  20 8E A5  JSR  $A58E
 A9A2  20 57 A1  JSR  $A157
 A9A5  A9 2A     LDA  #$2A
 A9A7  20 78 8E  JSR  $8E78
 A9AA  20 57 A1  JSR  $A157
 A9AD  20 75 A9  JSR  $A975
 A9B0  CA        DEX  
 A9B1  CA        DEX  
 A9B2  A9 40     LDA  #$40
 A9B4  95 00     STA  $00, X
 A9B6  74 01     STZ  $01, X
 A9B8  20 50 81  JSR  $8150
 A9BB  E8        INX  
 A9BC  E8        INX  
 A9BD  20 CD A6  JSR  $A6CD
 A9C0  60        RTS  
 A9C1  A9 69     LDA  #$69
 A9C3  4C 1C AD  JMP  $AD1C
 A9C6  A9 7D     LDA  #$7D
 A9C8  4C 1C AD  JMP  $AD1C
 A9CB  A9 79     LDA  #$79
 A9CD  4C 1C AD  JMP  $AD1C
 A9D0  A9 65     LDA  #$65
 A9D2  4C 1C AD  JMP  $AD1C
 A9D5  A9 72     LDA  #$72
 A9D7  4C 1C AD  JMP  $AD1C
 A9DA  A9 71     LDA  #$71
 A9DC  4C 1C AD  JMP  $AD1C
 A9DF  A9 75     LDA  #$75
 A9E1  4C 1C AD  JMP  $AD1C
 A9E4  A9 61     LDA  #$61
 A9E6  4C 1C AD  JMP  $AD1C
 A9E9  A9 2D     LDA  #$2D
 A9EB  4C 1C AD  JMP  $AD1C
 A9EE  A9 29     LDA  #$29
 A9F0  4C 1C AD  JMP  $AD1C
 A9F3  A9 3D     LDA  #$3D
 A9F5  4C 1C AD  JMP  $AD1C
 A9F8  A9 39     LDA  #$39
 A9FA  4C 1C AD  JMP  $AD1C
 A9FD  A9 25     LDA  #$25
 A9FF  4C 1C AD  JMP  $AD1C
 AA02  A9 32     LDA  #$32
 AA04  4C 1C AD  JMP  $AD1C
 AA07  A9 31     LDA  #$31
 AA09  4C 1C AD  JMP  $AD1C
 AA0C  A9 35     LDA  #$35
 AA0E  4C 1C AD  JMP  $AD1C
 AA11  A9 21     LDA  #$21
 AA13  4C 1C AD  JMP  $AD1C
 AA16  A9 0E     LDA  #$0E
 AA18  4C 1C AD  JMP  $AD1C
 AA1B  A9 0A     LDA  #$0A
 AA1D  4C 1C AD  JMP  $AD1C
 AA20  A9 1E     LDA  #$1E
 AA22  4C 1C AD  JMP  $AD1C
 AA25  A9 06     LDA  #$06
 AA27  4C 1C AD  JMP  $AD1C
 AA2A  A9 16     LDA  #$16
 AA2C  4C 1C AD  JMP  $AD1C
 AA2F  A9 90     LDA  #$90
 AA31  4C 1C AD  JMP  $AD1C
 AA34  A9 B0     LDA  #$B0
 AA36  A0 02     LDY  #$02
 AA38  4C 1C AD  JMP  $AD1C
 AA3B  A9 F0     LDA  #$F0
 AA3D  4C 1C AD  JMP  $AD1C
 AA40  A9 2C     LDA  #$2C
 AA42  4C 1C AD  JMP  $AD1C
 AA45  A9 89     LDA  #$89
 AA47  4C 1C AD  JMP  $AD1C
 AA4A  A9 3C     LDA  #$3C
 AA4C  4C 1C AD  JMP  $AD1C
 AA4F  A9 24     LDA  #$24
 AA51  4C 1C AD  JMP  $AD1C
 AA54  A9 34     LDA  #$34
 AA56  4C 1C AD  JMP  $AD1C
 AA59  A9 30     LDA  #$30
 AA5B  4C 1C AD  JMP  $AD1C
 AA5E  A9 D0     LDA  #$D0
 AA60  4C 1C AD  JMP  $AD1C
 AA63  A9 10     LDA  #$10
 AA65  4C 1C AD  JMP  $AD1C
 AA68  A9 80     LDA  #$80
 AA6A  4C 1C AD  JMP  $AD1C
 AA6D  A9 00     LDA  #$00
 AA6F  4C 1C AD  JMP  $AD1C
 AA72  A9 50     LDA  #$50
 AA74  4C 1C AD  JMP  $AD1C
 AA77  A9 70     LDA  #$70
 AA79  4C 1C AD  JMP  $AD1C
 AA7C  A9 18     LDA  #$18
 AA7E  4C 1C AD  JMP  $AD1C
 AA81  A9 D8     LDA  #$D8
 AA83  4C 1C AD  JMP  $AD1C
 AA86  A9 58     LDA  #$58
 AA88  4C 1C AD  JMP  $AD1C
 AA8B  A9 B8     LDA  #$B8
 AA8D  4C 1C AD  JMP  $AD1C
 AA90  A9 CD     LDA  #$CD
 AA92  4C 1C AD  JMP  $AD1C
 AA95  A9 C9     LDA  #$C9
 AA97  4C 1C AD  JMP  $AD1C
 AA9A  A9 DD     LDA  #$DD
 AA9C  4C 1C AD  JMP  $AD1C
 AA9F  A9 D9     LDA  #$D9
 AAA1  4C 1C AD  JMP  $AD1C
 AAA4  A9 C5     LDA  #$C5
 AAA6  4C 1C AD  JMP  $AD1C
 AAA9  A9 D2     LDA  #$D2
 AAAB  4C 1C AD  JMP  $AD1C
 AAAE  A9 D1     LDA  #$D1
 AAB0  4C 1C AD  JMP  $AD1C
 AAB3  A9 D5     LDA  #$D5
 AAB5  4C 1C AD  JMP  $AD1C
 AAB8  A9 C1     LDA  #$C1
 AABA  4C 1C AD  JMP  $AD1C
 AABD  A9 EC     LDA  #$EC
 AABF  4C 1C AD  JMP  $AD1C
 AAC2  A9 E0     LDA  #$E0
 AAC4  4C 1C AD  JMP  $AD1C
 AAC7  A9 E4     LDA  #$E4
 AAC9  4C 1C AD  JMP  $AD1C
 AACC  A9 CC     LDA  #$CC
 AACE  A0 03     LDY  #$03
 AAD0  4C 1C AD  JMP  $AD1C
 AAD3  A9 C0     LDA  #$C0
 AAD5  4C 1C AD  JMP  $AD1C
 AAD8  A9 C4     LDA  #$C4
 AADA  4C 1C AD  JMP  $AD1C
 AADD  A9 CE     LDA  #$CE
 AADF  4C 1C AD  JMP  $AD1C
 AAE2  A9 3A     LDA  #$3A
 AAE4  4C 1C AD  JMP  $AD1C
 AAE7  A9 DE     LDA  #$DE
 AAE9  4C 1C AD  JMP  $AD1C
 AAEC  A9 C6     LDA  #$C6
 AAEE  4C 1C AD  JMP  $AD1C
 AAF1  A9 D6     LDA  #$D6
 AAF3  4C 1C AD  JMP  $AD1C
 AAF6  A9 CA     LDA  #$CA
 AAF8  4C 1C AD  JMP  $AD1C
 AAFB  A9 88     LDA  #$88
 AAFD  4C 1C AD  JMP  $AD1C
 AB00  A9 4D     LDA  #$4D
 AB02  4C 1C AD  JMP  $AD1C
 AB05  A9 49     LDA  #$49
 AB07  4C 1C AD  JMP  $AD1C
 AB0A  A9 5D     LDA  #$5D
 AB0C  4C 1C AD  JMP  $AD1C
 AB0F  A9 59     LDA  #$59
 AB11  4C 1C AD  JMP  $AD1C
 AB14  A9 45     LDA  #$45
 AB16  4C 1C AD  JMP  $AD1C
 AB19  A9 52     LDA  #$52
 AB1B  4C 1C AD  JMP  $AD1C
 AB1E  A9 51     LDA  #$51
 AB20  4C 1C AD  JMP  $AD1C
 AB23  A9 55     LDA  #$55
 AB25  4C 1C AD  JMP  $AD1C
 AB28  A9 41     LDA  #$41
 AB2A  4C 1C AD  JMP  $AD1C
 AB2D  A9 EE     LDA  #$EE
 AB2F  4C 1C AD  JMP  $AD1C
 AB32  A9 1A     LDA  #$1A
 AB34  4C 1C AD  JMP  $AD1C
 AB37  A9 FE     LDA  #$FE
 AB39  4C 1C AD  JMP  $AD1C
 AB3C  A9 E6     LDA  #$E6
 AB3E  4C 1C AD  JMP  $AD1C
 AB41  A9 F6     LDA  #$F6
 AB43  4C 1C AD  JMP  $AD1C
 AB46  A9 E8     LDA  #$E8
 AB48  4C 1C AD  JMP  $AD1C
 AB4B  A9 C8     LDA  #$C8
 AB4D  4C 1C AD  JMP  $AD1C
 AB50  A9 4C     LDA  #$4C
 AB52  4C 1C AD  JMP  $AD1C
 AB55  A9 6C     LDA  #$6C
 AB57  4C 1C AD  JMP  $AD1C
 AB5A  A9 7C     LDA  #$7C
 AB5C  4C 1C AD  JMP  $AD1C
 AB5F  A9 20     LDA  #$20
 AB61  4C 1C AD  JMP  $AD1C
 AB64  A9 AD     LDA  #$AD
 AB66  4C 1C AD  JMP  $AD1C
 AB69  A9 A9     LDA  #$A9
 AB6B  4C 1C AD  JMP  $AD1C
 AB6E  A9 BD     LDA  #$BD
 AB70  4C 1C AD  JMP  $AD1C
 AB73  A9 B9     LDA  #$B9
 AB75  4C 1C AD  JMP  $AD1C
 AB78  A9 A5     LDA  #$A5
 AB7A  4C 1C AD  JMP  $AD1C
 AB7D  A9 B2     LDA  #$B2
 AB7F  4C 1C AD  JMP  $AD1C
 AB82  A9 B1     LDA  #$B1
 AB84  4C 1C AD  JMP  $AD1C
 AB87  A9 B5     LDA  #$B5
 AB89  4C 1C AD  JMP  $AD1C
 AB8C  A9 A1     LDA  #$A1
 AB8E  4C 1C AD  JMP  $AD1C
 AB91  A9 AE     LDA  #$AE
 AB93  4C 1C AD  JMP  $AD1C
 AB96  A9 A2     LDA  #$A2
 AB98  4C 1C AD  JMP  $AD1C
 AB9B  A9 BE     LDA  #$BE
 AB9D  4C 1C AD  JMP  $AD1C
 ABA0  A9 A6     LDA  #$A6
 ABA2  4C 1C AD  JMP  $AD1C
 ABA5  A9 B6     LDA  #$B6
 ABA7  4C 1C AD  JMP  $AD1C
 ABAA  A9 AC     LDA  #$AC
 ABAC  4C 1C AD  JMP  $AD1C
 ABAF  A9 A0     LDA  #$A0
 ABB1  4C 1C AD  JMP  $AD1C
 ABB4  A9 BC     LDA  #$BC
 ABB6  4C 1C AD  JMP  $AD1C
 ABB9  A9 A4     LDA  #$A4
 ABBB  4C 1C AD  JMP  $AD1C
 ABBE  A9 B4     LDA  #$B4
 ABC0  4C 1C AD  JMP  $AD1C
 ABC3  A9 4E     LDA  #$4E
 ABC5  4C 1C AD  JMP  $AD1C
 ABC8  A9 4A     LDA  #$4A
 ABCA  4C 1C AD  JMP  $AD1C
 ABCD  A9 5E     LDA  #$5E
 ABCF  4C 1C AD  JMP  $AD1C
 ABD2  A9 46     LDA  #$46
 ABD4  4C 1C AD  JMP  $AD1C
 ABD7  A9 56     LDA  #$56
 ABD9  4C 1C AD  JMP  $AD1C
 ABDC  A9 EA     LDA  #$EA
 ABDE  4C 1C AD  JMP  $AD1C
 ABE1  A9 0D     LDA  #$0D
 ABE3  4C 1C AD  JMP  $AD1C
 ABE6  A9 09     LDA  #$09
 ABE8  4C 1C AD  JMP  $AD1C
 ABEB  A9 1D     LDA  #$1D
 ABED  4C 1C AD  JMP  $AD1C
 ABF0  A9 19     LDA  #$19
 ABF2  4C 1C AD  JMP  $AD1C
 ABF5  A9 05     LDA  #$05
 ABF7  4C 1C AD  JMP  $AD1C
 ABFA  A9 12     LDA  #$12
 ABFC  A0 02     LDY  #$02
 ABFE  4C 1C AD  JMP  $AD1C
 AC01  A9 11     LDA  #$11
 AC03  4C 1C AD  JMP  $AD1C
 AC06  A9 15     LDA  #$15
 AC08  4C 1C AD  JMP  $AD1C
 AC0B  A9 01     LDA  #$01
 AC0D  4C 1C AD  JMP  $AD1C
 AC10  A9 48     LDA  #$48
 AC12  4C 1C AD  JMP  $AD1C
 AC15  A9 08     LDA  #$08
 AC17  4C 1C AD  JMP  $AD1C
 AC1A  A9 DA     LDA  #$DA
 AC1C  4C 1C AD  JMP  $AD1C
 AC1F  A9 5A     LDA  #$5A
 AC21  4C 1C AD  JMP  $AD1C
 AC24  A9 68     LDA  #$68
 AC26  4C 1C AD  JMP  $AD1C
 AC29  A9 28     LDA  #$28
 AC2B  4C 1C AD  JMP  $AD1C
 AC2E  A9 FA     LDA  #$FA
 AC30  4C 1C AD  JMP  $AD1C
 AC33  A9 7A     LDA  #$7A
 AC35  4C 1C AD  JMP  $AD1C
 AC38  A9 2E     LDA  #$2E
 AC3A  4C 1C AD  JMP  $AD1C
 AC3D  A9 2A     LDA  #$2A
 AC3F  4C 1C AD  JMP  $AD1C
 AC42  A9 3E     LDA  #$3E
 AC44  4C 1C AD  JMP  $AD1C
 AC47  A9 26     LDA  #$26
 AC49  4C 1C AD  JMP  $AD1C
 AC4C  A9 36     LDA  #$36
 AC4E  4C 1C AD  JMP  $AD1C
 AC51  A9 6E     LDA  #$6E
 AC53  4C 1C AD  JMP  $AD1C
 AC56  A9 6A     LDA  #$6A
 AC58  4C 1C AD  JMP  $AD1C
 AC5B  A9 7E     LDA  #$7E
 AC5D  4C 1C AD  JMP  $AD1C
 AC60  A9 66     LDA  #$66
 AC62  4C 1C AD  JMP  $AD1C
 AC65  A9 76     LDA  #$76
 AC67  4C 1C AD  JMP  $AD1C
 AC6A  A9 40     LDA  #$40
 AC6C  4C 1C AD  JMP  $AD1C
 AC6F  A9 60     LDA  #$60
 AC71  4C 1C AD  JMP  $AD1C
 AC74  A9 ED     LDA  #$ED
 AC76  4C 1C AD  JMP  $AD1C
 AC79  A9 E9     LDA  #$E9
 AC7B  4C 1C AD  JMP  $AD1C
 AC7E  A9 FD     LDA  #$FD
 AC80  4C 1C AD  JMP  $AD1C
 AC83  A9 F9     LDA  #$F9
 AC85  4C 1C AD  JMP  $AD1C
 AC88  A9 E5     LDA  #$E5
 AC8A  4C 1C AD  JMP  $AD1C
 AC8D  A9 F2     LDA  #$F2
 AC8F  4C 1C AD  JMP  $AD1C
 AC92  A9 F1     LDA  #$F1
 AC94  4C 1C AD  JMP  $AD1C
 AC97  A9 F5     LDA  #$F5
 AC99  4C 1C AD  JMP  $AD1C
 AC9C  A9 E1     LDA  #$E1
 AC9E  80 7C     BRA  $AD1C
 ACA0  A9 38     LDA  #$38
 ACA2  80 78     BRA  $AD1C
 ACA4  A9 F8     LDA  #$F8
 ACA6  80 74     BRA  $AD1C
 ACA8  A9 78     LDA  #$78
 ACAA  80 70     BRA  $AD1C
 ACAC  A9 8D     LDA  #$8D
 ACAE  80 6C     BRA  $AD1C
 ACB0  A9 9D     LDA  #$9D
 ACB2  80 68     BRA  $AD1C
 ACB4  A9 99     LDA  #$99
 ACB6  80 64     BRA  $AD1C
 ACB8  A9 85     LDA  #$85
 ACBA  80 60     BRA  $AD1C
 ACBC  A9 92     LDA  #$92
 ACBE  80 5C     BRA  $AD1C
 ACC0  A9 91     LDA  #$91
 ACC2  80 58     BRA  $AD1C
 ACC4  A9 95     LDA  #$95
 ACC6  80 54     BRA  $AD1C
 ACC8  A9 81     LDA  #$81
 ACCA  80 50     BRA  $AD1C
 ACCC  A9 8E     LDA  #$8E
 ACCE  80 4C     BRA  $AD1C
 ACD0  A9 86     LDA  #$86
 ACD2  80 48     BRA  $AD1C
 ACD4  A9 96     LDA  #$96
 ACD6  80 44     BRA  $AD1C
 ACD8  A9 8C     LDA  #$8C
 ACDA  80 40     BRA  $AD1C
 ACDC  A9 84     LDA  #$84
 ACDE  80 3C     BRA  $AD1C
 ACE0  A9 94     LDA  #$94
 ACE2  80 38     BRA  $AD1C
 ACE4  A9 9C     LDA  #$9C
 ACE6  80 34     BRA  $AD1C
 ACE8  A9 9E     LDA  #$9E
 ACEA  80 30     BRA  $AD1C
 ACEC  A9 64     LDA  #$64
 ACEE  80 2C     BRA  $AD1C
 ACF0  A9 74     LDA  #$74
 ACF2  80 28     BRA  $AD1C
 ACF4  A9 AA     LDA  #$AA
 ACF6  80 24     BRA  $AD1C
 ACF8  A9 A8     LDA  #$A8
 ACFA  80 20     BRA  $AD1C
 ACFC  A9 1C     LDA  #$1C
 ACFE  80 1C     BRA  $AD1C
 AD00  A9 14     LDA  #$14
 AD02  80 18     BRA  $AD1C
 AD04  A9 0C     LDA  #$0C
 AD06  80 14     BRA  $AD1C
 AD08  A9 04     LDA  #$04
 AD0A  80 10     BRA  $AD1C
 AD0C  A9 BA     LDA  #$BA
 AD0E  80 0C     BRA  $AD1C
 AD10  A9 8A     LDA  #$8A
 AD12  80 08     BRA  $AD1C
 AD14  A9 9A     LDA  #$9A
 AD16  80 04     BRA  $AD1C
 AD18  A9 98     LDA  #$98
 AD1A  80 00     BRA  $AD1C
 AD1C  A8        TAY  
 AD1D  20 19 D6  JSR  $D619
 AD20  A9 15     LDA  #$15
 AD22  85 26     STA  $26
 AD24  A9 AE     LDA  #$AE
 AD26  85 27     STA  $27
 AD28  98        TYA  
 AD29  0A        ASL  
 AD2A  90 02     BCC  $AD2E
 AD2C  E6 27     INC  $27
 AD2E  A8        TAY  
 AD2F  B1 26     LDA  ($26), Y
 AD31  85 28     STA  $28
 AD33  C8        INY  
 AD34  B1 26     LDA  ($26), Y
 AD36  85 29     STA  $29
 AD38  B2 28     LDA  ($28)
 AD3A  2A        ROL  
 AD3B  2A        ROL  
 AD3C  2A        ROL  
 AD3D  29 03     AND  #$03
 AD3F  A8        TAY  
 AD40  C0 01     CPY  #$01
 AD42  F0 15     BEQ  $AD59
 AD44  A9 01     LDA  #$01
 AD46  20 41 D7  JSR  $D741
 AD49  B5 00     LDA  $00, X
 AD4B  20 19 D6  JSR  $D619
 AD4E  C0 02     CPY  #$02
 AD50  F0 05     BEQ  $AD57
 AD52  B5 01     LDA  $01, X
 AD54  20 19 D6  JSR  $D619
 AD57  E8        INX  
 AD58  E8        INX  
 AD59  60        RTS  
 AD5A  A0 00     LDY  #$00
 AD5C  B9 6A AD  LDA  $AD6A, Y
 AD5F  C9 FF     CMP  #$FF
 AD61  F0 06     BEQ  $AD69
 AD63  20 19 D6  JSR  $D619
 AD66  C8        INY  
 AD67  80 F3     BRA  $AD5C
 AD69  60        RTS  
 AD6A  CA CA 95 00 74 01 FF                             |....t..         |
 AD71  20 11 8A  JSR  $8A11
 AD74  20 50 98  JSR  $9850
 AD77  20 80 A5  JSR  $A580
 AD7A  20 57 A1  JSR  $A157
 AD7D  A9 15     LDA  #$15
 AD7F  85 26     STA  $26
 AD81  A9 AE     LDA  #$AE
 AD83  85 27     STA  $27
 AD85  A1 02     LDA  ($02, X)
 AD87  0A        ASL  
 AD88  90 02     BCC  $AD8C
 AD8A  E6 27     INC  $27
 AD8C  A8        TAY  
 AD8D  B1 26     LDA  ($26), Y
 AD8F  85 28     STA  $28
 AD91  48        PHA  
 AD92  C8        INY  
 AD93  B1 26     LDA  ($26), Y
 AD95  85 29     STA  $29
 AD97  48        PHA  
 AD98  B2 28     LDA  ($28)
 AD9A  A8        TAY  
 AD9B  10 38     BPL  $ADD5
 AD9D  20 14 A8  JSR  $A814
 ADA0  F6 04     INC  $04, X
 ADA2  D0 02     BNE  $ADA6
 ADA4  F6 05     INC  $05, X
 ADA6  B5 02     LDA  $02, X
 ADA8  D0 02     BNE  $ADAC
 ADAA  D6 03     DEC  $03, X
 ADAC  D6 02     DEC  $02, X
 ADAE  A1 04     LDA  ($04, X)
 ADB0  95 00     STA  $00, X
 ADB2  98        TYA  
 ADB3  2A        ROL  
 ADB4  10 12     BPL  $ADC8
 ADB6  F6 04     INC  $04, X
 ADB8  D0 02     BNE  $ADBC
 ADBA  F6 05     INC  $05, X
 ADBC  B5 02     LDA  $02, X
 ADBE  D0 02     BNE  $ADC2
 ADC0  D6 03     DEC  $03, X
 ADC2  D6 02     DEC  $02, X
 ADC4  A1 04     LDA  ($04, X)
 ADC6  95 01     STA  $01, X
 ADC8  CA        DEX  
 ADC9  CA        DEX  
 ADCA  A9 05     LDA  #$05
 ADCC  95 00     STA  $00, X
 ADCE  74 01     STZ  $01, X
 ADD0  20 8E A5  JSR  $A58E
 ADD3  80 0B     BRA  $ADE0
 ADD5  CA        DEX  
 ADD6  CA        DEX  
 ADD7  A9 05     LDA  #$05
 ADD9  95 00     STA  $00, X
 ADDB  74 01     STZ  $01, X
 ADDD  20 5D A1  JSR  $A15D
 ADE0  20 57 A1  JSR  $A157
 ADE3  CA        DEX  
 ADE4  CA        DEX  
 ADE5  68        PLA  
 ADE6  95 01     STA  $01, X
 ADE8  68        PLA  
 ADE9  95 00     STA  $00, X
 ADEB  20 FB 89  JSR  $89FB
 ADEE  74 01     STZ  $01, X
 ADF0  B5 00     LDA  $00, X
 ADF2  29 07     AND  #$07
 ADF4  95 00     STA  $00, X
 ADF6  20 53 A5  JSR  $A553
 ADF9  20 11 8A  JSR  $8A11
 ADFC  F6 02     INC  $02, X
 ADFE  D0 02     BNE  $AE02
 AE00  F6 03     INC  $03, X
 AE02  20 0B 98  JSR  $980B
 AE05  B5 00     LDA  $00, X
 AE07  15 01     ORA  $01, X
 AE09  F0 07     BEQ  $AE12
 AE0B  B5 01     LDA  $01, X
 AE0D  30 03     BMI  $AE12
 AE0F  4C 74 AD  JMP  $AD74
 AE12  4C EA A3  JMP  $A3EA
 AE15  15 B0 19 B0 AD B4 AD B4 21 B0 27 B0 2D B0 AD B4  |........!.'.-...|
 AE25  33 B0 37 B0 3D B0 AD B4 43 B0 47 B0 4B B0 4F B0  |3.7.=...C.G.K.O.|
 AE35  54 B0 58 B0 60 B0 AD B4 67 B0 6D B0 74 B0 7B B0  |T.X.`...g.m.t.{.|
 AE45  82 B0 86 B0 8C B0 AD B4 92 B0 96 B0 AD B4 9C B0  |................|
 AE55  A2 B0 A6 B0 AD B4 AD B4 AE B0 B4 B0 BA B0 C0 B0  |................|
 AE65  C7 B0 CB B0 D1 B0 AD B4 D7 B0 DB B0 E0 B0 E4 B0  |................|
 AE75  E9 B0 ED B0 F5 B0 AD B4 FC B0 04 B1 0B B1 12 B1  |................|
 AE85  19 B1 1D B1 23 B1 AD B4 29 B1 2F B1 35 B1 4F B0  |....#...)./.5.O.|
 AE95  40 B1 44 B1 AD B4 AD B4 AD B4 4C B1 52 B1 58 B1  |@.D.......L.R.X.|
 AEA5  5F B1 63 B1 69 B1 AD B4 6F B1 73 B1 77 B1 7B B1  |_.c.i...o.s.w.{.|
 AEB5  80 B1 84 B1 8C B1 AD B4 AD B4 93 B1 9A B1 A1 B1  |................|
 AEC5  A8 B1 AC B1 B2 B1 AD B4 AD B4 AD B4 BC B1 C2 B1  |................|
 AED5  C7 B1 CB B1 AD B4 AD B4 D3 B1 D9 B1 DF B1 E5 B1  |................|
 AEE5  EC B1 F0 B1 F6 B1 AD B4 FC B1 02 B2 06 B2 0A B2  |................|
 AEF5  0F B2 13 B2 1B B2 AD B4 22 B2 29 B2 30 B2 37 B2  |........".).0.7.|
 AF05  3E B2 42 B2 48 B2 AD B4 4C B2 53 B2 59 B2 5F B2  |>.B.H...L.S.Y._.|
 AF15  64 B2 68 B2 AD B4 AD B4 70 B2 76 B2 7C B2 AD B4  |d.h.....p.v.|...|
 AF25  82 B2 86 B2 8C B2 AD B4 90 B2 94 B2 98 B2 9C B2  |................|
 AF35  A1 B2 A5 B2 AD B2 AD B4 B4 B2 BB B2 C2 B2 C9 B2  |................|
 AF45  D0 B2 D4 B2 DA B2 AD B4 DE B2 E2 B2 E8 B2 EE B2  |................|
 AF55  F3 B2 F9 B2 01 B3 AD B4 07 B3 0D B3 13 B3 19 B3  |................|
 AF65  20 B3 24 B3 2A B3 AD B4 2E B3 32 B3 36 B3 3A B3  | .$.*.....2.6.:.|
 AF75  3F B3 43 B3 4B B3 AD B4 52 B3 59 B3 60 B3 67 B3  |?.C.K...R.Y.`.g.|
 AF85  6E B3 72 B3 78 B3 AD B4 7C B3 82 B3 88 B3 8E B3  |n.r.x...|.......|
 AF95  93 B3 99 B3 AD B4 AD B4 A1 B3 A7 B3 AD B3 B3 B3  |................|
 AFA5  BA B3 BE B3 C4 B3 AD B4 C8 B3 CC B3 D0 B3 D4 B3  |................|
 AFB5  D9 B3 DD B3 E5 B3 AD B4 AD B4 EC B3 F3 B3 FA B3  |................|
 AFC5  01 B4 05 B4 0B B4 AD B4 AD B4 0F B4 15 B4 1B B4  |................|
 AFD5  20 B4 26 B4 AD B4 AD B4 2E B4 34 B4 3A B4 40 B4  | .&.......4.:.@.|
 AFE5  47 B4 4B B4 51 B4 AD B4 55 B4 59 B4 5D B4 61 B4  |G.K.Q...U.Y.].a.|
 AFF5  66 B4 6A B4 72 B4 AD B4 AD B4 79 B4 80 B4 87 B4  |f.j.r.....y.....|
 B005  8E B4 92 B4 98 B4 AD B4 AD B4 9C B4 A2 B4 A8 B4  |................|
 B015  83 62 72 6B 87 6F 72 61 2E 7A 78 69 85 74 73 62  |.brk.ora.zxi.tsb|
 B025  2E 7A 85 6F 72 64 2E 7A 85 61 73 6C 2E 7A 43 70  |.z.ord.z.asl.zCp|
 B035  68 70 85 6F 72 61 2E 23 45 61 73 6C 2E 61 C3 74  |hp.ora.#Easl.a.t|
 B045  73 62 C3 6F 72 61 C3 61 73 6C C4 62 62 72 30 83  |sb.ora.asl.bbr0.|
 B055  62 70 6C 87 6F 72 61 2E 7A 69 79 86 6F 72 61 2E  |bpl.ora.ziy.ora.|
 B065  7A 69 85 74 72 62 2E 7A 86 6F 72 61 2E 7A 78 86  |zi.trb.z.ora.zx.|
 B075  61 73 6C 2E 7A 78 86 72 6D 62 31 2E 7A 43 63 6C  |asl.zx.rmb1.zCcl|
 B085  63 C5 6F 72 61 2E 79 45 69 6E 63 2E 61 C3 74 72  |c.ora.yEinc.a.tr|
 B095  62 C5 6F 72 61 2E 78 C5 61 73 6C 2E 78 C3 6A 73  |b.ora.x.asl.x.js|
 B0A5  72 87 61 6E 64 2E 7A 78 69 85 62 69 74 2E 7A 85  |r.and.zxi.bit.z.|
 B0B5  61 6E 64 2E 7A 85 72 6F 6C 2E 7A 86 72 6D 62 32  |and.z.rol.z.rmb2|
 B0C5  2E 7A 43 70 6C 70 85 61 6E 64 2E 23 45 72 6F 6C  |.zCplp.and.#Erol|
 B0D5  2E 61 C3 62 69 74 C4 61 6E 64 2E C3 72 6F 6C C4  |.a.bit.and..rol.|
 B0E5  62 62 72 32 83 62 6D 69 87 61 6E 64 2E 7A 69 79  |bbr2.bmi.and.ziy|
 B0F5  86 61 6E 64 2E 7A 69 87 62 69 74 2E 7A 78 69 86  |.and.zi.bit.zxi.|
 B105  61 6E 64 2E 7A 78 86 72 6F 6C 2E 7A 78 86 72 6D  |and.zx.rol.zx.rm|
 B115  62 33 2E 7A 43 73 65 63 C5 61 6E 64 2E 79 45 64  |b3.zCsec.and.yEd|
 B125  65 63 2E 61 C5 62 69 74 2E 78 C5 61 6E 64 2E 78  |ec.a.bit.x.and.x|
 B135  C5 72 6F 6C 2E 78 C4 62 62 72 33 43 72 74 69 87  |.rol.x.bbr3Crti.|
 B145  65 6F 72 2E 7A 78 69 85 65 6F 72 2E 7A 85 6C 73  |eor.zxi.eor.z.ls|
 B155  72 2E 7A 86 72 62 6D 34 2E 7A 43 70 68 61 85 65  |r.z.rbm4.zCpha.e|
 B165  6F 72 2E 23 45 6C 73 72 2E 61 C3 6A 6D 70 C3 65  |or.#Elsr.a.jmp.e|
 B175  6F 72 C3 6C 73 72 C4 62 62 72 34 83 62 76 63 87  |or.lsr.bbr4.bvc.|
 B185  65 6F 72 2E 7A 69 79 86 65 6F 72 2E 7A 69 86 65  |eor.ziy.eor.zi.e|
 B195  6F 72 2E 7A 78 86 6C 73 72 2E 7A 78 86 72 62 6D  |or.zx.lsr.zx.rbm|
 B1A5  35 2E 7A 43 63 6C 69 C5 65 6F 72 2E 79 43 70 68  |5.zCcli.eor.yCph|
 B1B5  79 C5 65 6F 72 2E 78 C5 6C 73 72 2E 78 C4 62 62  |y.eor.x.lsr.x.bb|
 B1C5  72 35 43 72 74 73 87 61 64 63 2E 7A 78 69 85 73  |r5Crts.adc.zxi.s|
 B1D5  74 7A 2E 7A 85 61 64 63 2E 7A 85 72 6F 72 2E 7A  |tz.z.adc.z.ror.z|
 B1E5  86 72 6D 62 36 2E 7A 43 70 6C 61 85 61 64 63 2E  |.rmb6.zCpla.adc.|
 B1F5  23 45 72 6F 72 2E 61 C5 6A 6D 70 2E 69 C3 61 64  |#Eror.a.jmp.i.ad|
 B205  63 C3 72 6F 72 C4 62 62 72 36 83 62 76 73 87 61  |c.ror.bbr6.bvs.a|
 B215  64 63 2E 7A 69 79 86 61 64 63 2E 7A 69 86 73 74  |dc.ziy.adc.zi.st|
 B225  7A 2E 7A 78 86 61 64 63 2E 7A 78 86 72 6F 72 2E  |z.zx.adc.zx.ror.|
 B235  7A 78 86 72 6D 62 37 2E 7A 43 73 65 69 C5 61 64  |zx.rmb7.zCsei.ad|
 B245  63 2E 79 43 70 6C 79 C6 6A 6D 70 2E 78 69 C5 61  |c.yCply.jmp.xi.a|
 B255  64 63 2E 78 C5 72 6F 72 2E 78 C4 62 62 72 37 83  |dc.x.ror.x.bbr7.|
 B265  62 72 61 87 73 74 61 2E 7A 78 69 85 73 74 79 2E  |bra.sta.zxi.sty.|
 B275  7A 85 73 74 61 2E 7A 85 73 74 78 2E 7A 43 64 65  |z.sta.z.stx.zCde|
 B285  79 85 62 69 74 2E 23 43 74 78 61 C3 73 74 79 C3  |y.bit.#Ctxa.sty.|
 B295  73 74 61 C3 73 74 78 C4 62 62 73 30 83 62 63 63  |sta.stx.bbs0.bcc|
 B2A5  87 73 74 61 2E 7A 69 79 86 73 74 61 2E 7A 69 86  |.sta.ziy.sta.zi.|
 B2B5  73 74 79 2E 7A 78 86 73 74 61 2E 7A 78 86 73 74  |sty.zx.sta.zx.st|
 B2C5  78 2E 7A 79 86 73 6D 62 31 2E 7A 43 74 79 61 C5  |x.zy.smb1.zCtya.|
 B2D5  73 74 61 2E 79 43 74 78 73 C3 73 74 7A C5 73 74  |sta.yCtxs.stz.st|
 B2E5  61 2E 78 C5 73 74 7A 2E 78 C4 62 62 73 31 85 6C  |a.x.stz.x.bbs1.l|
 B2F5  64 79 2E 23 87 6C 64 61 2E 7A 78 69 85 6C 64 78  |dy.#.lda.zxi.ldx|
 B305  2E 23 85 6C 64 79 2E 7A 85 6C 64 61 2E 7A 85 6C  |.#.ldy.z.lda.z.l|
 B315  64 78 2E 7A 86 73 6D 62 32 2E 7A 43 74 61 79 85  |dx.z.smb2.zCtay.|
 B325  6C 64 61 2E 23 43 74 61 78 C3 6C 64 79 C3 6C 64  |lda.#Ctax.ldy.ld|
 B335  61 C3 6C 64 78 C4 62 62 73 32 83 62 63 73 87 6C  |a.ldx.bbs2.bcs.l|
 B345  64 61 2E 7A 69 79 86 6C 64 61 2E 7A 69 86 6C 64  |da.ziy.lda.zi.ld|
 B355  79 2E 7A 78 86 6C 64 61 2E 7A 78 86 6C 64 78 2E  |y.zx.lda.zx.ldx.|
 B365  7A 79 86 73 6D 62 33 2E 7A 43 63 6C 76 C5 6C 64  |zy.smb3.zCclv.ld|
 B375  61 2E 79 43 74 73 78 C5 6C 64 79 2E 78 C5 6C 64  |a.yCtsx.ldy.x.ld|
 B385  61 2E 78 C5 6C 64 78 2E 79 C4 62 62 73 34 85 63  |a.x.ldx.y.bbs4.c|
 B395  70 79 2E 23 87 63 6D 70 2E 7A 78 69 85 63 70 79  |py.#.cmp.zxi.cpy|
 B3A5  2E 7A 85 63 6D 70 2E 7A 85 64 65 63 2E 7A 86 73  |.z.cmp.z.dec.z.s|
 B3B5  6D 62 34 2E 7A 43 69 6E 79 85 63 6D 70 2E 23 43  |mb4.zCiny.cmp.#C|
 B3C5  64 65 78 C3 63 70 79 C3 63 6D 70 C3 64 65 63 C4  |dex.cpy.cmp.dec.|
 B3D5  62 62 73 34 83 62 6E 65 87 63 6D 70 2E 7A 69 79  |bbs4.bne.cmp.ziy|
 B3E5  86 63 6D 70 2E 7A 69 86 63 6D 70 2E 7A 78 86 64  |.cmp.zi.cmp.zx.d|
 B3F5  65 63 2E 7A 78 86 73 6D 62 35 2E 7A 43 63 6C 64  |ec.zx.smb5.zCcld|
 B405  C5 63 6D 70 2E 79 43 70 68 78 C5 63 6D 70 2E 78  |.cmp.yCphx.cmp.x|
 B415  C5 64 65 63 2E 78 C4 62 62 73 35 85 63 70 78 2E  |.dec.x.bbs5.cpx.|
 B425  23 87 73 62 63 2E 7A 78 69 85 63 70 78 2E 7A 85  |#.sbc.zxi.cpx.z.|
 B435  73 62 63 2E 7A 85 69 6E 63 2E 7A 86 73 6D 62 36  |sbc.z.inc.z.smb6|
 B445  2E 7A 43 69 6E 78 85 73 62 63 2E 23 43 6E 6F 70  |.zCinx.sbc.#Cnop|
 B455  C3 63 70 78 C3 73 62 63 C3 69 6E 63 C4 62 62 73  |.cpx.sbc.inc.bbs|
 B465  36 83 62 65 71 87 73 62 63 2E 7A 69 79 86 73 62  |6.beq.sbc.ziy.sb|
 B475  63 2E 7A 69 86 73 62 63 2E 7A 78 86 69 6E 63 2E  |c.zi.sbc.zx.inc.|
 B485  7A 78 86 73 6D 62 37 2E 7A 43 73 65 64 C5 73 62  |zx.smb7.zCsed.sb|
 B495  63 2E 79 43 70 6C 78 C5 73 62 63 2E 78 C5 69 6E  |c.yCplx.sbc.x.in|
 B4A5  63 2E 78 C4 62 62 73 37 01 3F                    |c.x.bbs7.?      |
 B4AF  64 2E     STZ  $2E
 B4B1  64 2F     STZ  $2F
 B4B3  64 30     STZ  $30
 B4B5  64 31     STZ  $31
 B4B7  64 32     STZ  $32
 B4B9  20 14 A8  JSR  $A814
 B4BC  20 14 A8  JSR  $A814
 B4BF  20 11 8A  JSR  $8A11
 B4C2  A9 81     LDA  #$81
 B4C4  14 32     TRB  $32
 B4C6  20 C0 B9  JSR  $B9C0
 B4C9  A5 0A     LDA  $0A
 B4CB  D0 1F     BNE  $B4EC
 B4CD  CA        DEX  
 B4CE  CA        DEX  
 B4CF  A5 30     LDA  $30
 B4D1  95 00     STA  $00, X
 B4D3  A5 31     LDA  $31
 B4D5  95 01     STA  $01, X
 B4D7  A9 80     LDA  #$80
 B4D9  04 32     TSB  $32
 B4DB  20 19 98  JSR  $9819
 B4DE  20 DC B9  JSR  $B9DC
 B4E1  B0 03     BCS  $B4E6
 B4E3  4C B0 B9  JMP  $B9B0
 B4E6  20 14 A8  JSR  $A814
 B4E9  4C B7 B5  JMP  $B5B7
 B4EC  20 14 A8  JSR  $A814
 B4EF  20 14 A8  JSR  $A814
 B4F2  B2 08     LDA  ($08)
 B4F4  C9 2E     CMP  #$2E
 B4F6  D0 3A     BNE  $B532
 B4F8  20 D1 B9  JSR  $B9D1
 B4FB  A5 30     LDA  $30
 B4FD  95 02     STA  $02, X
 B4FF  A5 31     LDA  $31
 B501  95 03     STA  $03, X
 B503  A9 80     LDA  #$80
 B505  04 32     TSB  $32
 B507  A5 0A     LDA  $0A
 B509  3A        DEC  
 B50A  D0 03     BNE  $B50F
 B50C  4C B7 B5  JMP  $B5B7
 B50F  CA        DEX  
 B510  CA        DEX  
 B511  CA        DEX  
 B512  CA        DEX  
 B513  A5 08     LDA  $08
 B515  95 02     STA  $02, X
 B517  A5 09     LDA  $09
 B519  95 03     STA  $03, X
 B51B  A5 0A     LDA  $0A
 B51D  95 00     STA  $00, X
 B51F  A5 0B     LDA  $0B
 B521  95 01     STA  $01, X
 B523  20 0B 98  JSR  $980B
 B526  20 DA A1  JSR  $A1DA
 B529  20 19 98  JSR  $9819
 B52C  20 DA A1  JSR  $A1DA
 B52F  4C 0F B6  JMP  $B60F
 B532  B2 08     LDA  ($08)
 B534  C9 24     CMP  #$24
 B536  D0 1C     BNE  $B554
 B538  20 D1 B9  JSR  $B9D1
 B53B  E8        INX  
 B53C  E8        INX  
 B53D  20 FE B9  JSR  $B9FE
 B540  20 DA A1  JSR  $A1DA
 B543  A9 80     LDA  #$80
 B545  04 32     TSB  $32
 B547  A5 0A     LDA  $0A
 B549  3A        DEC  
 B54A  D0 03     BNE  $B54F
 B54C  4C B7 B5  JMP  $B5B7
 B54F  A0 01     LDY  #$01
 B551  4C 8B B6  JMP  $B68B
 B554  B2 08     LDA  ($08)
 B556  C9 25     CMP  #$25
 B558  F0 04     BEQ  $B55E
 B55A  C9 2C     CMP  #$2C
 B55C  D0 17     BNE  $B575
 B55E  20 D1 B9  JSR  $B9D1
 B561  A9 01     LDA  #$01
 B563  95 02     STA  $02, X
 B565  74 03     STZ  $03, X
 B567  E8        INX  
 B568  E8        INX  
 B569  20 FE B9  JSR  $B9FE
 B56C  A9 80     LDA  #$80
 B56E  04 32     TSB  $32
 B570  A0 01     LDY  #$01
 B572  4C 8B B6  JMP  $B68B
 B575  B2 08     LDA  ($08)
 B577  C9 3B     CMP  #$3B
 B579  D0 0D     BNE  $B588
 B57B  20 D1 B9  JSR  $B9D1
 B57E  A5 30     LDA  $30
 B580  95 02     STA  $02, X
 B582  A5 31     LDA  $31
 B584  95 03     STA  $03, X
 B586  80 DF     BRA  $B567
 B588  20 14 A8  JSR  $A814
 B58B  20 14 A8  JSR  $A814
 B58E  CA        DEX  
 B58F  CA        DEX  
 B590  CA        DEX  
 B591  CA        DEX  
 B592  A5 08     LDA  $08
 B594  95 02     STA  $02, X
 B596  A5 09     LDA  $09
 B598  95 03     STA  $03, X
 B59A  A5 0A     LDA  $0A
 B59C  95 00     STA  $00, X
 B59E  A5 0B     LDA  $0B
 B5A0  95 01     STA  $01, X
 B5A2  20 F1 A2  JSR  $A2F1
 B5A5  B5 00     LDA  $00, X
 B5A7  15 01     ORA  $01, X
 B5A9  D0 24     BNE  $B5CF
 B5AB  E8        INX  
 B5AC  E8        INX  
 B5AD  E8        INX  
 B5AE  E8        INX  
 B5AF  20 00 8B  JSR  $8B00
 B5B2  20 C8 96  JSR  $96C8
 B5B5  E8        INX  
 B5B6  E8        INX  
 B5B7  20 DA A1  JSR  $A1DA
 B5BA  20 DC B9  JSR  $B9DC
 B5BD  B0 03     BCS  $B5C2
 B5BF  4C AE B9  JMP  $B9AE
 B5C2  20 DA A1  JSR  $A1DA
 B5C5  20 6B BA  JSR  $BA6B
 B5C8  A9 80     LDA  #$80
 B5CA  04 32     TSB  $32
 B5CC  4C 99 B8  JMP  $B899
 B5CF  20 45 8E  JSR  $8E45
 B5D2  CA        DEX  
 B5D3  CA        DEX  
 B5D4  A5 0A     LDA  $0A
 B5D6  95 00     STA  $00, X
 B5D8  A5 0B     LDA  $0B
 B5DA  95 01     STA  $01, X
 B5DC  20 52 8F  JSR  $8F52
 B5DF  B5 00     LDA  $00, X
 B5E1  15 01     ORA  $01, X
 B5E3  F0 0E     BEQ  $B5F3
 B5E5  8A        TXA  
 B5E6  18        CLC  
 B5E7  69 0A     ADC  #$0A
 B5E9  AA        TAX  
 B5EA  A9 80     LDA  #$80
 B5EC  14 32     TRB  $32
 B5EE  A0 00     LDY  #$00
 B5F0  4C 8B B6  JMP  $B68B
 B5F3  E8        INX  
 B5F4  E8        INX  
 B5F5  20 A6 A3  JSR  $A3A6
 B5F8  20 C8 96  JSR  $96C8
 B5FB  20 00 8B  JSR  $8B00
 B5FE  B5 00     LDA  $00, X
 B600  95 06     STA  $06, X
 B602  B5 01     LDA  $01, X
 B604  95 07     STA  $07, X
 B606  E8        INX  
 B607  E8        INX  
 B608  20 59 9A  JSR  $9A59
 B60B  A9 80     LDA  #$80
 B60D  04 32     TSB  $32
 B60F  A1 02     LDA  ($02, X)
 B611  C9 2C     CMP  #$2C
 B613  F0 0D     BEQ  $B622
 B615  38        SEC  
 B616  A5 0A     LDA  $0A
 B618  F5 00     SBC  $00, X
 B61A  A8        TAY  
 B61B  E8        INX  
 B61C  E8        INX  
 B61D  E8        INX  
 B61E  E8        INX  
 B61F  4C 8B B6  JMP  $B68B
 B622  F6 02     INC  $02, X
 B624  D0 02     BNE  $B628
 B626  F6 03     INC  $03, X
 B628  B5 01     LDA  $01, X
 B62A  F0 02     BEQ  $B62E
 B62C  D6 01     DEC  $01, X
 B62E  D6 00     DEC  $00, X
 B630  A1 02     LDA  ($02, X)
 B632  C9 24     CMP  #$24
 B634  D0 14     BNE  $B64A
 B636  38        SEC  
 B637  A5 0A     LDA  $0A
 B639  F5 02     SBC  $02, X
 B63B  A8        TAY  
 B63C  C8        INY  
 B63D  5A        PHY  
 B63E  8A        TXA  
 B63F  18        CLC  
 B640  69 06     ADC  #$06
 B642  AA        TAX  
 B643  20 FE B9  JSR  $B9FE
 B646  7A        PLY  
 B647  4C 8B B6  JMP  $B68B
 B64A  20 A6 A3  JSR  $A3A6
 B64D  20 14 A8  JSR  $A814
 B650  20 14 A8  JSR  $A814
 B653  20 06 9B  JSR  $9B06
 B656  20 59 9A  JSR  $9A59
 B659  20 45 8E  JSR  $8E45
 B65C  20 A6 A3  JSR  $A3A6
 B65F  20 F1 A2  JSR  $A2F1
 B662  20 45 8E  JSR  $8E45
 B665  20 59 9A  JSR  $9A59
 B668  20 52 8F  JSR  $8F52
 B66B  B5 00     LDA  $00, X
 B66D  15 01     ORA  $01, X
 B66F  F0 08     BEQ  $B679
 B671  8A        TXA  
 B672  18        CLC  
 B673  69 0C     ADC  #$0C
 B675  AA        TAX  
 B676  4C B2 B9  JMP  $B9B2
 B679  E8        INX  
 B67A  E8        INX  
 B67B  38        SEC  
 B67C  A5 0A     LDA  $0A
 B67E  F5 00     SBC  $00, X
 B680  48        PHA  
 B681  20 EA A3  JSR  $A3EA
 B684  20 00 8B  JSR  $8B00
 B687  20 98 96  JSR  $9698
 B68A  7A        PLY  
 B68B  80 35     BRA  $B6C2
 B68D  5A        PHY  
 B68E  A9 28     LDA  #$28
 B690  20 78 8E  JSR  $8E78
 B693  20 DA A1  JSR  $A1DA
 B696  20 45 8E  JSR  $8E45
 B699  20 80 A5  JSR  $A580
 B69C  20 DA A1  JSR  $A1DA
 B69F  20 45 8E  JSR  $8E45
 B6A2  20 80 A5  JSR  $A580
 B6A5  A9 79     LDA  #$79
 B6A7  20 78 8E  JSR  $8E78
 B6AA  68        PLA  
 B6AB  48        PHA  
 B6AC  20 77 D6  JSR  $D677
 B6AF  20 57 A1  JSR  $A157
 B6B2  A9 63     LDA  #$63
 B6B4  20 78 8E  JSR  $8E78
 B6B7  A5 30     LDA  $30
 B6B9  20 77 D6  JSR  $D677
 B6BC  A9 29     LDA  #$29
 B6BE  20 78 8E  JSR  $8E78
 B6C1  7A        PLY  
 B6C2  B1 08     LDA  ($08), Y
 B6C4  85 24     STA  $24
 B6C6  DA        PHX  
 B6C7  A2 00     LDX  #$00
 B6C9  BD 96 BA  LDA  $BA96, X
 B6CC  F0 07     BEQ  $B6D5
 B6CE  C5 24     CMP  $24
 B6D0  F0 07     BEQ  $B6D9
 B6D2  E8        INX  
 B6D3  80 F4     BRA  $B6C9
 B6D5  FA        PLX  
 B6D6  4C AE B9  JMP  $B9AE
 B6D9  8A        TXA  
 B6DA  0A        ASL  
 B6DB  AA        TAX  
 B6DC  7C A2 BA  JMP  ($BAA2, X)
 B6DF  E8        INX  
 B6E0  E8        INX  
 B6E1  E8        INX  
 B6E2  E8        INX  
 B6E3  4C C2 B4  JMP  $B4C2
 B6E6  64 0A     STZ  $0A
 B6E8  64 0B     STZ  $0B
 B6EA  20 EA A3  JSR  $A3EA
 B6ED  60        RTS  
 B6EE  FA        PLX  
 B6EF  E8        INX  
 B6F0  E8        INX  
 B6F1  24 32     BIT  $32
 B6F3  30 08     BMI  $B6FD
 B6F5  A5 30     LDA  $30
 B6F7  95 00     STA  $00, X
 B6F9  A5 31     LDA  $31
 B6FB  95 01     STA  $01, X
 B6FD  20 34 BA  JSR  $BA34
 B700  20 11 8A  JSR  $8A11
 B703  20 C0 B9  JSR  $B9C0
 B706  B2 08     LDA  ($08)
 B708  C9 2E     CMP  #$2E
 B70A  D0 16     BNE  $B722
 B70C  A4 0A     LDY  $0A
 B70E  C0 01     CPY  #$01
 B710  D0 10     BNE  $B722
 B712  A4 0B     LDY  $0B
 B714  D0 0C     BNE  $B722
 B716  E8        INX  
 B717  E8        INX  
 B718  A9 40     LDA  #$40
 B71A  04 32     TSB  $32
 B71C  20 11 8A  JSR  $8A11
 B71F  4C C2 B4  JMP  $B4C2
 B722  20 45 8E  JSR  $8E45
 B725  20 0B 92  JSR  $920B
 B728  20 DA A1  JSR  $A1DA
 B72B  20 E3 8F  JSR  $8FE3
 B72E  20 12 88  JSR  $8812
 B731  20 C5 A3  JSR  $A3C5
 B734  20 DA A1  JSR  $A1DA
 B737  20 C2 A1  JSR  $A1C2
 B73A  20 0B 92  JSR  $920B
 B73D  A5 00     LDA  $00
 B73F  18        CLC  
 B740  69 04     ADC  #$04
 B742  85 00     STA  $00
 B744  90 02     BCC  $B748
 B746  E6 01     INC  $01
 B748  E6 30     INC  $30
 B74A  D0 02     BNE  $B74E
 B74C  E6 31     INC  $31
 B74E  20 0B 92  JSR  $920B
 B751  20 45 8E  JSR  $8E45
 B754  CA        DEX  
 B755  CA        DEX  
 B756  A5 08     LDA  $08
 B758  95 00     STA  $00, X
 B75A  A5 09     LDA  $09
 B75C  95 01     STA  $01, X
 B75E  20 DA A1  JSR  $A1DA
 B761  CA        DEX  
 B762  CA        DEX  
 B763  A5 0A     LDA  $0A
 B765  95 00     STA  $00, X
 B767  A5 0B     LDA  $0B
 B769  95 01     STA  $01, X
 B76B  20 12 96  JSR  $9612
 B76E  18        CLC  
 B76F  A5 00     LDA  $00
 B771  65 0A     ADC  $0A
 B773  85 00     STA  $00
 B775  90 06     BCC  $B77D
 B777  A5 01     LDA  $01
 B779  65 0B     ADC  $0B
 B77B  85 01     STA  $01
 B77D  20 50 98  JSR  $9850
 B780  20 C2 A1  JSR  $A1C2
 B783  20 19 98  JSR  $9819
 B786  20 19 98  JSR  $9819
 B789  20 45 8E  JSR  $8E45
 B78C  A5 0A     LDA  $0A
 B78E  95 02     STA  $02, X
 B790  A5 0B     LDA  $0B
 B792  95 03     STA  $03, X
 B794  20 C2 A1  JSR  $A1C2
 B797  20 11 8A  JSR  $8A11
 B79A  4C 03 B7  JMP  $B703
 B79D  FA        PLX  
 B79E  20 D1 B9  JSR  $B9D1
 B7A1  20 26 BA  JSR  $BA26
 B7A4  B5 00     LDA  $00, X
 B7A6  15 01     ORA  $01, X
 B7A8  D0 08     BNE  $B7B2
 B7AA  20 50 98  JSR  $9850
 B7AD  20 EF B7  JSR  $B7EF
 B7B0  80 33     BRA  $B7E5
 B7B2  20 DC B9  JSR  $B9DC
 B7B5  B0 03     BCS  $B7BA
 B7B7  4C AE B9  JMP  $B9AE
 B7BA  20 F4 A3  JSR  $A3F4
 B7BD  20 F4 91  JSR  $91F4
 B7C0  B5 00     LDA  $00, X
 B7C2  15 01     ORA  $01, X
 B7C4  D0 0D     BNE  $B7D3
 B7C6  E8        INX  
 B7C7  E8        INX  
 B7C8  20 45 8E  JSR  $8E45
 B7CB  20 EF B7  JSR  $B7EF
 B7CE  20 0B 98  JSR  $980B
 B7D1  80 E7     BRA  $B7BA
 B7D3  E8        INX  
 B7D4  E8        INX  
 B7D5  B5 02     LDA  $02, X
 B7D7  D0 02     BNE  $B7DB
 B7D9  D6 03     DEC  $03, X
 B7DB  D6 02     DEC  $02, X
 B7DD  B5 02     LDA  $02, X
 B7DF  85 30     STA  $30
 B7E1  B5 03     LDA  $03, X
 B7E3  85 31     STA  $31
 B7E5  A9 40     LDA  #$40
 B7E7  04 32     TSB  $32
 B7E9  20 11 8A  JSR  $8A11
 B7EC  4C DF B6  JMP  $B6DF
 B7EF  20 45 8E  JSR  $8E45
 B7F2  20 34 BA  JSR  $BA34
 B7F5  20 E3 8F  JSR  $8FE3
 B7F8  20 DA A1  JSR  $A1DA
 B7FB  20 0B 98  JSR  $980B
 B7FE  20 34 BA  JSR  $BA34
 B801  20 C2 A1  JSR  $A1C2
 B804  60        RTS  
 B805  FA        PLX  
 B806  20 26 BA  JSR  $BA26
 B809  A9 65     LDA  #$65
 B80B  20 78 8E  JSR  $8E78
 B80E  A9 40     LDA  #$40
 B810  04 32     TSB  $32
 B812  4C DF B6  JMP  $B6DF
 B815  FA        PLX  
 B816  20 D1 B9  JSR  $B9D1
 B819  20 26 BA  JSR  $BA26
 B81C  24 32     BIT  $32
 B81E  30 0C     BMI  $B82C
 B820  CA        DEX  
 B821  CA        DEX  
 B822  A5 30     LDA  $30
 B824  95 00     STA  $00, X
 B826  A5 31     LDA  $31
 B828  95 01     STA  $01, X
 B82A  80 0E     BRA  $B83A
 B82C  B5 00     LDA  $00, X
 B82E  15 01     ORA  $01, X
 B830  D0 05     BNE  $B837
 B832  20 50 98  JSR  $9850
 B835  80 03     BRA  $B83A
 B837  20 45 8E  JSR  $8E45
 B83A  20 80 A5  JSR  $A580
 B83D  20 11 8A  JSR  $8A11
 B840  4C DF B6  JMP  $B6DF
 B843  FA        PLX  
 B844  24 32     BIT  $32
 B846  30 17     BMI  $B85F
 B848  20 11 8A  JSR  $8A11
 B84B  20 A6 A3  JSR  $A3A6
 B84E  20 06 9B  JSR  $9B06
 B851  20 45 8E  JSR  $8E45
 B854  20 80 A5  JSR  $A580
 B857  20 C8 96  JSR  $96C8
 B85A  20 59 9A  JSR  $9A59
 B85D  80 11     BRA  $B870
 B85F  20 50 98  JSR  $9850
 B862  20 11 8A  JSR  $8A11
 B865  20 80 A5  JSR  $A580
 B868  B5 02     LDA  $02, X
 B86A  95 06     STA  $06, X
 B86C  B5 03     LDA  $03, X
 B86E  95 07     STA  $07, X
 B870  20 11 8A  JSR  $8A11
 B873  4C DF B6  JMP  $B6DF
 B876  FA        PLX  
 B877  20 DA A1  JSR  $A1DA
 B87A  20 DC B9  JSR  $B9DC
 B87D  B0 03     BCS  $B882
 B87F  4C AE B9  JMP  $B9AE
 B882  20 0B 98  JSR  $980B
 B885  20 14 A8  JSR  $A814
 B888  20 77 95  JSR  $9577
 B88B  20 DA A1  JSR  $A1DA
 B88E  4C EF B6  JMP  $B6EF
 B891  FA        PLX  
 B892  A9 01     LDA  #$01
 B894  04 32     TSB  $32
 B896  80 05     BRA  $B89D
 B898  FA        PLX  
 B899  A9 01     LDA  #$01
 B89B  14 32     TRB  $32
 B89D  20 D1 B9  JSR  $B9D1
 B8A0  20 26 BA  JSR  $BA26
 B8A3  20 11 8A  JSR  $8A11
 B8A6  B5 00     LDA  $00, X
 B8A8  15 01     ORA  $01, X
 B8AA  D0 08     BNE  $B8B4
 B8AC  20 50 98  JSR  $9850
 B8AF  20 D5 B8  JSR  $B8D5
 B8B2  80 1E     BRA  $B8D2
 B8B4  20 F4 A3  JSR  $A3F4
 B8B7  20 F4 91  JSR  $91F4
 B8BA  B5 00     LDA  $00, X
 B8BC  15 01     ORA  $01, X
 B8BE  D0 10     BNE  $B8D0
 B8C0  E8        INX  
 B8C1  E8        INX  
 B8C2  20 50 98  JSR  $9850
 B8C5  20 D5 B8  JSR  $B8D5
 B8C8  F6 02     INC  $02, X
 B8CA  D0 02     BNE  $B8CE
 B8CC  F6 03     INC  $03, X
 B8CE  80 E4     BRA  $B8B4
 B8D0  E8        INX  
 B8D1  E8        INX  
 B8D2  4C DF B6  JMP  $B6DF
 B8D5  A5 32     LDA  $32
 B8D7  4A        LSR  
 B8D8  90 0B     BCC  $B8E5
 B8DA  20 45 8E  JSR  $8E45
 B8DD  20 80 A5  JSR  $A580
 B8E0  A9 09     LDA  #$09
 B8E2  20 78 8E  JSR  $8E78
 B8E5  20 34 BA  JSR  $BA34
 B8E8  20 74 BA  JSR  $BA74
 B8EB  60        RTS  
 B8EC  FA        PLX  
 B8ED  24 32     BIT  $32
 B8EF  50 03     BVC  $B8F4
 B8F1  4C AE B9  JMP  $B9AE
 B8F4  4C E6 B6  JMP  $B6E6
 B8F7  FA        PLX  
 B8F8  4C E6 B6  JMP  $B6E6
 B8FB  FA        PLX  
 B8FC  20 D1 B9  JSR  $B9D1
 B8FF  24 32     BIT  $32
 B901  30 13     BMI  $B916
 B903  B5 06     LDA  $06, X
 B905  15 07     ORA  $07, X
 B907  D0 03     BNE  $B90C
 B909  4C AE B9  JMP  $B9AE
 B90C  B5 06     LDA  $06, X
 B90E  95 02     STA  $02, X
 B910  B5 07     LDA  $07, X
 B912  95 03     STA  $03, X
 B914  80 08     BRA  $B91E
 B916  B5 02     LDA  $02, X
 B918  95 06     STA  $06, X
 B91A  B5 03     LDA  $03, X
 B91C  95 07     STA  $07, X
 B91E  A9 2E     LDA  #$2E
 B920  95 00     STA  $00, X
 B922  A9 00     LDA  #$00
 B924  95 01     STA  $01, X
 B926  20 50 98  JSR  $9850
 B929  20 A6 A3  JSR  $A3A6
 B92C  20 E3 8F  JSR  $8FE3
 B92F  B5 00     LDA  $00, X
 B931  15 01     ORA  $01, X
 B933  F0 55     BEQ  $B98A
 B935  20 F4 A3  JSR  $A3F4
 B938  20 EC A4  JSR  $A4EC
 B93B  20 19 98  JSR  $9819
 B93E  20 19 98  JSR  $9819
 B941  20 45 8E  JSR  $8E45
 B944  20 E3 8F  JSR  $8FE3
 B947  20 DA A1  JSR  $A1DA
 B94A  20 19 98  JSR  $9819
 B94D  20 19 98  JSR  $9819
 B950  20 E3 8F  JSR  $8FE3
 B953  20 C8 96  JSR  $96C8
 B956  20 DA A1  JSR  $A1DA
 B959  20 06 9B  JSR  $9B06
 B95C  20 45 8E  JSR  $8E45
 B95F  20 A6 A3  JSR  $A3A6
 B962  20 12 96  JSR  $9612
 B965  20 59 9A  JSR  $9A59
 B968  20 6A A4  JSR  $A46A
 B96B  20 C8 96  JSR  $96C8
 B96E  20 A4 99  JSR  $99A4
 B971  20 45 8E  JSR  $8E45
 B974  CA        DEX  
 B975  CA        DEX  
 B976  A9 0A     LDA  #$0A
 B978  95 00     STA  $00, X
 B97A  74 01     STZ  $01, X
 B97C  20 DA A1  JSR  $A1DA
 B97F  20 C2 A1  JSR  $A1C2
 B982  20 19 98  JSR  $9819
 B985  20 DA A1  JSR  $A1DA
 B988  80 A2     BRA  $B92C
 B98A  20 DA A1  JSR  $A1DA
 B98D  20 59 9A  JSR  $9A59
 B990  20 B3 95  JSR  $95B3
 B993  B5 00     LDA  $00, X
 B995  95 04     STA  $04, X
 B997  B5 01     LDA  $01, X
 B999  95 05     STA  $05, X
 B99B  20 11 8A  JSR  $8A11
 B99E  20 45 8E  JSR  $8E45
 B9A1  20 80 A5  JSR  $A580
 B9A4  20 11 8A  JSR  $8A11
 B9A7  A9 40     LDA  #$40
 B9A9  14 32     TRB  $32
 B9AB  4C DF B6  JMP  $B6DF
 B9AE  E8        INX  
 B9AF  E8        INX  
 B9B0  E8        INX  
 B9B1  E8        INX  
 B9B2  20 11 8A  JSR  $8A11
 B9B5  A9 3F     LDA  #$3F
 B9B7  20 78 8E  JSR  $8E78
 B9BA  20 11 8A  JSR  $8A11
 B9BD  4C C2 B4  JMP  $B4C2
 B9C0  20 A7 9A  JSR  $9AA7
 B9C3  B5 00     LDA  $00, X
 B9C5  15 01     ORA  $01, X
 B9C7  D0 05     BNE  $B9CE
 B9C9  7A        PLY  
 B9CA  7A        PLY  
 B9CB  4C B0 B9  JMP  $B9B0
 B9CE  E8        INX  
 B9CF  E8        INX  
 B9D0  60        RTS  
 B9D1  A5 2E     LDA  $2E
 B9D3  05 2F     ORA  $2F
 B9D5  D0 04     BNE  $B9DB
 B9D7  7A        PLY  
 B9D8  7A        PLY  
 B9D9  80 D7     BRA  $B9B2
 B9DB  60        RTS  
 B9DC  38        SEC  
 B9DD  B5 00     LDA  $00, X
 B9DF  15 01     ORA  $01, X
 B9E1  F0 19     BEQ  $B9FC
 B9E3  20 45 8E  JSR  $8E45
 B9E6  20 FE B9  JSR  $B9FE
 B9E9  20 DA A1  JSR  $A1DA
 B9EC  20 BB 93  JSR  $93BB
 B9EF  B5 00     LDA  $00, X
 B9F1  15 01     ORA  $01, X
 B9F3  D0 05     BNE  $B9FA
 B9F5  E8        INX  
 B9F6  E8        INX  
 B9F7  38        SEC  
 B9F8  80 03     BRA  $B9FD
 B9FA  E8        INX  
 B9FB  E8        INX  
 B9FC  18        CLC  
 B9FD  60        RTS  
 B9FE  64 24     STZ  $24
 BA00  64 25     STZ  $25
 BA02  CA        DEX  
 BA03  CA        DEX  
 BA04  A9 2E     LDA  #$2E
 BA06  95 00     STA  $00, X
 BA08  A9 00     LDA  #$00
 BA0A  95 01     STA  $01, X
 BA0C  20 E3 8F  JSR  $8FE3
 BA0F  B5 00     LDA  $00, X
 BA11  15 01     ORA  $01, X
 BA13  F0 08     BEQ  $BA1D
 BA15  E6 24     INC  $24
 BA17  D0 02     BNE  $BA1B
 BA19  E6 25     INC  $25
 BA1B  80 EF     BRA  $BA0C
 BA1D  A5 24     LDA  $24
 BA1F  95 00     STA  $00, X
 BA21  A5 25     LDA  $25
 BA23  95 01     STA  $01, X
 BA25  60        RTS  
 BA26  B5 02     LDA  $02, X
 BA28  15 03     ORA  $03, X
 BA2A  D0 07     BNE  $BA33
 BA2C  24 32     BIT  $32
 BA2E  10 03     BPL  $BA33
 BA30  4C AE B9  JMP  $B9AE
 BA33  60        RTS  
 BA34  CA        DEX  
 BA35  CA        DEX  
 BA36  A9 2E     LDA  #$2E
 BA38  95 00     STA  $00, X
 BA3A  A9 00     LDA  #$00
 BA3C  95 01     STA  $01, X
 BA3E  B5 02     LDA  $02, X
 BA40  15 03     ORA  $03, X
 BA42  D0 05     BNE  $BA49
 BA44  20 98 96  JSR  $9698
 BA47  80 21     BRA  $BA6A
 BA49  20 E3 8F  JSR  $8FE3
 BA4C  B5 00     LDA  $00, X
 BA4E  15 01     ORA  $01, X
 BA50  D0 05     BNE  $BA57
 BA52  20 98 96  JSR  $9698
 BA55  80 13     BRA  $BA6A
 BA57  20 DA A1  JSR  $A1DA
 BA5A  20 0B 98  JSR  $980B
 BA5D  B5 00     LDA  $00, X
 BA5F  15 01     ORA  $01, X
 BA61  F0 05     BEQ  $BA68
 BA63  20 DA A1  JSR  $A1DA
 BA66  80 E1     BRA  $BA49
 BA68  E8        INX  
 BA69  E8        INX  
 BA6A  60        RTS  
 BA6B  B5 02     LDA  $02, X
 BA6D  85 30     STA  $30
 BA6F  B5 03     LDA  $03, X
 BA71  85 31     STA  $31
 BA73  60        RTS  
 BA74  20 19 98  JSR  $9819
 BA77  20 19 98  JSR  $9819
 BA7A  20 45 8E  JSR  $8E45
 BA7D  20 19 98  JSR  $9819
 BA80  20 19 98  JSR  $9819
 BA83  20 E3 8F  JSR  $8FE3
 BA86  20 DA A1  JSR  $A1DA
 BA89  20 E3 8F  JSR  $8FE3
 BA8C  20 DA A1  JSR  $A1DA
 BA8F  20 53 A5  JSR  $A553
 BA92  20 11 8A  JSR  $8A11
 BA95  60        RTS  
 BA96  61 65 66 69 64 70 6E 3D 77 71 51 00 EE B6 05 B8  |aefidpn=wqQ.....|
 BAA6  43 B8 76 B8 9D B7 98 B8 91 B8 15 B8 FB B8 EC B8  |C.v.............|
 BAB6  F7 B8 20 3A 20 2E 77 69 64 20 64 75 70 20 30 3D  |.. : .wid dup 0=|
 BAC6  20 69 66 20 2E 22 20 46 4F 52 54 48 20 22 20 64  | if ." FORTH " d|
 BAD6  72 6F 70 20 65 6C 73 65 20 64 75 70 20 31 20 3D  |rop else dup 1 =|
 BAE6  20 69 66 20 2E 22 20 45 44 49 54 4F 52 20 22 20  | if ." EDITOR " |
 BAF6  64 72 6F 70 20 65 6C 73 65 20 64 75 70 20 32 20  |drop else dup 2 |
 BB06  3D 20 69 66 20 2E 22 20 41 53 53 45 4D 42 4C 45  |= if ." ASSEMBLE|
 BB16  52 20 22 20 64 72 6F 70 20 65 6C 73 65 20 64 75  |R " drop else du|
 BB26  70 20 33 20 3D 20 69 66 20 2E 22 20 52 4F 4F 54  |p 3 = if ." ROOT|
 BB36  20 22 20 64 72 6F 70 20 65 6C 73 65 20 2E 20 74  | " drop else . t|
 BB46  68 65 6E 20 74 68 65 6E 20 74 68 65 6E 20 74 68  |hen then then th|
 BB56  65 6E 20 3B 20 3A 20 4F 52 44 45 52 20 63 72 20  |en ; : ORDER cr |
 BB66  67 65 74 2D 6F 72 64 65 72 20 30 20 3F 64 6F 20  |get-order 0 ?do |
 BB76  2E 77 69 64 20 6C 6F 6F 70 20 73 70 61 63 65 20  |.wid loop space |
 BB86  73 70 61 63 65 20 67 65 74 2D 63 75 72 72 65 6E  |space get-curren|
 BB96  74 20 2E 77 69 64 20 3B 20 63 72 20 2E 28 20 54  |t .wid ; cr .( T|
 BBA6  61 6C 69 20 46 6F 72 74 68 20 32 20 66 6F 72 20  |ali Forth 2 for |
 BBB6  74 68 65 20 36 35 63 30 32 29 20 63 72 20 2E 28  |the 65c02) cr .(|
 BBC6  20 56 65 72 73 69 6F 6E 20 42 45 54 41 20 32 31  | Version BETA 21|
 BBD6  2E 20 44 65 63 20 32 30 31 38 20 29 20 63 72 20  |. Dec 2018 ) cr |
 BBE6  2E 28 20 43 6F 70 79 72 69 67 68 74 20 32 30 31  |.( Copyright 201|
 BBF6  34 2D 32 30 31 38 20 53 63 6F 74 20 57 2E 20 53  |4-2018 Scot W. S|
 BC06  74 65 76 65 6E 73 6F 6E 29 20 63 72 20 2E 28 20  |tevenson) cr .( |
 BC16  54 61 6C 69 20 46 6F 72 74 68 20 32 20 63 6F 6D  |Tali Forth 2 com|
 BC26  65 73 20 77 69 74 68 20 61 62 73 6F 6C 75 74 65  |es with absolute|
 BC36  6C 79 20 4E 4F 20 57 41 52 52 41 4E 54 59 29 20  |ly NO WARRANTY) |
 BC46  63 72 20 2E 28 20 54 79 70 65 20 27 62 79 65 27  |cr .( Type 'bye'|
 BC56  20 74 6F 20 65 78 69 74 29 20 63 72 20 20 20 03  | to exit) cr   .|
 BC66  00 00 00 40 86 41 86 62 79 65 04 00 65 BC 00 80  |...@.A.bye..e...|
 BC76  C5 80 63 6F 6C 64 02 08 70 BC 55 8E 58 8E 65 64  |..cold..p.U.X.ed|
 BC86  03 08 7C BC 35 9C DA 9C 73 65 65 05 00 86 BC 33  |..|.5...see....3|
 BC96  91 39 91 66 6F 72 74 68 06 00 91 BC 93 A3 A5 A3  |.9.forth........|
 BCA6  3E 6F 72 64 65 72 08 00 9E BC 1A 9A 26 9A 70 72  |>order......&.pr|
 BCB6  65 76 69 6F 75 73 04 00 AC BC 44 83 53 83 61 6C  |evious....D.S.al|
 BCC6  73 6F 04 00 BC BC 25 98 30 98 6F 6E 6C 79 0E 00  |so....%.0.only..|
 BCD6  C8 BC 14 A8 1A A8 66 6F 72 74 68 2D 77 6F 72 64  |......forth-word|
 BCE6  6C 69 73 74 0F 00 D4 BC 02 98 0A 98 65 64 69 74  |list........edit|
 BCF6  6F 72 2D 77 6F 72 64 6C 69 73 74 12 00 EA BC 76  |or-wordlist....v|
 BD06  83 7E 83 61 73 73 65 6D 62 6C 65 72 2D 77 6F 72  |.~.assembler-wor|
 BD16  64 6C 69 73 74 0D 00 01 BD FD 9A 05 9B 72 6F 6F  |dlist........roo|
 BD26  74 2D 77 6F 72 64 6C 69 73 74 09 00 1B BD CB 91  |t-wordlist......|
 BD36  F3 91 67 65 74 2D 6F 72 64 65 72 09 00 30 BD 20  |..get-order..0. |
 BD46  9D 53 9D 73 65 74 2D 6F 72 64 65 72 0B 00 41 BD  |.S.set-order..A.|
 BD56  C0 91 CA 91 67 65 74 2D 63 75 72 72 65 6E 74 0B  |....get-current.|
 BD66  10 52 BD 12 9D 1F 9D 73 65 74 2D 63 75 72 72 65  |.R.....set-curre|
 BD76  6E 74 0F 10 65 BD 52 9B 34 9C 73 65 61 72 63 68  |nt..e.R.4.search|
 BD86  2D 77 6F 72 64 6C 69 73 74 08 00 78 BD 6A A7 80  |-wordlist..x.j..|
 BD96  A7 77 6F 72 64 6C 69 73 74 0B 00 8F BD 71 8B 79  |.wordlist....q.y|
 BDA6  8B 64 65 66 69 6E 69 74 69 6F 6E 73 13 10 9F BD  |.definitions....|
 BDB6  37 84 61 85 62 6C 6F 63 6B 2D 72 61 6D 64 72 69  |7.a.block-ramdri|
 BDC6  76 65 2D 69 6E 69 74 04 10 B2 BD D2 93 E0 93 6C  |ve-init........l|
 BDD6  69 73 74 04 10 CD BD FA A1 40 A2 74 68 72 75 04  |ist......@.thru.|
 BDE6  10 D9 BD 10 94 55 94 6C 6F 61 64 05 00 E5 BD F0  |.....U.load.....|
 BDF6  90 F9 90 66 6C 75 73 68 0D 00 F1 BD 7B 8E 81 8E  |...flush....{...|
 BE06  65 6D 70 74 79 2D 62 75 66 66 65 72 73 06 00 FE  |empty-buffers...|
 BE16  BD F8 85 28 86 62 75 66 66 65 72 06 00 13 BE CD  |...(.buffer.....|
 BE26  A6 D5 A6 75 70 64 61 74 65 05 00 21 BE E4 83 36  |...update..!...6|
 BE36  84 62 6C 6F 63 6B 0C 00 2F BE C5 9E DF 9E 73 61  |.block../.....sa|
 BE46  76 65 2D 62 75 66 66 65 72 73 11 28 3C BE 70 85  |ve-buffers.(<.p.|
 BE56  7F 85 62 6C 6F 63 6B 2D 72 65 61 64 2D 76 65 63  |..block-read-vec|
 BE66  74 6F 72 0A 28 50 BE 62 85 70 85 62 6C 6F 63 6B  |tor.(P.b.p.block|
 BE76  2D 72 65 61 64 12 08 69 BE 93 85 A2 85 62 6C 6F  |-read..i.....blo|
 BE86  63 6B 2D 77 72 69 74 65 2D 76 65 63 74 6F 72 0B  |ck-write-vector.|
 BE96  08 7B BE 85 85 93 85 62 6C 6F 63 6B 2D 77 72 69  |.{.....block-wri|
 BEA6  74 65 03 00 95 BE C6 83 D5 83 62 6C 6B 03 00 A8  |te........blk...|
 BEB6  BE E0 9E EF 9E 73 63 72 09 00 B3 BE D6 83 E3 83  |.....scr........|
 BEC6  62 6C 6B 62 75 66 66 65 72 0C 00 BE BE E8 85 F7  |blkbuffer.......|
 BED6  85 62 75 66 66 62 6C 6F 63 6B 6E 75 6D 0A 00 CF  |.buffblocknum...|
 BEE6  BE 30 86 3F 86 62 75 66 66 73 74 61 74 75 73 07  |.0.?.buffstatus.|
 BEF6  00 E3 BE 29 86 2F 86 62 75 66 66 65 72 3A 08 00  |...)./.buffer:..|
 BF06  F5 BE D6 A6 E0 A6 75 73 65 72 61 64 64 72 09 04  |......useraddr..|
 BF16  04 BF 90 82 A8 82 61 63 74 69 6F 6E 2D 6F 66 02  |......action-of.|
 BF26  04 14 BF 4E 93 66 93 69 73 06 00 25 BF 6A 8B 70  |...N.f.is..%.j.p|
 BF36  8B 64 65 66 65 72 21 06 00 2F BF 63 8B 69 8B 64  |.defer!../.c.i.d|
 BF46  65 66 65 72 40 07 0D 3D BF 82 8E 96 8E 65 6E 64  |efer@..=.....end|
 BF56  63 61 73 65 05 0D 4B BF 59 8E 6E 8E 65 6E 64 6F  |case..K.Y.n.endo|
 BF66  66 02 0D 5A BF E9 97 01 98 6F 66 04 0D 67 BF 14  |f..Z.....of..g..|
 BF76  A8 1A A8 63 61 73 65 05 0D 71 BF FA A6 09 A7 77  |...case..q.....w|
 BF86  68 69 6C 65 05 0D 7D BF B6 A6 BC A6 75 6E 74 69  |hile..}.....unti|
 BF96  6C 06 0D 8A BF E9 9A F5 9A 72 65 70 65 61 74 04  |l........repeat.|
 BFA6  0D 97 BF 59 8E 6E 8E 65 6C 73 65 04 0D A5 BF F0  |...Y.n.else.....|
 BFB6  A1 F9 A1 74 68 65 6E 02 0D B1 BF A3 92 AF 92 69  |...then........i|
 BFC6  66 02 04 BD BF E4 8C F2 8C 2E 28 01 04 C7 BF 8E  |f.........(.....|
 BFD6  98 9D 98 28 04 10 D1 BF 22 A7 69 A7 77 6F 72 64  |...(....".i.word|
 BFE6  04 10 DA BF F8 8F 41 90 66 69 6E 64 0C 10 E6 BF  |......A.find....|
 BFF6  97 8E 15 8F 65 6E 76 69 72 6F 6E 6D 65 6E 74 3F  |....environment?|
 C006  06 18 F2 BF F0 9E 90 9F 73 65 61 72 63 68 07 10  |........search..|
 C016  06 C0 2E 88 94 88 63 6F 6D 70 61 72 65 06 10 14  |......compare...|
 C026  C0 C0 8B C8 8B 64 69 73 61 73 6D 02 00 23 C0 2E  |.....disasm..#..|
 C036  8D 71 8D 2E 73 04 10 31 C0 C8 8D 30 8E 64 75 6D  |.q..s..1...0.dum|
 C046  70 04 00 3B C0 B7 83 BC 83 62 65 6C 6C 05 00 47  |p..;.....bell..G|
 C056  C0 CC 82 CC 82 61 6C 69 67 6E 07 00 53 C0 CC 82  |.....align..S...|
 C066  CC 82 61 6C 69 67 6E 65 64 08 10 60 C0 DD A7 FF  |..aligned..`....|
 C076  A7 77 6F 72 64 73 69 7A 65 05 00 6F C0 81 A7 DC  |.wordsize..o....|
 C086  A7 77 6F 72 64 73 06 04 7F C0 08 95 45 95 6D 61  |.words......E.ma|
 C096  72 6B 65 72 05 10 8C C0 7F 83 9E 83 61 74 2D 78  |rker........at-x|
 C0A6  79 04 00 9A C0 70 98 8D 98 70 61 67 65 02 00 A7  |y....p...page...|
 C0B6  C0 11 8A 16 8A 63 72 05 00 B3 C0 BC 92 C6 92 69  |.....cr........i|
 C0C6  6E 70 75 74 06 00 BD C0 45 98 4F 98 6F 75 74 70  |nput....E.O.outp|
 C0D6  75 74 04 10 CA C0 18 A0 2E A0 73 69 67 6E 04 10  |ut........sign..|
 C0E6  D8 C0 75 92 88 92 68 6F 6C 64 02 10 E4 C0 B2 97  |..u...hold......|
 C0F6  D5 97 23 3E 02 10 F0 C0 D6 97 E8 97 23 73 01 10  |..#>........#s..|
 C106  FA C0 7B 97 B1 97 23 02 00 04 C1 AD 93 BA 93 3C  |..{...#........<|
 C116  23 03 00 0D C1 E6 A2 F0 A2 3E 69 6E 06 10 17 C1  |#........>in....|
 C126  0A A7 21 A7 77 69 74 68 69 6E 08 10 22 C1 1D 92  |..!.within.."...|
 C136  74 92 68 65 78 73 74 6F 72 65 06 10 30 C1 98 86  |t.hexstore..0...|
 C146  39 87 63 6C 65 61 76 65 03 00 40 C1 60 98 6F 98  |9.cleave..@.`.o.|
 C156  70 61 64 05 10 4E C1 39 87 75 87 63 6D 6F 76 65  |pad..N.9.u.cmove|
 C166  06 10 59 C1 76 87 B2 87 63 6D 6F 76 65 3E 04 18  |..Y.v...cmove>..|
 C176  66 C1 12 96 30 96 6D 6F 76 65 01 04 74 C1 9F 83  |f...0.move..t...|
 C186  A7 83 5C 02 10 80 C1 9C A1 A4 A1 2A 2F 05 10 89  |..\........*/...|
 C196  C1 A5 A1 B6 A1 2A 2F 6D 6F 64 03 10 93 C1 07 96  |.....*/mod......|
 C1A6  11 96 6D 6F 64 04 10 A0 C1 34 A0 4B A0 2F 6D 6F  |..mod....4.K./mo|
 C1B6  64 01 10 AB C1 2F A0 4B A0 2F 06 10 B7 C1 FA 90  |d..../.K./......|
 C1C6  32 91 66 6D 2F 6D 6F 64 06 10 C0 C1 0C A1 36 A1  |2.fm/mod......6.|
 C1D6  73 6D 2F 72 65 6D 06 10 CE C1 23 A6 66 A6 75 6D  |sm/rem....#.f.um|
 C1E6  2F 6D 6F 64 01 10 DC C1 91 A1 9B A1 2A 03 10 EA  |/mod........*...|
 C1F6  C1 67 A6 AE A6 75 6D 2A 02 10 F3 C1 EB 94 07 95  |.g...um*........|
 C206  6D 2A 05 10 FE C1 FB 89 10 8A 63 6F 75 6E 74 07  |m*........count.|
 C216  00 08 C2 29 8B 2F 8B 64 65 63 69 6D 61 6C 03 00  |...)./.decimal..|
 C226  15 C2 16 92 1C 92 68 65 78 07 10 24 C2 F1 A2 92  |......hex..$....|
 C236  A3 3E 6E 75 6D 62 65 72 06 10 2F C2 E6 96 7A 97  |.>number../...z.|
 C246  6E 75 6D 62 65 72 06 10 3E C2 89 8B BF 8B 64 69  |number..>.....di|
 C256  67 69 74 3F 04 00 4C C2 A8 83 B2 83 62 61 73 65  |git?..L.....base|
 C266  08 10 5A C2 40 91 BF 91 65 76 61 6C 75 61 74 65  |..Z.@...evaluate|
 C276  05 00 66 C2 B7 A1 C1 A1 73 74 61 74 65 05 17 76  |..f.....state..v|
 C286  C2 A9 82 CB 82 61 67 61 69 6E 05 07 83 C2 B3 83  |.....again......|
 C296  B6 83 62 65 67 69 6E 04 00 90 C2 83 80 C5 80 71  |..begin........q|
 C2A6  75 69 74 07 0D 9D C2 6A 9A A6 9A 72 65 63 75 72  |uit....j...recur|
 C2B6  73 65 05 03 A9 C2 A3 93 A8 93 6C 65 61 76 65 06  |se........leave.|
 C2C6  03 B8 C2 AF A6 B5 A6 75 6E 6C 6F 6F 70 04 03 C5  |.......unloop...|
 C2D6  C2 DB 8F DC 8F 65 78 69 74 05 05 D3 C2 5D 94 C3  |.....exit....]..|
 C2E6  94 2B 6C 6F 6F 70 04 05 DF C2 56 94 C3 94 6C 6F  |.+loop....V...lo|
 C2F6  6F 70 01 03 EC C2 67 93 80 93 6A 01 03 F8 C2 89  |op....g...j.....|
 C306  92 A2 92 69 03 0D 01 C3 E6 8B 46 8C 3F 64 6F 02  |...i......F.?do.|
 C316  0D 0A C3 EC 8B 46 8C 64 6F 06 0D 15 C3 19 81 23  |.....F.do......#|
 C326  81 61 62 6F 72 74 22 05 00 1F C3 81 80 C5 80 61  |.abort"........a|
 C336  62 6F 72 74 08 00 2D C3 18 A6 22 A6 75 66 2D 73  |bort..-...".uf-s|
 C346  74 72 69 70 08 00 3A C3 6C 96 76 96 6E 63 2D 6C  |trip..:.l.v.nc-l|
 C356  69 6D 69 74 0C 00 4A C3 38 83 43 83 61 6C 6C 6F  |imit..J.8.C.allo|
 C366  77 2D 6E 61 74 69 76 65 0D 00 5A C3 54 83 61 83  |w-native..Z.T.a.|
 C376  61 6C 77 61 79 73 2D 6E 61 74 69 76 65 0C 00 6E  |always-native..n|
 C386  C3 8A 96 97 96 6E 65 76 65 72 2D 6E 61 74 69 76  |.....never-nativ|
 C396  65 0C 00 83 C3 AF 89 BA 89 63 6F 6D 70 69 6C 65  |e........compile|
 C3A6  2D 6F 6E 6C 79 09 00 97 C3 B0 92 BB 92 69 6D 6D  |-only........imm|
 C3B6  65 64 69 61 74 65 08 05 AB C3 DB 99 19 9A 70 6F  |ediate........po|
 C3C6  73 74 70 6F 6E 65 03 04 BC C3 3A 9B 43 9B 73 5C  |stpone....:.C.s\|
 C3D6  22 02 0C CC C3 54 9D B0 9E 73 22 02 05 D7 C3 F3  |"....T...s".....|
 C3E6  8C FD 8C 2E 22 08 15 E1 C3 6E A0 DF A0 73 6C 69  |...."....n...sli|
 C3F6  74 65 72 61 6C 07 15 EB C3 E1 93 F0 93 6C 69 74  |teral........lit|
 C406  65 72 61 6C 06 0D FB C3 CC 85 D3 85 62 72 61 6E  |eral........bran|
 C416  63 68 07 0D 0A C4 1B A8 22 A8 30 62 72 61 6E 63  |ch......".0branc|
 C426  68 01 04 18 C4 F6 9A FC 9A 5D 01 05 27 C4 A8 93  |h........]..'...|
 C436  AC 93 5B 08 18 30 C4 95 88 AE 89 63 6F 6D 70 69  |..[..0.....compi|
 C446  6C 65 2C 07 00 39 C4 F4 87 11 88 3A 6E 6F 6E 61  |le,..9.....:nona|
 C456  6D 65 01 05 49 C4 91 9F 17 A0 3B 01 00 58 C4 B3  |me..I.....;..X..|
 C466  87 F3 87 3A 09 00 61 C4 4C A1 56 A1 73 6F 75 72  |...:..a.L.V.sour|
 C476  63 65 2D 69 64 06 00 6A C4 37 A1 4B A1 73 6F 75  |ce-id..j.7.K.sou|
 C486  72 63 65 05 10 7B C4 F9 98 92 99 70 61 72 73 65  |rce..{.....parse|
 C496  0A 08 89 C4 9E 98 92 99 70 61 72 73 65 2D 6E 61  |........parse-na|
 C4A6  6D 65 08 00 96 C4 8E 93 9B 93 6C 61 74 65 73 74  |me........latest|
 C4B6  6E 74 08 00 A8 C4 9C 93 A2 93 6C 61 74 65 73 74  |nt........latest|
 C4C6  78 74 05 00 B8 C4 30 8B 62 8B 64 65 66 65 72 05  |xt....0.b.defer.|
 C4D6  10 C8 C4 BF A2 E5 A2 3E 62 6F 64 79 0B 10 D5 C4  |.......>body....|
 C4E6  50 96 6B 96 6E 61 6D 65 3E 73 74 72 69 6E 67 08  |P.k.name>string.|
 C4F6  10 E2 C4 C7 92 3B 93 69 6E 74 3E 6E 61 6D 65 08  |.....;.int>name.|
 C506  10 F5 C4 31 96 4F 96 6E 61 6D 65 3E 69 6E 74 03  |...1.O.name>int.|
 C516  05 05 C5 C5 85 CB 85 5B 27 5D 01 00 15 C5 41 A2  |.......[']....A.|
 C526  60 A2 27 09 10 20 C5 42 90 EF 90 66 69 6E 64 2D  |`.'.. .B...find-|
 C536  6E 61 6D 65 04 10 29 C5 80 8F C4 8F 66 69 6C 6C  |name..).....fill|
 C546  05 00 3A C5 70 8F C4 8F 62 6C 61 6E 6B 05 00 46  |..:.p...blank..F|
 C556  C5 7A 8F C4 8F 65 72 61 73 65 02 10 53 C5 DD 8A  |.z...erase..S...|
 C566  FF 8A 64 2B 02 10 60 C5 BA 8A DC 8A 64 2D 03 10  |..d+..`.....d-..|
 C576  6A C5 00 8B 07 8B 64 3E 73 03 10 74 C5 B1 9E C4  |j.....d>s..t....|
 C586  9E 73 3E 64 02 0C 7F C5 61 A2 BE A2 74 6F 05 10  |.s>d....a...to..|
 C596  8A C5 BB 89 FA 89 76 61 6C 75 65 08 10 94 C5 BB  |......value.....|
 C5A6  89 FA 89 63 6F 6E 73 74 61 6E 74 08 00 A1 C5 E1  |...constant.....|
 C5B6  A6 F9 A6 76 61 72 69 61 62 6C 65 05 05 B1 C5 7F  |...variable.....|
 C5C6  8C 8D 8C 64 6F 65 73 3E 06 00 C1 C5 17 8A B9 8A  |...does>........|
 C5D6  63 72 65 61 74 65 05 10 CE C5 CD 82 37 83 61 6C  |create......7.al|
 C5E6  6C 6F 74 03 00 DC C5 81 93 8A 93 6B 65 79 05 00  |lot........key..|
 C5F6  E9 C5 7A 8B 88 8B 64 65 70 74 68 06 00 F4 C5 BD  |..z...depth.....|
 C606  A6 CC A6 75 6E 75 73 65 64 06 18 01 C6 50 81 8F  |...unused....P..|
 C616  82 61 63 63 65 70 74 06 00 0F C6 A7 9A E8 9A 72  |.accept........r|
 C626  65 66 69 6C 6C 07 10 1D C6 4C A0 6D A0 2F 73 74  |efill....L.m./st|
 C636  72 69 6E 67 09 10 2B C6 C8 95 06 96 2D 74 72 61  |ring..+.....-tra|
 C646  69 6C 69 6E 67 02 00 3A C6 BD 83 C5 83 62 6C 06  |iling..:.....bl.|
 C656  10 4B C6 5D A1 90 A1 73 70 61 63 65 73 06 10 55  |.K.]...spaces..U|
 C666  C6 A3 85 BD 85 62 6F 75 6E 64 73 02 10 63 C6 42  |.....bounds..c.B|
 C676  86 4E 86 63 2C 07 10 71 C6 C9 8B E5 8B 64 6E 65  |.N.c,..q.....dne|
 C686  67 61 74 65 06 10 7B C6 77 96 89 96 6E 65 67 61  |gate..{.w...nega|
 C696  74 65 06 10 8A C6 3C 93 4D 93 69 6E 76 65 72 74  |te....<.M.invert|
 C6A6  03 11 98 C6 EC A4 0D A5 32 3E 72 03 01 A6 C6 6A  |........2>r....j|
 C6B6  A4 86 A4 32 72 3E 03 09 B1 C6 4C A4 69 A4 32 72  |...2r>....L.i.2r|
 C6C6  40 08 14 BC C6 35 A5 43 A5 32 6C 69 74 65 72 61  |@....5.C.2litera|
 C6D6  6C 09 10 C7 C6 0E A5 34 A5 32 63 6F 6E 73 74 61  |l......4.2consta|
 C6E6  6E 74 09 00 D7 C6 44 A5 52 A5 32 76 61 72 69 61  |nt....D.R.2varia|
 C6F6  62 6C 65 02 10 E8 C6 0E A4 31 A4 32 40 02 10 F9  |ble......1.2@...|
 C706  C6 9E A4 C5 A4 32 21 05 10 03 C7 32 A4 4B A4 32  |.....2!....2.K.2|
 C716  6F 76 65 72 05 10 0D C7 C6 A4 EB A4 32 73 77 61  |over........2swa|
 C726  70 05 10 1A C7 EA A3 F3 A3 32 64 72 6F 70 03 10  |p........2drop..|
 C736  27 C7 77 95 94 95 6D 61 78 03 10 34 C7 95 95 B2  |'.w...max..4....|
 C746  95 6D 69 6E 02 10 3F C7 86 A8 97 A8 30 3C 02 10  |.min..?.....0<..|
 C756  4A C7 70 A8 85 A8 30 3E 03 10 54 C7 98 A8 AB A8  |J.p...0>..T.....|
 C766  30 3C 3E 02 10 5E C7 5A A8 6F A8 30 3D 01 10 69  |0<>..^.Z.o.0=..i|
 C776  C7 F4 91 0A 92 3E 02 10 73 C7 B2 A5 C9 A5 75 3E  |.....>..s.....u>|
 C786  02 10 7C C7 CA A5 E1 A5 75 3C 01 10 86 C7 BB 93  |..|.....u<......|
 C796  D1 93 3C 02 10 90 C7 A8 96 C7 96 3C 3E 01 10 99  |..<........<>...|
 C7A6  C7 52 8F 6F 8F 3D 02 10 A3 C7 87 A4 93 A4 32 2F  |.R.o.=........2/|
 C7B6  02 10 AC C7 94 A4 9D A4 32 2A 02 10 B6 C7 19 98  |........2*......|
 C7C6  24 98 31 2B 02 10 C0 C7 0B 98 18 98 31 2D 04 00  |$.1+........1-..|
 C7D6  CA C7 0B 92 15 92 68 65 72 65 05 10 D4 C7 69 86  |......here....i.|
 C7E6  7A 86 63 65 6C 6C 2B 05 00 E0 C7 94 A4 9D A4 63  |z.cell+........c|
 C7F6  65 6C 6C 73 05 12 ED C7 92 86 97 86 63 68 61 72  |ells........char|
 C806  73 05 00 FA C7 19 98 24 98 63 68 61 72 2B 06 05  |s......$.char+..|
 C816  07 C8 BE 85 C4 85 5B 63 68 61 72 5D 04 00 14 C8  |......[char]....|
 C826  7B 86 91 86 63 68 61 72 04 00 22 C8 93 99 A3 99  |{...char..".....|
 C836  70 69 63 6B 06 10 2E C8 D5 94 EA 94 6C 73 68 69  |pick........lshi|
 C846  66 74 06 10 3A C8 24 9B 39 9B 72 73 68 69 66 74  |ft..:.$.9.rshift|
 C856  03 10 48 C8 00 A8 13 A8 78 6F 72 02 10 56 C8 31  |..H.....xor..V.1|
 C866  98 44 98 6F 72 03 10 61 C8 62 83 75 83 61 6E 64  |.D.or..a.b.u.and|
 C876  04 10 6B C8 08 8B 28 8B 64 61 62 73 03 10 76 C8  |..k...(.dabs..v.|
 C886  39 81 4F 81 61 62 73 01 10 82 C8 B3 95 C7 95 2D  |9.O.abs........-|
 C896  01 10 8D C8 A4 99 B8 99 2B 04 10 96 C8 2E 9A 43  |........+......C|
 C8A6  9A 3F 64 75 70 04 10 9F C8 F4 A3 0D A4 32 64 75  |.?dup........2du|
 C8B6  70 01 00 AB C8 E1 A3 E9 A3 32 01 00 B7 C8 02 98  |p........2......|
 C8C6  0A 98 31 01 00 C0 C8 14 A8 1A A8 30 05 00 C9 C8  |..1........0....|
 C8D6  57 A1 5C A1 73 70 61 63 65 04 00 D2 C8 BC A3 C4  |W.\.space.......|
 C8E6  A3 74 72 75 65 05 00 DF C8 DC 8F E2 8F 66 61 6C  |.true........fal|
 C8F6  73 65 01 00 EB C8 27 9A 2D 9A 3F 04 10 F8 C8 F7  |se....'.-.?.....|
 C906  A5 17 A6 75 64 2E 72 03 10 01 C9 E2 A5 F6 A5 75  |...ud.r........u|
 C916  64 2E 03 10 0D C9 93 8D BF 8D 64 2E 72 02 10 18  |d.........d.r...|
 C926  C9 72 8D 92 8D 64 2E 02 10 23 C9 FE 8C 2D 8D 2E  |.r...d...#...-..|
 C936  72 03 10 2D C9 8E A5 B1 A5 75 2E 72 02 10 37 C9  |r..-.....u.r..7.|
 C946  80 A5 8D A5 75 2E 01 10 42 C9 C0 8C E3 8C 2E 04  |....u...B.......|
 C956  10 4C C9 53 A5 7F A5 74 79 70 65 04 18 55 C9 6F  |.L.S...type..U.o|
 C966  8E 7B 8E 65 6D 69 74 07 10 61 C9 C5 8F CD 8F 65  |.{.emit..a.....e|
 C976  78 65 63 75 74 65 02 10 6D C9 B9 99 DA 99 2B 21  |xecute..m.....+!|
 C986  02 10 7C C9 5B 86 68 86 63 21 02 10 86 C9 4F 86  |..|.[.h.c!....O.|
 C996  5A 86 63 40 01 10 90 C9 12 88 2D 88 2C 04 10 9A  |Z.c@......-.,...|
 C9A6  C9 C5 A3 E0 A3 74 75 63 6B 04 10 A3 C9 C8 96 E5  |.....tuck.......|
 C9B6  96 2D 72 6F 74 03 10 AF C9 06 9B 23 9B 72 6F 74  |.-rot......#.rot|
 C9C6  03 10 BB C9 98 96 A7 96 6E 69 70 02 01 C6 C9 44  |........nip....D|
 C9D6  9A 58 9A 72 40 02 01 D1 C9 59 9A 69 9A 72 3E 02  |.X.r@....Y.i.r>.|
 C9E6  11 DB C9 A6 A3 BB A3 3E 72 04 10 E5 C9 50 98 5F  |.......>r....P._|
 C9F6  98 6F 76 65 72 01 10 EF C9 E3 8F F7 8F 40 01 10  |.over........@..|
 CA06  FB C9 C2 A1 D9 A1 21 04 10 04 CA DA A1 EF A1 73  |......!........s|
 CA16  77 61 70 03 10 0D CA 45 8E 54 8E 64 75 70 04 10  |wap....E.T.dup..|
 CA26  19 CA C0 8D C7 8D 64 72 6F 70 05 00 00 00 81 A7  |......drop......|
 CA36  DC A7 77 6F 72 64 73 0E 00 30 CA 14 A8 1A A8 66  |..words..0.....f|
 CA46  6F 72 74 68 2D 77 6F 72 64 6C 69 73 74 05 00 3D  |orth-wordlist..=|
 CA56  CA 33 91 39 91 66 6F 72 74 68 09 00 53 CA 20 9D  |.3.9.forth..S. .|
 CA66  53 9D 73 65 74 2D 6F 72 64 65 72 0C 00 00 00 B9  |S.set-order.....|
 CA76  A8 D4 A8 65 6E 74 65 72 2D 73 63 72 65 65 6E 0C  |...enter-screen.|
 CA86  00 71 CA D5 A8 E6 A8 65 72 61 73 65 2D 73 63 72  |.q.....erase-scr|
 CA96  65 65 6E 02 00 85 CA E7 A8 F8 A8 65 6C 01 00 99  |een........el...|
 CAA6  CA F9 A8 74 A9 6C 04 10 A3 CA 75 A9 8F A9 6C 69  |...t.l....u...li|
 CAB6  6E 65 01 00 AC CA 90 A9 C0 A9 6F 05 04 00 00 C1  |ne........o.....|
 CAC6  A9 C6 A9 61 64 63 2E 23 05 04 C1 CA C6 A9 CB A9  |...adc.#........|
 CAD6  61 64 63 2E 78 05 04 CE CA CB A9 D0 A9 61 64 63  |adc.x........adc|
 CAE6  2E 79 05 04 DB CA D0 A9 D5 A9 61 64 63 2E 7A 06  |.y........adc.z.|
 CAF6  04 E8 CA D5 A9 DA A9 61 64 63 2E 7A 69 07 04 F5  |.......adc.zi...|
 CB06  CA DA A9 DF A9 61 64 63 2E 7A 69 79 06 04 03 CB  |.....adc.ziy....|
 CB16  DF A9 E4 A9 61 64 63 2E 7A 78 07 04 12 CB E4 A9  |....adc.zx......|
 CB26  E9 A9 61 64 63 2E 7A 78 69 03 04 20 CB E9 A9 EE  |..adc.zxi.. ....|
 CB36  A9 61 6E 64 05 04 2F CB EE A9 F3 A9 61 6E 64 2E  |.and../.....and.|
 CB46  23 05 04 3A CB F3 A9 F8 A9 61 6E 64 2E 78 05 04  |#..:.....and.x..|
 CB56  47 CB F8 A9 FD A9 61 6E 64 2E 79 05 04 54 CB FD  |G.....and.y..T..|
 CB66  A9 02 AA 61 6E 64 2E 7A 06 04 61 CB 02 AA 07 AA  |...and.z..a.....|
 CB76  61 6E 64 2E 7A 69 07 04 6E CB 07 AA 0C AA 61 6E  |and.zi..n.....an|
 CB86  64 2E 7A 69 79 06 04 7C CB 0C AA 11 AA 61 6E 64  |d.ziy..|.....and|
 CB96  2E 7A 78 07 04 8B CB 11 AA 16 AA 61 6E 64 2E 7A  |.zx........and.z|
 CBA6  78 69 03 04 99 CB 16 AA 1B AA 61 73 6C 05 04 A8  |xi........asl...|
 CBB6  CB 1B AA 20 AA 61 73 6C 2E 61 05 04 B3 CB 20 AA  |... .asl.a.... .|
 CBC6  25 AA 61 73 6C 2E 78 05 04 C0 CB 25 AA 2A AA 61  |%.asl.x....%.*.a|
 CBD6  73 6C 2E 7A 06 04 CD CB 2A AA 2F AA 61 73 6C 2E  |sl.z....*./.asl.|
 CBE6  7A 78 03 04 DA CB 2F AA 34 AA 62 63 63 03 04 E8  |zx..../.4.bcc...|
 CBF6  CB 34 AA 3B AA 62 63 73 03 04 F3 CB 3B AA 40 AA  |.4.;.bcs....;.@.|
 CC06  62 65 71 03 04 FE CB 40 AA 45 AA 62 69 74 05 04  |beq....@.E.bit..|
 CC16  09 CC 45 AA 4A AA 62 69 74 2E 23 05 04 14 CC 4A  |..E.J.bit.#....J|
 CC26  AA 4F AA 62 69 74 2E 78 05 04 21 CC 4F AA 54 AA  |.O.bit.x..!.O.T.|
 CC36  62 69 74 2E 7A 06 04 2E CC 54 AA 59 AA 62 69 74  |bit.z....T.Y.bit|
 CC46  2E 7A 78 03 04 3B CC 59 AA 5E AA 62 6D 69 03 04  |.zx..;.Y.^.bmi..|
 CC56  49 CC 5E AA 63 AA 62 6E 65 03 04 54 CC 63 AA 68  |I.^.c.bne..T.c.h|
 CC66  AA 62 70 6C 03 04 5F CC 68 AA 6D AA 62 72 61 03  |.bpl.._.h.m.bra.|
 CC76  04 6A CC 6D AA 72 AA 62 72 6B 03 04 75 CC 72 AA  |.j.m.r.brk..u.r.|
 CC86  77 AA 62 76 63 03 04 80 CC 77 AA 7C AA 62 76 73  |w.bvc....w.|.bvs|
 CC96  03 04 8B CC 7C AA 81 AA 63 6C 63 03 04 96 CC 81  |....|...clc.....|
 CCA6  AA 86 AA 63 6C 64 03 04 A1 CC 86 AA 8B AA 63 6C  |...cld........cl|
 CCB6  69 03 04 AC CC 8B AA 90 AA 63 6C 76 03 04 B7 CC  |i........clv....|
 CCC6  90 AA 95 AA 63 6D 70 05 04 C2 CC 95 AA 9A AA 63  |....cmp........c|
 CCD6  6D 70 2E 23 05 04 CD CC 9A AA 9F AA 63 6D 70 2E  |mp.#........cmp.|
 CCE6  78 05 04 DA CC 9F AA A4 AA 63 6D 70 2E 79 05 04  |x........cmp.y..|
 CCF6  E7 CC A4 AA A9 AA 63 6D 70 2E 7A 06 04 F4 CC A9  |......cmp.z.....|
 CD06  AA AE AA 63 6D 70 2E 7A 69 07 04 01 CD AE AA B3  |...cmp.zi.......|
 CD16  AA 63 6D 70 2E 7A 69 79 06 04 0F CD B3 AA B8 AA  |.cmp.ziy........|
 CD26  63 6D 70 2E 7A 78 07 04 1E CD B8 AA BD AA 63 6D  |cmp.zx........cm|
 CD36  70 2E 7A 78 69 03 04 2C CD BD AA C2 AA 63 70 78  |p.zxi..,.....cpx|
 CD46  05 04 3B CD C2 AA C7 AA 63 70 78 2E 23 05 04 46  |..;.....cpx.#..F|
 CD56  CD C7 AA CC AA 63 70 78 2E 7A 03 04 53 CD CC AA  |.....cpx.z..S...|
 CD66  D3 AA 63 70 79 05 04 60 CD D3 AA D8 AA 63 70 79  |..cpy..`.....cpy|
 CD76  2E 23 05 04 6B CD D8 AA DD AA 63 70 79 2E 7A 03  |.#..k.....cpy.z.|
 CD86  04 78 CD DD AA E2 AA 64 65 63 05 04 85 CD E2 AA  |.x.....dec......|
 CD96  E7 AA 64 65 63 2E 61 05 04 90 CD E7 AA EC AA 64  |..dec.a........d|
 CDA6  65 63 2E 78 05 04 9D CD EC AA F1 AA 64 65 63 2E  |ec.x........dec.|
 CDB6  7A 06 04 AA CD F1 AA F6 AA 64 65 63 2E 7A 78 03  |z........dec.zx.|
 CDC6  04 B7 CD F6 AA FB AA 64 65 78 03 04 C5 CD FB AA  |.......dex......|
 CDD6  00 AB 64 65 79 03 04 D0 CD 00 AB 05 AB 65 6F 72  |..dey........eor|
 CDE6  05 04 DB CD 05 AB 0A AB 65 6F 72 2E 23 05 04 E6  |........eor.#...|
 CDF6  CD 0A AB 0F AB 65 6F 72 2E 78 05 04 F3 CD 0F AB  |.....eor.x......|
 CE06  14 AB 65 6F 72 2E 79 05 04 00 CE 14 AB 19 AB 65  |..eor.y........e|
 CE16  6F 72 2E 7A 06 04 0D CE 19 AB 1E AB 65 6F 72 2E  |or.z........eor.|
 CE26  7A 69 07 04 1A CE 1E AB 23 AB 65 6F 72 2E 7A 69  |zi......#.eor.zi|
 CE36  79 06 04 28 CE 23 AB 28 AB 65 6F 72 2E 7A 78 07  |y..(.#.(.eor.zx.|
 CE46  04 37 CE 28 AB 2D AB 65 6F 72 2E 7A 78 69 03 04  |.7.(.-.eor.zxi..|
 CE56  45 CE 2D AB 32 AB 69 6E 63 05 04 54 CE 32 AB 37  |E.-.2.inc..T.2.7|
 CE66  AB 69 6E 63 2E 61 05 04 5F CE 37 AB 3C AB 69 6E  |.inc.a.._.7.<.in|
 CE76  63 2E 78 05 04 6C CE 3C AB 41 AB 69 6E 63 2E 7A  |c.x..l.<.A.inc.z|
 CE86  06 04 79 CE 41 AB 46 AB 69 6E 63 2E 7A 78 03 04  |..y.A.F.inc.zx..|
 CE96  86 CE 46 AB 4B AB 69 6E 78 03 04 94 CE 4B AB 50  |..F.K.inx....K.P|
 CEA6  AB 69 6E 79 03 04 9F CE 50 AB 55 AB 6A 6D 70 05  |.iny....P.U.jmp.|
 CEB6  04 AA CE 55 AB 5A AB 6A 6D 70 2E 69 06 04 B5 CE  |...U.Z.jmp.i....|
 CEC6  5A AB 5F AB 6A 6D 70 2E 78 69 03 04 C2 CE 5F AB  |Z._.jmp.xi...._.|
 CED6  64 AB 6A 73 72 03 04 D0 CE 64 AB 69 AB 6C 64 61  |d.jsr....d.i.lda|
 CEE6  05 04 DB CE 69 AB 6E AB 6C 64 61 2E 23 05 04 E6  |....i.n.lda.#...|
 CEF6  CE 6E AB 73 AB 6C 64 61 2E 78 05 04 F3 CE 73 AB  |.n.s.lda.x....s.|
 CF06  78 AB 6C 64 61 2E 79 05 04 00 CF 78 AB 7D AB 6C  |x.lda.y....x.}.l|
 CF16  64 61 2E 7A 06 04 0D CF 7D AB 82 AB 6C 64 61 2E  |da.z....}...lda.|
 CF26  7A 69 07 04 1A CF 82 AB 87 AB 6C 64 61 2E 7A 69  |zi........lda.zi|
 CF36  79 06 04 28 CF 87 AB 8C AB 6C 64 61 2E 7A 78 07  |y..(.....lda.zx.|
 CF46  04 37 CF 8C AB 91 AB 6C 64 61 2E 7A 78 69 03 04  |.7.....lda.zxi..|
 CF56  45 CF 91 AB 96 AB 6C 64 78 05 04 54 CF 96 AB 9B  |E.....ldx..T....|
 CF66  AB 6C 64 78 2E 23 05 04 5F CF 9B AB A0 AB 6C 64  |.ldx.#.._.....ld|
 CF76  78 2E 79 05 04 6C CF A0 AB A5 AB 6C 64 78 2E 7A  |x.y..l.....ldx.z|
 CF86  06 04 79 CF A5 AB AA AB 6C 64 78 2E 7A 79 03 04  |..y.....ldx.zy..|
 CF96  86 CF AA AB AF AB 6C 64 79 05 04 94 CF AF AB B4  |......ldy.......|
 CFA6  AB 6C 64 79 2E 23 05 04 9F CF B4 AB B9 AB 6C 64  |.ldy.#........ld|
 CFB6  79 2E 78 05 04 AC CF B9 AB BE AB 6C 64 79 2E 7A  |y.x........ldy.z|
 CFC6  06 04 B9 CF BE AB C3 AB 6C 64 79 2E 7A 78 03 04  |........ldy.zx..|
 CFD6  C6 CF C3 AB C8 AB 6C 73 72 05 04 D4 CF C8 AB CD  |......lsr.......|
 CFE6  AB 6C 73 72 2E 61 05 04 DF CF CD AB D2 AB 6C 73  |.lsr.a........ls|
 CFF6  72 2E 78 05 04 EC CF D2 AB D7 AB 6C 73 72 2E 7A  |r.x........lsr.z|
 D006  06 04 F9 CF D7 AB DC AB 6C 73 72 2E 7A 78 03 04  |........lsr.zx..|
 D016  06 D0 DC AB E1 AB 6E 6F 70 03 04 14 D0 E1 AB E6  |......nop.......|
 D026  AB 6F 72 61 05 04 1F D0 E6 AB EB AB 6F 72 61 2E  |.ora........ora.|
 D036  23 05 04 2A D0 EB AB F0 AB 6F 72 61 2E 78 05 04  |#..*.....ora.x..|
 D046  37 D0 F0 AB F5 AB 6F 72 61 2E 79 05 04 44 D0 F5  |7.....ora.y..D..|
 D056  AB FA AB 6F 72 61 2E 7A 06 04 51 D0 FA AB 01 AC  |...ora.z..Q.....|
 D066  6F 72 61 2E 7A 69 07 04 5E D0 01 AC 06 AC 6F 72  |ora.zi..^.....or|
 D076  61 2E 7A 69 79 06 04 6C D0 06 AC 0B AC 6F 72 61  |a.ziy..l.....ora|
 D086  2E 7A 78 07 04 7B D0 0B AC 10 AC 6F 72 61 2E 7A  |.zx..{.....ora.z|
 D096  78 69 03 04 89 D0 10 AC 15 AC 70 68 61 03 04 98  |xi........pha...|
 D0A6  D0 15 AC 1A AC 70 68 70 03 04 A3 D0 1A AC 1F AC  |.....php........|
 D0B6  70 68 78 03 04 AE D0 1F AC 24 AC 70 68 79 03 04  |phx......$.phy..|
 D0C6  B9 D0 24 AC 29 AC 70 6C 61 03 04 C4 D0 29 AC 2E  |..$.).pla....)..|
 D0D6  AC 70 6C 70 03 04 CF D0 2E AC 33 AC 70 6C 78 03  |.plp......3.plx.|
 D0E6  04 DA D0 33 AC 38 AC 70 6C 79 03 04 E5 D0 38 AC  |...3.8.ply....8.|
 D0F6  3D AC 72 6F 6C 05 04 F0 D0 3D AC 42 AC 72 6F 6C  |=.rol....=.B.rol|
 D106  2E 61 05 04 FB D0 42 AC 47 AC 72 6F 6C 2E 78 05  |.a....B.G.rol.x.|
 D116  04 08 D1 47 AC 4C AC 72 6F 6C 2E 7A 06 04 15 D1  |...G.L.rol.z....|
 D126  4C AC 51 AC 72 6F 6C 2E 7A 78 03 04 22 D1 51 AC  |L.Q.rol.zx..".Q.|
 D136  56 AC 72 6F 72 05 04 30 D1 56 AC 5B AC 72 6F 72  |V.ror..0.V.[.ror|
 D146  2E 61 05 04 3B D1 5B AC 60 AC 72 6F 72 2E 78 05  |.a..;.[.`.ror.x.|
 D156  04 48 D1 60 AC 65 AC 72 6F 72 2E 7A 06 04 55 D1  |.H.`.e.ror.z..U.|
 D166  65 AC 6A AC 72 6F 72 2E 7A 78 03 04 62 D1 6A AC  |e.j.ror.zx..b.j.|
 D176  6F AC 72 74 69 03 04 70 D1 6F AC 74 AC 72 74 73  |o.rti..p.o.t.rts|
 D186  03 04 7B D1 74 AC 79 AC 73 62 63 05 04 86 D1 79  |..{.t.y.sbc....y|
 D196  AC 7E AC 73 62 63 2E 23 05 04 91 D1 7E AC 83 AC  |.~.sbc.#....~...|
 D1A6  73 62 63 2E 78 05 04 9E D1 83 AC 88 AC 73 62 63  |sbc.x........sbc|
 D1B6  2E 79 05 04 AB D1 88 AC 8D AC 73 62 63 2E 7A 06  |.y........sbc.z.|
 D1C6  04 B8 D1 8D AC 92 AC 73 62 63 2E 7A 69 07 04 C5  |.......sbc.zi...|
 D1D6  D1 92 AC 97 AC 73 62 63 2E 7A 69 79 06 04 D3 D1  |.....sbc.ziy....|
 D1E6  97 AC 9C AC 73 62 63 2E 7A 78 07 04 E2 D1 9C AC  |....sbc.zx......|
 D1F6  A0 AC 73 62 63 2E 7A 78 69 03 04 F0 D1 A0 AC A4  |..sbc.zxi.......|
 D206  AC 73 65 63 03 04 FF D1 A4 AC A8 AC 73 65 64 03  |.sec........sed.|
 D216  04 0A D2 A8 AC AC AC 73 65 69 03 04 15 D2 AC AC  |.......sei......|
 D226  B0 AC 73 74 61 05 04 20 D2 B0 AC B4 AC 73 74 61  |..sta.. .....sta|
 D236  2E 78 05 04 2B D2 B4 AC B8 AC 73 74 61 2E 79 05  |.x..+.....sta.y.|
 D246  04 38 D2 B8 AC BC AC 73 74 61 2E 7A 06 04 45 D2  |.8.....sta.z..E.|
 D256  BC AC C0 AC 73 74 61 2E 7A 69 07 04 52 D2 C0 AC  |....sta.zi..R...|
 D266  C4 AC 73 74 61 2E 7A 69 79 06 04 60 D2 C4 AC C8  |..sta.ziy..`....|
 D276  AC 73 74 61 2E 7A 78 07 04 6F D2 C8 AC CC AC 73  |.sta.zx..o.....s|
 D286  74 61 2E 7A 78 69 03 04 7D D2 CC AC D0 AC 73 74  |ta.zxi..}.....st|
 D296  78 05 04 8C D2 D0 AC D4 AC 73 74 78 2E 7A 06 04  |x........stx.z..|
 D2A6  97 D2 D4 AC D8 AC 73 74 78 2E 7A 79 03 04 A4 D2  |......stx.zy....|
 D2B6  D8 AC DC AC 73 74 79 05 04 B2 D2 DC AC E0 AC 73  |....sty........s|
 D2C6  74 79 2E 7A 06 04 BD D2 E0 AC E4 AC 73 74 79 2E  |ty.z........sty.|
 D2D6  7A 78 03 04 CA D2 E4 AC E8 AC 73 74 7A 05 04 D8  |zx........stz...|
 D2E6  D2 E8 AC EC AC 73 74 7A 2E 78 05 04 E3 D2 EC AC  |.....stz.x......|
 D2F6  F0 AC 73 74 7A 2E 7A 06 04 F0 D2 F0 AC F4 AC 73  |..stz.z........s|
 D306  74 7A 2E 7A 78 03 04 FD D2 F4 AC F8 AC 74 61 78  |tz.zx........tax|
 D316  03 04 0B D3 F8 AC FC AC 74 61 79 03 04 16 D3 FC  |........tay.....|
 D326  AC 00 AD 74 72 62 05 04 21 D3 00 AD 04 AD 74 72  |...trb..!.....tr|
 D336  62 2E 7A 03 04 2C D3 04 AD 08 AD 74 73 62 05 04  |b.z..,.....tsb..|
 D346  39 D3 08 AD 0C AD 74 73 62 2E 7A 03 04 44 D3 0C  |9.....tsb.z..D..|
 D356  AD 10 AD 74 73 78 03 04 51 D3 10 AD 14 AD 74 78  |...tsx..Q.....tx|
 D366  61 03 04 5C D3 14 AD 18 AD 74 78 73 03 04 67 D3  |a..\.....txs..g.|
 D376  18 AD 1C AD 74 79 61 06 04 72 D3 5A AD 69 AD 70  |....tya..r.Z.i.p|
 D386  75 73 68 2D 61 97 D3 9B D3 A5 D3 00 00 B0 D3 D4  |ush-a...........|
 D396  D3 20 6F 6B 00 20 63 6F 6D 70 69 6C 65 64 00 72  |. ok. compiled.r|
 D3A6  65 64 65 66 69 6E 65 64 20 00 30 31 32 33 34 35  |edefined .012345|
 D3B6  36 37 38 39 61 62 63 64 65 66 67 68 69 6A 6B 6C  |6789abcdefghijkl|
 D3C6  6D 6E 6F 70 71 72 73 74 75 76 77 78 79 7A 30 31  |mnopqrstuvwxyz01|
 D3D6  32 33 34 35 36 37 38 39 41 42 43 44 45 46 47 48  |23456789ABCDEFGH|
 D3E6  49 4A 4B 4C 4D 4E 4F 50 51 52 53 54 55 56 57 58  |IJKLMNOPQRSTUVWX|
 D3F6  59 5A 12 D4 33 D4 53 D4 74 D4 91 D4 A2 D4 B2 D4  |YZ..3.S.t.......|
 D406  E0 D4 F8 D4 07 D5 17 D5 33 D5 4A D5 41 4C 4C 4F  |........3.J.ALLO|
 D416  54 20 75 73 69 6E 67 20 61 6C 6C 20 61 76 61 69  |T using all avai|
 D426  6C 61 62 6C 65 20 6D 65 6D 6F 72 79 00 49 6C 6C  |lable memory.Ill|
 D436  65 67 61 6C 20 53 4F 55 52 43 45 2D 49 44 20 64  |egal SOURCE-ID d|
 D446  75 72 69 6E 67 20 52 45 46 49 4C 4C 00 49 6E 74  |uring REFILL.Int|
 D456  65 72 70 72 65 74 69 6E 67 20 61 20 63 6F 6D 70  |erpreting a comp|
 D466  69 6C 65 2D 6F 6E 6C 79 20 77 6F 72 64 00 44 45  |ile-only word.DE|
 D476  46 45 52 65 64 20 77 6F 72 64 20 6E 6F 74 20 64  |FERed word not d|
 D486  65 66 69 6E 65 64 20 79 65 74 00 44 69 76 69 73  |efined yet.Divis|
 D496  69 6F 6E 20 62 79 20 7A 65 72 6F 00 50 61 72 73  |ion by zero.Pars|
 D4A6  69 6E 67 20 66 61 69 6C 75 72 65 00 51 55 49 54  |ing failure.QUIT|
 D4B6  20 63 6F 75 6C 64 20 6E 6F 74 20 67 65 74 20 69  | could not get i|
 D4C6  6E 70 75 74 20 28 52 45 46 49 4C 4C 20 72 65 74  |nput (REFILL ret|
 D4D6  75 72 6E 65 64 20 2D 31 29 00 41 6C 72 65 61 64  |urned -1).Alread|
 D4E6  79 20 69 6E 20 63 6F 6D 70 69 6C 65 20 6D 6F 64  |y in compile mod|
 D4F6  65 00 55 6E 64 65 66 69 6E 65 64 20 77 6F 72 64  |e.Undefined word|
 D506  00 53 74 61 63 6B 20 75 6E 64 65 72 66 6C 6F 77  |.Stack underflow|
 D516  00 4D 61 78 20 6D 65 6D 6F 72 79 20 66 72 65 65  |.Max memory free|
 D526  64 20 77 69 74 68 20 41 4C 4C 4F 54 00 4E 6F 20  |d with ALLOT.No |
 D536  77 6F 72 64 6C 69 73 74 73 20 61 76 61 69 6C 61  |wordlists availa|
 D546  62 6C 65 00 50 6C 65 61 73 65 20 61 73 73 69 67  |ble.Please assig|
 D556  6E 20 76 65 63 74 6F 72 73 20 42 4C 4F 43 4B 2D  |n vectors BLOCK-|
 D566  52 45 41 44 2D 56 45 43 54 4F 52 20 61 6E 64 20  |READ-VECTOR and |
 D576  42 4C 4F 43 4B 2D 57 52 49 54 45 2D 56 45 43 54  |BLOCK-WRITE-VECT|
 D586  4F 52 00 0F 2F 43 4F 55 4E 54 45 44 2D 53 54 52  |OR../COUNTED-STR|
 D596  49 4E 47 05 2F 48 4F 4C 44 04 2F 50 41 44 11 41  |ING./HOLD./PAD.A|
 D5A6  44 44 52 45 53 53 2D 55 4E 49 54 2D 42 49 54 53  |DDRESS-UNIT-BITS|
 D5B6  07 46 4C 4F 4F 52 45 44 08 4D 41 58 2D 43 48 41  |.FLOORED.MAX-CHA|
 D5C6  52 05 4D 41 58 2D 4E 05 4D 41 58 2D 55 12 52 45  |R.MAX-N.MAX-U.RE|
 D5D6  54 55 52 4E 2D 53 54 41 43 4B 2D 43 45 4C 4C 53  |TURN-STACK-CELLS|
 D5E6  0B 53 54 41 43 4B 2D 43 45 4C 4C 53 09 57 4F 52  |.STACK-CELLS.WOR|
 D5F6  44 4C 49 53 54 53 05 4D 41 58 2D 44 06 4D 41 58  |DLISTS.MAX-D.MAX|
 D606  2D 55 44                                         |-UD             |
 D609  48        PHA  
 D60A  A9 20     LDA  #$20
 D60C  80 03     BRA  $D611
 D60E  48        PHA  
 D60F  A9 4C     LDA  #$4C
 D611  20 19 D6  JSR  $D619
 D614  68        PLA  
 D615  20 19 D6  JSR  $D619
 D618  98        TYA  
 D619  92 00     STA  ($00)
 D61B  E6 00     INC  $00
 D61D  D0 02     BNE  $D621
 D61F  E6 01     INC  $01
 D621  60        RTS  
 D622  CA        DEX  
 D623  CA        DEX  
 D624  68        PLA  
 D625  85 24     STA  $24
 D627  68        PLA  
 D628  85 25     STA  $25
 D62A  A0 01     LDY  #$01
 D62C  B1 24     LDA  ($24), Y
 D62E  95 00     STA  $00, X
 D630  C8        INY  
 D631  B1 24     LDA  ($24), Y
 D633  95 01     STA  $01, X
 D635  60        RTS  
 D636  68        PLA  
 D637  85 24     STA  $24
 D639  68        PLA  
 D63A  85 25     STA  $25
 D63C  A0 01     LDY  #$01
 D63E  B1 24     LDA  ($24), Y
 D640  85 26     STA  $26
 D642  C8        INY  
 D643  B1 24     LDA  ($24), Y
 D645  85 27     STA  $27
 D647  6C 26 00  JMP  ($0026)
 D64A  A9 03     LDA  #$03
 D64C  4C 52 D7  JMP  $D752
 D64F  7A        PLY  
 D650  68        PLA  
 D651  C8        INY  
 D652  D0 01     BNE  $D655
 D654  1A        INC  
 D655  84 26     STY  $26
 D657  85 27     STA  $27
 D659  CA        DEX  
 D65A  CA        DEX  
 D65B  7A        PLY  
 D65C  68        PLA  
 D65D  C8        INY  
 D65E  18        CLC  
 D65F  D0 01     BNE  $D662
 D661  1A        INC  
 D662  94 00     STY  $00, X
 D664  95 01     STA  $01, X
 D666  6C 26 00  JMP  ($0026)
 D669  7A        PLY  
 D66A  68        PLA  
 D66B  C8        INY  
 D66C  D0 01     BNE  $D66F
 D66E  1A        INC  
 D66F  CA        DEX  
 D670  CA        DEX  
 D671  95 01     STA  $01, X
 D673  98        TYA  
 D674  95 00     STA  $00, X
 D676  60        RTS  
 D677  48        PHA  
 D678  4A        LSR  
 D679  4A        LSR  
 D67A  4A        LSR  
 D67B  4A        LSR  
 D67C  20 80 D6  JSR  $D680
 D67F  68        PLA  
 D680  29 0F     AND  #$0F
 D682  09 30     ORA  #$30
 D684  C9 3A     CMP  #$3A
 D686  90 02     BCC  $D68A
 D688  69 06     ADC  #$06
 D68A  4C 78 8E  JMP  $8E78
 D68D  60        RTS  
 D68E  B5 00     LDA  $00, X
 D690  D5 02     CMP  $02, X
 D692  F0 0A     BEQ  $D69E
 D694  B5 01     LDA  $01, X
 D696  F5 03     SBC  $03, X
 D698  09 01     ORA  #$01
 D69A  70 08     BVS  $D6A4
 D69C  80 08     BRA  $D6A6
 D69E  B5 01     LDA  $01, X
 D6A0  F5 03     SBC  $03, X
 D6A2  50 04     BVC  $D6A8
 D6A4  49 80     EOR  #$80
 D6A6  09 01     ORA  #$01
 D6A8  60        RTS  
 D6A9  20 9E 98  JSR  $989E
 D6AC  B5 00     LDA  $00, X
 D6AE  15 01     ORA  $01, X
 D6B0  F0 70     BEQ  $D722
 D6B2  20 F4 A3  JSR  $A3F4
 D6B5  20 42 90  JSR  $9042
 D6B8  B5 00     LDA  $00, X
 D6BA  15 01     ORA  $01, X
 D6BC  D0 28     BNE  $D6E6
 D6BE  E8        INX  
 D6BF  E8        INX  
 D6C0  20 E6 96  JSR  $96E6
 D6C3  A5 16     LDA  $16
 D6C5  F0 E2     BEQ  $D6A9
 D6C7  A9 20     LDA  #$20
 D6C9  24 20     BIT  $20
 D6CB  F0 0D     BEQ  $D6DA
 D6CD  20 DA A1  JSR  $A1DA
 D6D0  A0 93     LDY  #$93
 D6D2  A9 F1     LDA  #$F1
 D6D4  20 09 D6  JSR  $D609
 D6D7  20 12 88  JSR  $8812
 D6DA  A0 93     LDY  #$93
 D6DC  A9 F1     LDA  #$F1
 D6DE  20 09 D6  JSR  $D609
 D6E1  20 12 88  JSR  $8812
 D6E4  80 C3     BRA  $D6A9
 D6E6  B5 00     LDA  $00, X
 D6E8  95 04     STA  $04, X
 D6EA  B5 01     LDA  $01, X
 D6EC  95 05     STA  $05, X
 D6EE  E8        INX  
 D6EF  E8        INX  
 D6F0  E8        INX  
 D6F1  E8        INX  
 D6F2  B5 00     LDA  $00, X
 D6F4  85 22     STA  $22
 D6F6  B5 01     LDA  $01, X
 D6F8  85 23     STA  $23
 D6FA  20 31 96  JSR  $9631
 D6FD  A5 16     LDA  $16
 D6FF  D0 13     BNE  $D714
 D701  A0 01     LDY  #$01
 D703  B1 22     LDA  ($22), Y
 D705  29 01     AND  #$01
 D707  F0 05     BEQ  $D70E
 D709  A9 02     LDA  #$02
 D70B  4C 52 D7  JMP  $D752
 D70E  20 C5 8F  JSR  $8FC5
 D711  4C A9 D6  JMP  $D6A9
 D714  A0 01     LDY  #$01
 D716  B1 22     LDA  ($22), Y
 D718  29 04     AND  #$04
 D71A  D0 F2     BNE  $D70E
 D71C  20 95 88  JSR  $8895
 D71F  4C A9 D6  JMP  $D6A9
 D722  E8        INX  
 D723  E8        INX  
 D724  E8        INX  
 D725  E8        INX  
 D726  60        RTS  
 D727  C9 20     CMP  #$20
 D729  90 08     BCC  $D733
 D72B  C9 7F     CMP  #$7F
 D72D  B0 03     BCS  $D732
 D72F  38        SEC  
 D730  80 01     BRA  $D733
 D732  18        CLC  
 D733  60        RTS  
 D734  C9 00     CMP  #$00
 D736  90 08     BCC  $D740
 D738  C9 21     CMP  #$21
 D73A  B0 03     BCS  $D73F
 D73C  38        SEC  
 D73D  80 01     BRA  $D740
 D73F  18        CLC  
 D740  60        RTS  
 D741  0A        ASL  
 D742  3A        DEC  
 D743  49 FF     EOR  #$FF
 D745  1A        INC  
 D746  18        CLC  
 D747  69 78     ADC  #$78
 D749  85 2A     STA  $2A
 D74B  E4 2A     CPX  $2A
 D74D  10 01     BPL  $D750
 D74F  60        RTS  
 D750  A9 09     LDA  #$09
 D752  0A        ASL  
 D753  A8        TAY  
 D754  B9 F8 D3  LDA  $D3F8, Y
 D757  85 28     STA  $28
 D759  C8        INY  
 D75A  B9 F8 D3  LDA  $D3F8, Y
 D75D  85 29     STA  $29
 D75F  20 72 D7  JSR  $D772
 D762  4C 81 80  JMP  $8081
 D765  0A        ASL  
 D766  A8        TAY  
 D767  B9 8B D3  LDA  $D38B, Y
 D76A  85 28     STA  $28
 D76C  C8        INY  
 D76D  B9 8B D3  LDA  $D38B, Y
 D770  85 29     STA  $29
 D772  20 7B D7  JSR  $D77B
 D775  A9 0A     LDA  #$0A
 D777  20 78 8E  JSR  $8E78
 D77A  60        RTS  
 D77B  A0 00     LDY  #$00
 D77D  B1 28     LDA  ($28), Y
 D77F  F0 06     BEQ  $D787
 D781  20 78 8E  JSR  $8E78
 D784  C8        INY  
 D785  80 F6     BRA  $D77D
 D787  60        RTS  
 D788  CA        DEX  
 D789  CA        DEX  
 D78A  74 00     STZ  $00, X
 D78C  74 01     STZ  $01, X
 D78E  20 AD 93  JSR  $93AD
 D791  20 D6 97  JSR  $97D6
 D794  20 B2 97  JSR  $97B2
 D797  20 53 A5  JSR  $A553
 D79A  60        RTS  
 D79B  A0 04     LDY  #$04
 D79D  B1 1E     LDA  ($1E), Y
 D79F  0A        ASL  
 D7A0  18        CLC  
 D7A1  69 06     ADC  #$06
 D7A3  A8        TAY  
 D7A4  B1 1E     LDA  ($1E), Y
 D7A6  85 02     STA  $02
 D7A8  C8        INY  
 D7A9  B1 1E     LDA  ($1E), Y
 D7AB  85 03     STA  $03
 D7AD  60        RTS  
 D7AE  A0 04     LDY  #$04
 D7B0  B1 1E     LDA  ($1E), Y
 D7B2  0A        ASL  
 D7B3  18        CLC  
 D7B4  69 06     ADC  #$06
 D7B6  A8        TAY  
 D7B7  A5 02     LDA  $02
 D7B9  91 1E     STA  ($1E), Y
 D7BB  C8        INY  
 D7BC  A5 03     LDA  $03
 D7BE  91 1E     STA  ($1E), Y
 D7C0  60        RTS  
 D7C1  00 00 00 00 00 00 00 00 00 00 00 00 00 00 00 00  |................|
 D7D1  00 00 00 00 00 00 00 00 00 00 00 00 00 00 00 00  |................|
 D7E1  00 00 00 00 00 00 00 00 00 00 00 00 00 00 00 00  |................|
 D7F1  00 00 00 00 00 00 00 00 00 00 00 00 00 00 00 00  |................|
 D801  00 00 00 00 00 00 00 00 00 00 00 00 00 00 00 00  |................|
 D811  00 00 00 00 00 00 00 00 00 00 00 00 00 00 00 00  |................|
 D821  00 00 00 00 00 00 00 00 00 00 00 00 00 00 00 00  |................|
 D831  00 00 00 00 00 00 00 00 00 00 00 00 00 00 00 00  |................|
 D841  00 00 00 00 00 00 00 00 00 00 00 00 00 00 00 00  |................|
 D851  00 00 00 00 00 00 00 00 00 00 00 00 00 00 00 00  |................|
 D861  00 00 00 00 00 00 00 00 00 00 00 00 00 00 00 00  |................|
 D871  00 00 00 00 00 00 00 00 00 00 00 00 00 00 00 00  |................|
 D881  00 00 00 00 00 00 00 00 00 00 00 00 00 00 00 00  |................|
 D891  00 00 00 00 00 00 00 00 00 00 00 00 00 00 00 00  |................|
 D8A1  00 00 00 00 00 00 00 00 00 00 00 00 00 00 00 00  |................|
 D8B1  00 00 00 00 00 00 00 00 00 00 00 00 00 00 00 00  |................|
 D8C1  00 00 00 00 00 00 00 00 00 00 00 00 00 00 00 00  |................|
 D8D1  00 00 00 00 00 00 00 00 00 00 00 00 00 00 00 00  |................|
 D8E1  00 00 00 00 00 00 00 00 00 00 00 00 00 00 00 00  |................|
 D8F1  00 00 00 00 00 00 00 00 00 00 00 00 00 00 00 00  |................|
 D901  00 00 00 00 00 00 00 00 00 00 00 00 00 00 00 00  |................|
 D911  00 00 00 00 00 00 00 00 00 00 00 00 00 00 00 00  |................|
 D921  00 00 00 00 00 00 00 00 00 00 00 00 00 00 00 00  |................|
 D931  00 00 00 00 00 00 00 00 00 00 00 00 00 00 00 00  |................|
 D941  00 00 00 00 00 00 00 00 00 00 00 00 00 00 00 00  |................|
 D951  00 00 00 00 00 00 00 00 00 00 00 00 00 00 00 00  |................|
 D961  00 00 00 00 00 00 00 00 00 00 00 00 00 00 00 00  |................|
 D971  00 00 00 00 00 00 00 00 00 00 00 00 00 00 00 00  |................|
 D981  00 00 00 00 00 00 00 00 00 00 00 00 00 00 00 00  |................|
 D991  00 00 00 00 00 00 00 00 00 00 00 00 00 00 00 00  |................|
 D9A1  00 00 00 00 00 00 00 00 00 00 00 00 00 00 00 00  |................|
 D9B1  00 00 00 00 00 00 00 00 00 00 00 00 00 00 00 00  |................|
 D9C1  00 00 00 00 00 00 00 00 00 00 00 00 00 00 00 00  |................|
 D9D1  00 00 00 00 00 00 00 00 00 00 00 00 00 00 00 00  |................|
 D9E1  00 00 00 00 00 00 00 00 00 00 00 00 00 00 00 00  |................|
 D9F1  00 00 00 00 00 00 00 00 00 00 00 00 00 00 00 00  |................|
 DA01  00 00 00 00 00 00 00 00 00 00 00 00 00 00 00 00  |................|
 DA11  00 00 00 00 00 00 00 00 00 00 00 00 00 00 00 00  |................|
 DA21  00 00 00 00 00 00 00 00 00 00 00 00 00 00 00 00  |................|
 DA31  00 00 00 00 00 00 00 00 00 00 00 00 00 00 00 00  |................|
 DA41  00 00 00 00 00 00 00 00 00 00 00 00 00 00 00 00  |................|
 DA51  00 00 00 00 00 00 00 00 00 00 00 00 00 00 00 00  |................|
 DA61  00 00 00 00 00 00 00 00 00 00 00 00 00 00 00 00  |................|
 DA71  00 00 00 00 00 00 00 00 00 00 00 00 00 00 00 00  |................|
 DA81  00 00 00 00 00 00 00 00 00 00 00 00 00 00 00 00  |................|
 DA91  00 00 00 00 00 00 00 00 00 00 00 00 00 00 00 00  |................|
 DAA1  00 00 00 00 00 00 00 00 00 00 00 00 00 00 00 00  |................|
 DAB1  00 00 00 00 00 00 00 00 00 00 00 00 00 00 00 00  |................|
 DAC1  00 00 00 00 00 00 00 00 00 00 00 00 00 00 00 00  |................|
 DAD1  00 00 00 00 00 00 00 00 00 00 00 00 00 00 00 00  |................|
 DAE1  00 00 00 00 00 00 00 00 00 00 00 00 00 00 00 00  |................|
 DAF1  00 00 00 00 00 00 00 00 00 00 00 00 00 00 00 00  |................|
 DB01  00 00 00 00 00 00 00 00 00 00 00 00 00 00 00 00  |................|
 DB11  00 00 00 00 00 00 00 00 00 00 00 00 00 00 00 00  |................|
 DB21  00 00 00 00 00 00 00 00 00 00 00 00 00 00 00 00  |................|
 DB31  00 00 00 00 00 00 00 00 00 00 00 00 00 00 00 00  |................|
 DB41  00 00 00 00 00 00 00 00 00 00 00 00 00 00 00 00  |................|
 DB51  00 00 00 00 00 00 00 00 00 00 00 00 00 00 00 00  |................|
 DB61  00 00 00 00 00 00 00 00 00 00 00 00 00 00 00 00  |................|
 DB71  00 00 00 00 00 00 00 00 00 00 00 00 00 00 00 00  |................|
 DB81  00 00 00 00 00 00 00 00 00 00 00 00 00 00 00 00  |................|
 DB91  00 00 00 00 00 00 00 00 00 00 00 00 00 00 00 00  |................|
 DBA1  00 00 00 00 00 00 00 00 00 00 00 00 00 00 00 00  |................|
 DBB1  00 00 00 00 00 00 00 00 00 00 00 00 00 00 00 00  |................|
 DBC1  00 00 00 00 00 00 00 00 00 00 00 00 00 00 00 00  |................|
 DBD1  00 00 00 00 00 00 00 00 00 00 00 00 00 00 00 00  |................|
 DBE1  00 00 00 00 00 00 00 00 00 00 00 00 00 00 00 00  |................|
 DBF1  00 00 00 00 00 00 00 00 00 00 00 00 00 00 00 00  |................|
 DC01  00 00 00 00 00 00 00 00 00 00 00 00 00 00 00 00  |................|
 DC11  00 00 00 00 00 00 00 00 00 00 00 00 00 00 00 00  |................|
 DC21  00 00 00 00 00 00 00 00 00 00 00 00 00 00 00 00  |................|
 DC31  00 00 00 00 00 00 00 00 00 00 00 00 00 00 00 00  |................|
 DC41  00 00 00 00 00 00 00 00 00 00 00 00 00 00 00 00  |................|
 DC51  00 00 00 00 00 00 00 00 00 00 00 00 00 00 00 00  |................|
 DC61  00 00 00 00 00 00 00 00 00 00 00 00 00 00 00 00  |................|
 DC71  00 00 00 00 00 00 00 00 00 00 00 00 00 00 00 00  |................|
 DC81  00 00 00 00 00 00 00 00 00 00 00 00 00 00 00 00  |................|
 DC91  00 00 00 00 00 00 00 00 00 00 00 00 00 00 00 00  |................|
 DCA1  00 00 00 00 00 00 00 00 00 00 00 00 00 00 00 00  |................|
 DCB1  00 00 00 00 00 00 00 00 00 00 00 00 00 00 00 00  |................|
 DCC1  00 00 00 00 00 00 00 00 00 00 00 00 00 00 00 00  |................|
 DCD1  00 00 00 00 00 00 00 00 00 00 00 00 00 00 00 00  |................|
 DCE1  00 00 00 00 00 00 00 00 00 00 00 00 00 00 00 00  |................|
 DCF1  00 00 00 00 00 00 00 00 00 00 00 00 00 00 00 00  |................|
 DD01  00 00 00 00 00 00 00 00 00 00 00 00 00 00 00 00  |................|
 DD11  00 00 00 00 00 00 00 00 00 00 00 00 00 00 00 00  |................|
 DD21  00 00 00 00 00 00 00 00 00 00 00 00 00 00 00 00  |................|
 DD31  00 00 00 00 00 00 00 00 00 00 00 00 00 00 00 00  |................|
 DD41  00 00 00 00 00 00 00 00 00 00 00 00 00 00 00 00  |................|
 DD51  00 00 00 00 00 00 00 00 00 00 00 00 00 00 00 00  |................|
 DD61  00 00 00 00 00 00 00 00 00 00 00 00 00 00 00 00  |................|
 DD71  00 00 00 00 00 00 00 00 00 00 00 00 00 00 00 00  |................|
 DD81  00 00 00 00 00 00 00 00 00 00 00 00 00 00 00 00  |................|
 DD91  00 00 00 00 00 00 00 00 00 00 00 00 00 00 00 00  |................|
 DDA1  00 00 00 00 00 00 00 00 00 00 00 00 00 00 00 00  |................|
 DDB1  00 00 00 00 00 00 00 00 00 00 00 00 00 00 00 00  |................|
 DDC1  00 00 00 00 00 00 00 00 00 00 00 00 00 00 00 00  |................|
 DDD1  00 00 00 00 00 00 00 00 00 00 00 00 00 00 00 00  |................|
 DDE1  00 00 00 00 00 00 00 00 00 00 00 00 00 00 00 00  |................|
 DDF1  00 00 00 00 00 00 00 00 00 00 00 00 00 00 00 00  |................|
 DE01  00 00 00 00 00 00 00 00 00 00 00 00 00 00 00 00  |................|
 DE11  00 00 00 00 00 00 00 00 00 00 00 00 00 00 00 00  |................|
 DE21  00 00 00 00 00 00 00 00 00 00 00 00 00 00 00 00  |................|
 DE31  00 00 00 00 00 00 00 00 00 00 00 00 00 00 00 00  |................|
 DE41  00 00 00 00 00 00 00 00 00 00 00 00 00 00 00 00  |................|
 DE51  00 00 00 00 00 00 00 00 00 00 00 00 00 00 00 00  |................|
 DE61  00 00 00 00 00 00 00 00 00 00 00 00 00 00 00 00  |................|
 DE71  00 00 00 00 00 00 00 00 00 00 00 00 00 00 00 00  |................|
 DE81  00 00 00 00 00 00 00 00 00 00 00 00 00 00 00 00  |................|
 DE91  00 00 00 00 00 00 00 00 00 00 00 00 00 00 00 00  |................|
 DEA1  00 00 00 00 00 00 00 00 00 00 00 00 00 00 00 00  |................|
 DEB1  00 00 00 00 00 00 00 00 00 00 00 00 00 00 00 00  |................|
 DEC1  00 00 00 00 00 00 00 00 00 00 00 00 00 00 00 00  |................|
 DED1  00 00 00 00 00 00 00 00 00 00 00 00 00 00 00 00  |................|
 DEE1  00 00 00 00 00 00 00 00 00 00 00 00 00 00 00 00  |................|
 DEF1  00 00 00 00 00 00 00 00 00 00 00 00 00 00 00 00  |................|
 DF01  00 00 00 00 00 00 00 00 00 00 00 00 00 00 00 00  |................|
 DF11  00 00 00 00 00 00 00 00 00 00 00 00 00 00 00 00  |................|
 DF21  00 00 00 00 00 00 00 00 00 00 00 00 00 00 00 00  |................|
 DF31  00 00 00 00 00 00 00 00 00 00 00 00 00 00 00 00  |................|
 DF41  00 00 00 00 00 00 00 00 00 00 00 00 00 00 00 00  |................|
 DF51  00 00 00 00 00 00 00 00 00 00 00 00 00 00 00 00  |................|
 DF61  00 00 00 00 00 00 00 00 00 00 00 00 00 00 00 00  |................|
 DF71  00 00 00 00 00 00 00 00 00 00 00 00 00 00 00 00  |................|
 DF81  00 00 00 00 00 00 00 00 00 00 00 00 00 00 00 00  |................|
 DF91  00 00 00 00 00 00 00 00 00 00 00 00 00 00 00 00  |................|
 DFA1  00 00 00 00 00 00 00 00 00 00 00 00 00 00 00 00  |................|
 DFB1  00 00 00 00 00 00 00 00 00 00 00 00 00 00 00 00  |................|
 DFC1  00 00 00 00 00 00 00 00 00 00 00 00 00 00 00 00  |................|
 DFD1  00 00 00 00 00 00 00 00 00 00 00 00 00 00 00 00  |................|
 DFE1  00 00 00 00 00 00 00 00 00 00 00 00 00 00 00 00  |................|
 DFF1  00 00 00 00 00 00 00 00 00 00 00 00 00 00 00 00  |................|
 E001  00 00 00 00 00 00 00 00 00 00 00 00 00 00 00 00  |................|
 E011  00 00 00 00 00 00 00 00 00 00 00 00 00 00 00 00  |................|
 E021  00 00 00 00 00 00 00 00 00 00 00 00 00 00 00 00  |................|
 E031  00 00 00 00 00 00 00 00 00 00 00 00 00 00 00 00  |................|
 E041  00 00 00 00 00 00 00 00 00 00 00 00 00 00 00 00  |................|
 E051  00 00 00 00 00 00 00 00 00 00 00 00 00 00 00 00  |................|
 E061  00 00 00 00 00 00 00 00 00 00 00 00 00 00 00 00  |................|
 E071  00 00 00 00 00 00 00 00 00 00 00 00 00 00 00 00  |................|
 E081  00 00 00 00 00 00 00 00 00 00 00 00 00 00 00 00  |................|
 E091  00 00 00 00 00 00 00 00 00 00 00 00 00 00 00 00  |................|
 E0A1  00 00 00 00 00 00 00 00 00 00 00 00 00 00 00 00  |................|
 E0B1  00 00 00 00 00 00 00 00 00 00 00 00 00 00 00 00  |................|
 E0C1  00 00 00 00 00 00 00 00 00 00 00 00 00 00 00 00  |................|
 E0D1  00 00 00 00 00 00 00 00 00 00 00 00 00 00 00 00  |................|
 E0E1  00 00 00 00 00 00 00 00 00 00 00 00 00 00 00 00  |................|
 E0F1  00 00 00 00 00 00 00 00 00 00 00 00 00 00 00 00  |................|
 E101  00 00 00 00 00 00 00 00 00 00 00 00 00 00 00 00  |................|
 E111  00 00 00 00 00 00 00 00 00 00 00 00 00 00 00 00  |................|
 E121  00 00 00 00 00 00 00 00 00 00 00 00 00 00 00 00  |................|
 E131  00 00 00 00 00 00 00 00 00 00 00 00 00 00 00 00  |................|
 E141  00 00 00 00 00 00 00 00 00 00 00 00 00 00 00 00  |................|
 E151  00 00 00 00 00 00 00 00 00 00 00 00 00 00 00 00  |................|
 E161  00 00 00 00 00 00 00 00 00 00 00 00 00 00 00 00  |................|
 E171  00 00 00 00 00 00 00 00 00 00 00 00 00 00 00 00  |................|
 E181  00 00 00 00 00 00 00 00 00 00 00 00 00 00 00 00  |................|
 E191  00 00 00 00 00 00 00 00 00 00 00 00 00 00 00 00  |................|
 E1A1  00 00 00 00 00 00 00 00 00 00 00 00 00 00 00 00  |................|
 E1B1  00 00 00 00 00 00 00 00 00 00 00 00 00 00 00 00  |................|
 E1C1  00 00 00 00 00 00 00 00 00 00 00 00 00 00 00 00  |................|
 E1D1  00 00 00 00 00 00 00 00 00 00 00 00 00 00 00 00  |................|
 E1E1  00 00 00 00 00 00 00 00 00 00 00 00 00 00 00 00  |................|
 E1F1  00 00 00 00 00 00 00 00 00 00 00 00 00 00 00 00  |................|
 E201  00 00 00 00 00 00 00 00 00 00 00 00 00 00 00 00  |................|
 E211  00 00 00 00 00 00 00 00 00 00 00 00 00 00 00 00  |................|
 E221  00 00 00 00 00 00 00 00 00 00 00 00 00 00 00 00  |................|
 E231  00 00 00 00 00 00 00 00 00 00 00 00 00 00 00 00  |................|
 E241  00 00 00 00 00 00 00 00 00 00 00 00 00 00 00 00  |................|
 E251  00 00 00 00 00 00 00 00 00 00 00 00 00 00 00 00  |................|
 E261  00 00 00 00 00 00 00 00 00 00 00 00 00 00 00 00  |................|
 E271  00 00 00 00 00 00 00 00 00 00 00 00 00 00 00 00  |................|
 E281  00 00 00 00 00 00 00 00 00 00 00 00 00 00 00 00  |................|
 E291  00 00 00 00 00 00 00 00 00 00 00 00 00 00 00 00  |................|
 E2A1  00 00 00 00 00 00 00 00 00 00 00 00 00 00 00 00  |................|
 E2B1  00 00 00 00 00 00 00 00 00 00 00 00 00 00 00 00  |................|
 E2C1  00 00 00 00 00 00 00 00 00 00 00 00 00 00 00 00  |................|
 E2D1  00 00 00 00 00 00 00 00 00 00 00 00 00 00 00 00  |................|
 E2E1  00 00 00 00 00 00 00 00 00 00 00 00 00 00 00 00  |................|
 E2F1  00 00 00 00 00 00 00 00 00 00 00 00 00 00 00 00  |................|
 E301  00 00 00 00 00 00 00 00 00 00 00 00 00 00 00 00  |................|
 E311  00 00 00 00 00 00 00 00 00 00 00 00 00 00 00 00  |................|
 E321  00 00 00 00 00 00 00 00 00 00 00 00 00 00 00 00  |................|
 E331  00 00 00 00 00 00 00 00 00 00 00 00 00 00 00 00  |................|
 E341  00 00 00 00 00 00 00 00 00 00 00 00 00 00 00 00  |................|
 E351  00 00 00 00 00 00 00 00 00 00 00 00 00 00 00 00  |................|
 E361  00 00 00 00 00 00 00 00 00 00 00 00 00 00 00 00  |................|
 E371  00 00 00 00 00 00 00 00 00 00 00 00 00 00 00 00  |................|
 E381  00 00 00 00 00 00 00 00 00 00 00 00 00 00 00 00  |................|
 E391  00 00 00 00 00 00 00 00 00 00 00 00 00 00 00 00  |................|
 E3A1  00 00 00 00 00 00 00 00 00 00 00 00 00 00 00 00  |................|
 E3B1  00 00 00 00 00 00 00 00 00 00 00 00 00 00 00 00  |................|
 E3C1  00 00 00 00 00 00 00 00 00 00 00 00 00 00 00 00  |................|
 E3D1  00 00 00 00 00 00 00 00 00 00 00 00 00 00 00 00  |................|
 E3E1  00 00 00 00 00 00 00 00 00 00 00 00 00 00 00 00  |................|
 E3F1  00 00 00 00 00 00 00 00 00 00 00 00 00 00 00 00  |................|
 E401  00 00 00 00 00 00 00 00 00 00 00 00 00 00 00 00  |................|
 E411  00 00 00 00 00 00 00 00 00 00 00 00 00 00 00 00  |................|
 E421  00 00 00 00 00 00 00 00 00 00 00 00 00 00 00 00  |................|
 E431  00 00 00 00 00 00 00 00 00 00 00 00 00 00 00 00  |................|
 E441  00 00 00 00 00 00 00 00 00 00 00 00 00 00 00 00  |................|
 E451  00 00 00 00 00 00 00 00 00 00 00 00 00 00 00 00  |................|
 E461  00 00 00 00 00 00 00 00 00 00 00 00 00 00 00 00  |................|
 E471  00 00 00 00 00 00 00 00 00 00 00 00 00 00 00 00  |................|
 E481  00 00 00 00 00 00 00 00 00 00 00 00 00 00 00 00  |................|
 E491  00 00 00 00 00 00 00 00 00 00 00 00 00 00 00 00  |................|
 E4A1  00 00 00 00 00 00 00 00 00 00 00 00 00 00 00 00  |................|
 E4B1  00 00 00 00 00 00 00 00 00 00 00 00 00 00 00 00  |................|
 E4C1  00 00 00 00 00 00 00 00 00 00 00 00 00 00 00 00  |................|
 E4D1  00 00 00 00 00 00 00 00 00 00 00 00 00 00 00 00  |................|
 E4E1  00 00 00 00 00 00 00 00 00 00 00 00 00 00 00 00  |................|
 E4F1  00 00 00 00 00 00 00 00 00 00 00 00 00 00 00 00  |................|
 E501  00 00 00 00 00 00 00 00 00 00 00 00 00 00 00 00  |................|
 E511  00 00 00 00 00 00 00 00 00 00 00 00 00 00 00 00  |................|
 E521  00 00 00 00 00 00 00 00 00 00 00 00 00 00 00 00  |................|
 E531  00 00 00 00 00 00 00 00 00 00 00 00 00 00 00 00  |................|
 E541  00 00 00 00 00 00 00 00 00 00 00 00 00 00 00 00  |................|
 E551  00 00 00 00 00 00 00 00 00 00 00 00 00 00 00 00  |................|
 E561  00 00 00 00 00 00 00 00 00 00 00 00 00 00 00 00  |................|
 E571  00 00 00 00 00 00 00 00 00 00 00 00 00 00 00 00  |................|
 E581  00 00 00 00 00 00 00 00 00 00 00 00 00 00 00 00  |................|
 E591  00 00 00 00 00 00 00 00 00 00 00 00 00 00 00 00  |................|
 E5A1  00 00 00 00 00 00 00 00 00 00 00 00 00 00 00 00  |................|
 E5B1  00 00 00 00 00 00 00 00 00 00 00 00 00 00 00 00  |................|
 E5C1  00 00 00 00 00 00 00 00 00 00 00 00 00 00 00 00  |................|
 E5D1  00 00 00 00 00 00 00 00 00 00 00 00 00 00 00 00  |................|
 E5E1  00 00 00 00 00 00 00 00 00 00 00 00 00 00 00 00  |................|
 E5F1  00 00 00 00 00 00 00 00 00 00 00 00 00 00 00 00  |................|
 E601  00 00 00 00 00 00 00 00 00 00 00 00 00 00 00 00  |................|
 E611  00 00 00 00 00 00 00 00 00 00 00 00 00 00 00 00  |................|
 E621  00 00 00 00 00 00 00 00 00 00 00 00 00 00 00 00  |................|
 E631  00 00 00 00 00 00 00 00 00 00 00 00 00 00 00 00  |................|
 E641  00 00 00 00 00 00 00 00 00 00 00 00 00 00 00 00  |................|
 E651  00 00 00 00 00 00 00 00 00 00 00 00 00 00 00 00  |................|
 E661  00 00 00 00 00 00 00 00 00 00 00 00 00 00 00 00  |................|
 E671  00 00 00 00 00 00 00 00 00 00 00 00 00 00 00 00  |................|
 E681  00 00 00 00 00 00 00 00 00 00 00 00 00 00 00 00  |................|
 E691  00 00 00 00 00 00 00 00 00 00 00 00 00 00 00 00  |................|
 E6A1  00 00 00 00 00 00 00 00 00 00 00 00 00 00 00 00  |................|
 E6B1  00 00 00 00 00 00 00 00 00 00 00 00 00 00 00 00  |................|
 E6C1  00 00 00 00 00 00 00 00 00 00 00 00 00 00 00 00  |................|
 E6D1  00 00 00 00 00 00 00 00 00 00 00 00 00 00 00 00  |................|
 E6E1  00 00 00 00 00 00 00 00 00 00 00 00 00 00 00 00  |................|
 E6F1  00 00 00 00 00 00 00 00 00 00 00 00 00 00 00 00  |................|
 E701  00 00 00 00 00 00 00 00 00 00 00 00 00 00 00 00  |................|
 E711  00 00 00 00 00 00 00 00 00 00 00 00 00 00 00 00  |................|
 E721  00 00 00 00 00 00 00 00 00 00 00 00 00 00 00 00  |................|
 E731  00 00 00 00 00 00 00 00 00 00 00 00 00 00 00 00  |................|
 E741  00 00 00 00 00 00 00 00 00 00 00 00 00 00 00 00  |................|
 E751  00 00 00 00 00 00 00 00 00 00 00 00 00 00 00 00  |................|
 E761  00 00 00 00 00 00 00 00 00 00 00 00 00 00 00 00  |................|
 E771  00 00 00 00 00 00 00 00 00 00 00 00 00 00 00 00  |................|
 E781  00 00 00 00 00 00 00 00 00 00 00 00 00 00 00 00  |................|
 E791  00 00 00 00 00 00 00 00 00 00 00 00 00 00 00 00  |................|
 E7A1  00 00 00 00 00 00 00 00 00 00 00 00 00 00 00 00  |................|
 E7B1  00 00 00 00 00 00 00 00 00 00 00 00 00 00 00 00  |................|
 E7C1  00 00 00 00 00 00 00 00 00 00 00 00 00 00 00 00  |................|
 E7D1  00 00 00 00 00 00 00 00 00 00 00 00 00 00 00 00  |................|
 E7E1  00 00 00 00 00 00 00 00 00 00 00 00 00 00 00 00  |................|
 E7F1  00 00 00 00 00 00 00 00 00 00 00 00 00 00 00 00  |................|
 E801  00 00 00 00 00 00 00 00 00 00 00 00 00 00 00 00  |................|
 E811  00 00 00 00 00 00 00 00 00 00 00 00 00 00 00 00  |................|
 E821  00 00 00 00 00 00 00 00 00 00 00 00 00 00 00 00  |................|
 E831  00 00 00 00 00 00 00 00 00 00 00 00 00 00 00 00  |................|
 E841  00 00 00 00 00 00 00 00 00 00 00 00 00 00 00 00  |................|
 E851  00 00 00 00 00 00 00 00 00 00 00 00 00 00 00 00  |................|
 E861  00 00 00 00 00 00 00 00 00 00 00 00 00 00 00 00  |................|
 E871  00 00 00 00 00 00 00 00 00 00 00 00 00 00 00 00  |................|
 E881  00 00 00 00 00 00 00 00 00 00 00 00 00 00 00 00  |................|
 E891  00 00 00 00 00 00 00 00 00 00 00 00 00 00 00 00  |................|
 E8A1  00 00 00 00 00 00 00 00 00 00 00 00 00 00 00 00  |................|
 E8B1  00 00 00 00 00 00 00 00 00 00 00 00 00 00 00 00  |................|
 E8C1  00 00 00 00 00 00 00 00 00 00 00 00 00 00 00 00  |................|
 E8D1  00 00 00 00 00 00 00 00 00 00 00 00 00 00 00 00  |................|
 E8E1  00 00 00 00 00 00 00 00 00 00 00 00 00 00 00 00  |................|
 E8F1  00 00 00 00 00 00 00 00 00 00 00 00 00 00 00 00  |................|
 E901  00 00 00 00 00 00 00 00 00 00 00 00 00 00 00 00  |................|
 E911  00 00 00 00 00 00 00 00 00 00 00 00 00 00 00 00  |................|
 E921  00 00 00 00 00 00 00 00 00 00 00 00 00 00 00 00  |................|
 E931  00 00 00 00 00 00 00 00 00 00 00 00 00 00 00 00  |................|
 E941  00 00 00 00 00 00 00 00 00 00 00 00 00 00 00 00  |................|
 E951  00 00 00 00 00 00 00 00 00 00 00 00 00 00 00 00  |................|
 E961  00 00 00 00 00 00 00 00 00 00 00 00 00 00 00 00  |................|
 E971  00 00 00 00 00 00 00 00 00 00 00 00 00 00 00 00  |................|
 E981  00 00 00 00 00 00 00 00 00 00 00 00 00 00 00 00  |................|
 E991  00 00 00 00 00 00 00 00 00 00 00 00 00 00 00 00  |................|
 E9A1  00 00 00 00 00 00 00 00 00 00 00 00 00 00 00 00  |................|
 E9B1  00 00 00 00 00 00 00 00 00 00 00 00 00 00 00 00  |................|
 E9C1  00 00 00 00 00 00 00 00 00 00 00 00 00 00 00 00  |................|
 E9D1  00 00 00 00 00 00 00 00 00 00 00 00 00 00 00 00  |................|
 E9E1  00 00 00 00 00 00 00 00 00 00 00 00 00 00 00 00  |................|
 E9F1  00 00 00 00 00 00 00 00 00 00 00 00 00 00 00 00  |................|
 EA01  00 00 00 00 00 00 00 00 00 00 00 00 00 00 00 00  |................|
 EA11  00 00 00 00 00 00 00 00 00 00 00 00 00 00 00 00  |................|
 EA21  00 00 00 00 00 00 00 00 00 00 00 00 00 00 00 00  |................|
 EA31  00 00 00 00 00 00 00 00 00 00 00 00 00 00 00 00  |................|
 EA41  00 00 00 00 00 00 00 00 00 00 00 00 00 00 00 00  |................|
 EA51  00 00 00 00 00 00 00 00 00 00 00 00 00 00 00 00  |................|
 EA61  00 00 00 00 00 00 00 00 00 00 00 00 00 00 00 00  |................|
 EA71  00 00 00 00 00 00 00 00 00 00 00 00 00 00 00 00  |................|
 EA81  00 00 00 00 00 00 00 00 00 00 00 00 00 00 00 00  |................|
 EA91  00 00 00 00 00 00 00 00 00 00 00 00 00 00 00 00  |................|
 EAA1  00 00 00 00 00 00 00 00 00 00 00 00 00 00 00 00  |................|
 EAB1  00 00 00 00 00 00 00 00 00 00 00 00 00 00 00 00  |................|
 EAC1  00 00 00 00 00 00 00 00 00 00 00 00 00 00 00 00  |................|
 EAD1  00 00 00 00 00 00 00 00 00 00 00 00 00 00 00 00  |................|
 EAE1  00 00 00 00 00 00 00 00 00 00 00 00 00 00 00 00  |................|
 EAF1  00 00 00 00 00 00 00 00 00 00 00 00 00 00 00 00  |................|
 EB01  00 00 00 00 00 00 00 00 00 00 00 00 00 00 00 00  |................|
 EB11  00 00 00 00 00 00 00 00 00 00 00 00 00 00 00 00  |................|
 EB21  00 00 00 00 00 00 00 00 00 00 00 00 00 00 00 00  |................|
 EB31  00 00 00 00 00 00 00 00 00 00 00 00 00 00 00 00  |................|
 EB41  00 00 00 00 00 00 00 00 00 00 00 00 00 00 00 00  |................|
 EB51  00 00 00 00 00 00 00 00 00 00 00 00 00 00 00 00  |................|
 EB61  00 00 00 00 00 00 00 00 00 00 00 00 00 00 00 00  |................|
 EB71  00 00 00 00 00 00 00 00 00 00 00 00 00 00 00 00  |................|
 EB81  00 00 00 00 00 00 00 00 00 00 00 00 00 00 00 00  |................|
 EB91  00 00 00 00 00 00 00 00 00 00 00 00 00 00 00 00  |................|
 EBA1  00 00 00 00 00 00 00 00 00 00 00 00 00 00 00 00  |................|
 EBB1  00 00 00 00 00 00 00 00 00 00 00 00 00 00 00 00  |................|
 EBC1  00 00 00 00 00 00 00 00 00 00 00 00 00 00 00 00  |................|
 EBD1  00 00 00 00 00 00 00 00 00 00 00 00 00 00 00 00  |................|
 EBE1  00 00 00 00 00 00 00 00 00 00 00 00 00 00 00 00  |................|
 EBF1  00 00 00 00 00 00 00 00 00 00 00 00 00 00 00 00  |................|
 EC01  00 00 00 00 00 00 00 00 00 00 00 00 00 00 00 00  |................|
 EC11  00 00 00 00 00 00 00 00 00 00 00 00 00 00 00 00  |................|
 EC21  00 00 00 00 00 00 00 00 00 00 00 00 00 00 00 00  |................|
 EC31  00 00 00 00 00 00 00 00 00 00 00 00 00 00 00 00  |................|
 EC41  00 00 00 00 00 00 00 00 00 00 00 00 00 00 00 00  |................|
 EC51  00 00 00 00 00 00 00 00 00 00 00 00 00 00 00 00  |................|
 EC61  00 00 00 00 00 00 00 00 00 00 00 00 00 00 00 00  |................|
 EC71  00 00 00 00 00 00 00 00 00 00 00 00 00 00 00 00  |................|
 EC81  00 00 00 00 00 00 00 00 00 00 00 00 00 00 00 00  |................|
 EC91  00 00 00 00 00 00 00 00 00 00 00 00 00 00 00 00  |................|
 ECA1  00 00 00 00 00 00 00 00 00 00 00 00 00 00 00 00  |................|
 ECB1  00 00 00 00 00 00 00 00 00 00 00 00 00 00 00 00  |................|
 ECC1  00 00 00 00 00 00 00 00 00 00 00 00 00 00 00 00  |................|
 ECD1  00 00 00 00 00 00 00 00 00 00 00 00 00 00 00 00  |................|
 ECE1  00 00 00 00 00 00 00 00 00 00 00 00 00 00 00 00  |................|
 ECF1  00 00 00 00 00 00 00 00 00 00 00 00 00 00 00 00  |................|
 ED01  00 00 00 00 00 00 00 00 00 00 00 00 00 00 00 00  |................|
 ED11  00 00 00 00 00 00 00 00 00 00 00 00 00 00 00 00  |................|
 ED21  00 00 00 00 00 00 00 00 00 00 00 00 00 00 00 00  |................|
 ED31  00 00 00 00 00 00 00 00 00 00 00 00 00 00 00 00  |................|
 ED41  00 00 00 00 00 00 00 00 00 00 00 00 00 00 00 00  |................|
 ED51  00 00 00 00 00 00 00 00 00 00 00 00 00 00 00 00  |................|
 ED61  00 00 00 00 00 00 00 00 00 00 00 00 00 00 00 00  |................|
 ED71  00 00 00 00 00 00 00 00 00 00 00 00 00 00 00 00  |................|
 ED81  00 00 00 00 00 00 00 00 00 00 00 00 00 00 00 00  |................|
 ED91  00 00 00 00 00 00 00 00 00 00 00 00 00 00 00 00  |................|
 EDA1  00 00 00 00 00 00 00 00 00 00 00 00 00 00 00 00  |................|
 EDB1  00 00 00 00 00 00 00 00 00 00 00 00 00 00 00 00  |................|
 EDC1  00 00 00 00 00 00 00 00 00 00 00 00 00 00 00 00  |................|
 EDD1  00 00 00 00 00 00 00 00 00 00 00 00 00 00 00 00  |................|
 EDE1  00 00 00 00 00 00 00 00 00 00 00 00 00 00 00 00  |................|
 EDF1  00 00 00 00 00 00 00 00 00 00 00 00 00 00 00 00  |................|
 EE01  00 00 00 00 00 00 00 00 00 00 00 00 00 00 00 00  |................|
 EE11  00 00 00 00 00 00 00 00 00 00 00 00 00 00 00 00  |................|
 EE21  00 00 00 00 00 00 00 00 00 00 00 00 00 00 00 00  |................|
 EE31  00 00 00 00 00 00 00 00 00 00 00 00 00 00 00 00  |................|
 EE41  00 00 00 00 00 00 00 00 00 00 00 00 00 00 00 00  |................|
 EE51  00 00 00 00 00 00 00 00 00 00 00 00 00 00 00 00  |................|
 EE61  00 00 00 00 00 00 00 00 00 00 00 00 00 00 00 00  |................|
 EE71  00 00 00 00 00 00 00 00 00 00 00 00 00 00 00 00  |................|
 EE81  00 00 00 00 00 00 00 00 00 00 00 00 00 00 00 00  |................|
 EE91  00 00 00 00 00 00 00 00 00 00 00 00 00 00 00 00  |................|
 EEA1  00 00 00 00 00 00 00 00 00 00 00 00 00 00 00 00  |................|
 EEB1  00 00 00 00 00 00 00 00 00 00 00 00 00 00 00 00  |................|
 EEC1  00 00 00 00 00 00 00 00 00 00 00 00 00 00 00 00  |................|
 EED1  00 00 00 00 00 00 00 00 00 00 00 00 00 00 00 00  |................|
 EEE1  00 00 00 00 00 00 00 00 00 00 00 00 00 00 00 00  |................|
 EEF1  00 00 00 00 00 00 00 00 00 00 00 00 00 00 00 00  |................|
 EF01  00 00 00 00 00 00 00 00 00 00 00 00 00 00 00 00  |................|
 EF11  00 00 00 00 00 00 00 00 00 00 00 00 00 00 00 00  |................|
 EF21  00 00 00 00 00 00 00 00 00 00 00 00 00 00 00 00  |................|
 EF31  00 00 00 00 00 00 00 00 00 00 00 00 00 00 00 00  |................|
 EF41  00 00 00 00 00 00 00 00 00 00 00 00 00 00 00 00  |................|
 EF51  00 00 00 00 00 00 00 00 00 00 00 00 00 00 00 00  |................|
 EF61  00 00 00 00 00 00 00 00 00 00 00 00 00 00 00 00  |................|
 EF71  00 00 00 00 00 00 00 00 00 00 00 00 00 00 00 00  |................|
 EF81  00 00 00 00 00 00 00 00 00 00 00 00 00 00 00 00  |................|
 EF91  00 00 00 00 00 00 00 00 00 00 00 00 00 00 00 00  |................|
 EFA1  00 00 00 00 00 00 00 00 00 00 00 00 00 00 00 00  |................|
 EFB1  00 00 00 00 00 00 00 00 00 00 00 00 00 00 00 00  |................|
 EFC1  00 00 00 00 00 00 00 00 00 00 00 00 00 00 00 00  |................|
 EFD1  00 00 00 00 00 00 00 00 00 00 00 00 00 00 00 00  |................|
 EFE1  00 00 00 00 00 00 00 00 00 00 00 00 00 00 00 00  |................|
 EFF1  00 00 00 00 00 00 00 00 00 00 00 00 00 00 00 00  |................|
 F001  00 00 00 00 00 00 00 00 00 00 00 00 00 00 00     |............... |
 F010  78        SEI  
 F011  A2 00     LDX  #$00
 F013  BD 2B F0  LDA  $F02B, X
 F016  F0 06     BEQ  $F01E
 F018  20 27 F0  JSR  $F027
 F01B  E8        INX  
 F01C  80 F5     BRA  $F013
 F01E  4C 00 80  JMP  $8000
 F021  AD 04 F0  LDA  $F004
 F024  F0 FB     BEQ  $F021
 F026  60        RTS  
 F027  8D 01 F0  STA  $F001
 F02A  60        RTS  
 F02B  54 61 6C 69 20 46 6F 72 74 68 20 32 20 64 65 66  |Tali Forth 2 def|
 F03B  61 75 6C 74 20 6B 65 72 6E 65 6C 20 66 6F 72 20  |ault kernel for |
 F04B  70 79 36 35 6D 6F 6E 20 28 31 38 2E 20 46 65 62  |py65mon (18. Feb|
 F05B  20 32 30 31 38 29 0A 00 00 00 00 00 00 00 00 00  | 2018)..........|
 F06B  00 00 00 00 00 00 00 00 00 00 00 00 00 00 00 00  |................|
 F07B  00 00 00 00 00 00 00 00 00 00 00 00 00 00 00 00  |................|
 F08B  00 00 00 00 00 00 00 00 00 00 00 00 00 00 00 00  |................|
 F09B  00 00 00 00 00 00 00 00 00 00 00 00 00 00 00 00  |................|
 F0AB  00 00 00 00 00 00 00 00 00 00 00 00 00 00 00 00  |................|
 F0BB  00 00 00 00 00 00 00 00 00 00 00 00 00 00 00 00  |................|
 F0CB  00 00 00 00 00 00 00 00 00 00 00 00 00 00 00 00  |................|
 F0DB  00 00 00 00 00 00 00 00 00 00 00 00 00 00 00 00  |................|
 F0EB  00 00 00 00 00 00 00 00 00 00 00 00 00 00 00 00  |................|
 F0FB  00 00 00 00 00 00 00 00 00 00 00 00 00 00 00 00  |................|
 F10B  00 00 00 00 00 00 00 00 00 00 00 00 00 00 00 00  |................|
 F11B  00 00 00 00 00 00 00 00 00 00 00 00 00 00 00 00  |................|
 F12B  00 00 00 00 00 00 00 00 00 00 00 00 00 00 00 00  |................|
 F13B  00 00 00 00 00 00 00 00 00 00 00 00 00 00 00 00  |................|
 F14B  00 00 00 00 00 00 00 00 00 00 00 00 00 00 00 00  |................|
 F15B  00 00 00 00 00 00 00 00 00 00 00 00 00 00 00 00  |................|
 F16B  00 00 00 00 00 00 00 00 00 00 00 00 00 00 00 00  |................|
 F17B  00 00 00 00 00 00 00 00 00 00 00 00 00 00 00 00  |................|
 F18B  00 00 00 00 00 00 00 00 00 00 00 00 00 00 00 00  |................|
 F19B  00 00 00 00 00 00 00 00 00 00 00 00 00 00 00 00  |................|
 F1AB  00 00 00 00 00 00 00 00 00 00 00 00 00 00 00 00  |................|
 F1BB  00 00 00 00 00 00 00 00 00 00 00 00 00 00 00 00  |................|
 F1CB  00 00 00 00 00 00 00 00 00 00 00 00 00 00 00 00  |................|
 F1DB  00 00 00 00 00 00 00 00 00 00 00 00 00 00 00 00  |................|
 F1EB  00 00 00 00 00 00 00 00 00 00 00 00 00 00 00 00  |................|
 F1FB  00 00 00 00 00 00 00 00 00 00 00 00 00 00 00 00  |................|
 F20B  00 00 00 00 00 00 00 00 00 00 00 00 00 00 00 00  |................|
 F21B  00 00 00 00 00 00 00 00 00 00 00 00 00 00 00 00  |................|
 F22B  00 00 00 00 00 00 00 00 00 00 00 00 00 00 00 00  |................|
 F23B  00 00 00 00 00 00 00 00 00 00 00 00 00 00 00 00  |................|
 F24B  00 00 00 00 00 00 00 00 00 00 00 00 00 00 00 00  |................|
 F25B  00 00 00 00 00 00 00 00 00 00 00 00 00 00 00 00  |................|
 F26B  00 00 00 00 00 00 00 00 00 00 00 00 00 00 00 00  |................|
 F27B  00 00 00 00 00 00 00 00 00 00 00 00 00 00 00 00  |................|
 F28B  00 00 00 00 00 00 00 00 00 00 00 00 00 00 00 00  |................|
 F29B  00 00 00 00 00 00 00 00 00 00 00 00 00 00 00 00  |................|
 F2AB  00 00 00 00 00 00 00 00 00 00 00 00 00 00 00 00  |................|
 F2BB  00 00 00 00 00 00 00 00 00 00 00 00 00 00 00 00  |................|
 F2CB  00 00 00 00 00 00 00 00 00 00 00 00 00 00 00 00  |................|
 F2DB  00 00 00 00 00 00 00 00 00 00 00 00 00 00 00 00  |................|
 F2EB  00 00 00 00 00 00 00 00 00 00 00 00 00 00 00 00  |................|
 F2FB  00 00 00 00 00 00 00 00 00 00 00 00 00 00 00 00  |................|
 F30B  00 00 00 00 00 00 00 00 00 00 00 00 00 00 00 00  |................|
 F31B  00 00 00 00 00 00 00 00 00 00 00 00 00 00 00 00  |................|
 F32B  00 00 00 00 00 00 00 00 00 00 00 00 00 00 00 00  |................|
 F33B  00 00 00 00 00 00 00 00 00 00 00 00 00 00 00 00  |................|
 F34B  00 00 00 00 00 00 00 00 00 00 00 00 00 00 00 00  |................|
 F35B  00 00 00 00 00 00 00 00 00 00 00 00 00 00 00 00  |................|
 F36B  00 00 00 00 00 00 00 00 00 00 00 00 00 00 00 00  |................|
 F37B  00 00 00 00 00 00 00 00 00 00 00 00 00 00 00 00  |................|
 F38B  00 00 00 00 00 00 00 00 00 00 00 00 00 00 00 00  |................|
 F39B  00 00 00 00 00 00 00 00 00 00 00 00 00 00 00 00  |................|
 F3AB  00 00 00 00 00 00 00 00 00 00 00 00 00 00 00 00  |................|
 F3BB  00 00 00 00 00 00 00 00 00 00 00 00 00 00 00 00  |................|
 F3CB  00 00 00 00 00 00 00 00 00 00 00 00 00 00 00 00  |................|
 F3DB  00 00 00 00 00 00 00 00 00 00 00 00 00 00 00 00  |................|
 F3EB  00 00 00 00 00 00 00 00 00 00 00 00 00 00 00 00  |................|
 F3FB  00 00 00 00 00 00 00 00 00 00 00 00 00 00 00 00  |................|
 F40B  00 00 00 00 00 00 00 00 00 00 00 00 00 00 00 00  |................|
 F41B  00 00 00 00 00 00 00 00 00 00 00 00 00 00 00 00  |................|
 F42B  00 00 00 00 00 00 00 00 00 00 00 00 00 00 00 00  |................|
 F43B  00 00 00 00 00 00 00 00 00 00 00 00 00 00 00 00  |................|
 F44B  00 00 00 00 00 00 00 00 00 00 00 00 00 00 00 00  |................|
 F45B  00 00 00 00 00 00 00 00 00 00 00 00 00 00 00 00  |................|
 F46B  00 00 00 00 00 00 00 00 00 00 00 00 00 00 00 00  |................|
 F47B  00 00 00 00 00 00 00 00 00 00 00 00 00 00 00 00  |................|
 F48B  00 00 00 00 00 00 00 00 00 00 00 00 00 00 00 00  |................|
 F49B  00 00 00 00 00 00 00 00 00 00 00 00 00 00 00 00  |................|
 F4AB  00 00 00 00 00 00 00 00 00 00 00 00 00 00 00 00  |................|
 F4BB  00 00 00 00 00 00 00 00 00 00 00 00 00 00 00 00  |................|
 F4CB  00 00 00 00 00 00 00 00 00 00 00 00 00 00 00 00  |................|
 F4DB  00 00 00 00 00 00 00 00 00 00 00 00 00 00 00 00  |................|
 F4EB  00 00 00 00 00 00 00 00 00 00 00 00 00 00 00 00  |................|
 F4FB  00 00 00 00 00 00 00 00 00 00 00 00 00 00 00 00  |................|
 F50B  00 00 00 00 00 00 00 00 00 00 00 00 00 00 00 00  |................|
 F51B  00 00 00 00 00 00 00 00 00 00 00 00 00 00 00 00  |................|
 F52B  00 00 00 00 00 00 00 00 00 00 00 00 00 00 00 00  |................|
 F53B  00 00 00 00 00 00 00 00 00 00 00 00 00 00 00 00  |................|
 F54B  00 00 00 00 00 00 00 00 00 00 00 00 00 00 00 00  |................|
 F55B  00 00 00 00 00 00 00 00 00 00 00 00 00 00 00 00  |................|
 F56B  00 00 00 00 00 00 00 00 00 00 00 00 00 00 00 00  |................|
 F57B  00 00 00 00 00 00 00 00 00 00 00 00 00 00 00 00  |................|
 F58B  00 00 00 00 00 00 00 00 00 00 00 00 00 00 00 00  |................|
 F59B  00 00 00 00 00 00 00 00 00 00 00 00 00 00 00 00  |................|
 F5AB  00 00 00 00 00 00 00 00 00 00 00 00 00 00 00 00  |................|
 F5BB  00 00 00 00 00 00 00 00 00 00 00 00 00 00 00 00  |................|
 F5CB  00 00 00 00 00 00 00 00 00 00 00 00 00 00 00 00  |................|
 F5DB  00 00 00 00 00 00 00 00 00 00 00 00 00 00 00 00  |................|
 F5EB  00 00 00 00 00 00 00 00 00 00 00 00 00 00 00 00  |................|
 F5FB  00 00 00 00 00 00 00 00 00 00 00 00 00 00 00 00  |................|
 F60B  00 00 00 00 00 00 00 00 00 00 00 00 00 00 00 00  |................|
 F61B  00 00 00 00 00 00 00 00 00 00 00 00 00 00 00 00  |................|
 F62B  00 00 00 00 00 00 00 00 00 00 00 00 00 00 00 00  |................|
 F63B  00 00 00 00 00 00 00 00 00 00 00 00 00 00 00 00  |................|
 F64B  00 00 00 00 00 00 00 00 00 00 00 00 00 00 00 00  |................|
 F65B  00 00 00 00 00 00 00 00 00 00 00 00 00 00 00 00  |................|
 F66B  00 00 00 00 00 00 00 00 00 00 00 00 00 00 00 00  |................|
 F67B  00 00 00 00 00 00 00 00 00 00 00 00 00 00 00 00  |................|
 F68B  00 00 00 00 00 00 00 00 00 00 00 00 00 00 00 00  |................|
 F69B  00 00 00 00 00 00 00 00 00 00 00 00 00 00 00 00  |................|
 F6AB  00 00 00 00 00 00 00 00 00 00 00 00 00 00 00 00  |................|
 F6BB  00 00 00 00 00 00 00 00 00 00 00 00 00 00 00 00  |................|
 F6CB  00 00 00 00 00 00 00 00 00 00 00 00 00 00 00 00  |................|
 F6DB  00 00 00 00 00 00 00 00 00 00 00 00 00 00 00 00  |................|
 F6EB  00 00 00 00 00 00 00 00 00 00 00 00 00 00 00 00  |................|
 F6FB  00 00 00 00 00 00 00 00 00 00 00 00 00 00 00 00  |................|
 F70B  00 00 00 00 00 00 00 00 00 00 00 00 00 00 00 00  |................|
 F71B  00 00 00 00 00 00 00 00 00 00 00 00 00 00 00 00  |................|
 F72B  00 00 00 00 00 00 00 00 00 00 00 00 00 00 00 00  |................|
 F73B  00 00 00 00 00 00 00 00 00 00 00 00 00 00 00 00  |................|
 F74B  00 00 00 00 00 00 00 00 00 00 00 00 00 00 00 00  |................|
 F75B  00 00 00 00 00 00 00 00 00 00 00 00 00 00 00 00  |................|
 F76B  00 00 00 00 00 00 00 00 00 00 00 00 00 00 00 00  |................|
 F77B  00 00 00 00 00 00 00 00 00 00 00 00 00 00 00 00  |................|
 F78B  00 00 00 00 00 00 00 00 00 00 00 00 00 00 00 00  |................|
 F79B  00 00 00 00 00 00 00 00 00 00 00 00 00 00 00 00  |................|
 F7AB  00 00 00 00 00 00 00 00 00 00 00 00 00 00 00 00  |................|
 F7BB  00 00 00 00 00 00 00 00 00 00 00 00 00 00 00 00  |................|
 F7CB  00 00 00 00 00 00 00 00 00 00 00 00 00 00 00 00  |................|
 F7DB  00 00 00 00 00 00 00 00 00 00 00 00 00 00 00 00  |................|
 F7EB  00 00 00 00 00 00 00 00 00 00 00 00 00 00 00 00  |................|
 F7FB  00 00 00 00 00 00 00 00 00 00 00 00 00 00 00 00  |................|
 F80B  00 00 00 00 00 00 00 00 00 00 00 00 00 00 00 00  |................|
 F81B  00 00 00 00 00 00 00 00 00 00 00 00 00 00 00 00  |................|
 F82B  00 00 00 00 00 00 00 00 00 00 00 00 00 00 00 00  |................|
 F83B  00 00 00 00 00 00 00 00 00 00 00 00 00 00 00 00  |................|
 F84B  00 00 00 00 00 00 00 00 00 00 00 00 00 00 00 00  |................|
 F85B  00 00 00 00 00 00 00 00 00 00 00 00 00 00 00 00  |................|
 F86B  00 00 00 00 00 00 00 00 00 00 00 00 00 00 00 00  |................|
 F87B  00 00 00 00 00 00 00 00 00 00 00 00 00 00 00 00  |................|
 F88B  00 00 00 00 00 00 00 00 00 00 00 00 00 00 00 00  |................|
 F89B  00 00 00 00 00 00 00 00 00 00 00 00 00 00 00 00  |................|
 F8AB  00 00 00 00 00 00 00 00 00 00 00 00 00 00 00 00  |................|
 F8BB  00 00 00 00 00 00 00 00 00 00 00 00 00 00 00 00  |................|
 F8CB  00 00 00 00 00 00 00 00 00 00 00 00 00 00 00 00  |................|
 F8DB  00 00 00 00 00 00 00 00 00 00 00 00 00 00 00 00  |................|
 F8EB  00 00 00 00 00 00 00 00 00 00 00 00 00 00 00 00  |................|
 F8FB  00 00 00 00 00 00 00 00 00 00 00 00 00 00 00 00  |................|
 F90B  00 00 00 00 00 00 00 00 00 00 00 00 00 00 00 00  |................|
 F91B  00 00 00 00 00 00 00 00 00 00 00 00 00 00 00 00  |................|
 F92B  00 00 00 00 00 00 00 00 00 00 00 00 00 00 00 00  |................|
 F93B  00 00 00 00 00 00 00 00 00 00 00 00 00 00 00 00  |................|
 F94B  00 00 00 00 00 00 00 00 00 00 00 00 00 00 00 00  |................|
 F95B  00 00 00 00 00 00 00 00 00 00 00 00 00 00 00 00  |................|
 F96B  00 00 00 00 00 00 00 00 00 00 00 00 00 00 00 00  |................|
 F97B  00 00 00 00 00 00 00 00 00 00 00 00 00 00 00 00  |................|
 F98B  00 00 00 00 00 00 00 00 00 00 00 00 00 00 00 00  |................|
 F99B  00 00 00 00 00 00 00 00 00 00 00 00 00 00 00 00  |................|
 F9AB  00 00 00 00 00 00 00 00 00 00 00 00 00 00 00 00  |................|
 F9BB  00 00 00 00 00 00 00 00 00 00 00 00 00 00 00 00  |................|
 F9CB  00 00 00 00 00 00 00 00 00 00 00 00 00 00 00 00  |................|
 F9DB  00 00 00 00 00 00 00 00 00 00 00 00 00 00 00 00  |................|
 F9EB  00 00 00 00 00 00 00 00 00 00 00 00 00 00 00 00  |................|
 F9FB  00 00 00 00 00 00 00 00 00 00 00 00 00 00 00 00  |................|
 FA0B  00 00 00 00 00 00 00 00 00 00 00 00 00 00 00 00  |................|
 FA1B  00 00 00 00 00 00 00 00 00 00 00 00 00 00 00 00  |................|
 FA2B  00 00 00 00 00 00 00 00 00 00 00 00 00 00 00 00  |................|
 FA3B  00 00 00 00 00 00 00 00 00 00 00 00 00 00 00 00  |................|
 FA4B  00 00 00 00 00 00 00 00 00 00 00 00 00 00 00 00  |................|
 FA5B  00 00 00 00 00 00 00 00 00 00 00 00 00 00 00 00  |................|
 FA6B  00 00 00 00 00 00 00 00 00 00 00 00 00 00 00 00  |................|
 FA7B  00 00 00 00 00 00 00 00 00 00 00 00 00 00 00 00  |................|
 FA8B  00 00 00 00 00 00 00 00 00 00 00 00 00 00 00 00  |................|
 FA9B  00 00 00 00 00 00 00 00 00 00 00 00 00 00 00 00  |................|
 FAAB  00 00 00 00 00 00 00 00 00 00 00 00 00 00 00 00  |................|
 FABB  00 00 00 00 00 00 00 00 00 00 00 00 00 00 00 00  |................|
 FACB  00 00 00 00 00 00 00 00 00 00 00 00 00 00 00 00  |................|
 FADB  00 00 00 00 00 00 00 00 00 00 00 00 00 00 00 00  |................|
 FAEB  00 00 00 00 00 00 00 00 00 00 00 00 00 00 00 00  |................|
 FAFB  00 00 00 00 00 00 00 00 00 00 00 00 00 00 00 00  |................|
 FB0B  00 00 00 00 00 00 00 00 00 00 00 00 00 00 00 00  |................|
 FB1B  00 00 00 00 00 00 00 00 00 00 00 00 00 00 00 00  |................|
 FB2B  00 00 00 00 00 00 00 00 00 00 00 00 00 00 00 00  |................|
 FB3B  00 00 00 00 00 00 00 00 00 00 00 00 00 00 00 00  |................|
 FB4B  00 00 00 00 00 00 00 00 00 00 00 00 00 00 00 00  |................|
 FB5B  00 00 00 00 00 00 00 00 00 00 00 00 00 00 00 00  |................|
 FB6B  00 00 00 00 00 00 00 00 00 00 00 00 00 00 00 00  |................|
 FB7B  00 00 00 00 00 00 00 00 00 00 00 00 00 00 00 00  |................|
 FB8B  00 00 00 00 00 00 00 00 00 00 00 00 00 00 00 00  |................|
 FB9B  00 00 00 00 00 00 00 00 00 00 00 00 00 00 00 00  |................|
 FBAB  00 00 00 00 00 00 00 00 00 00 00 00 00 00 00 00  |................|
 FBBB  00 00 00 00 00 00 00 00 00 00 00 00 00 00 00 00  |................|
 FBCB  00 00 00 00 00 00 00 00 00 00 00 00 00 00 00 00  |................|
 FBDB  00 00 00 00 00 00 00 00 00 00 00 00 00 00 00 00  |................|
 FBEB  00 00 00 00 00 00 00 00 00 00 00 00 00 00 00 00  |................|
 FBFB  00 00 00 00 00 00 00 00 00 00 00 00 00 00 00 00  |................|
 FC0B  00 00 00 00 00 00 00 00 00 00 00 00 00 00 00 00  |................|
 FC1B  00 00 00 00 00 00 00 00 00 00 00 00 00 00 00 00  |................|
 FC2B  00 00 00 00 00 00 00 00 00 00 00 00 00 00 00 00  |................|
 FC3B  00 00 00 00 00 00 00 00 00 00 00 00 00 00 00 00  |................|
 FC4B  00 00 00 00 00 00 00 00 00 00 00 00 00 00 00 00  |................|
 FC5B  00 00 00 00 00 00 00 00 00 00 00 00 00 00 00 00  |................|
 FC6B  00 00 00 00 00 00 00 00 00 00 00 00 00 00 00 00  |................|
 FC7B  00 00 00 00 00 00 00 00 00 00 00 00 00 00 00 00  |................|
 FC8B  00 00 00 00 00 00 00 00 00 00 00 00 00 00 00 00  |................|
 FC9B  00 00 00 00 00 00 00 00 00 00 00 00 00 00 00 00  |................|
 FCAB  00 00 00 00 00 00 00 00 00 00 00 00 00 00 00 00  |................|
 FCBB  00 00 00 00 00 00 00 00 00 00 00 00 00 00 00 00  |................|
 FCCB  00 00 00 00 00 00 00 00 00 00 00 00 00 00 00 00  |................|
 FCDB  00 00 00 00 00 00 00 00 00 00 00 00 00 00 00 00  |................|
 FCEB  00 00 00 00 00 00 00 00 00 00 00 00 00 00 00 00  |................|
 FCFB  00 00 00 00 00 00 00 00 00 00 00 00 00 00 00 00  |................|
 FD0B  00 00 00 00 00 00 00 00 00 00 00 00 00 00 00 00  |................|
 FD1B  00 00 00 00 00 00 00 00 00 00 00 00 00 00 00 00  |................|
 FD2B  00 00 00 00 00 00 00 00 00 00 00 00 00 00 00 00  |................|
 FD3B  00 00 00 00 00 00 00 00 00 00 00 00 00 00 00 00  |................|
 FD4B  00 00 00 00 00 00 00 00 00 00 00 00 00 00 00 00  |................|
 FD5B  00 00 00 00 00 00 00 00 00 00 00 00 00 00 00 00  |................|
 FD6B  00 00 00 00 00 00 00 00 00 00 00 00 00 00 00 00  |................|
 FD7B  00 00 00 00 00 00 00 00 00 00 00 00 00 00 00 00  |................|
 FD8B  00 00 00 00 00 00 00 00 00 00 00 00 00 00 00 00  |................|
 FD9B  00 00 00 00 00 00 00 00 00 00 00 00 00 00 00 00  |................|
 FDAB  00 00 00 00 00 00 00 00 00 00 00 00 00 00 00 00  |................|
 FDBB  00 00 00 00 00 00 00 00 00 00 00 00 00 00 00 00  |................|
 FDCB  00 00 00 00 00 00 00 00 00 00 00 00 00 00 00 00  |................|
 FDDB  00 00 00 00 00 00 00 00 00 00 00 00 00 00 00 00  |................|
 FDEB  00 00 00 00 00 00 00 00 00 00 00 00 00 00 00 00  |................|
 FDFB  00 00 00 00 00 00 00 00 00 00 00 00 00 00 00 00  |................|
 FE0B  00 00 00 00 00 00 00 00 00 00 00 00 00 00 00 00  |................|
 FE1B  00 00 00 00 00 00 00 00 00 00 00 00 00 00 00 00  |................|
 FE2B  00 00 00 00 00 00 00 00 00 00 00 00 00 00 00 00  |................|
 FE3B  00 00 00 00 00 00 00 00 00 00 00 00 00 00 00 00  |................|
 FE4B  00 00 00 00 00 00 00 00 00 00 00 00 00 00 00 00  |................|
 FE5B  00 00 00 00 00 00 00 00 00 00 00 00 00 00 00 00  |................|
 FE6B  00 00 00 00 00 00 00 00 00 00 00 00 00 00 00 00  |................|
 FE7B  00 00 00 00 00 00 00 00 00 00 00 00 00 00 00 00  |................|
 FE8B  00 00 00 00 00 00 00 00 00 00 00 00 00 00 00 00  |................|
 FE9B  00 00 00 00 00 00 00 00 00 00 00 00 00 00 00 00  |................|
 FEAB  00 00 00 00 00 00 00 00 00 00 00 00 00 00 00 00  |................|
 FEBB  00 00 00 00 00 00 00 00 00 00 00 00 00 00 00 00  |................|
 FECB  00 00 00 00 00 00 00 00 00 00 00 00 00 00 00 00  |................|
 FEDB  00 00 00 00 00 00 00 00 00 00 00 00 00 00 00 00  |................|
 FEEB  00 00 00 00 00 00 00 00 00 00 00 00 00 00 00 00  |................|
 FEFB  00 00 00 00 00 00 00 00 00 00 00 00 00 00 00 00  |................|
 FF0B  00 00 00 00 00 00 00 00 00 00 00 00 00 00 00 00  |................|
 FF1B  00 00 00 00 00 00 00 00 00 00 00 00 00 00 00 00  |................|
 FF2B  00 00 00 00 00 00 00 00 00 00 00 00 00 00 00 00  |................|
 FF3B  00 00 00 00 00 00 00 00 00 00 00 00 00 00 00 00  |................|
 FF4B  00 00 00 00 00 00 00 00 00 00 00 00 00 00 00 00  |................|
 FF5B  00 00 00 00 00 00 00 00 00 00 00 00 00 00 00 00  |................|
 FF6B  00 00 00 00 00 00 00 00 00 00 00 00 00 00 00 00  |................|
 FF7B  00 00 00 00 00 00 00 00 00 00 00 00 00 00 00 00  |................|
 FF8B  00 00 00 00 00 00 00 00 00 00 00 00 00 00 00 00  |................|
 FF9B  00 00 00 00 00 00 00 00 00 00 00 00 00 00 00 00  |................|
 FFAB  00 00 00 00 00 00 00 00 00 00 00 00 00 00 00 00  |................|
 FFBB  00 00 00 00 00 00 00 00 00 00 00 00 00 00 00 00  |................|
 FFCB  00 00 00 00 00 00 00 00 00 00 00 00 00 00 00 00  |................|
 FFDB  00 00 00 00 00 00 00 00 00 00 00 00 00 00 00 00  |................|
 FFEB  00 00 00 00 00 00 00 00 00 00 00 00 00 00 00 10  |................|
 FFFB  F0 10 F0 10 F0                                   |.....           |
