 8000  D8        CLD  
 8001  A9 27     LDA  #$27
 8003  85 10     STA  $10
 8005  A9 F0     LDA  #$F0
 8007  85 11     STA  $11
 8009  A2 21     LDX  #$21
 800B  BD C5 80  LDA  $80C5, X
 800E  95 00     STA  $00, X
 8010  CA        DEX  
 8011  D0 F8     BNE  $800B
 8013  AD C5 80  LDA  $80C5
 8016  85 00     STA  $00
 8018  A2 FF     LDX  #$FF
 801A  9A        TXS  
 801B  A2 78     LDX  #$78
 801D  A0 31     LDY  #$31
 801F  A9 00     LDA  #$00
 8021  B9 E7 80  LDA  $80E7, Y
 8024  91 1E     STA  ($1E), Y
 8026  88        DEY  
 8027  D0 F8     BNE  $8021
 8029  AD E7 80  LDA  $80E7
 802C  92 1E     STA  ($1E)
 802E  20 72 89  JSR  $8972
 8031  CA        DEX  
 8032  CA        DEX  
 8033  CA        DEX  
 8034  CA        DEX  
 8035  A9 83     LDA  #$83
 8037  95 02     STA  $02, X
 8039  A9 B9     LDA  #$B9
 803B  95 03     STA  $03, X
 803D  A9 48     LDA  #$48
 803F  38        SEC  
 8040  E9 83     SBC  #$83
 8042  95 00     STA  $00, X
 8044  A9 BA     LDA  #$BA
 8046  E9 B9     SBC  #$B9
 8048  95 01     STA  $01, X
 804A  20 E4 90  JSR  $90E4
 804D  CA        DEX  
 804E  CA        DEX  
 804F  CA        DEX  
 8050  CA        DEX  
 8051  A9 48     LDA  #$48
 8053  95 02     STA  $02, X
 8055  A9 BA     LDA  #$BA
 8057  95 03     STA  $03, X
 8059  A9 4A     LDA  #$4A
 805B  38        SEC  
 805C  E9 48     SBC  #$48
 805E  95 00     STA  $00, X
 8060  A9 BA     LDA  #$BA
 8062  E9 BA     SBC  #$BA
 8064  95 01     STA  $01, X
 8066  20 E4 90  JSR  $90E4
 8069  9C 00 7C  STZ  $7C00
 806C  9C 80 7C  STZ  $7C80
 806F  9C 00 7D  STZ  $7D00
 8072  9C 80 7D  STZ  $7D80
 8075  9C 00 7E  STZ  $7E00
 8078  9C 80 7E  STZ  $7E80
 807B  9C 00 7F  STZ  $7F00
 807E  9C 80 7F  STZ  $7F80
 8081  A2 78     LDX  #$78
 8083  8A        TXA  
 8084  A2 FF     LDX  #$FF
 8086  9A        TXS  
 8087  AA        TAX  
 8088  64 0E     STZ  $0E
 808A  64 0F     STZ  $0F
 808C  64 06     STZ  $06
 808E  64 07     STZ  $07
 8090  64 16     STZ  $16
 8092  64 17     STZ  $17
 8094  A9 00     LDA  #$00
 8096  85 08     STA  $08
 8098  A9 02     LDA  #$02
 809A  85 09     STA  $09
 809C  64 0A     STZ  $0A
 809E  64 0B     STZ  $0B
 80A0  20 9D 9A  JSR  $9A9D
 80A3  B5 00     LDA  $00, X
 80A5  D0 05     BNE  $80AC
 80A7  A9 06     LDA  #$06
 80A9  4C 22 D6  JMP  $D622
 80AC  E8        INX  
 80AD  E8        INX  
 80AE  20 74 D5  JSR  $D574
 80B1  E0 78     CPX  #$78
 80B3  F0 05     BEQ  $80BA
 80B5  90 03     BCC  $80BA
 80B7  4C 20 D6  JMP  $D620
 80BA  A5 16     LDA  $16
 80BC  F0 02     BEQ  $80C0
 80BE  A9 01     LDA  #$01
 80C0  20 52 D6  JSR  $D652
 80C3  80 CF     BRA  $8094
 80C5  00 08 45 C8 00 00 00 00 00 02 00 00 00 00 00 00  |..E.............|
 80D5  27 F0 21 F0 00 00 00 00 0A 00 14 00 00 00 00 03  |'.!.............|
 80E5  00 00 00 00 00 00 00 04 45 C8 D9 C8 E2 C8 81 C8  |........E.......|
 80F5  00 00 00 00 00 00 00 00 00 00 00 00 00 00 00 00  |................|
 8105  01 00 00 00 00 00 00 00 00 00 00 04 00 00 00 00  |................|
 8115  65 85 65 85                                      |e.e.            |
 8119  20 F3 9C  JSR  $9CF3
 811C  A0 81     LDY  #$81
 811E  A9 24     LDA  #$24
 8120  20 AF D4  JSR  $D4AF
 8123  60        RTS  
 8124  B5 04     LDA  $04, X
 8126  15 05     ORA  $05, X
 8128  F0 09     BEQ  $8133
 812A  20 9F A4  JSR  $A49F
 812D  20 72 89  JSR  $8972
 8130  4C 81 80  JMP  $8081
 8133  8A        TXA  
 8134  18        CLC  
 8135  69 06     ADC  #$06
 8137  AA        TAX  
 8138  60        RTS  
 8139  20 0C D6  JSR  $D60C
 813C  B5 01     LDA  $01, X
 813E  10 0D     BPL  $814D
 8140  38        SEC  
 8141  A9 00     LDA  #$00
 8143  F5 00     SBC  $00, X
 8145  95 00     STA  $00, X
 8147  A9 00     LDA  #$00
 8149  F5 01     SBC  $01, X
 814B  95 01     STA  $01, X
 814D  60        RTS  
 814E  20 11 D6  JSR  $D611
 8151  B5 00     LDA  $00, X
 8153  15 01     ORA  $01, X
 8155  D0 09     BNE  $8160
 8157  E8        INX  
 8158  E8        INX  
 8159  74 00     STZ  $00, X
 815B  74 01     STZ  $01, X
 815D  4C 4A 82  JMP  $824A
 8160  B5 00     LDA  $00, X
 8162  85 26     STA  $26
 8164  64 27     STZ  $27
 8166  B5 02     LDA  $02, X
 8168  85 24     STA  $24
 816A  B5 03     LDA  $03, X
 816C  85 25     STA  $25
 816E  E8        INX  
 816F  E8        INX  
 8170  A0 00     LDY  #$00
 8172  A5 20     LDA  $20
 8174  29 F7     AND  #$F7
 8176  1A        INC  
 8177  09 08     ORA  #$08
 8179  85 20     STA  $20
 817B  20 47 93  JSR  $9347
 817E  C9 0A     CMP  #$0A
 8180  F0 20     BEQ  $81A2
 8182  C9 0D     CMP  #$0D
 8184  F0 1C     BEQ  $81A2
 8186  C9 08     CMP  #$08
 8188  F0 22     BEQ  $81AC
 818A  C9 7F     CMP  #$7F
 818C  F0 1E     BEQ  $81AC
 818E  C9 10     CMP  #$10
 8190  F0 36     BEQ  $81C8
 8192  C9 0E     CMP  #$0E
 8194  F0 44     BEQ  $81DA
 8196  91 24     STA  ($24), Y
 8198  C8        INY  
 8199  20 05 8E  JSR  $8E05
 819C  C4 26     CPY  $26
 819E  D0 DB     BNE  $817B
 81A0  80 03     BRA  $81A5
 81A2  20 C4 A0  JSR  $A0C4
 81A5  94 00     STY  $00, X
 81A7  74 01     STZ  $01, X
 81A9  4C 4A 82  JMP  $824A
 81AC  C0 00     CPY  #$00
 81AE  D0 06     BNE  $81B6
 81B0  A9 07     LDA  #$07
 81B2  20 05 8E  JSR  $8E05
 81B5  C8        INY  
 81B6  88        DEY  
 81B7  A9 08     LDA  #$08
 81B9  20 05 8E  JSR  $8E05
 81BC  A9 20     LDA  #$20
 81BE  20 05 8E  JSR  $8E05
 81C1  A9 08     LDA  #$08
 81C3  20 05 8E  JSR  $8E05
 81C6  80 B3     BRA  $817B
 81C8  A5 20     LDA  $20
 81CA  29 07     AND  #$07
 81CC  D0 08     BNE  $81D6
 81CE  A5 20     LDA  $20
 81D0  09 07     ORA  #$07
 81D2  85 20     STA  $20
 81D4  80 11     BRA  $81E7
 81D6  C6 20     DEC  $20
 81D8  80 0D     BRA  $81E7
 81DA  A9 08     LDA  #$08
 81DC  24 20     BIT  $20
 81DE  D0 07     BNE  $81E7
 81E0  A5 20     LDA  $20
 81E2  29 F7     AND  #$F7
 81E4  1A        INC  
 81E5  85 20     STA  $20
 81E7  A9 08     LDA  #$08
 81E9  14 20     TRB  $20
 81EB  A9 00     LDA  #$00
 81ED  85 28     STA  $28
 81EF  A9 7C     LDA  #$7C
 81F1  85 29     STA  $29
 81F3  A5 20     LDA  $20
 81F5  6A        ROR  
 81F6  29 03     AND  #$03
 81F8  18        CLC  
 81F9  65 29     ADC  $29
 81FB  85 29     STA  $29
 81FD  A5 20     LDA  $20
 81FF  6A        ROR  
 8200  6A        ROR  
 8201  29 80     AND  #$80
 8203  18        CLC  
 8204  65 28     ADC  $28
 8206  85 28     STA  $28
 8208  90 02     BCC  $820C
 820A  E6 29     INC  $29
 820C  A9 0D     LDA  #$0D
 820E  20 05 8E  JSR  $8E05
 8211  C0 00     CPY  #$00
 8213  F0 08     BEQ  $821D
 8215  A9 20     LDA  #$20
 8217  20 05 8E  JSR  $8E05
 821A  88        DEY  
 821B  80 F4     BRA  $8211
 821D  A9 0D     LDA  #$0D
 821F  20 05 8E  JSR  $8E05
 8222  B1 28     LDA  ($28), Y
 8224  85 21     STA  $21
 8226  E6 28     INC  $28
 8228  D0 02     BNE  $822C
 822A  E6 29     INC  $29
 822C  A9 0D     LDA  #$0D
 822E  20 05 8E  JSR  $8E05
 8231  C4 21     CPY  $21
 8233  D0 03     BNE  $8238
 8235  4C 7B 81  JMP  $817B
 8238  C4 26     CPY  $26
 823A  F0 0A     BEQ  $8246
 823C  B1 28     LDA  ($28), Y
 823E  91 24     STA  ($24), Y
 8240  20 05 8E  JSR  $8E05
 8243  C8        INY  
 8244  80 EB     BRA  $8231
 8246  88        DEY  
 8247  4C 7B 81  JMP  $817B
 824A  A9 00     LDA  #$00
 824C  85 28     STA  $28
 824E  A9 7C     LDA  #$7C
 8250  85 29     STA  $29
 8252  A5 20     LDA  $20
 8254  6A        ROR  
 8255  29 03     AND  #$03
 8257  18        CLC  
 8258  65 29     ADC  $29
 825A  85 29     STA  $29
 825C  A5 20     LDA  $20
 825E  6A        ROR  
 825F  6A        ROR  
 8260  29 80     AND  #$80
 8262  18        CLC  
 8263  65 28     ADC  $28
 8265  85 28     STA  $28
 8267  90 02     BCC  $826B
 8269  E6 29     INC  $29
 826B  98        TYA  
 826C  C9 80     CMP  #$80
 826E  90 02     BCC  $8272
 8270  A9 7F     LDA  #$7F
 8272  85 21     STA  $21
 8274  A0 00     LDY  #$00
 8276  91 28     STA  ($28), Y
 8278  E6 28     INC  $28
 827A  D0 02     BNE  $827E
 827C  E6 29     INC  $29
 827E  C4 21     CPY  $21
 8280  F0 07     BEQ  $8289
 8282  B1 24     LDA  ($24), Y
 8284  91 28     STA  ($28), Y
 8286  C8        INY  
 8287  80 F5     BRA  $827E
 8289  60        RTS  
 828A  A5 16     LDA  $16
 828C  05 17     ORA  $17
 828E  F0 0C     BEQ  $829C
 8290  20 A8 85  JSR  $85A8
 8293  A0 8A     LDY  #$8A
 8295  A9 EE     LDA  #$EE
 8297  20 AF D4  JSR  $D4AF
 829A  80 06     BRA  $82A2
 829C  20 AD A1  JSR  $A1AD
 829F  20 EE 8A  JSR  $8AEE
 82A2  60        RTS  
 82A3  20 0C D6  JSR  $D60C
 82A6  A0 00     LDY  #$00
 82A8  A9 4C     LDA  #$4C
 82AA  91 00     STA  ($00), Y
 82AC  C8        INY  
 82AD  B5 00     LDA  $00, X
 82AF  91 00     STA  ($00), Y
 82B1  C8        INY  
 82B2  B5 01     LDA  $01, X
 82B4  91 00     STA  ($00), Y
 82B6  C8        INY  
 82B7  98        TYA  
 82B8  18        CLC  
 82B9  65 00     ADC  $00
 82BB  85 00     STA  $00
 82BD  90 02     BCC  $82C1
 82BF  E6 01     INC  $01
 82C1  E8        INX  
 82C2  E8        INX  
 82C3  60        RTS  
 82C4  60        RTS  
 82C5  20 0C D6  JSR  $D60C
 82C8  B5 01     LDA  $01, X
 82CA  30 22     BMI  $82EE
 82CC  18        CLC  
 82CD  A5 00     LDA  $00
 82CF  75 00     ADC  $00, X
 82D1  85 00     STA  $00
 82D3  A5 01     LDA  $01
 82D5  75 01     ADC  $01, X
 82D7  85 01     STA  $01
 82D9  A0 00     LDY  #$00
 82DB  C4 00     CPY  $00
 82DD  A9 7C     LDA  #$7C
 82DF  E5 01     SBC  $01
 82E1  B0 48     BCS  $832B
 82E3  84 00     STY  $00
 82E5  A9 7C     LDA  #$7C
 82E7  85 01     STA  $01
 82E9  A9 00     LDA  #$00
 82EB  4C 22 D6  JMP  $D622
 82EE  CA        DEX  
 82EF  CA        DEX  
 82F0  A5 00     LDA  $00
 82F2  95 00     STA  $00, X
 82F4  A5 01     LDA  $01
 82F6  95 01     STA  $01, X
 82F8  20 88 99  JSR  $9988
 82FB  CA        DEX  
 82FC  CA        DEX  
 82FD  A9 00     LDA  #$00
 82FF  95 00     STA  $00, X
 8301  A9 03     LDA  #$03
 8303  95 01     STA  $01, X
 8305  20 33 D5  JSR  $D533
 8308  F0 17     BEQ  $8321
 830A  30 15     BMI  $8321
 830C  A9 00     LDA  #$00
 830E  85 00     STA  $00
 8310  A9 03     LDA  #$03
 8312  85 01     STA  $01
 8314  A9 45     LDA  #$45
 8316  85 02     STA  $02
 8318  A9 C8     LDA  #$C8
 831A  85 03     STA  $03
 831C  A9 0A     LDA  #$0A
 831E  4C 22 D6  JMP  $D622
 8321  B5 02     LDA  $02, X
 8323  85 00     STA  $00
 8325  B5 03     LDA  $03, X
 8327  85 01     STA  $01
 8329  E8        INX  
 832A  E8        INX  
 832B  E8        INX  
 832C  E8        INX  
 832D  60        RTS  
 832E  20 4E D5  JSR  $D54E
 8331  A0 01     LDY  #$01
 8333  B1 02     LDA  ($02), Y
 8335  29 F5     AND  #$F5
 8337  91 02     STA  ($02), Y
 8339  60        RTS  
 833A  20 43 91  JSR  $9143
 833D  20 38 98  JSR  $9838
 8340  20 4A A1  JSR  $A14A
 8343  20 C2 97  JSR  $97C2
 8346  20 BF 9C  JSR  $9CBF
 8349  60        RTS  
 834A  20 4E D5  JSR  $D54E
 834D  A0 01     LDY  #$01
 834F  B1 02     LDA  ($02), Y
 8351  09 02     ORA  #$02
 8353  29 F7     AND  #$F7
 8355  91 02     STA  ($02), Y
 8357  60        RTS  
 8358  20 11 D6  JSR  $D611
 835B  B5 00     LDA  $00, X
 835D  35 02     AND  $02, X
 835F  95 02     STA  $02, X
 8361  B5 01     LDA  $01, X
 8363  35 03     AND  $03, X
 8365  95 03     STA  $03, X
 8367  E8        INX  
 8368  E8        INX  
 8369  60        RTS  
 836A  20 11 D6  JSR  $D611
 836D  A9 1B     LDA  #$1B
 836F  20 05 8E  JSR  $8E05
 8372  A9 5B     LDA  #$5B
 8374  20 05 8E  JSR  $8E05
 8377  20 58 D6  JSR  $D658
 837A  A9 3B     LDA  #$3B
 837C  20 05 8E  JSR  $8E05
 837F  20 58 D6  JSR  $D658
 8382  A9 48     LDA  #$48
 8384  20 05 8E  JSR  $8E05
 8387  60        RTS  
 8388  A5 0A     LDA  $0A
 838A  85 0C     STA  $0C
 838C  A5 0B     LDA  $0B
 838E  85 0D     STA  $0D
 8390  60        RTS  
 8391  CA        DEX  
 8392  CA        DEX  
 8393  A9 18     LDA  #$18
 8395  95 00     STA  $00, X
 8397  74 01     STZ  $01, X
 8399  60        RTS  
 839A  20 81 91  JSR  $9181
 839D  60        RTS  
 839E  A9 07     LDA  #$07
 83A0  20 05 8E  JSR  $8E05
 83A3  60        RTS  
 83A4  CA        DEX  
 83A5  CA        DEX  
 83A6  A9 20     LDA  #$20
 83A8  95 00     STA  $00, X
 83AA  74 01     STZ  $01, X
 83AC  60        RTS  
 83AD  CA        DEX  
 83AE  CA        DEX  
 83AF  18        CLC  
 83B0  A5 1E     LDA  $1E
 83B2  69 00     ADC  #$00
 83B4  95 00     STA  $00, X
 83B6  A5 1F     LDA  $1F
 83B8  69 00     ADC  #$00
 83BA  95 01     STA  $01, X
 83BC  60        RTS  
 83BD  CA        DEX  
 83BE  CA        DEX  
 83BF  A0 28     LDY  #$28
 83C1  B1 1E     LDA  ($1E), Y
 83C3  95 00     STA  $00, X
 83C5  C8        INY  
 83C6  B1 1E     LDA  ($1E), Y
 83C8  95 01     STA  $01, X
 83CA  60        RTS  
 83CB  A0 2A     LDY  #$2A
 83CD  B1 1E     LDA  ($1E), Y
 83CF  D5 00     CMP  $00, X
 83D1  D0 0F     BNE  $83E2
 83D3  C8        INY  
 83D4  B1 1E     LDA  ($1E), Y
 83D6  D5 01     CMP  $01, X
 83D8  D0 08     BNE  $83E2
 83DA  A0 2C     LDY  #$2C
 83DC  B1 1E     LDA  ($1E), Y
 83DE  29 01     AND  #$01
 83E0  D0 30     BNE  $8412
 83E2  A0 2C     LDY  #$2C
 83E4  B1 1E     LDA  ($1E), Y
 83E6  C9 03     CMP  #$03
 83E8  D0 0C     BNE  $83F6
 83EA  20 BD 83  JSR  $83BD
 83ED  20 AF 85  JSR  $85AF
 83F0  20 8F 8F  JSR  $8F8F
 83F3  20 6A 85  JSR  $856A
 83F6  A0 2A     LDY  #$2A
 83F8  B5 00     LDA  $00, X
 83FA  91 1E     STA  ($1E), Y
 83FC  C8        INY  
 83FD  B5 01     LDA  $01, X
 83FF  91 1E     STA  ($1E), Y
 8401  20 BD 83  JSR  $83BD
 8404  20 4A A1  JSR  $A14A
 8407  20 47 85  JSR  $8547
 840A  A9 01     LDA  #$01
 840C  A0 2C     LDY  #$2C
 840E  91 1E     STA  ($1E), Y
 8410  CA        DEX  
 8411  CA        DEX  
 8412  A0 28     LDY  #$28
 8414  B1 1E     LDA  ($1E), Y
 8416  95 00     STA  $00, X
 8418  C8        INY  
 8419  B1 1E     LDA  ($1E), Y
 841B  95 01     STA  $01, X
 841D  60        RTS  
 841E  20 0C D6  JSR  $D60C
 8421  4C 3C 85  JMP  $853C
 8424  62 61 73 65 20 40 20 73 77 61 70 20 64 65 63 69  |base @ swap deci|
 8434  6D 61 6C 20 31 30 32 34 20 2A 20 64 75 70 20 62  |mal 1024 * dup b|
 8444  75 66 66 65 72 3A 20 72 61 6D 64 72 69 76 65 20  |uffer: ramdrive |
 8454  3A 20 62 6C 6F 63 6B 2D 72 65 61 64 2D 72 61 6D  |: block-read-ram|
 8464  64 72 69 76 65 20 72 61 6D 64 72 69 76 65 20 73  |drive ramdrive s|
 8474  77 61 70 20 31 30 32 34 20 2A 20 2B 20 73 77 61  |wap 1024 * + swa|
 8484  70 20 31 30 32 34 20 6D 6F 76 65 20 3B 20 3A 20  |p 1024 move ; : |
 8494  62 6C 6F 63 6B 2D 77 72 69 74 65 2D 72 61 6D 64  |block-write-ramd|
 84A4  72 69 76 65 20 72 61 6D 64 72 69 76 65 20 73 77  |rive ramdrive sw|
 84B4  61 70 20 31 30 32 34 20 2A 20 2B 20 31 30 32 34  |ap 1024 * + 1024|
 84C4  20 6D 6F 76 65 20 3B 20 27 20 62 6C 6F 63 6B 2D  | move ; ' block-|
 84D4  72 65 61 64 2D 72 61 6D 64 72 69 76 65 20 62 6C  |read-ramdrive bl|
 84E4  6F 63 6B 2D 72 65 61 64 2D 76 65 63 74 6F 72 20  |ock-read-vector |
 84F4  21 20 27 20 62 6C 6F 63 6B 2D 77 72 69 74 65 2D  |! ' block-write-|
 8504  72 61 6D 64 72 69 76 65 20 62 6C 6F 63 6B 2D 77  |ramdrive block-w|
 8514  72 69 74 65 2D 76 65 63 74 6F 72 20 21 20 72 61  |rite-vector ! ra|
 8524  6D 64 72 69 76 65 20 73 77 61 70 20 62 6C 61 6E  |mdrive swap blan|
 8534  6B 20 62 61 73 65 20 21                          |k base !        |
 853C  20 4F A0  JSR  $A04F
 853F  24 84 18 01                                      |$...            |
 8543  20 E4 90  JSR  $90E4
 8546  60        RTS  
 8547  A0 2E     LDY  #$2E
 8549  B1 1E     LDA  ($1E), Y
 854B  85 24     STA  $24
 854D  C8        INY  
 854E  B1 1E     LDA  ($1E), Y
 8550  85 25     STA  $25
 8552  6C 24 00  JMP  ($0024)
 8555  CA        DEX  
 8556  CA        DEX  
 8557  18        CLC  
 8558  A5 1E     LDA  $1E
 855A  69 2E     ADC  #$2E
 855C  95 00     STA  $00, X
 855E  A5 1F     LDA  $1F
 8560  69 00     ADC  #$00
 8562  95 01     STA  $01, X
 8564  60        RTS  
 8565  A9 0C     LDA  #$0C
 8567  4C 22 D6  JMP  $D622
 856A  A0 30     LDY  #$30
 856C  B1 1E     LDA  ($1E), Y
 856E  85 24     STA  $24
 8570  C8        INY  
 8571  B1 1E     LDA  ($1E), Y
 8573  85 25     STA  $25
 8575  6C 24 00  JMP  ($0024)
 8578  CA        DEX  
 8579  CA        DEX  
 857A  18        CLC  
 857B  A5 1E     LDA  $1E
 857D  69 30     ADC  #$30
 857F  95 00     STA  $00, X
 8581  A5 1F     LDA  $1F
 8583  69 00     ADC  #$00
 8585  95 01     STA  $01, X
 8587  60        RTS  
 8588  20 11 D6  JSR  $D611
 858B  18        CLC  
 858C  B5 00     LDA  $00, X
 858E  B4 02     LDY  $02, X
 8590  75 02     ADC  $02, X
 8592  95 02     STA  $02, X
 8594  94 00     STY  $00, X
 8596  B5 01     LDA  $01, X
 8598  B4 03     LDY  $03, X
 859A  75 03     ADC  $03, X
 859C  95 03     STA  $03, X
 859E  94 01     STY  $01, X
 85A0  60        RTS  
 85A1  20 3A 86  JSR  $863A
 85A4  20 99 93  JSR  $9399
 85A7  60        RTS  
 85A8  20 AD A1  JSR  $A1AD
 85AB  20 99 93  JSR  $9399
 85AE  60        RTS  
 85AF  CA        DEX  
 85B0  CA        DEX  
 85B1  18        CLC  
 85B2  A5 1E     LDA  $1E
 85B4  69 2A     ADC  #$2A
 85B6  95 00     STA  $00, X
 85B8  A5 1F     LDA  $1F
 85BA  69 00     ADC  #$00
 85BC  95 01     STA  $01, X
 85BE  60        RTS  
 85BF  A0 2C     LDY  #$2C
 85C1  B1 1E     LDA  ($1E), Y
 85C3  C9 03     CMP  #$03
 85C5  D0 0C     BNE  $85D3
 85C7  20 BD 83  JSR  $83BD
 85CA  20 AF 85  JSR  $85AF
 85CD  20 8F 8F  JSR  $8F8F
 85D0  20 6A 85  JSR  $856A
 85D3  A0 2A     LDY  #$2A
 85D5  B5 00     LDA  $00, X
 85D7  91 1E     STA  ($1E), Y
 85D9  C8        INY  
 85DA  B5 01     LDA  $01, X
 85DC  91 1E     STA  ($1E), Y
 85DE  A9 01     LDA  #$01
 85E0  A0 2C     LDY  #$2C
 85E2  91 1E     STA  ($1E), Y
 85E4  A0 28     LDY  #$28
 85E6  B1 1E     LDA  ($1E), Y
 85E8  95 00     STA  $00, X
 85EA  C8        INY  
 85EB  B1 1E     LDA  ($1E), Y
 85ED  95 01     STA  $01, X
 85EF  60        RTS  
 85F0  20 78 89  JSR  $8978
 85F3  20 C5 82  JSR  $82C5
 85F6  60        RTS  
 85F7  CA        DEX  
 85F8  CA        DEX  
 85F9  18        CLC  
 85FA  A5 1E     LDA  $1E
 85FC  69 2C     ADC  #$2C
 85FE  95 00     STA  $00, X
 8600  A5 1F     LDA  $1F
 8602  69 00     ADC  #$00
 8604  95 01     STA  $01, X
 8606  60        RTS  
 8607  00        BRK  
 8608  60        RTS  
 8609  20 0C D6  JSR  $D60C
 860C  B5 00     LDA  $00, X
 860E  20 BF D4  JSR  $D4BF
 8611  E8        INX  
 8612  E8        INX  
 8613  60        RTS  
 8614  20 0C D6  JSR  $D60C
 8617  A1 00     LDA  ($00, X)
 8619  95 00     STA  $00, X
 861B  74 01     STZ  $01, X
 861D  60        RTS  
 861E  20 11 D6  JSR  $D611
 8621  B5 02     LDA  $02, X
 8623  81 00     STA  ($00, X)
 8625  E8        INX  
 8626  E8        INX  
 8627  E8        INX  
 8628  E8        INX  
 8629  60        RTS  
 862A  20 0C D6  JSR  $D60C
 862D  F6 00     INC  $00, X
 862F  D0 02     BNE  $8633
 8631  F6 01     INC  $01, X
 8633  F6 00     INC  $00, X
 8635  D0 02     BNE  $8639
 8637  F6 01     INC  $01, X
 8639  60        RTS  
 863A  20 84 98  JSR  $9884
 863D  B5 00     LDA  $00, X
 863F  15 01     ORA  $01, X
 8641  D0 05     BNE  $8648
 8643  A9 05     LDA  #$05
 8645  4C 22 D6  JMP  $D622
 8648  E8        INX  
 8649  E8        INX  
 864A  A1 00     LDA  ($00, X)
 864C  95 00     STA  $00, X
 864E  74 01     STZ  $01, X
 8650  60        RTS  
 8651  20 0C D6  JSR  $D60C
 8654  60        RTS  
 8655  20 11 D6  JSR  $D611
 8658  20 72 95  JSR  $9572
 865B  20 71 92  JSR  $9271
 865E  B5 00     LDA  $00, X
 8660  85 0A     STA  $0A
 8662  B5 01     LDA  $01, X
 8664  85 0B     STA  $0B
 8666  B5 02     LDA  $02, X
 8668  85 08     STA  $08
 866A  B5 03     LDA  $03, X
 866C  85 09     STA  $09
 866E  64 0C     STZ  $0C
 8670  64 0D     STZ  $0D
 8672  20 84 98  JSR  $9884
 8675  B5 00     LDA  $00, X
 8677  15 01     ORA  $01, X
 8679  F0 23     BEQ  $869E
 867B  B5 04     LDA  $04, X
 867D  38        SEC  
 867E  F5 00     SBC  $00, X
 8680  95 04     STA  $04, X
 8682  B5 05     LDA  $05, X
 8684  F5 01     SBC  $01, X
 8686  95 05     STA  $05, X
 8688  B5 06     LDA  $06, X
 868A  18        CLC  
 868B  75 00     ADC  $00, X
 868D  95 06     STA  $06, X
 868F  B5 07     LDA  $07, X
 8691  75 01     ADC  $01, X
 8693  95 07     STA  $07, X
 8695  20 1A A4  JSR  $A41A
 8698  20 72 95  JSR  $9572
 869B  20 1A A4  JSR  $A41A
 869E  20 48 9A  JSR  $9A48
 86A1  60        RTS  
 86A2  20 16 D6  JSR  $D616
 86A5  B5 02     LDA  $02, X
 86A7  85 26     STA  $26
 86A9  B5 03     LDA  $03, X
 86AB  85 27     STA  $27
 86AD  B5 04     LDA  $04, X
 86AF  85 24     STA  $24
 86B1  B5 05     LDA  $05, X
 86B3  85 25     STA  $25
 86B5  A0 00     LDY  #$00
 86B7  B5 01     LDA  $01, X
 86B9  F0 0F     BEQ  $86CA
 86BB  B1 24     LDA  ($24), Y
 86BD  91 26     STA  ($26), Y
 86BF  C8        INY  
 86C0  D0 F9     BNE  $86BB
 86C2  E6 25     INC  $25
 86C4  E6 27     INC  $27
 86C6  D6 01     DEC  $01, X
 86C8  D0 F1     BNE  $86BB
 86CA  B5 00     LDA  $00, X
 86CC  F0 09     BEQ  $86D7
 86CE  B1 24     LDA  ($24), Y
 86D0  91 26     STA  ($26), Y
 86D2  C8        INY  
 86D3  D6 00     DEC  $00, X
 86D5  D0 F7     BNE  $86CE
 86D7  8A        TXA  
 86D8  18        CLC  
 86D9  69 06     ADC  #$06
 86DB  AA        TAX  
 86DC  60        RTS  
 86DD  20 16 D6  JSR  $D616
 86E0  B5 02     LDA  $02, X
 86E2  85 26     STA  $26
 86E4  B5 03     LDA  $03, X
 86E6  18        CLC  
 86E7  75 01     ADC  $01, X
 86E9  85 27     STA  $27
 86EB  B5 04     LDA  $04, X
 86ED  85 24     STA  $24
 86EF  B5 05     LDA  $05, X
 86F1  18        CLC  
 86F2  75 01     ADC  $01, X
 86F4  85 25     STA  $25
 86F6  F6 01     INC  $01, X
 86F8  B4 00     LDY  $00, X
 86FA  F0 0E     BEQ  $870A
 86FC  88        DEY  
 86FD  F0 07     BEQ  $8706
 86FF  B1 24     LDA  ($24), Y
 8701  91 26     STA  ($26), Y
 8703  88        DEY  
 8704  D0 F9     BNE  $86FF
 8706  B2 24     LDA  ($24)
 8708  92 26     STA  ($26)
 870A  C6 25     DEC  $25
 870C  C6 27     DEC  $27
 870E  D6 01     DEC  $01, X
 8710  D0 EA     BNE  $86FC
 8712  8A        TXA  
 8713  18        CLC  
 8714  69 06     ADC  #$06
 8716  AA        TAX  
 8717  60        RTS  
 8718  A5 16     LDA  $16
 871A  05 17     ORA  $17
 871C  F0 05     BEQ  $8723
 871E  A9 07     LDA  #$07
 8720  4C 22 D6  JMP  $D622
 8723  C6 16     DEC  $16
 8725  C6 17     DEC  $17
 8727  A9 40     LDA  #$40
 8729  05 20     ORA  $20
 872B  85 20     STA  $20
 872D  20 4E D5  JSR  $D54E
 8730  A5 03     LDA  $03
 8732  48        PHA  
 8733  A5 02     LDA  $02
 8735  48        PHA  
 8736  A9 80     LDA  #$80
 8738  05 20     ORA  $20
 873A  85 20     STA  $20
 873C  20 78 89  JSR  $8978
 873F  20 4E D5  JSR  $D54E
 8742  A5 02     LDA  $02
 8744  85 04     STA  $04
 8746  A5 03     LDA  $03
 8748  85 05     STA  $05
 874A  68        PLA  
 874B  85 02     STA  $02
 874D  68        PLA  
 874E  85 03     STA  $03
 8750  20 61 D5  JSR  $D561
 8753  A5 00     LDA  $00
 8755  38        SEC  
 8756  E9 03     SBC  #$03
 8758  85 00     STA  $00
 875A  B0 02     BCS  $875E
 875C  C6 01     DEC  $01
 875E  60        RTS  
 875F  A5 16     LDA  $16
 8761  05 17     ORA  $17
 8763  F0 05     BEQ  $876A
 8765  A9 07     LDA  #$07
 8767  4C 22 D6  JMP  $D622
 876A  C6 16     DEC  $16
 876C  C6 17     DEC  $17
 876E  A9 BF     LDA  #$BF
 8770  25 20     AND  $20
 8772  85 20     STA  $20
 8774  A5 00     LDA  $00
 8776  85 04     STA  $04
 8778  A5 01     LDA  $01
 877A  85 05     STA  $05
 877C  60        RTS  
 877D  20 0C D6  JSR  $D60C
 8780  B5 00     LDA  $00, X
 8782  92 00     STA  ($00)
 8784  E6 00     INC  $00
 8786  D0 02     BNE  $878A
 8788  E6 01     INC  $01
 878A  B5 01     LDA  $01, X
 878C  92 00     STA  ($00)
 878E  E6 00     INC  $00
 8790  D0 02     BNE  $8794
 8792  E6 01     INC  $01
 8794  E8        INX  
 8795  E8        INX  
 8796  60        RTS  
 8797  20 1B D6  JSR  $D61B
 879A  B5 02     LDA  $02, X
 879C  85 26     STA  $26
 879E  B5 03     LDA  $03, X
 87A0  85 27     STA  $27
 87A2  B5 06     LDA  $06, X
 87A4  85 24     STA  $24
 87A6  B5 07     LDA  $07, X
 87A8  85 25     STA  $25
 87AA  B5 04     LDA  $04, X
 87AC  15 05     ORA  $05, X
 87AE  F0 2C     BEQ  $87DC
 87B0  B5 00     LDA  $00, X
 87B2  15 01     ORA  $01, X
 87B4  F0 3A     BEQ  $87F0
 87B6  B2 24     LDA  ($24)
 87B8  D2 26     CMP  ($26)
 87BA  90 26     BCC  $87E2
 87BC  D0 32     BNE  $87F0
 87BE  E6 24     INC  $24
 87C0  D0 02     BNE  $87C4
 87C2  E6 25     INC  $25
 87C4  E6 26     INC  $26
 87C6  D0 02     BNE  $87CA
 87C8  E6 27     INC  $27
 87CA  B5 04     LDA  $04, X
 87CC  D0 02     BNE  $87D0
 87CE  D6 05     DEC  $05, X
 87D0  D6 04     DEC  $04, X
 87D2  B5 00     LDA  $00, X
 87D4  D0 02     BNE  $87D8
 87D6  D6 01     DEC  $01, X
 87D8  D6 00     DEC  $00, X
 87DA  80 CE     BRA  $87AA
 87DC  B5 00     LDA  $00, X
 87DE  15 01     ORA  $01, X
 87E0  F0 08     BEQ  $87EA
 87E2  A9 FF     LDA  #$FF
 87E4  95 06     STA  $06, X
 87E6  95 07     STA  $07, X
 87E8  80 0C     BRA  $87F6
 87EA  74 06     STZ  $06, X
 87EC  74 07     STZ  $07, X
 87EE  80 06     BRA  $87F6
 87F0  A9 01     LDA  #$01
 87F2  95 06     STA  $06, X
 87F4  74 07     STZ  $07, X
 87F6  8A        TXA  
 87F7  18        CLC  
 87F8  69 06     ADC  #$06
 87FA  AA        TAX  
 87FB  60        RTS  
 87FC  20 0C D6  JSR  $D60C
 87FF  B5 01     LDA  $01, X
 8801  48        PHA  
 8802  B5 00     LDA  $00, X
 8804  48        PHA  
 8805  20 87 92  JSR  $9287
 8808  B5 00     LDA  $00, X
 880A  15 01     ORA  $01, X
 880C  D0 03     BNE  $8811
 880E  4C F9 88  JMP  $88F9
 8811  B5 00     LDA  $00, X
 8813  85 2C     STA  $2C
 8815  B5 01     LDA  $01, X
 8817  85 2D     STA  $2D
 8819  F6 00     INC  $00, X
 881B  D0 02     BNE  $881F
 881D  F6 01     INC  $01, X
 881F  A1 00     LDA  ($00, X)
 8821  85 28     STA  $28
 8823  29 02     AND  #$02
 8825  F0 0D     BEQ  $8834
 8827  A5 2C     LDA  $2C
 8829  95 00     STA  $00, X
 882B  A5 2D     LDA  $2D
 882D  95 01     STA  $01, X
 882F  20 10 A7  JSR  $A710
 8832  80 27     BRA  $885B
 8834  A5 28     LDA  $28
 8836  29 08     AND  #$08
 8838  F0 03     BEQ  $883D
 883A  4C F9 88  JMP  $88F9
 883D  A5 2C     LDA  $2C
 883F  95 00     STA  $00, X
 8841  A5 2D     LDA  $2D
 8843  95 01     STA  $01, X
 8845  20 10 A7  JSR  $A710
 8848  B5 01     LDA  $01, X
 884A  C5 1B     CMP  $1B
 884C  90 0D     BCC  $885B
 884E  D0 08     BNE  $8858
 8850  B5 00     LDA  $00, X
 8852  C5 1A     CMP  $1A
 8854  90 05     BCC  $885B
 8856  F0 03     BEQ  $885B
 8858  4C F9 88  JMP  $88F9
 885B  CA        DEX  
 885C  CA        DEX  
 885D  CA        DEX  
 885E  CA        DEX  
 885F  B5 04     LDA  $04, X
 8861  95 00     STA  $00, X
 8863  B5 05     LDA  $05, X
 8865  95 01     STA  $01, X
 8867  68        PLA  
 8868  95 04     STA  $04, X
 886A  68        PLA  
 886B  95 05     STA  $05, X
 886D  A5 00     LDA  $00
 886F  95 02     STA  $02, X
 8871  A5 01     LDA  $01
 8873  95 03     STA  $03, X
 8875  A0 00     LDY  #$00
 8877  B9 E7 88  LDA  $88E7, Y
 887A  D5 04     CMP  $04, X
 887C  D0 07     BNE  $8885
 887E  B9 E8 88  LDA  $88E8, Y
 8881  D5 05     CMP  $05, X
 8883  F0 0C     BEQ  $8891
 8885  B9 E7 88  LDA  $88E7, Y
 8888  19 E8 88  ORA  $88E8, Y
 888B  F0 22     BEQ  $88AF
 888D  C8        INY  
 888E  C8        INY  
 888F  80 E6     BRA  $8877
 8891  98        TYA  
 8892  4A        LSR  
 8893  A8        TAY  
 8894  B9 F3 88  LDA  $88F3, Y
 8897  85 2C     STA  $2C
 8899  18        CLC  
 889A  75 04     ADC  $04, X
 889C  95 04     STA  $04, X
 889E  90 02     BCC  $88A2
 88A0  F6 05     INC  $05, X
 88A2  06 2C     ASL  $2C
 88A4  38        SEC  
 88A5  B5 00     LDA  $00, X
 88A7  E5 2C     SBC  $2C
 88A9  95 00     STA  $00, X
 88AB  B0 02     BCS  $88AF
 88AD  D6 01     DEC  $01, X
 88AF  A5 1C     LDA  $1C
 88B1  05 1D     ORA  $1D
 88B3  F0 1C     BEQ  $88D1
 88B5  A5 28     LDA  $28
 88B7  29 10     AND  #$10
 88B9  F0 16     BEQ  $88D1
 88BB  18        CLC  
 88BC  B5 04     LDA  $04, X
 88BE  69 03     ADC  #$03
 88C0  95 04     STA  $04, X
 88C2  90 02     BCC  $88C6
 88C4  F6 05     INC  $05, X
 88C6  38        SEC  
 88C7  B5 00     LDA  $00, X
 88C9  E9 03     SBC  #$03
 88CB  95 00     STA  $00, X
 88CD  B0 02     BCS  $88D1
 88CF  D6 01     DEC  $01, X
 88D1  B5 01     LDA  $01, X
 88D3  48        PHA  
 88D4  B5 00     LDA  $00, X
 88D6  48        PHA  
 88D7  20 D1 95  JSR  $95D1
 88DA  18        CLC  
 88DB  68        PLA  
 88DC  65 00     ADC  $00
 88DE  85 00     STA  $00
 88E0  68        PLA  
 88E1  65 01     ADC  $01
 88E3  85 01     STA  $01
 88E5  80 2C     BRA  $8913
 88E7  37 9A 22 9A 0C A3 3E A4 C4 A3 00 00 04 04 04 06  |7."...>.........|
 88F7  06 00                                            |..              |
 88F9  A9 20     LDA  #$20
 88FB  92 00     STA  ($00)
 88FD  A0 01     LDY  #$01
 88FF  68        PLA  
 8900  91 00     STA  ($00), Y
 8902  C8        INY  
 8903  68        PLA  
 8904  91 00     STA  ($00), Y
 8906  A9 03     LDA  #$03
 8908  18        CLC  
 8909  65 00     ADC  $00
 890B  85 00     STA  $00
 890D  90 02     BCC  $8911
 890F  E6 01     INC  $01
 8911  E8        INX  
 8912  E8        INX  
 8913  60        RTS  
 8914  20 4E D5  JSR  $D54E
 8917  A0 01     LDY  #$01
 8919  B1 02     LDA  ($02), Y
 891B  09 01     ORA  #$01
 891D  91 02     STA  ($02), Y
 891F  60        RTS  
 8920  20 0C D6  JSR  $D60C
 8923  20 78 89  JSR  $8978
 8926  38        SEC  
 8927  A5 00     LDA  $00
 8929  E9 02     SBC  #$02
 892B  85 24     STA  $24
 892D  A5 01     LDA  $01
 892F  E9 00     SBC  #$00
 8931  85 25     STA  $25
 8933  A9 C8     LDA  #$C8
 8935  92 24     STA  ($24)
 8937  A0 01     LDY  #$01
 8939  A9 D4     LDA  #$D4
 893B  91 24     STA  ($24), Y
 893D  20 7D 87  JSR  $877D
 8940  20 4A 93  JSR  $934A
 8943  B5 00     LDA  $00, X
 8945  85 24     STA  $24
 8947  B5 01     LDA  $01, X
 8949  85 25     STA  $25
 894B  A0 06     LDY  #$06
 894D  B1 24     LDA  ($24), Y
 894F  18        CLC  
 8950  69 02     ADC  #$02
 8952  91 24     STA  ($24), Y
 8954  C8        INY  
 8955  B1 24     LDA  ($24), Y
 8957  69 00     ADC  #$00
 8959  91 24     STA  ($24), Y
 895B  E8        INX  
 895C  E8        INX  
 895D  60        RTS  
 895E  20 0C D6  JSR  $D60C
 8961  A1 00     LDA  ($00, X)
 8963  A8        TAY  
 8964  F6 00     INC  $00, X
 8966  D0 02     BNE  $896A
 8968  F6 01     INC  $01, X
 896A  98        TYA  
 896B  CA        DEX  
 896C  CA        DEX  
 896D  95 00     STA  $00, X
 896F  74 01     STZ  $01, X
 8971  60        RTS  
 8972  A9 0A     LDA  #$0A
 8974  20 05 8E  JSR  $8E05
 8977  60        RTS  
 8978  20 84 98  JSR  $9884
 897B  B5 00     LDA  $00, X
 897D  15 01     ORA  $01, X
 897F  D0 05     BNE  $8986
 8981  A9 05     LDA  #$05
 8983  4C 22 D6  JMP  $D622
 8986  74 01     STZ  $01, X
 8988  20 54 A3  JSR  $A354
 898B  20 EA 8F  JSR  $8FEA
 898E  B5 00     LDA  $00, X
 8990  15 01     ORA  $01, X
 8992  F0 1E     BEQ  $89B2
 8994  E8        INX  
 8995  E8        INX  
 8996  24 20     BIT  $20
 8998  10 08     BPL  $89A2
 899A  A9 80     LDA  #$80
 899C  05 20     ORA  $20
 899E  85 20     STA  $20
 89A0  80 18     BRA  $89BA
 89A2  A9 02     LDA  #$02
 89A4  20 38 D6  JSR  $D638
 89A7  20 54 A3  JSR  $A354
 89AA  20 9F A4  JSR  $A49F
 89AD  20 C4 A0  JSR  $A0C4
 89B0  80 08     BRA  $89BA
 89B2  E8        INX  
 89B3  E8        INX  
 89B4  A9 7F     LDA  #$7F
 89B6  25 20     AND  $20
 89B8  85 20     STA  $20
 89BA  B5 00     LDA  $00, X
 89BC  85 26     STA  $26
 89BE  A5 00     LDA  $00
 89C0  85 24     STA  $24
 89C2  A5 01     LDA  $01
 89C4  85 25     STA  $25
 89C6  B5 00     LDA  $00, X
 89C8  18        CLC  
 89C9  69 08     ADC  #$08
 89CB  85 28     STA  $28
 89CD  18        CLC  
 89CE  69 03     ADC  #$03
 89D0  95 00     STA  $00, X
 89D2  74 01     STZ  $01, X
 89D4  20 C5 82  JSR  $82C5
 89D7  20 4E D5  JSR  $D54E
 89DA  A0 00     LDY  #$00
 89DC  A5 26     LDA  $26
 89DE  91 24     STA  ($24), Y
 89E0  A9 08     LDA  #$08
 89E2  09 20     ORA  #$20
 89E4  C8        INY  
 89E5  91 24     STA  ($24), Y
 89E7  C8        INY  
 89E8  A5 02     LDA  $02
 89EA  91 24     STA  ($24), Y
 89EC  C8        INY  
 89ED  A5 03     LDA  $03
 89EF  91 24     STA  ($24), Y
 89F1  C8        INY  
 89F2  A5 25     LDA  $25
 89F4  85 03     STA  $03
 89F6  A5 24     LDA  $24
 89F8  85 02     STA  $02
 89FA  18        CLC  
 89FB  65 28     ADC  $28
 89FD  91 24     STA  ($24), Y
 89FF  48        PHA  
 8A00  C8        INY  
 8A01  A5 25     LDA  $25
 8A03  69 00     ADC  #$00
 8A05  91 24     STA  ($24), Y
 8A07  C8        INY  
 8A08  68        PLA  
 8A09  18        CLC  
 8A0A  69 03     ADC  #$03
 8A0C  91 24     STA  ($24), Y
 8A0E  88        DEY  
 8A0F  B1 24     LDA  ($24), Y
 8A11  69 00     ADC  #$00
 8A13  C8        INY  
 8A14  C8        INY  
 8A15  91 24     STA  ($24), Y
 8A17  C8        INY  
 8A18  B5 00     LDA  $00, X
 8A1A  38        SEC  
 8A1B  E9 08     SBC  #$08
 8A1D  85 2C     STA  $2C
 8A1F  B5 01     LDA  $01, X
 8A21  E9 00     SBC  #$00
 8A23  85 2D     STA  $2D
 8A25  B1 2C     LDA  ($2C), Y
 8A27  C9 5B     CMP  #$5B
 8A29  B0 07     BCS  $8A32
 8A2B  C9 41     CMP  #$41
 8A2D  90 03     BCC  $8A32
 8A2F  18        CLC  
 8A30  69 20     ADC  #$20
 8A32  91 24     STA  ($24), Y
 8A34  C8        INY  
 8A35  C6 26     DEC  $26
 8A37  D0 EC     BNE  $8A25
 8A39  A9 20     LDA  #$20
 8A3B  91 24     STA  ($24), Y
 8A3D  C8        INY  
 8A3E  A9 0E     LDA  #$0E
 8A40  91 24     STA  ($24), Y
 8A42  C8        INY  
 8A43  A9 D5     LDA  #$D5
 8A45  91 24     STA  ($24), Y
 8A47  20 61 D5  JSR  $D561
 8A4A  E8        INX  
 8A4B  E8        INX  
 8A4C  60        RTS  
 8A4D  20 1B D6  JSR  $D61B
 8A50  38        SEC  
 8A51  B5 06     LDA  $06, X
 8A53  F5 02     SBC  $02, X
 8A55  95 06     STA  $06, X
 8A57  B5 07     LDA  $07, X
 8A59  F5 03     SBC  $03, X
 8A5B  95 07     STA  $07, X
 8A5D  B5 04     LDA  $04, X
 8A5F  F5 00     SBC  $00, X
 8A61  95 04     STA  $04, X
 8A63  B5 05     LDA  $05, X
 8A65  F5 01     SBC  $01, X
 8A67  95 05     STA  $05, X
 8A69  E8        INX  
 8A6A  E8        INX  
 8A6B  E8        INX  
 8A6C  E8        INX  
 8A6D  60        RTS  
 8A6E  20 1B D6  JSR  $D61B
 8A71  18        CLC  
 8A72  B5 02     LDA  $02, X
 8A74  75 06     ADC  $06, X
 8A76  95 06     STA  $06, X
 8A78  B5 03     LDA  $03, X
 8A7A  75 07     ADC  $07, X
 8A7C  95 07     STA  $07, X
 8A7E  B5 00     LDA  $00, X
 8A80  75 04     ADC  $04, X
 8A82  95 04     STA  $04, X
 8A84  B5 01     LDA  $01, X
 8A86  75 05     ADC  $05, X
 8A88  95 05     STA  $05, X
 8A8A  E8        INX  
 8A8B  E8        INX  
 8A8C  E8        INX  
 8A8D  E8        INX  
 8A8E  60        RTS  
 8A8F  20 11 D6  JSR  $D611
 8A92  E8        INX  
 8A93  E8        INX  
 8A94  60        RTS  
 8A95  20 11 D6  JSR  $D611
 8A98  B5 01     LDA  $01, X
 8A9A  10 17     BPL  $8AB3
 8A9C  A0 00     LDY  #$00
 8A9E  38        SEC  
 8A9F  98        TYA  
 8AA0  F5 02     SBC  $02, X
 8AA2  95 02     STA  $02, X
 8AA4  98        TYA  
 8AA5  F5 03     SBC  $03, X
 8AA7  95 03     STA  $03, X
 8AA9  98        TYA  
 8AAA  F5 00     SBC  $00, X
 8AAC  95 00     STA  $00, X
 8AAE  98        TYA  
 8AAF  F5 01     SBC  $01, X
 8AB1  95 01     STA  $01, X
 8AB3  60        RTS  
 8AB4  A9 0A     LDA  #$0A
 8AB6  85 18     STA  $18
 8AB8  64 19     STZ  $19
 8ABA  60        RTS  
 8ABB  20 78 89  JSR  $8978
 8ABE  A5 00     LDA  $00
 8AC0  38        SEC  
 8AC1  E9 02     SBC  #$02
 8AC3  85 24     STA  $24
 8AC5  A5 01     LDA  $01
 8AC7  E9 00     SBC  #$00
 8AC9  85 25     STA  $25
 8ACB  A0 00     LDY  #$00
 8ACD  A9 DC     LDA  #$DC
 8ACF  91 24     STA  ($24), Y
 8AD1  C8        INY  
 8AD2  A9 D4     LDA  #$D4
 8AD4  91 24     STA  ($24), Y
 8AD6  A9 F0     LDA  #$F0
 8AD8  92 00     STA  ($00)
 8ADA  E6 00     INC  $00
 8ADC  D0 02     BNE  $8AE0
 8ADE  E6 01     INC  $01
 8AE0  A9 D4     LDA  #$D4
 8AE2  92 00     STA  ($00)
 8AE4  E6 00     INC  $00
 8AE6  D0 02     BNE  $8AEA
 8AE8  E6 01     INC  $01
 8AEA  20 40 89  JSR  $8940
 8AED  60        RTS  
 8AEE  20 29 A2  JSR  $A229
 8AF1  20 8F 8F  JSR  $8F8F
 8AF4  60        RTS  
 8AF5  20 29 A2  JSR  $A229
 8AF8  20 29 A1  JSR  $A129
 8AFB  60        RTS  
 8AFC  A0 1F     LDY  #$1F
 8AFE  B1 1E     LDA  ($1E), Y
 8B00  A0 04     LDY  #$04
 8B02  91 1E     STA  ($1E), Y
 8B04  60        RTS  
 8B05  A9 78     LDA  #$78
 8B07  86 2A     STX  $2A
 8B09  38        SEC  
 8B0A  E5 2A     SBC  $2A
 8B0C  4A        LSR  
 8B0D  CA        DEX  
 8B0E  CA        DEX  
 8B0F  95 00     STA  $00, X
 8B11  74 01     STZ  $01, X
 8B13  60        RTS  
 8B14  20 0C D6  JSR  $D60C
 8B17  CA        DEX  
 8B18  CA        DEX  
 8B19  74 00     STZ  $00, X
 8B1B  74 01     STZ  $01, X
 8B1D  74 03     STZ  $03, X
 8B1F  B5 02     LDA  $02, X
 8B21  C9 30     CMP  #$30
 8B23  90 23     BCC  $8B48
 8B25  C9 3A     CMP  #$3A
 8B27  90 12     BCC  $8B3B
 8B29  C9 41     CMP  #$41
 8B2B  90 1B     BCC  $8B48
 8B2D  C9 61     CMP  #$61
 8B2F  90 07     BCC  $8B38
 8B31  C9 7B     CMP  #$7B
 8B33  B0 03     BCS  $8B38
 8B35  18        CLC  
 8B36  69 E0     ADC  #$E0
 8B38  38        SEC  
 8B39  E9 07     SBC  #$07
 8B3B  38        SEC  
 8B3C  E9 30     SBC  #$30
 8B3E  C5 18     CMP  $18
 8B40  B0 06     BCS  $8B48
 8B42  95 02     STA  $02, X
 8B44  D6 00     DEC  $00, X
 8B46  D6 01     DEC  $01, X
 8B48  60        RTS  
 8B49  20 11 D6  JSR  $D611
 8B4C  20 72 AC  JSR  $AC72
 8B4F  60        RTS  
 8B50  20 11 D6  JSR  $D611
 8B53  A0 00     LDY  #$00
 8B55  38        SEC  
 8B56  98        TYA  
 8B57  F5 02     SBC  $02, X
 8B59  95 02     STA  $02, X
 8B5B  98        TYA  
 8B5C  F5 03     SBC  $03, X
 8B5E  95 03     STA  $03, X
 8B60  98        TYA  
 8B61  F5 00     SBC  $00, X
 8B63  95 00     STA  $00, X
 8B65  98        TYA  
 8B66  F5 01     SBC  $01, X
 8B68  95 01     STA  $01, X
 8B6A  60        RTS  
 8B6B  A9 FF     LDA  #$FF
 8B6D  85 24     STA  $24
 8B6F  80 02     BRA  $8B73
 8B71  64 24     STZ  $24
 8B73  CA        DEX  
 8B74  CA        DEX  
 8B75  A5 00     LDA  $00
 8B77  95 00     STA  $00, X
 8B79  A5 01     LDA  $01
 8B7B  95 01     STA  $01, X
 8B7D  A9 05     LDA  #$05
 8B7F  A8        TAY  
 8B80  91 00     STA  ($00), Y
 8B82  88        DEY  
 8B83  10 FB     BPL  $8B80
 8B85  1A        INC  
 8B86  18        CLC  
 8B87  65 00     ADC  $00
 8B89  85 00     STA  $00
 8B8B  90 02     BCC  $8B8F
 8B8D  E6 01     INC  $01
 8B8F  A5 24     LDA  $24
 8B91  F0 17     BEQ  $8BAA
 8B93  A0 14     LDY  #$14
 8B95  5A        PHY  
 8B96  B9 F0 8B  LDA  $8BF0, Y
 8B99  91 00     STA  ($00), Y
 8B9B  88        DEY  
 8B9C  10 F8     BPL  $8B96
 8B9E  68        PLA  
 8B9F  18        CLC  
 8BA0  65 00     ADC  $00
 8BA2  85 00     STA  $00
 8BA4  A5 01     LDA  $01
 8BA6  69 00     ADC  #$00
 8BA8  85 01     STA  $01
 8BAA  A0 24     LDY  #$24
 8BAC  5A        PHY  
 8BAD  B9 CC 8B  LDA  $8BCC, Y
 8BB0  91 00     STA  ($00), Y
 8BB2  88        DEY  
 8BB3  10 F8     BPL  $8BAD
 8BB5  68        PLA  
 8BB6  18        CLC  
 8BB7  65 00     ADC  $00
 8BB9  85 00     STA  $00
 8BBB  A5 01     LDA  $01
 8BBD  69 00     ADC  #$00
 8BBF  85 01     STA  $01
 8BC1  CA        DEX  
 8BC2  CA        DEX  
 8BC3  A5 00     LDA  $00
 8BC5  95 00     STA  $00, X
 8BC7  A5 01     LDA  $01
 8BC9  95 01     STA  $01, X
 8BCB  60        RTS  
 8BCC  38        SEC  
 8BCD  A9 00     LDA  #$00
 8BCF  F5 02     SBC  $02, X
 8BD1  95 02     STA  $02, X
 8BD3  A9 80     LDA  #$80
 8BD5  F5 03     SBC  $03, X
 8BD7  95 03     STA  $03, X
 8BD9  48        PHA  
 8BDA  B5 02     LDA  $02, X
 8BDC  48        PHA  
 8BDD  18        CLC  
 8BDE  B5 00     LDA  $00, X
 8BE0  75 02     ADC  $02, X
 8BE2  95 00     STA  $00, X
 8BE4  B5 01     LDA  $01, X
 8BE6  75 03     ADC  $03, X
 8BE8  48        PHA  
 8BE9  B5 00     LDA  $00, X
 8BEB  48        PHA  
 8BEC  E8        INX  
 8BED  E8        INX  
 8BEE  E8        INX  
 8BEF  E8        INX  
 8BF0  20 54 A3  JSR  $A354
 8BF3  20 DD 8E  JSR  $8EDD
 8BF6  B5 00     LDA  $00, X
 8BF8  15 01     ORA  $01, X
 8BFA  F0 06     BEQ  $8C02
 8BFC  8A        TXA  
 8BFD  18        CLC  
 8BFE  69 06     ADC  #$06
 8C00  AA        TAX  
 8C01  60        RTS  
 8C02  E8        INX  
 8C03  E8        INX  
 8C04  A0 8C     LDY  #$8C
 8C06  A9 13     LDA  #$13
 8C08  20 AF D4  JSR  $D4AF
 8C0B  A0 D4     LDY  #$D4
 8C0D  A9 F5     LDA  #$F5
 8C0F  20 AF D4  JSR  $D4AF
 8C12  60        RTS  
 8C13  7A        PLY  
 8C14  68        PLA  
 8C15  C8        INY  
 8C16  D0 01     BNE  $8C19
 8C18  1A        INC  
 8C19  84 24     STY  $24
 8C1B  85 25     STA  $25
 8C1D  20 4E D5  JSR  $D54E
 8C20  A5 02     LDA  $02
 8C22  18        CLC  
 8C23  69 04     ADC  #$04
 8C25  85 26     STA  $26
 8C27  A5 03     LDA  $03
 8C29  69 00     ADC  #$00
 8C2B  85 27     STA  $27
 8C2D  B2 26     LDA  ($26)
 8C2F  18        CLC  
 8C30  69 01     ADC  #$01
 8C32  85 28     STA  $28
 8C34  A0 01     LDY  #$01
 8C36  B1 26     LDA  ($26), Y
 8C38  69 00     ADC  #$00
 8C3A  85 29     STA  $29
 8C3C  A5 24     LDA  $24
 8C3E  92 28     STA  ($28)
 8C40  A5 25     LDA  $25
 8C42  91 28     STA  ($28), Y
 8C44  60        RTS  
 8C45  20 0C D6  JSR  $D60C
 8C48  20 BE 8D  JSR  $8DBE
 8C4B  20 39 81  JSR  $8139
 8C4E  20 43 A7  JSR  $A743
 8C51  20 69 93  JSR  $9369
 8C54  20 83 97  JSR  $9783
 8C57  20 FC 9A  JSR  $9AFC
 8C5A  20 8D 9F  JSR  $9F8D
 8C5D  20 61 97  JSR  $9761
 8C60  20 9F A4  JSR  $A49F
 8C63  20 C4 A0  JSR  $A0C4
 8C66  60        RTS  
 8C67  CA        DEX  
 8C68  CA        DEX  
 8C69  A9 29     LDA  #$29
 8C6B  95 00     STA  $00, X
 8C6D  74 01     STZ  $01, X
 8C6F  20 DF 98  JSR  $98DF
 8C72  20 9F A4  JSR  $A49F
 8C75  60        RTS  
 8C76  20 F3 9C  JSR  $9CF3
 8C79  A0 A4     LDY  #$A4
 8C7B  A9 9F     LDA  #$9F
 8C7D  20 AF D4  JSR  $D4AF
 8C80  60        RTS  
 8C81  20 11 D6  JSR  $D611
 8C84  20 0C A3  JSR  $A30C
 8C87  20 BE 8D  JSR  $8DBE
 8C8A  20 39 81  JSR  $8139
 8C8D  20 43 A7  JSR  $A743
 8C90  20 69 93  JSR  $9369
 8C93  20 83 97  JSR  $9783
 8C96  20 FC 9A  JSR  $9AFC
 8C99  20 8D 9F  JSR  $9F8D
 8C9C  20 61 97  JSR  $9761
 8C9F  20 37 9A  JSR  $9A37
 8CA2  20 38 98  JSR  $9838
 8CA5  20 5F 95  JSR  $955F
 8CA8  20 CA A0  JSR  $A0CA
 8CAB  20 9F A4  JSR  $A49F
 8CAE  60        RTS  
 8CAF  20 05 8B  JSR  $8B05
 8CB2  A9 3C     LDA  #$3C
 8CB4  20 05 8E  JSR  $8E05
 8CB7  B5 00     LDA  $00, X
 8CB9  48        PHA  
 8CBA  CA        DEX  
 8CBB  CA        DEX  
 8CBC  95 00     STA  $00, X
 8CBE  74 01     STZ  $01, X
 8CC0  20 58 D6  JSR  $D658
 8CC3  A9 3E     LDA  #$3E
 8CC5  20 05 8E  JSR  $8E05
 8CC8  A9 20     LDA  #$20
 8CCA  20 05 8E  JSR  $8E05
 8CCD  E8        INX  
 8CCE  E8        INX  
 8CCF  E0 78     CPX  #$78
 8CD1  F0 1E     BEQ  $8CF1
 8CD3  7A        PLY  
 8CD4  A9 77     LDA  #$77
 8CD6  85 28     STA  $28
 8CD8  64 29     STZ  $29
 8CDA  CA        DEX  
 8CDB  CA        DEX  
 8CDC  B2 28     LDA  ($28)
 8CDE  95 01     STA  $01, X
 8CE0  C6 28     DEC  $28
 8CE2  B2 28     LDA  ($28)
 8CE4  95 00     STA  $00, X
 8CE6  C6 28     DEC  $28
 8CE8  5A        PHY  
 8CE9  20 45 8C  JSR  $8C45
 8CEC  7A        PLY  
 8CED  88        DEY  
 8CEE  D0 EA     BNE  $8CDA
 8CF0  48        PHA  
 8CF1  68        PLA  
 8CF2  60        RTS  
 8CF3  20 11 D6  JSR  $D611
 8CF6  20 29 A3  JSR  $A329
 8CF9  20 95 8A  JSR  $8A95
 8CFC  20 69 93  JSR  $9369
 8CFF  20 83 97  JSR  $9783
 8D02  20 FC 9A  JSR  $9AFC
 8D05  20 8D 9F  JSR  $9F8D
 8D08  20 61 97  JSR  $9761
 8D0B  20 9F A4  JSR  $A49F
 8D0E  20 C4 A0  JSR  $A0C4
 8D11  60        RTS  
 8D12  20 16 D6  JSR  $D616
 8D15  20 0C A3  JSR  $A30C
 8D18  20 29 A3  JSR  $A329
 8D1B  20 95 8A  JSR  $8A95
 8D1E  20 69 93  JSR  $9369
 8D21  20 83 97  JSR  $9783
 8D24  20 FC 9A  JSR  $9AFC
 8D27  20 8D 9F  JSR  $9F8D
 8D2A  20 61 97  JSR  $9761
 8D2D  20 37 9A  JSR  $9A37
 8D30  20 38 98  JSR  $9838
 8D33  20 5F 95  JSR  $955F
 8D36  20 CA A0  JSR  $A0CA
 8D39  20 9F A4  JSR  $A49F
 8D3C  60        RTS  
 8D3D  20 0C D6  JSR  $D60C
 8D40  E8        INX  
 8D41  E8        INX  
 8D42  60        RTS  
 8D43  20 11 D6  JSR  $D611
 8D46  A0 10     LDY  #$10
 8D48  64 26     STZ  $26
 8D4A  20 72 89  JSR  $8972
 8D4D  B5 03     LDA  $03, X
 8D4F  20 1C D5  JSR  $D51C
 8D52  B5 02     LDA  $02, X
 8D54  20 1C D5  JSR  $D51C
 8D57  20 C4 A0  JSR  $A0C4
 8D5A  20 C4 A0  JSR  $A0C4
 8D5D  B5 00     LDA  $00, X
 8D5F  15 01     ORA  $01, X
 8D61  F0 39     BEQ  $8D9C
 8D63  A1 02     LDA  ($02, X)
 8D65  48        PHA  
 8D66  20 1C D5  JSR  $D51C
 8D69  20 C4 A0  JSR  $A0C4
 8D6C  68        PLA  
 8D6D  20 F2 D5  JSR  $D5F2
 8D70  B0 02     BCS  $8D74
 8D72  A9 2E     LDA  #$2E
 8D74  5A        PHY  
 8D75  A4 26     LDY  $26
 8D77  91 00     STA  ($00), Y
 8D79  E6 26     INC  $26
 8D7B  7A        PLY  
 8D7C  C0 09     CPY  #$09
 8D7E  D0 03     BNE  $8D83
 8D80  20 C4 A0  JSR  $A0C4
 8D83  F6 02     INC  $02, X
 8D85  D0 02     BNE  $8D89
 8D87  F6 03     INC  $03, X
 8D89  B5 00     LDA  $00, X
 8D8B  D0 02     BNE  $8D8F
 8D8D  D6 01     DEC  $01, X
 8D8F  D6 00     DEC  $00, X
 8D91  88        DEY  
 8D92  D0 C9     BNE  $8D5D
 8D94  20 C4 A0  JSR  $A0C4
 8D97  20 AA 8D  JSR  $8DAA
 8D9A  80 AA     BRA  $8D46
 8D9C  A5 26     LDA  $26
 8D9E  F0 06     BEQ  $8DA6
 8DA0  20 C4 A0  JSR  $A0C4
 8DA3  20 AA 8D  JSR  $8DAA
 8DA6  20 4C A3  JSR  $A34C
 8DA9  60        RTS  
 8DAA  A0 00     LDY  #$00
 8DAC  B1 00     LDA  ($00), Y
 8DAE  20 05 8E  JSR  $8E05
 8DB1  C8        INY  
 8DB2  C0 08     CPY  #$08
 8DB4  D0 03     BNE  $8DB9
 8DB6  20 C4 A0  JSR  $A0C4
 8DB9  C6 26     DEC  $26
 8DBB  D0 EF     BNE  $8DAC
 8DBD  60        RTS  
 8DBE  20 0C D6  JSR  $D60C
 8DC1  CA        DEX  
 8DC2  CA        DEX  
 8DC3  B5 02     LDA  $02, X
 8DC5  95 00     STA  $00, X
 8DC7  B5 03     LDA  $03, X
 8DC9  95 01     STA  $01, X
 8DCB  60        RTS  
 8DCC  20 B0 B3  JSR  $B3B0
 8DCF  60        RTS  
 8DD0  A0 8D     LDY  #$8D
 8DD2  A9 EA     LDA  #$EA
 8DD4  20 AF D4  JSR  $D4AF
 8DD7  20 81 91  JSR  $9181
 8DDA  20 43 A7  JSR  $A743
 8DDD  20 7D 87  JSR  $877D
 8DE0  20 81 91  JSR  $9181
 8DE3  20 FC 9A  JSR  $9AFC
 8DE6  20 29 A1  JSR  $A129
 8DE9  60        RTS  
 8DEA  68        PLA  
 8DEB  85 22     STA  $22
 8DED  68        PLA  
 8DEE  85 23     STA  $23
 8DF0  A0 01     LDY  #$01
 8DF2  B1 22     LDA  ($22), Y
 8DF4  85 24     STA  $24
 8DF6  C8        INY  
 8DF7  B1 22     LDA  ($22), Y
 8DF9  85 25     STA  $25
 8DFB  6C 24 00  JMP  ($0024)
 8DFE  20 0C D6  JSR  $D60C
 8E01  B5 00     LDA  $00, X
 8E03  E8        INX  
 8E04  E8        INX  
 8E05  6C 10 00  JMP  ($0010)
 8E08  A0 2C     LDY  #$2C
 8E0A  A9 00     LDA  #$00
 8E0C  91 1E     STA  ($1E), Y
 8E0E  60        RTS  
 8E0F  A0 8D     LDY  #$8D
 8E11  A9 3D     LDA  #$3D
 8E13  20 AF D4  JSR  $D4AF
 8E16  B5 00     LDA  $00, X
 8E18  15 01     ORA  $01, X
 8E1A  F0 05     BEQ  $8E21
 8E1C  20 5E A1  JSR  $A15E
 8E1F  80 F5     BRA  $8E16
 8E21  E8        INX  
 8E22  E8        INX  
 8E23  60        RTS  
 8E24  20 0C D6  JSR  $D60C
 8E27  A0 00     LDY  #$00
 8E29  5A        PHY  
 8E2A  20 54 A3  JSR  $A354
 8E2D  CA        DEX  
 8E2E  CA        DEX  
 8E2F  B9 A1 8E  LDA  $8EA1, Y
 8E32  95 00     STA  $00, X
 8E34  C8        INY  
 8E35  B9 A1 8E  LDA  $8EA1, Y
 8E38  95 01     STA  $01, X
 8E3A  C8        INY  
 8E3B  15 00     ORA  $00, X
 8E3D  F0 4D     BEQ  $8E8C
 8E3F  5A        PHY  
 8E40  20 5E 89  JSR  $895E
 8E43  20 97 87  JSR  $8797
 8E46  7A        PLY  
 8E47  B5 00     LDA  $00, X
 8E49  15 01     ORA  $01, X
 8E4B  F0 04     BEQ  $8E51
 8E4D  E8        INX  
 8E4E  E8        INX  
 8E4F  80 D9     BRA  $8E2A
 8E51  E8        INX  
 8E52  E8        INX  
 8E53  88        DEY  
 8E54  88        DEY  
 8E55  68        PLA  
 8E56  D0 0D     BNE  $8E65
 8E58  B9 BF 8E  LDA  $8EBF, Y
 8E5B  95 02     STA  $02, X
 8E5D  C8        INY  
 8E5E  B9 BF 8E  LDA  $8EBF, Y
 8E61  95 03     STA  $03, X
 8E63  80 1F     BRA  $8E84
 8E65  CA        DEX  
 8E66  CA        DEX  
 8E67  98        TYA  
 8E68  38        SEC  
 8E69  E9 18     SBC  #$18
 8E6B  0A        ASL  
 8E6C  A8        TAY  
 8E6D  B9 D5 8E  LDA  $8ED5, Y
 8E70  95 02     STA  $02, X
 8E72  C8        INY  
 8E73  B9 D5 8E  LDA  $8ED5, Y
 8E76  95 03     STA  $03, X
 8E78  C8        INY  
 8E79  B9 D5 8E  LDA  $8ED5, Y
 8E7C  95 04     STA  $04, X
 8E7E  C8        INY  
 8E7F  B9 D5 8E  LDA  $8ED5, Y
 8E82  95 05     STA  $05, X
 8E84  A9 FF     LDA  #$FF
 8E86  95 00     STA  $00, X
 8E88  95 01     STA  $01, X
 8E8A  80 14     BRA  $8EA0
 8E8C  68        PLA  
 8E8D  D0 09     BNE  $8E98
 8E8F  1A        INC  
 8E90  48        PHA  
 8E91  8A        TXA  
 8E92  18        CLC  
 8E93  69 06     ADC  #$06
 8E95  AA        TAX  
 8E96  80 92     BRA  $8E2A
 8E98  8A        TXA  
 8E99  18        CLC  
 8E9A  69 0A     ADC  #$0A
 8E9C  AA        TAX  
 8E9D  20 88 8F  JSR  $8F88
 8EA0  60        RTS  
 8EA1  2F D4 3F D4 45 D4 4A D4 5C D4 64 D4 6D D4 73 D4  |/.?.E.J.\.d.m.s.|
 8EB1  79 D4 8C D4 98 D4 00 00 A2 D4 A8 D4 00 00 FF 7F  |y...............|
 8EC1  FF 00 54 00 08 00 00 00 FF 00 FF 7F FF FF 80 00  |..T.............|
 8ED1  20 00 09 00 FF 7F FF FF FF FF FF FF              | ...........    |
 8EDD  20 11 D6  JSR  $D611
 8EE0  B5 00     LDA  $00, X
 8EE2  D5 02     CMP  $02, X
 8EE4  D0 0A     BNE  $8EF0
 8EE6  B5 01     LDA  $01, X
 8EE8  D5 03     CMP  $03, X
 8EEA  D0 04     BNE  $8EF0
 8EEC  A9 FF     LDA  #$FF
 8EEE  80 02     BRA  $8EF2
 8EF0  A9 00     LDA  #$00
 8EF2  95 02     STA  $02, X
 8EF4  95 03     STA  $03, X
 8EF6  E8        INX  
 8EF7  E8        INX  
 8EF8  60        RTS  
 8EF9  CA        DEX  
 8EFA  CA        DEX  
 8EFB  A9 20     LDA  #$20
 8EFD  95 00     STA  $00, X
 8EFF  74 01     STZ  $01, X
 8F01  80 06     BRA  $8F09
 8F03  CA        DEX  
 8F04  CA        DEX  
 8F05  74 00     STZ  $00, X
 8F07  74 01     STZ  $01, X
 8F09  20 16 D6  JSR  $D616
 8F0C  B5 04     LDA  $04, X
 8F0E  85 24     STA  $24
 8F10  B5 05     LDA  $05, X
 8F12  85 25     STA  $25
 8F14  B5 02     LDA  $02, X
 8F16  85 26     STA  $26
 8F18  B5 03     LDA  $03, X
 8F1A  85 27     STA  $27
 8F1C  B5 00     LDA  $00, X
 8F1E  A8        TAY  
 8F1F  A9 7F     LDA  #$7F
 8F21  C5 25     CMP  $25
 8F23  90 21     BCC  $8F46
 8F25  D0 06     BNE  $8F2D
 8F27  A9 FF     LDA  #$FF
 8F29  C5 24     CMP  $24
 8F2B  90 19     BCC  $8F46
 8F2D  A5 26     LDA  $26
 8F2F  05 27     ORA  $27
 8F31  F0 13     BEQ  $8F46
 8F33  98        TYA  
 8F34  92 24     STA  ($24)
 8F36  A5 26     LDA  $26
 8F38  D0 02     BNE  $8F3C
 8F3A  C6 27     DEC  $27
 8F3C  C6 26     DEC  $26
 8F3E  E6 24     INC  $24
 8F40  D0 DD     BNE  $8F1F
 8F42  E6 25     INC  $25
 8F44  80 D9     BRA  $8F1F
 8F46  8A        TXA  
 8F47  18        CLC  
 8F48  69 06     ADC  #$06
 8F4A  AA        TAX  
 8F4B  60        RTS  
 8F4C  20 0C D6  JSR  $D60C
 8F4F  20 53 8F  JSR  $8F53
 8F52  60        RTS  
 8F53  B5 00     LDA  $00, X
 8F55  85 0E     STA  $0E
 8F57  B5 01     LDA  $01, X
 8F59  85 0F     STA  $0F
 8F5B  E8        INX  
 8F5C  E8        INX  
 8F5D  6C 0E 00  JMP  ($000E)
 8F60  20 16 D6  JSR  $D616
 8F63  20 71 92  JSR  $9271
 8F66  20 7D 96  JSR  $967D
 8F69  B5 00     LDA  $00, X
 8F6B  85 0A     STA  $0A
 8F6D  B5 01     LDA  $01, X
 8F6F  85 0B     STA  $0B
 8F71  B5 02     LDA  $02, X
 8F73  85 08     STA  $08
 8F75  B5 03     LDA  $03, X
 8F77  85 09     STA  $09
 8F79  64 0C     STZ  $0C
 8F7B  64 0D     STZ  $0D
 8F7D  20 4C A3  JSR  $A34C
 8F80  20 4C 8F  JSR  $8F4C
 8F83  20 48 9A  JSR  $9A48
 8F86  60        RTS  
 8F87  60        RTS  
 8F88  CA        DEX  
 8F89  CA        DEX  
 8F8A  74 00     STZ  $00, X
 8F8C  74 01     STZ  $01, X
 8F8E  60        RTS  
 8F8F  20 0C D6  JSR  $D60C
 8F92  A1 00     LDA  ($00, X)
 8F94  A8        TAY  
 8F95  F6 00     INC  $00, X
 8F97  D0 02     BNE  $8F9B
 8F99  F6 01     INC  $01, X
 8F9B  A1 00     LDA  ($00, X)
 8F9D  95 01     STA  $01, X
 8F9F  94 00     STY  $00, X
 8FA1  60        RTS  
 8FA2  20 0C D6  JSR  $D60C
 8FA5  B5 01     LDA  $01, X
 8FA7  48        PHA  
 8FA8  B5 00     LDA  $00, X
 8FAA  48        PHA  
 8FAB  20 5E 89  JSR  $895E
 8FAE  20 EA 8F  JSR  $8FEA
 8FB1  B5 00     LDA  $00, X
 8FB3  15 01     ORA  $01, X
 8FB5  D0 0B     BNE  $8FC2
 8FB7  20 88 8F  JSR  $8F88
 8FBA  68        PLA  
 8FBB  95 02     STA  $02, X
 8FBD  68        PLA  
 8FBE  95 03     STA  $03, X
 8FC0  80 27     BRA  $8FE9
 8FC2  68        PLA  
 8FC3  68        PLA  
 8FC4  20 BE 8D  JSR  $8DBE
 8FC7  20 F0 95  JSR  $95F0
 8FCA  20 4A A1  JSR  $A14A
 8FCD  A0 00     LDY  #$00
 8FCF  F6 00     INC  $00, X
 8FD1  D0 02     BNE  $8FD5
 8FD3  F6 01     INC  $01, X
 8FD5  A1 00     LDA  ($00, X)
 8FD7  29 04     AND  #$04
 8FD9  D0 08     BNE  $8FE3
 8FDB  A9 FF     LDA  #$FF
 8FDD  95 00     STA  $00, X
 8FDF  95 01     STA  $01, X
 8FE1  80 06     BRA  $8FE9
 8FE3  A9 01     LDA  #$01
 8FE5  95 00     STA  $00, X
 8FE7  74 01     STZ  $01, X
 8FE9  60        RTS  
 8FEA  20 11 D6  JSR  $D611
 8FED  B5 00     LDA  $00, X
 8FEF  15 01     ORA  $01, X
 8FF1  D0 03     BNE  $8FF6
 8FF3  4C 8F 90  JMP  $908F
 8FF6  64 28     STZ  $28
 8FF8  A0 1E     LDY  #$1E
 8FFA  A5 28     LDA  $28
 8FFC  D1 1E     CMP  ($1E), Y
 8FFE  D0 03     BNE  $9003
 9000  4C 8F 90  JMP  $908F
 9003  18        CLC  
 9004  69 1F     ADC  #$1F
 9006  A8        TAY  
 9007  B1 1E     LDA  ($1E), Y
 9009  0A        ASL  
 900A  18        CLC  
 900B  69 06     ADC  #$06
 900D  A8        TAY  
 900E  B1 1E     LDA  ($1E), Y
 9010  85 24     STA  $24
 9012  C8        INY  
 9013  B1 1E     LDA  ($1E), Y
 9015  85 25     STA  $25
 9017  B5 02     LDA  $02, X
 9019  85 26     STA  $26
 901B  B5 03     LDA  $03, X
 901D  85 27     STA  $27
 901F  B2 24     LDA  ($24)
 9021  D5 00     CMP  $00, X
 9023  D0 54     BNE  $9079
 9025  B2 26     LDA  ($26)
 9027  C9 5B     CMP  #$5B
 9029  B0 07     BCS  $9032
 902B  C9 41     CMP  #$41
 902D  90 03     BCC  $9032
 902F  18        CLC  
 9030  69 20     ADC  #$20
 9032  A0 08     LDY  #$08
 9034  D1 24     CMP  ($24), Y
 9036  D0 41     BNE  $9079
 9038  B5 00     LDA  $00, X
 903A  3A        DEC  
 903B  F0 2C     BEQ  $9069
 903D  A5 24     LDA  $24
 903F  48        PHA  
 9040  18        CLC  
 9041  69 08     ADC  #$08
 9043  85 24     STA  $24
 9045  A5 25     LDA  $25
 9047  48        PHA  
 9048  69 00     ADC  #$00
 904A  85 25     STA  $25
 904C  B4 00     LDY  $00, X
 904E  88        DEY  
 904F  B1 26     LDA  ($26), Y
 9051  C9 5B     CMP  #$5B
 9053  B0 07     BCS  $905C
 9055  C9 41     CMP  #$41
 9057  90 03     BCC  $905C
 9059  18        CLC  
 905A  69 20     ADC  #$20
 905C  D1 24     CMP  ($24), Y
 905E  D0 13     BNE  $9073
 9060  88        DEY  
 9061  D0 EC     BNE  $904F
 9063  68        PLA  
 9064  85 25     STA  $25
 9066  68        PLA  
 9067  85 24     STA  $24
 9069  A5 24     LDA  $24
 906B  95 02     STA  $02, X
 906D  A5 25     LDA  $25
 906F  95 03     STA  $03, X
 9071  80 20     BRA  $9093
 9073  68        PLA  
 9074  85 25     STA  $25
 9076  68        PLA  
 9077  85 24     STA  $24
 9079  A0 02     LDY  #$02
 907B  B1 24     LDA  ($24), Y
 907D  48        PHA  
 907E  C8        INY  
 907F  B1 24     LDA  ($24), Y
 9081  85 25     STA  $25
 9083  68        PLA  
 9084  85 24     STA  $24
 9086  05 25     ORA  $25
 9088  D0 95     BNE  $901F
 908A  E6 28     INC  $28
 908C  4C F8 8F  JMP  $8FF8
 908F  74 02     STZ  $02, X
 9091  74 03     STZ  $03, X
 9093  E8        INX  
 9094  E8        INX  
 9095  60        RTS  
 9096  20 62 9E  JSR  $9E62
 9099  A0 2C     LDY  #$2C
 909B  A9 00     LDA  #$00
 909D  91 1E     STA  ($1E), Y
 909F  60        RTS  
 90A0  20 16 D6  JSR  $D616
 90A3  64 26     STZ  $26
 90A5  B5 01     LDA  $01, X
 90A7  10 0E     BPL  $90B7
 90A9  E6 26     INC  $26
 90AB  20 32 96  JSR  $9632
 90AE  20 0C A3  JSR  $A30C
 90B1  20 50 8B  JSR  $8B50
 90B4  20 37 9A  JSR  $9A37
 90B7  B5 03     LDA  $03, X
 90B9  10 0D     BPL  $90C8
 90BB  18        CLC  
 90BC  B5 00     LDA  $00, X
 90BE  75 02     ADC  $02, X
 90C0  95 02     STA  $02, X
 90C2  B5 01     LDA  $01, X
 90C4  75 03     ADC  $03, X
 90C6  95 03     STA  $03, X
 90C8  20 56 A5  JSR  $A556
 90CB  A5 26     LDA  $26
 90CD  F0 07     BEQ  $90D6
 90CF  E8        INX  
 90D0  E8        INX  
 90D1  20 32 96  JSR  $9632
 90D4  CA        DEX  
 90D5  CA        DEX  
 90D6  60        RTS  
 90D7  A0 1F     LDY  #$1F
 90D9  A9 00     LDA  #$00
 90DB  91 1E     STA  ($1E), Y
 90DD  60        RTS  
 90DE  A9 FF     LDA  #$FF
 90E0  85 24     STA  $24
 90E2  80 11     BRA  $90F5
 90E4  20 11 D6  JSR  $D611
 90E7  64 24     STZ  $24
 90E9  B5 00     LDA  $00, X
 90EB  15 01     ORA  $01, X
 90ED  D0 06     BNE  $90F5
 90EF  E8        INX  
 90F0  E8        INX  
 90F1  E8        INX  
 90F2  E8        INX  
 90F3  80 42     BRA  $9137
 90F5  A0 01     LDY  #$01
 90F7  B1 1E     LDA  ($1E), Y
 90F9  48        PHA  
 90FA  88        DEY  
 90FB  B1 1E     LDA  ($1E), Y
 90FD  48        PHA  
 90FE  A5 24     LDA  $24
 9100  D0 05     BNE  $9107
 9102  91 1E     STA  ($1E), Y
 9104  C8        INY  
 9105  91 1E     STA  ($1E), Y
 9107  20 71 92  JSR  $9271
 910A  A9 FF     LDA  #$FF
 910C  85 06     STA  $06
 910E  85 07     STA  $07
 9110  64 0C     STZ  $0C
 9112  64 0D     STZ  $0D
 9114  B5 00     LDA  $00, X
 9116  85 0A     STA  $0A
 9118  B5 01     LDA  $01, X
 911A  85 0B     STA  $0B
 911C  B5 02     LDA  $02, X
 911E  85 08     STA  $08
 9120  B5 03     LDA  $03, X
 9122  85 09     STA  $09
 9124  E8        INX  
 9125  E8        INX  
 9126  E8        INX  
 9127  E8        INX  
 9128  20 74 D5  JSR  $D574
 912B  20 48 9A  JSR  $9A48
 912E  A0 00     LDY  #$00
 9130  68        PLA  
 9131  91 1E     STA  ($1E), Y
 9133  C8        INY  
 9134  68        PLA  
 9135  91 1E     STA  ($1E), Y
 9137  60        RTS  
 9138  CA        DEX  
 9139  CA        DEX  
 913A  A0 04     LDY  #$04
 913C  B1 1E     LDA  ($1E), Y
 913E  95 00     STA  $00, X
 9140  74 01     STZ  $01, X
 9142  60        RTS  
 9143  A0 1E     LDY  #$1E
 9145  B1 1E     LDA  ($1E), Y
 9147  85 24     STA  $24
 9149  F0 16     BEQ  $9161
 914B  C6 24     DEC  $24
 914D  A9 1F     LDA  #$1F
 914F  18        CLC  
 9150  65 24     ADC  $24
 9152  A8        TAY  
 9153  CA        DEX  
 9154  CA        DEX  
 9155  B1 1E     LDA  ($1E), Y
 9157  95 00     STA  $00, X
 9159  74 01     STZ  $01, X
 915B  A9 00     LDA  #$00
 915D  C5 24     CMP  $24
 915F  D0 EA     BNE  $914B
 9161  CA        DEX  
 9162  CA        DEX  
 9163  A0 1E     LDY  #$1E
 9165  B1 1E     LDA  ($1E), Y
 9167  95 00     STA  $00, X
 9169  74 01     STZ  $01, X
 916B  60        RTS  
 916C  20 11 D6  JSR  $D611
 916F  A0 00     LDY  #$00
 9171  20 33 D5  JSR  $D533
 9174  F0 03     BEQ  $9179
 9176  10 01     BPL  $9179
 9178  88        DEY  
 9179  98        TYA  
 917A  E8        INX  
 917B  E8        INX  
 917C  95 00     STA  $00, X
 917E  95 01     STA  $01, X
 9180  60        RTS  
 9181  CA        DEX  
 9182  CA        DEX  
 9183  A5 00     LDA  $00
 9185  95 00     STA  $00, X
 9187  A5 01     LDA  $01
 9189  95 01     STA  $01, X
 918B  60        RTS  
 918C  A9 10     LDA  #$10
 918E  85 18     STA  $18
 9190  64 19     STZ  $19
 9192  60        RTS  
 9193  20 16 D6  JSR  $D616
 9196  20 BE 8D  JSR  $8DBE
 9199  20 3E A4  JSR  $A43E
 919C  B5 00     LDA  $00, X
 919E  15 01     ORA  $01, X
 91A0  F0 36     BEQ  $91D8
 91A2  20 55 86  JSR  $8655
 91A5  20 3E A4  JSR  $A43E
 91A8  20 43 A7  JSR  $A743
 91AB  20 43 A7  JSR  $A743
 91AE  20 C4 A3  JSR  $A3C4
 91B1  20 59 A2  JSR  $A259
 91B4  B5 00     LDA  $00, X
 91B6  15 01     ORA  $01, X
 91B8  D0 17     BNE  $91D1
 91BA  20 4C A3  JSR  $A34C
 91BD  20 8F 8A  JSR  $8A8F
 91C0  20 22 9A  JSR  $9A22
 91C3  20 1E 86  JSR  $861E
 91C6  20 37 9A  JSR  $9A37
 91C9  20 C2 97  JSR  $97C2
 91CC  20 0C A3  JSR  $A30C
 91CF  80 CB     BRA  $919C
 91D1  8A        TXA  
 91D2  18        CLC  
 91D3  69 08     ADC  #$08
 91D5  AA        TAX  
 91D6  80 C4     BRA  $919C
 91D8  E8        INX  
 91D9  E8        INX  
 91DA  E8        INX  
 91DB  E8        INX  
 91DC  20 C4 A3  JSR  $A3C4
 91DF  20 4A A1  JSR  $A14A
 91E2  20 5F 95  JSR  $955F
 91E5  60        RTS  
 91E6  20 0C D6  JSR  $D60C
 91E9  A5 34     LDA  $34
 91EB  D0 02     BNE  $91EF
 91ED  C6 35     DEC  $35
 91EF  C6 34     DEC  $34
 91F1  B5 00     LDA  $00, X
 91F3  92 34     STA  ($34)
 91F5  E8        INX  
 91F6  E8        INX  
 91F7  60        RTS  
 91F8  CA        DEX  
 91F9  CA        DEX  
 91FA  86 2A     STX  $2A
 91FC  BA        TSX  
 91FD  38        SEC  
 91FE  BD 01 01  LDA  $0101, X
 9201  FD 03 01  SBC  $0103, X
 9204  A8        TAY  
 9205  BD 02 01  LDA  $0102, X
 9208  FD 04 01  SBC  $0104, X
 920B  A6 2A     LDX  $2A
 920D  95 01     STA  $01, X
 920F  94 00     STY  $00, X
 9211  60        RTS  
 9212  A0 92     LDY  #$92
 9214  A9 23     LDA  #$23
 9216  20 AF D4  JSR  $D4AF
 9219  20 81 91  JSR  $9181
 921C  20 43 A7  JSR  $A743
 921F  20 7D 87  JSR  $877D
 9222  60        RTS  
 9223  68        PLA  
 9224  85 22     STA  $22
 9226  68        PLA  
 9227  85 23     STA  $23
 9229  B5 00     LDA  $00, X
 922B  15 01     ORA  $01, X
 922D  F0 0F     BEQ  $923E
 922F  A5 22     LDA  $22
 9231  18        CLC  
 9232  69 02     ADC  #$02
 9234  85 24     STA  $24
 9236  A5 23     LDA  $23
 9238  69 00     ADC  #$00
 923A  85 25     STA  $25
 923C  80 13     BRA  $9251
 923E  A0 01     LDY  #$01
 9240  B1 22     LDA  ($22), Y
 9242  85 24     STA  $24
 9244  C8        INY  
 9245  B1 22     LDA  ($22), Y
 9247  85 25     STA  $25
 9249  A5 24     LDA  $24
 924B  D0 02     BNE  $924F
 924D  C6 25     DEC  $25
 924F  C6 24     DEC  $24
 9251  A5 25     LDA  $25
 9253  48        PHA  
 9254  A5 24     LDA  $24
 9256  48        PHA  
 9257  E8        INX  
 9258  E8        INX  
 9259  60        RTS  
 925A  20 4E D5  JSR  $D54E
 925D  A0 01     LDY  #$01
 925F  B1 02     LDA  ($02), Y
 9261  09 04     ORA  #$04
 9263  91 02     STA  ($02), Y
 9265  60        RTS  
 9266  CA        DEX  
 9267  CA        DEX  
 9268  A9 12     LDA  #$12
 926A  95 00     STA  $00, X
 926C  A9 00     LDA  #$00
 926E  95 01     STA  $01, X
 9270  60        RTS  
 9271  68        PLA  
 9272  85 24     STA  $24
 9274  68        PLA  
 9275  85 25     STA  $25
 9277  A0 07     LDY  #$07
 9279  B9 06 00  LDA  $0006, Y
 927C  48        PHA  
 927D  88        DEY  
 927E  10 F9     BPL  $9279
 9280  A5 25     LDA  $25
 9282  48        PHA  
 9283  A5 24     LDA  $24
 9285  48        PHA  
 9286  60        RTS  
 9287  20 0C D6  JSR  $D60C
 928A  CA        DEX  
 928B  CA        DEX  
 928C  74 00     STZ  $00, X
 928E  74 01     STZ  $01, X
 9290  B5 00     LDA  $00, X
 9292  0A        ASL  
 9293  18        CLC  
 9294  69 06     ADC  #$06
 9296  A8        TAY  
 9297  B1 1E     LDA  ($1E), Y
 9299  85 26     STA  $26
 929B  C8        INY  
 929C  B1 1E     LDA  ($1E), Y
 929E  85 27     STA  $27
 92A0  A5 26     LDA  $26
 92A2  05 27     ORA  $27
 92A4  F0 38     BEQ  $92DE
 92A6  B5 02     LDA  $02, X
 92A8  85 28     STA  $28
 92AA  B5 03     LDA  $03, X
 92AC  85 29     STA  $29
 92AE  A0 04     LDY  #$04
 92B0  B1 26     LDA  ($26), Y
 92B2  C5 28     CMP  $28
 92B4  D0 07     BNE  $92BD
 92B6  C8        INY  
 92B7  B1 26     LDA  ($26), Y
 92B9  C5 29     CMP  $29
 92BB  F0 32     BEQ  $92EF
 92BD  18        CLC  
 92BE  A5 26     LDA  $26
 92C0  69 02     ADC  #$02
 92C2  85 26     STA  $26
 92C4  A5 27     LDA  $27
 92C6  69 00     ADC  #$00
 92C8  85 27     STA  $27
 92CA  A0 00     LDY  #$00
 92CC  B1 26     LDA  ($26), Y
 92CE  48        PHA  
 92CF  C8        INY  
 92D0  11 26     ORA  ($26), Y
 92D2  F0 09     BEQ  $92DD
 92D4  B1 26     LDA  ($26), Y
 92D6  85 27     STA  $27
 92D8  68        PLA  
 92D9  85 26     STA  $26
 92DB  80 D1     BRA  $92AE
 92DD  68        PLA  
 92DE  B5 00     LDA  $00, X
 92E0  1A        INC  
 92E1  95 00     STA  $00, X
 92E3  C9 0C     CMP  #$0C
 92E5  D0 A9     BNE  $9290
 92E7  E8        INX  
 92E8  E8        INX  
 92E9  74 00     STZ  $00, X
 92EB  74 01     STZ  $01, X
 92ED  80 0A     BRA  $92F9
 92EF  E8        INX  
 92F0  E8        INX  
 92F1  A5 26     LDA  $26
 92F3  95 00     STA  $00, X
 92F5  A5 27     LDA  $27
 92F7  95 01     STA  $01, X
 92F9  60        RTS  
 92FA  20 0C D6  JSR  $D60C
 92FD  A9 FF     LDA  #$FF
 92FF  55 00     EOR  $00, X
 9301  95 00     STA  $00, X
 9303  A9 FF     LDA  #$FF
 9305  55 01     EOR  $01, X
 9307  95 01     STA  $01, X
 9309  60        RTS  
 930A  A5 16     LDA  $16
 930C  05 17     ORA  $17
 930E  F0 0C     BEQ  $931C
 9310  20 A8 85  JSR  $85A8
 9313  A0 8A     LDY  #$8A
 9315  A9 F5     LDA  #$F5
 9317  20 AF D4  JSR  $D4AF
 931A  80 06     BRA  $9322
 931C  20 AD A1  JSR  $A1AD
 931F  20 F5 8A  JSR  $8AF5
 9322  60        RTS  
 9323  CA        DEX  
 9324  CA        DEX  
 9325  86 2A     STX  $2A
 9327  BA        TSX  
 9328  38        SEC  
 9329  BD 07 01  LDA  $0107, X
 932C  FD 09 01  SBC  $0109, X
 932F  A8        TAY  
 9330  BD 08 01  LDA  $0108, X
 9333  FD 0A 01  SBC  $010A, X
 9336  A6 2A     LDX  $2A
 9338  95 01     STA  $01, X
 933A  94 00     STY  $00, X
 933C  60        RTS  
 933D  20 47 93  JSR  $9347
 9340  CA        DEX  
 9341  CA        DEX  
 9342  95 00     STA  $00, X
 9344  74 01     STZ  $01, X
 9346  60        RTS  
 9347  6C 12 00  JMP  ($0012)
 934A  CA        DEX  
 934B  CA        DEX  
 934C  20 4E D5  JSR  $D54E
 934F  A5 02     LDA  $02
 9351  95 00     STA  $00, X
 9353  A5 03     LDA  $03
 9355  95 01     STA  $01, X
 9357  60        RTS  
 9358  20 4A 93  JSR  $934A
 935B  20 F0 95  JSR  $95F0
 935E  60        RTS  
 935F  68        PLA  
 9360  68        PLA  
 9361  68        PLA  
 9362  68        PLA  
 9363  60        RTS  
 9364  64 16     STZ  $16
 9366  64 17     STZ  $17
 9368  60        RTS  
 9369  20 46 98  JSR  $9846
 936C  B5 00     LDA  $00, X
 936E  85 34     STA  $34
 9370  B5 01     LDA  $01, X
 9372  85 35     STA  $35
 9374  E8        INX  
 9375  E8        INX  
 9376  60        RTS  
 9377  20 11 D6  JSR  $D611
 937A  A0 00     LDY  #$00
 937C  20 33 D5  JSR  $D533
 937F  F0 03     BEQ  $9384
 9381  30 01     BMI  $9384
 9383  88        DEY  
 9384  98        TYA  
 9385  E8        INX  
 9386  E8        INX  
 9387  95 00     STA  $00, X
 9389  95 01     STA  $01, X
 938B  60        RTS  
 938C  20 0C D6  JSR  $D60C
 938F  20 7D 9E  JSR  $9E7D
 9392  20 29 A1  JSR  $A129
 9395  20 E1 A7  JSR  $A7E1
 9398  60        RTS  
 9399  20 0C D6  JSR  $D60C
 939C  A0 93     LDY  #$93
 939E  A9 A7     LDA  #$A7
 93A0  20 AF D4  JSR  $D4AF
 93A3  20 7D 87  JSR  $877D
 93A6  60        RTS  
 93A7  CA        DEX  
 93A8  CA        DEX  
 93A9  68        PLA  
 93AA  85 24     STA  $24
 93AC  68        PLA  
 93AD  85 25     STA  $25
 93AF  A0 01     LDY  #$01
 93B1  B1 24     LDA  ($24), Y
 93B3  95 00     STA  $00, X
 93B5  C8        INY  
 93B6  B1 24     LDA  ($24), Y
 93B8  95 01     STA  $01, X
 93BA  98        TYA  
 93BB  18        CLC  
 93BC  65 24     ADC  $24
 93BE  A8        TAY  
 93BF  A5 25     LDA  $25
 93C1  69 00     ADC  #$00
 93C3  48        PHA  
 93C4  5A        PHY  
 93C5  60        RTS  
 93C6  20 0C D6  JSR  $D60C
 93C9  A0 01     LDY  #$01
 93CB  B1 1E     LDA  ($1E), Y
 93CD  48        PHA  
 93CE  88        DEY  
 93CF  B1 1E     LDA  ($1E), Y
 93D1  48        PHA  
 93D2  B5 00     LDA  $00, X
 93D4  91 1E     STA  ($1E), Y
 93D6  C8        INY  
 93D7  B5 01     LDA  $01, X
 93D9  91 1E     STA  ($1E), Y
 93DB  20 CB 83  JSR  $83CB
 93DE  CA        DEX  
 93DF  CA        DEX  
 93E0  A9 04     LDA  #$04
 93E2  95 01     STA  $01, X
 93E4  74 00     STZ  $00, X
 93E6  20 DE 90  JSR  $90DE
 93E9  A0 00     LDY  #$00
 93EB  68        PLA  
 93EC  91 1E     STA  ($1E), Y
 93EE  C8        INY  
 93EF  68        PLA  
 93F0  91 1E     STA  ($1E), Y
 93F2  88        DEY  
 93F3  11 1E     ORA  ($1E), Y
 93F5  F0 12     BEQ  $9409
 93F7  CA        DEX  
 93F8  CA        DEX  
 93F9  A0 00     LDY  #$00
 93FB  B1 1E     LDA  ($1E), Y
 93FD  95 00     STA  $00, X
 93FF  C8        INY  
 9400  B1 1E     LDA  ($1E), Y
 9402  95 01     STA  $01, X
 9404  20 CB 83  JSR  $83CB
 9407  E8        INX  
 9408  E8        INX  
 9409  60        RTS  
 940A  A0 97     LDY  #$97
 940C  A9 AD     LDA  #$AD
 940E  20 AF D4  JSR  $D4AF
 9411  A0 11     LDY  #$11
 9413  5A        PHY  
 9414  B9 78 94  LDA  $9478, Y
 9417  91 00     STA  ($00), Y
 9419  88        DEY  
 941A  10 F8     BPL  $9414
 941C  68        PLA  
 941D  18        CLC  
 941E  65 00     ADC  $00
 9420  85 00     STA  $00
 9422  A5 01     LDA  $01
 9424  69 00     ADC  #$00
 9426  85 01     STA  $01
 9428  20 7D 87  JSR  $877D
 942B  A9 68     LDA  #$68
 942D  A0 06     LDY  #$06
 942F  91 00     STA  ($00), Y
 9431  88        DEY  
 9432  10 FB     BPL  $942F
 9434  A9 06     LDA  #$06
 9436  18        CLC  
 9437  65 00     ADC  $00
 9439  85 00     STA  $00
 943B  A5 01     LDA  $01
 943D  69 00     ADC  #$00
 943F  85 01     STA  $01
 9441  B5 00     LDA  $00, X
 9443  85 24     STA  $24
 9445  B5 01     LDA  $01, X
 9447  85 25     STA  $25
 9449  E8        INX  
 944A  E8        INX  
 944B  A5 00     LDA  $00
 944D  38        SEC  
 944E  E9 01     SBC  #$01
 9450  85 26     STA  $26
 9452  A5 01     LDA  $01
 9454  E9 00     SBC  #$00
 9456  85 27     STA  $27
 9458  A0 00     LDY  #$00
 945A  A9 A9     LDA  #$A9
 945C  91 24     STA  ($24), Y
 945E  C8        INY  
 945F  A5 27     LDA  $27
 9461  91 24     STA  ($24), Y
 9463  C8        INY  
 9464  A9 48     LDA  #$48
 9466  91 24     STA  ($24), Y
 9468  C8        INY  
 9469  A9 A9     LDA  #$A9
 946B  91 24     STA  ($24), Y
 946D  C8        INY  
 946E  A5 26     LDA  $26
 9470  91 24     STA  ($24), Y
 9472  C8        INY  
 9473  A9 48     LDA  #$48
 9475  91 24     STA  ($24), Y
 9477  60        RTS  
 9478  18        CLC  
 9479  68        PLA  
 947A  75 00     ADC  $00, X
 947C  A8        TAY  
 947D  B8        CLV  
 947E  68        PLA  
 947F  75 01     ADC  $01, X
 9481  48        PHA  
 9482  98        TYA  
 9483  48        PHA  
 9484  E8        INX  
 9485  E8        INX  
 9486  70 03     BVS  $948B
 9488  4C                                               |L               |
 9489  20 11 D6  JSR  $D611
 948C  B5 00     LDA  $00, X
 948E  29 0F     AND  #$0F
 9490  F0 08     BEQ  $949A
 9492  A8        TAY  
 9493  16 02     ASL  $02, X
 9495  36 03     ROL  $03, X
 9497  88        DEY  
 9498  D0 F9     BNE  $9493
 949A  E8        INX  
 949B  E8        INX  
 949C  60        RTS  
 949D  20 11 D6  JSR  $D611
 94A0  B5 01     LDA  $01, X
 94A2  55 03     EOR  $03, X
 94A4  48        PHA  
 94A5  20 39 81  JSR  $8139
 94A8  20 4A A1  JSR  $A14A
 94AB  20 39 81  JSR  $8139
 94AE  20 98 A5  JSR  $A598
 94B1  68        PLA  
 94B2  10 03     BPL  $94B7
 94B4  20 50 8B  JSR  $8B50
 94B7  60        RTS  
 94B8  20 4E D5  JSR  $D54E
 94BB  A5 02     LDA  $02
 94BD  48        PHA  
 94BE  A5 03     LDA  $03
 94C0  48        PHA  
 94C1  A5 00     LDA  $00
 94C3  48        PHA  
 94C4  A5 01     LDA  $01
 94C6  48        PHA  
 94C7  20 78 89  JSR  $8978
 94CA  A5 00     LDA  $00
 94CC  38        SEC  
 94CD  E9 02     SBC  #$02
 94CF  85 00     STA  $00
 94D1  A5 01     LDA  $01
 94D3  E9 00     SBC  #$00
 94D5  85 01     STA  $01
 94D7  A0 94     LDY  #$94
 94D9  A9 F6     LDA  #$F6
 94DB  20 BB D4  JSR  $D4BB
 94DE  7A        PLY  
 94DF  68        PLA  
 94E0  20 BB D4  JSR  $D4BB
 94E3  7A        PLY  
 94E4  68        PLA  
 94E5  20 BB D4  JSR  $D4BB
 94E8  A0 04     LDY  #$04
 94EA  B1 1E     LDA  ($1E), Y
 94EC  20 BF D4  JSR  $D4BF
 94EF  C8        INY  
 94F0  98        TYA  
 94F1  C9 28     CMP  #$28
 94F3  D0 F5     BNE  $94EA
 94F5  60        RTS  
 94F6  68        PLA  
 94F7  85 24     STA  $24
 94F9  68        PLA  
 94FA  85 25     STA  $25
 94FC  E6 24     INC  $24
 94FE  D0 02     BNE  $9502
 9500  E6 25     INC  $25
 9502  A0 00     LDY  #$00
 9504  B1 24     LDA  ($24), Y
 9506  85 00     STA  $00
 9508  C8        INY  
 9509  B1 24     LDA  ($24), Y
 950B  85 01     STA  $01
 950D  C8        INY  
 950E  B1 24     LDA  ($24), Y
 9510  85 02     STA  $02
 9512  C8        INY  
 9513  B1 24     LDA  ($24), Y
 9515  85 03     STA  $03
 9517  A0 04     LDY  #$04
 9519  B1 24     LDA  ($24), Y
 951B  91 1E     STA  ($1E), Y
 951D  C8        INY  
 951E  98        TYA  
 951F  C9 28     CMP  #$28
 9521  D0 F6     BNE  $9519
 9523  20 61 D5  JSR  $D561
 9526  60        RTS  
 9527  20 11 D6  JSR  $D611
 952A  B5 00     LDA  $00, X
 952C  D5 02     CMP  $02, X
 952E  B5 01     LDA  $01, X
 9530  F5 03     SBC  $03, X
 9532  50 02     BVC  $9536
 9534  49 80     EOR  #$80
 9536  30 08     BMI  $9540
 9538  B5 00     LDA  $00, X
 953A  95 02     STA  $02, X
 953C  B5 01     LDA  $01, X
 953E  95 03     STA  $03, X
 9540  E8        INX  
 9541  E8        INX  
 9542  60        RTS  
 9543  20 11 D6  JSR  $D611
 9546  B5 00     LDA  $00, X
 9548  D5 02     CMP  $02, X
 954A  B5 01     LDA  $01, X
 954C  F5 03     SBC  $03, X
 954E  50 02     BVC  $9552
 9550  49 80     EOR  #$80
 9552  10 08     BPL  $955C
 9554  B5 00     LDA  $00, X
 9556  95 02     STA  $02, X
 9558  B5 01     LDA  $01, X
 955A  95 03     STA  $03, X
 955C  E8        INX  
 955D  E8        INX  
 955E  60        RTS  
 955F  20 11 D6  JSR  $D611
 9562  38        SEC  
 9563  B5 02     LDA  $02, X
 9565  F5 00     SBC  $00, X
 9567  95 02     STA  $02, X
 9569  B5 03     LDA  $03, X
 956B  F5 01     SBC  $01, X
 956D  95 03     STA  $03, X
 956F  E8        INX  
 9570  E8        INX  
 9571  60        RTS  
 9572  20 11 D6  JSR  $D611
 9575  B5 00     LDA  $00, X
 9577  15 01     ORA  $01, X
 9579  F0 0F     BEQ  $958A
 957B  A1 02     LDA  ($02, X)
 957D  20 FF D5  JSR  $D5FF
 9580  90 08     BCC  $958A
 9582  20 AD 97  JSR  $97AD
 9585  20 BF 9F  JSR  $9FBF
 9588  80 EB     BRA  $9575
 958A  60        RTS  
 958B  20 11 D6  JSR  $D611
 958E  B5 00     LDA  $00, X
 9590  15 01     ORA  $01, X
 9592  F0 33     BEQ  $95C7
 9594  18        CLC  
 9595  B5 02     LDA  $02, X
 9597  75 00     ADC  $00, X
 9599  85 24     STA  $24
 959B  B5 03     LDA  $03, X
 959D  75 01     ADC  $01, X
 959F  85 25     STA  $25
 95A1  A5 24     LDA  $24
 95A3  D0 02     BNE  $95A7
 95A5  C6 25     DEC  $25
 95A7  C6 24     DEC  $24
 95A9  B2 24     LDA  ($24)
 95AB  C9 20     CMP  #$20
 95AD  D0 18     BNE  $95C7
 95AF  A5 24     LDA  $24
 95B1  D0 02     BNE  $95B5
 95B3  C6 25     DEC  $25
 95B5  C6 24     DEC  $24
 95B7  B5 00     LDA  $00, X
 95B9  D0 02     BNE  $95BD
 95BB  D6 01     DEC  $01, X
 95BD  D6 00     DEC  $00, X
 95BF  B5 00     LDA  $00, X
 95C1  15 01     ORA  $01, X
 95C3  F0 02     BEQ  $95C7
 95C5  80 E2     BRA  $95A9
 95C7  60        RTS  
 95C8  20 11 D6  JSR  $D611
 95CB  20 A7 9F  JSR  $9FA7
 95CE  E8        INX  
 95CF  E8        INX  
 95D0  60        RTS  
 95D1  B5 03     LDA  $03, X
 95D3  D5 05     CMP  $05, X
 95D5  F0 05     BEQ  $95DC
 95D7  B0 0E     BCS  $95E7
 95D9  4C A2 86  JMP  $86A2
 95DC  B5 02     LDA  $02, X
 95DE  D5 04     CMP  $04, X
 95E0  F0 08     BEQ  $95EA
 95E2  B0 03     BCS  $95E7
 95E4  4C A2 86  JMP  $86A2
 95E7  4C DD 86  JMP  $86DD
 95EA  8A        TXA  
 95EB  18        CLC  
 95EC  69 06     ADC  #$06
 95EE  AA        TAX  
 95EF  60        RTS  
 95F0  20 0C D6  JSR  $D60C
 95F3  B5 00     LDA  $00, X
 95F5  18        CLC  
 95F6  69 04     ADC  #$04
 95F8  85 28     STA  $28
 95FA  B5 01     LDA  $01, X
 95FC  90 01     BCC  $95FF
 95FE  1A        INC  
 95FF  85 29     STA  $29
 9601  A0 00     LDY  #$00
 9603  B1 28     LDA  ($28), Y
 9605  95 00     STA  $00, X
 9607  C8        INY  
 9608  B1 28     LDA  ($28), Y
 960A  95 01     STA  $01, X
 960C  60        RTS  
 960D  20 0C D6  JSR  $D60C
 9610  CA        DEX  
 9611  CA        DEX  
 9612  A1 02     LDA  ($02, X)
 9614  95 00     STA  $00, X
 9616  74 01     STZ  $01, X
 9618  B5 02     LDA  $02, X
 961A  18        CLC  
 961B  69 08     ADC  #$08
 961D  A8        TAY  
 961E  B5 03     LDA  $03, X
 9620  69 00     ADC  #$00
 9622  95 03     STA  $03, X
 9624  94 02     STY  $02, X
 9626  60        RTS  
 9627  CA        DEX  
 9628  CA        DEX  
 9629  A9 1A     LDA  #$1A
 962B  95 00     STA  $00, X
 962D  A9 00     LDA  #$00
 962F  95 01     STA  $01, X
 9631  60        RTS  
 9632  20 0C D6  JSR  $D60C
 9635  A9 00     LDA  #$00
 9637  38        SEC  
 9638  F5 00     SBC  $00, X
 963A  95 00     STA  $00, X
 963C  A9 00     LDA  #$00
 963E  F5 01     SBC  $01, X
 9640  95 01     STA  $01, X
 9642  60        RTS  
 9643  20 4E D5  JSR  $D54E
 9646  A0 01     LDY  #$01
 9648  B1 02     LDA  ($02), Y
 964A  09 08     ORA  #$08
 964C  29 FD     AND  #$FD
 964E  91 02     STA  ($02), Y
 9650  60        RTS  
 9651  20 11 D6  JSR  $D611
 9654  B5 00     LDA  $00, X
 9656  95 02     STA  $02, X
 9658  B5 01     LDA  $01, X
 965A  95 03     STA  $03, X
 965C  E8        INX  
 965D  E8        INX  
 965E  60        RTS  
 965F  20 11 D6  JSR  $D611
 9662  A0 00     LDY  #$00
 9664  B5 00     LDA  $00, X
 9666  D5 02     CMP  $02, X
 9668  D0 0A     BNE  $9674
 966A  B5 01     LDA  $01, X
 966C  D5 03     CMP  $03, X
 966E  D0 04     BNE  $9674
 9670  A9 FF     LDA  #$FF
 9672  80 01     BRA  $9675
 9674  88        DEY  
 9675  98        TYA  
 9676  E8        INX  
 9677  E8        INX  
 9678  95 00     STA  $00, X
 967A  95 01     STA  $01, X
 967C  60        RTS  
 967D  20 16 D6  JSR  $D616
 9680  B4 01     LDY  $01, X
 9682  B5 03     LDA  $03, X
 9684  95 01     STA  $01, X
 9686  B5 05     LDA  $05, X
 9688  95 03     STA  $03, X
 968A  94 05     STY  $05, X
 968C  B4 00     LDY  $00, X
 968E  B5 02     LDA  $02, X
 9690  95 00     STA  $00, X
 9692  B5 04     LDA  $04, X
 9694  95 02     STA  $02, X
 9696  94 04     STY  $04, X
 9698  60        RTS  
 9699  20 11 D6  JSR  $D611
 969C  64 2A     STZ  $2A
 969E  64 2B     STZ  $2B
 96A0  A1 02     LDA  ($02, X)
 96A2  C9 2D     CMP  #$2D
 96A4  D0 0A     BNE  $96B0
 96A6  C6 2B     DEC  $2B
 96A8  F6 02     INC  $02, X
 96AA  D0 02     BNE  $96AE
 96AC  F6 03     INC  $03, X
 96AE  D6 00     DEC  $00, X
 96B0  B5 02     LDA  $02, X
 96B2  18        CLC  
 96B3  75 00     ADC  $00, X
 96B5  85 2C     STA  $2C
 96B7  B5 03     LDA  $03, X
 96B9  69 00     ADC  #$00
 96BB  85 2D     STA  $2D
 96BD  A5 2C     LDA  $2C
 96BF  D0 02     BNE  $96C3
 96C1  C6 2D     DEC  $2D
 96C3  C6 2C     DEC  $2C
 96C5  B2 2C     LDA  ($2C)
 96C7  C9 2E     CMP  #$2E
 96C9  D0 04     BNE  $96CF
 96CB  C6 2A     DEC  $2A
 96CD  D6 00     DEC  $00, X
 96CF  CA        DEX  
 96D0  CA        DEX  
 96D1  CA        DEX  
 96D2  CA        DEX  
 96D3  B5 04     LDA  $04, X
 96D5  95 00     STA  $00, X
 96D7  74 01     STZ  $01, X
 96D9  B5 06     LDA  $06, X
 96DB  95 02     STA  $02, X
 96DD  B5 07     LDA  $07, X
 96DF  95 03     STA  $03, X
 96E1  74 04     STZ  $04, X
 96E3  74 05     STZ  $05, X
 96E5  74 06     STZ  $06, X
 96E7  74 07     STZ  $07, X
 96E9  20 59 A2  JSR  $A259
 96EC  B5 00     LDA  $00, X
 96EE  F0 15     BEQ  $9705
 96F0  A9 3E     LDA  #$3E
 96F2  20 05 8E  JSR  $8E05
 96F5  20 9F A4  JSR  $A49F
 96F8  A9 3C     LDA  #$3C
 96FA  20 05 8E  JSR  $8E05
 96FD  20 C4 A0  JSR  $A0C4
 9700  A9 08     LDA  #$08
 9702  4C 22 D6  JMP  $D622
 9705  E8        INX  
 9706  E8        INX  
 9707  E8        INX  
 9708  E8        INX  
 9709  A5 2A     LDA  $2A
 970B  F0 0F     BEQ  $971C
 970D  A5 20     LDA  $20
 970F  09 20     ORA  #$20
 9711  85 20     STA  $20
 9713  A5 2B     LDA  $2B
 9715  F0 14     BEQ  $972B
 9717  20 50 8B  JSR  $8B50
 971A  80 0F     BRA  $972B
 971C  E8        INX  
 971D  E8        INX  
 971E  A5 20     LDA  $20
 9720  29 DF     AND  #$DF
 9722  85 20     STA  $20
 9724  A5 2B     LDA  $2B
 9726  F0 03     BEQ  $972B
 9728  20 32 96  JSR  $9632
 972B  60        RTS  
 972C  20 11 D6  JSR  $D611
 972F  20 91 83  JSR  $8391
 9732  20 8F 8F  JSR  $8F8F
 9735  20 0C A3  JSR  $A30C
 9738  20 43 A7  JSR  $A743
 973B  20 22 9A  JSR  $9A22
 973E  20 56 A5  JSR  $A556
 9741  20 FC 9A  JSR  $9AFC
 9744  20 FC 9A  JSR  $9AFC
 9747  20 37 9A  JSR  $9A37
 974A  20 56 A5  JSR  $A556
 974D  20 FC 9A  JSR  $9AFC
 9750  20 FC 9A  JSR  $9AFC
 9753  B5 00     LDA  $00, X
 9755  A8        TAY  
 9756  B9 23 D2  LDA  $D223, Y
 9759  95 00     STA  $00, X
 975B  74 01     STZ  $01, X
 975D  20 E6 91  JSR  $91E6
 9760  60        RTS  
 9761  20 11 D6  JSR  $D611
 9764  A5 34     LDA  $34
 9766  95 00     STA  $00, X
 9768  95 02     STA  $02, X
 976A  A5 35     LDA  $35
 976C  95 01     STA  $01, X
 976E  95 03     STA  $03, X
 9770  20 46 98  JSR  $9846
 9773  38        SEC  
 9774  B5 00     LDA  $00, X
 9776  F5 02     SBC  $02, X
 9778  95 02     STA  $02, X
 977A  B5 01     LDA  $01, X
 977C  F5 03     SBC  $03, X
 977E  95 03     STA  $03, X
 9780  E8        INX  
 9781  E8        INX  
 9782  60        RTS  
 9783  20 11 D6  JSR  $D611
 9786  20 2C 97  JSR  $972C
 9789  B5 00     LDA  $00, X
 978B  15 01     ORA  $01, X
 978D  15 02     ORA  $02, X
 978F  15 03     ORA  $03, X
 9791  D0 F3     BNE  $9786
 9793  60        RTS  
 9794  A0 98     LDY  #$98
 9796  A9 38     LDA  #$38
 9798  20 AF D4  JSR  $D4AF
 979B  A0 8E     LDY  #$8E
 979D  A9 DD     LDA  #$DD
 979F  20 AF D4  JSR  $D4AF
 97A2  20 12 92  JSR  $9212
 97A5  A0 8D     LDY  #$8D
 97A7  A9 3D     LDA  #$3D
 97A9  20 AF D4  JSR  $D4AF
 97AC  60        RTS  
 97AD  CA        DEX  
 97AE  CA        DEX  
 97AF  A9 01     LDA  #$01
 97B1  95 00     STA  $00, X
 97B3  74 01     STZ  $01, X
 97B5  60        RTS  
 97B6  20 0C D6  JSR  $D60C
 97B9  B5 00     LDA  $00, X
 97BB  D0 02     BNE  $97BF
 97BD  D6 01     DEC  $01, X
 97BF  D6 00     DEC  $00, X
 97C1  60        RTS  
 97C2  20 0C D6  JSR  $D60C
 97C5  F6 00     INC  $00, X
 97C7  D0 02     BNE  $97CB
 97C9  F6 01     INC  $01, X
 97CB  60        RTS  
 97CC  CA        DEX  
 97CD  CA        DEX  
 97CE  A9 FF     LDA  #$FF
 97D0  95 00     STA  $00, X
 97D2  95 01     STA  $01, X
 97D4  20 BF 9C  JSR  $9CBF
 97D7  60        RTS  
 97D8  20 11 D6  JSR  $D611
 97DB  B5 00     LDA  $00, X
 97DD  15 02     ORA  $02, X
 97DF  95 02     STA  $02, X
 97E1  B5 01     LDA  $01, X
 97E3  15 03     ORA  $03, X
 97E5  95 03     STA  $03, X
 97E7  E8        INX  
 97E8  E8        INX  
 97E9  60        RTS  
 97EA  20 72 89  JSR  $8972
 97ED  20 43 91  JSR  $9143
 97F0  B5 00     LDA  $00, X
 97F2  F0 1E     BEQ  $9812
 97F4  A8        TAY  
 97F5  E8        INX  
 97F6  E8        INX  
 97F7  B5 00     LDA  $00, X
 97F9  5A        PHY  
 97FA  20 15 98  JSR  $9815
 97FD  7A        PLY  
 97FE  88        DEY  
 97FF  D0 F4     BNE  $97F5
 9801  20 C4 A0  JSR  $A0C4
 9804  20 C4 A0  JSR  $A0C4
 9807  20 38 91  JSR  $9138
 980A  B5 00     LDA  $00, X
 980C  20 15 98  JSR  $9815
 980F  20 72 89  JSR  $8972
 9812  E8        INX  
 9813  E8        INX  
 9814  60        RTS  
 9815  C9 04     CMP  #$04
 9817  90 09     BCC  $9822
 9819  CA        DEX  
 981A  CA        DEX  
 981B  95 00     STA  $00, X
 981D  74 01     STZ  $01, X
 981F  4C CA A4  JMP  $A4CA
 9822  A8        TAY  
 9823  B9 29 98  LDA  $9829, Y
 9826  4C 38 D6  JMP  $D638
 9829  03 06 07 08                                      |....            |
 982D  CA        DEX  
 982E  CA        DEX  
 982F  A9 10     LDA  #$10
 9831  95 00     STA  $00, X
 9833  A9 00     LDA  #$00
 9835  95 01     STA  $01, X
 9837  60        RTS  
 9838  20 11 D6  JSR  $D611
 983B  CA        DEX  
 983C  CA        DEX  
 983D  B5 04     LDA  $04, X
 983F  95 00     STA  $00, X
 9841  B5 05     LDA  $05, X
 9843  95 01     STA  $01, X
 9845  60        RTS  
 9846  CA        DEX  
 9847  CA        DEX  
 9848  A5 00     LDA  $00
 984A  18        CLC  
 984B  69 FF     ADC  #$FF
 984D  95 00     STA  $00, X
 984F  A5 01     LDA  $01
 9851  69 00     ADC  #$00
 9853  95 01     STA  $01, X
 9855  60        RTS  
 9856  A9 1B     LDA  #$1B
 9858  20 05 8E  JSR  $8E05
 985B  A9 5B     LDA  #$5B
 985D  20 05 8E  JSR  $8E05
 9860  A9 32     LDA  #$32
 9862  20 05 8E  JSR  $8E05
 9865  A9 4A     LDA  #$4A
 9867  20 05 8E  JSR  $8E05
 986A  20 43 A7  JSR  $A743
 986D  20 43 A7  JSR  $A743
 9870  20 6A 83  JSR  $836A
 9873  60        RTS  
 9874  CA        DEX  
 9875  CA        DEX  
 9876  A9 29     LDA  #$29
 9878  95 00     STA  $00, X
 987A  74 01     STZ  $01, X
 987C  20 DF 98  JSR  $98DF
 987F  E8        INX  
 9880  E8        INX  
 9881  E8        INX  
 9882  E8        INX  
 9883  60        RTS  
 9884  A5 0A     LDA  $0A
 9886  38        SEC  
 9887  E5 0C     SBC  $0C
 9889  85 24     STA  $24
 988B  A5 0B     LDA  $0B
 988D  E5 0D     SBC  $0D
 988F  85 25     STA  $25
 9891  A5 24     LDA  $24
 9893  05 25     ORA  $25
 9895  F0 28     BEQ  $98BF
 9897  A5 08     LDA  $08
 9899  18        CLC  
 989A  65 0C     ADC  $0C
 989C  85 26     STA  $26
 989E  A5 09     LDA  $09
 98A0  65 0D     ADC  $0D
 98A2  85 27     STA  $27
 98A4  B2 26     LDA  ($26)
 98A6  20 FF D5  JSR  $D5FF
 98A9  90 1F     BCC  $98CA
 98AB  E6 26     INC  $26
 98AD  D0 02     BNE  $98B1
 98AF  E6 27     INC  $27
 98B1  A5 24     LDA  $24
 98B3  D0 02     BNE  $98B7
 98B5  C6 25     DEC  $25
 98B7  C6 24     DEC  $24
 98B9  A5 24     LDA  $24
 98BB  05 25     ORA  $25
 98BD  D0 E5     BNE  $98A4
 98BF  CA        DEX  
 98C0  CA        DEX  
 98C1  CA        DEX  
 98C2  CA        DEX  
 98C3  74 00     STZ  $00, X
 98C5  74 01     STZ  $01, X
 98C7  4C 76 99  JMP  $9976
 98CA  A5 26     LDA  $26
 98CC  38        SEC  
 98CD  E5 08     SBC  $08
 98CF  85 0C     STA  $0C
 98D1  A5 27     LDA  $27
 98D3  E5 09     SBC  $09
 98D5  85 0D     STA  $0D
 98D7  CA        DEX  
 98D8  CA        DEX  
 98D9  A9 20     LDA  #$20
 98DB  95 00     STA  $00, X
 98DD  74 01     STZ  $01, X
 98DF  20 0C D6  JSR  $D60C
 98E2  A5 0A     LDA  $0A
 98E4  05 0B     ORA  $0B
 98E6  F0 0C     BEQ  $98F4
 98E8  A5 0D     LDA  $0D
 98EA  C5 0B     CMP  $0B
 98EC  90 0E     BCC  $98FC
 98EE  A5 0C     LDA  $0C
 98F0  C5 0A     CMP  $0A
 98F2  90 08     BCC  $98FC
 98F4  CA        DEX  
 98F5  CA        DEX  
 98F6  74 00     STZ  $00, X
 98F8  74 01     STZ  $01, X
 98FA  80 7A     BRA  $9976
 98FC  B5 00     LDA  $00, X
 98FE  85 2C     STA  $2C
 9900  CA        DEX  
 9901  CA        DEX  
 9902  A5 08     LDA  $08
 9904  18        CLC  
 9905  65 0C     ADC  $0C
 9907  85 24     STA  $24
 9909  85 26     STA  $26
 990B  95 02     STA  $02, X
 990D  A5 09     LDA  $09
 990F  65 0D     ADC  $0D
 9911  85 25     STA  $25
 9913  85 27     STA  $27
 9915  95 03     STA  $03, X
 9917  A5 08     LDA  $08
 9919  18        CLC  
 991A  65 0A     ADC  $0A
 991C  85 28     STA  $28
 991E  A5 09     LDA  $09
 9920  65 0B     ADC  $0B
 9922  85 29     STA  $29
 9924  64 2D     STZ  $2D
 9926  A5 26     LDA  $26
 9928  C5 28     CMP  $28
 992A  D0 06     BNE  $9932
 992C  A5 27     LDA  $27
 992E  C5 29     CMP  $29
 9930  F0 1D     BEQ  $994F
 9932  B2 26     LDA  ($26)
 9934  A4 2C     LDY  $2C
 9936  C0 20     CPY  #$20
 9938  D0 07     BNE  $9941
 993A  20 FF D5  JSR  $D5FF
 993D  90 02     BCC  $9941
 993F  80 0C     BRA  $994D
 9941  C5 2C     CMP  $2C
 9943  F0 08     BEQ  $994D
 9945  E6 26     INC  $26
 9947  D0 DD     BNE  $9926
 9949  E6 27     INC  $27
 994B  80 D9     BRA  $9926
 994D  E6 2D     INC  $2D
 994F  A5 26     LDA  $26
 9951  38        SEC  
 9952  E5 24     SBC  $24
 9954  95 00     STA  $00, X
 9956  A5 27     LDA  $27
 9958  E5 25     SBC  $25
 995A  95 01     STA  $01, X
 995C  A5 26     LDA  $26
 995E  38        SEC  
 995F  E5 08     SBC  $08
 9961  85 0C     STA  $0C
 9963  A5 27     LDA  $27
 9965  E5 09     SBC  $09
 9967  85 0D     STA  $0D
 9969  A5 0C     LDA  $0C
 996B  18        CLC  
 996C  65 2D     ADC  $2D
 996E  85 0C     STA  $0C
 9970  A5 0D     LDA  $0D
 9972  69 00     ADC  #$00
 9974  85 0D     STA  $0D
 9976  60        RTS  
 9977  16 00     ASL  $00, X
 9979  8A        TXA  
 997A  75 00     ADC  $00, X
 997C  A8        TAY  
 997D  B9 02 00  LDA  $0002, Y
 9980  95 00     STA  $00, X
 9982  B9 03 00  LDA  $0003, Y
 9985  95 01     STA  $01, X
 9987  60        RTS  
 9988  20 11 D6  JSR  $D611
 998B  18        CLC  
 998C  B5 00     LDA  $00, X
 998E  75 02     ADC  $02, X
 9990  95 02     STA  $02, X
 9992  B5 01     LDA  $01, X
 9994  75 03     ADC  $03, X
 9996  95 03     STA  $03, X
 9998  E8        INX  
 9999  E8        INX  
 999A  60        RTS  
 999B  20 11 D6  JSR  $D611
 999E  B5 00     LDA  $00, X
 99A0  85 24     STA  $24
 99A2  B5 01     LDA  $01, X
 99A4  85 25     STA  $25
 99A6  A0 00     LDY  #$00
 99A8  B1 24     LDA  ($24), Y
 99AA  18        CLC  
 99AB  75 02     ADC  $02, X
 99AD  91 24     STA  ($24), Y
 99AF  C8        INY  
 99B0  B1 24     LDA  ($24), Y
 99B2  75 03     ADC  $03, X
 99B4  91 24     STA  ($24), Y
 99B6  E8        INX  
 99B7  E8        INX  
 99B8  E8        INX  
 99B9  E8        INX  
 99BA  60        RTS  
 99BB  20 84 98  JSR  $9884
 99BE  B5 00     LDA  $00, X
 99C0  15 01     ORA  $01, X
 99C2  D0 05     BNE  $99C9
 99C4  A9 05     LDA  #$05
 99C6  4C 22 D6  JMP  $D622
 99C9  20 EA 8F  JSR  $8FEA
 99CC  D0 05     BNE  $99D3
 99CE  A9 05     LDA  #$05
 99D0  4C 22 D6  JMP  $D622
 99D3  B5 00     LDA  $00, X
 99D5  85 24     STA  $24
 99D7  B5 01     LDA  $01, X
 99D9  85 25     STA  $25
 99DB  20 F0 95  JSR  $95F0
 99DE  E6 24     INC  $24
 99E0  D0 02     BNE  $99E4
 99E2  E6 25     INC  $25
 99E4  B2 24     LDA  ($24)
 99E6  29 04     AND  #$04
 99E8  F0 05     BEQ  $99EF
 99EA  20 FC 87  JSR  $87FC
 99ED  80 0A     BRA  $99F9
 99EF  20 99 93  JSR  $9399
 99F2  A0 87     LDY  #$87
 99F4  A9 FC     LDA  #$FC
 99F6  20 AF D4  JSR  $D4AF
 99F9  60        RTS  
 99FA  20 43 91  JSR  $9143
 99FD  20 51 96  JSR  $9651
 9A00  20 B6 97  JSR  $97B6
 9A03  20 BF 9C  JSR  $9CBF
 9A06  60        RTS  
 9A07  20 8F 8F  JSR  $8F8F
 9A0A  20 45 8C  JSR  $8C45
 9A0D  60        RTS  
 9A0E  20 0C D6  JSR  $D60C
 9A11  B5 00     LDA  $00, X
 9A13  15 01     ORA  $01, X
 9A15  F0 0A     BEQ  $9A21
 9A17  CA        DEX  
 9A18  CA        DEX  
 9A19  B5 02     LDA  $02, X
 9A1B  95 00     STA  $00, X
 9A1D  B5 03     LDA  $03, X
 9A1F  95 01     STA  $01, X
 9A21  60        RTS  
 9A22  7A        PLY  
 9A23  84 24     STY  $24
 9A25  7A        PLY  
 9A26  CA        DEX  
 9A27  CA        DEX  
 9A28  68        PLA  
 9A29  95 00     STA  $00, X
 9A2B  68        PLA  
 9A2C  95 01     STA  $01, X
 9A2E  48        PHA  
 9A2F  B5 00     LDA  $00, X
 9A31  48        PHA  
 9A32  5A        PHY  
 9A33  A4 24     LDY  $24
 9A35  5A        PHY  
 9A36  60        RTS  
 9A37  68        PLA  
 9A38  85 2C     STA  $2C
 9A3A  7A        PLY  
 9A3B  CA        DEX  
 9A3C  CA        DEX  
 9A3D  68        PLA  
 9A3E  95 00     STA  $00, X
 9A40  68        PLA  
 9A41  95 01     STA  $01, X
 9A43  5A        PHY  
 9A44  A5 2C     LDA  $2C
 9A46  48        PHA  
 9A47  60        RTS  
 9A48  68        PLA  
 9A49  85 24     STA  $24
 9A4B  68        PLA  
 9A4C  85 25     STA  $25
 9A4E  A0 00     LDY  #$00
 9A50  68        PLA  
 9A51  99 06 00  STA  $0006, Y
 9A54  C8        INY  
 9A55  C0 08     CPY  #$08
 9A57  D0 F7     BNE  $9A50
 9A59  A5 25     LDA  $25
 9A5B  48        PHA  
 9A5C  A5 24     LDA  $24
 9A5E  48        PHA  
 9A5F  60        RTS  
 9A60  A0 00     LDY  #$00
 9A62  A9 20     LDA  #$20
 9A64  91 00     STA  ($00), Y
 9A66  C8        INY  
 9A67  24 20     BIT  $20
 9A69  70 0C     BVS  $9A77
 9A6B  A5 04     LDA  $04
 9A6D  91 00     STA  ($00), Y
 9A6F  C8        INY  
 9A70  A5 05     LDA  $05
 9A72  91 00     STA  ($00), Y
 9A74  C8        INY  
 9A75  80 1B     BRA  $9A92
 9A77  A5 04     LDA  $04
 9A79  18        CLC  
 9A7A  69 04     ADC  #$04
 9A7C  85 24     STA  $24
 9A7E  A5 05     LDA  $05
 9A80  69 00     ADC  #$00
 9A82  85 25     STA  $25
 9A84  B2 24     LDA  ($24)
 9A86  91 00     STA  ($00), Y
 9A88  5A        PHY  
 9A89  A0 01     LDY  #$01
 9A8B  B1 24     LDA  ($24), Y
 9A8D  7A        PLY  
 9A8E  C8        INY  
 9A8F  91 00     STA  ($00), Y
 9A91  C8        INY  
 9A92  98        TYA  
 9A93  18        CLC  
 9A94  65 00     ADC  $00
 9A96  85 00     STA  $00
 9A98  90 02     BCC  $9A9C
 9A9A  E6 01     INC  $01
 9A9C  60        RTS  
 9A9D  A5 06     LDA  $06
 9A9F  D0 2D     BNE  $9ACE
 9AA1  CA        DEX  
 9AA2  CA        DEX  
 9AA3  CA        DEX  
 9AA4  CA        DEX  
 9AA5  A5 08     LDA  $08
 9AA7  95 02     STA  $02, X
 9AA9  A5 09     LDA  $09
 9AAB  95 03     STA  $03, X
 9AAD  64 0A     STZ  $0A
 9AAF  64 0B     STZ  $0B
 9AB1  A9 FF     LDA  #$FF
 9AB3  95 00     STA  $00, X
 9AB5  74 01     STZ  $01, X
 9AB7  20 4E 81  JSR  $814E
 9ABA  B5 00     LDA  $00, X
 9ABC  85 0A     STA  $0A
 9ABE  B5 01     LDA  $01, X
 9AC0  85 0B     STA  $0B
 9AC2  64 0C     STZ  $0C
 9AC4  64 0D     STZ  $0D
 9AC6  A9 FF     LDA  #$FF
 9AC8  95 00     STA  $00, X
 9ACA  95 01     STA  $01, X
 9ACC  80 10     BRA  $9ADE
 9ACE  1A        INC  
 9ACF  D0 08     BNE  $9AD9
 9AD1  CA        DEX  
 9AD2  CA        DEX  
 9AD3  74 00     STZ  $00, X
 9AD5  74 01     STZ  $01, X
 9AD7  80 05     BRA  $9ADE
 9AD9  A9 01     LDA  #$01
 9ADB  4C 22 D6  JMP  $D622
 9ADE  60        RTS  
 9ADF  20 A3 82  JSR  $82A3
 9AE2  20 81 91  JSR  $9181
 9AE5  20 4A A1  JSR  $A14A
 9AE8  20 29 A1  JSR  $A129
 9AEB  60        RTS  
 9AEC  A9 FF     LDA  #$FF
 9AEE  85 16     STA  $16
 9AF0  85 17     STA  $17
 9AF2  60        RTS  
 9AF3  CA        DEX  
 9AF4  CA        DEX  
 9AF5  A9 03     LDA  #$03
 9AF7  95 00     STA  $00, X
 9AF9  74 01     STZ  $01, X
 9AFB  60        RTS  
 9AFC  20 16 D6  JSR  $D616
 9AFF  B4 05     LDY  $05, X
 9B01  B5 03     LDA  $03, X
 9B03  95 05     STA  $05, X
 9B05  B5 01     LDA  $01, X
 9B07  95 03     STA  $03, X
 9B09  94 01     STY  $01, X
 9B0B  B4 04     LDY  $04, X
 9B0D  B5 02     LDA  $02, X
 9B0F  95 04     STA  $04, X
 9B11  B5 00     LDA  $00, X
 9B13  95 02     STA  $02, X
 9B15  94 00     STY  $00, X
 9B17  60        RTS  
 9B18  20 11 D6  JSR  $D611
 9B1B  B5 00     LDA  $00, X
 9B1D  29 0F     AND  #$0F
 9B1F  F0 08     BEQ  $9B29
 9B21  A8        TAY  
 9B22  56 03     LSR  $03, X
 9B24  76 02     ROR  $02, X
 9B26  88        DEY  
 9B27  D0 F9     BNE  $9B22
 9B29  E8        INX  
 9B2A  E8        INX  
 9B2B  60        RTS  
 9B2C  A9 FF     LDA  #$FF
 9B2E  85 26     STA  $26
 9B30  64 27     STZ  $27
 9B32  20 F7 9C  JSR  $9CF7
 9B35  60        RTS  
 9B36  C9 41     CMP  #$41
 9B38  90 06     BCC  $9B40
 9B3A  29 DF     AND  #$DF
 9B3C  38        SEC  
 9B3D  E9 37     SBC  #$37
 9B3F  60        RTS  
 9B40  38        SEC  
 9B41  E9 30     SBC  #$30
 9B43  60        RTS  
 9B44  20 16 D6  JSR  $D616
 9B47  A5 1E     LDA  $1E
 9B49  18        CLC  
 9B4A  69 06     ADC  #$06
 9B4C  85 26     STA  $26
 9B4E  A5 1F     LDA  $1F
 9B50  69 00     ADC  #$00
 9B52  85 27     STA  $27
 9B54  B5 00     LDA  $00, X
 9B56  0A        ASL  
 9B57  65 26     ADC  $26
 9B59  85 26     STA  $26
 9B5B  90 02     BCC  $9B5F
 9B5D  E6 27     INC  $27
 9B5F  E8        INX  
 9B60  E8        INX  
 9B61  B5 00     LDA  $00, X
 9B63  15 01     ORA  $01, X
 9B65  D0 03     BNE  $9B6A
 9B67  4C 22 9C  JMP  $9C22
 9B6A  A5 26     LDA  $26
 9B6C  05 27     ORA  $27
 9B6E  D0 03     BNE  $9B73
 9B70  4C 22 9C  JMP  $9C22
 9B73  B2 26     LDA  ($26)
 9B75  85 24     STA  $24
 9B77  E6 26     INC  $26
 9B79  D0 02     BNE  $9B7D
 9B7B  E6 27     INC  $27
 9B7D  B2 26     LDA  ($26)
 9B7F  85 25     STA  $25
 9B81  B5 02     LDA  $02, X
 9B83  85 26     STA  $26
 9B85  B5 03     LDA  $03, X
 9B87  85 27     STA  $27
 9B89  B2 24     LDA  ($24)
 9B8B  D5 00     CMP  $00, X
 9B8D  D0 7B     BNE  $9C0A
 9B8F  B2 26     LDA  ($26)
 9B91  C9 5B     CMP  #$5B
 9B93  B0 07     BCS  $9B9C
 9B95  C9 41     CMP  #$41
 9B97  90 03     BCC  $9B9C
 9B99  18        CLC  
 9B9A  69 20     ADC  #$20
 9B9C  A0 08     LDY  #$08
 9B9E  D1 24     CMP  ($24), Y
 9BA0  D0 68     BNE  $9C0A
 9BA2  B5 00     LDA  $00, X
 9BA4  3A        DEC  
 9BA5  F0 2C     BEQ  $9BD3
 9BA7  A5 24     LDA  $24
 9BA9  48        PHA  
 9BAA  18        CLC  
 9BAB  69 08     ADC  #$08
 9BAD  85 24     STA  $24
 9BAF  A5 25     LDA  $25
 9BB1  48        PHA  
 9BB2  69 00     ADC  #$00
 9BB4  85 25     STA  $25
 9BB6  B4 00     LDY  $00, X
 9BB8  88        DEY  
 9BB9  B1 26     LDA  ($26), Y
 9BBB  C9 5B     CMP  #$5B
 9BBD  B0 07     BCS  $9BC6
 9BBF  C9 41     CMP  #$41
 9BC1  90 03     BCC  $9BC6
 9BC3  18        CLC  
 9BC4  69 20     ADC  #$20
 9BC6  D1 24     CMP  ($24), Y
 9BC8  D0 3A     BNE  $9C04
 9BCA  88        DEY  
 9BCB  D0 EC     BNE  $9BB9
 9BCD  68        PLA  
 9BCE  85 25     STA  $25
 9BD0  68        PLA  
 9BD1  85 24     STA  $24
 9BD3  E8        INX  
 9BD4  E8        INX  
 9BD5  A5 24     LDA  $24
 9BD7  95 00     STA  $00, X
 9BD9  A5 25     LDA  $25
 9BDB  95 01     STA  $01, X
 9BDD  20 BE 8D  JSR  $8DBE
 9BE0  20 F0 95  JSR  $95F0
 9BE3  20 4A A1  JSR  $A14A
 9BE6  A0 00     LDY  #$00
 9BE8  F6 00     INC  $00, X
 9BEA  D0 02     BNE  $9BEE
 9BEC  F6 01     INC  $01, X
 9BEE  A1 00     LDA  ($00, X)
 9BF0  29 04     AND  #$04
 9BF2  D0 08     BNE  $9BFC
 9BF4  A9 FF     LDA  #$FF
 9BF6  95 00     STA  $00, X
 9BF8  95 01     STA  $01, X
 9BFA  80 28     BRA  $9C24
 9BFC  A9 01     LDA  #$01
 9BFE  95 00     STA  $00, X
 9C00  74 01     STZ  $01, X
 9C02  80 20     BRA  $9C24
 9C04  68        PLA  
 9C05  85 25     STA  $25
 9C07  68        PLA  
 9C08  85 24     STA  $24
 9C0A  A0 02     LDY  #$02
 9C0C  B1 24     LDA  ($24), Y
 9C0E  48        PHA  
 9C0F  C8        INY  
 9C10  B1 24     LDA  ($24), Y
 9C12  85 25     STA  $25
 9C14  68        PLA  
 9C15  85 24     STA  $24
 9C17  05 25     ORA  $25
 9C19  F0 03     BEQ  $9C1E
 9C1B  4C 89 9B  JMP  $9B89
 9C1E  74 02     STZ  $02, X
 9C20  74 03     STZ  $03, X
 9C22  E8        INX  
 9C23  E8        INX  
 9C24  60        RTS  
 9C25  20 84 98  JSR  $9884
 9C28  20 EA 8F  JSR  $8FEA
 9C2B  B5 00     LDA  $00, X
 9C2D  15 01     ORA  $01, X
 9C2F  D0 05     BNE  $9C36
 9C31  A9 05     LDA  #$05
 9C33  4C 22 D6  JMP  $D622
 9C36  20 72 89  JSR  $8972
 9C39  A5 18     LDA  $18
 9C3B  48        PHA  
 9C3C  20 8C 91  JSR  $918C
 9C3F  A9 0A     LDA  #$0A
 9C41  20 38 D6  JSR  $D638
 9C44  20 BE 8D  JSR  $8DBE
 9C47  20 CA A4  JSR  $A4CA
 9C4A  20 C4 A0  JSR  $A0C4
 9C4D  20 BE 8D  JSR  $8DBE
 9C50  20 F0 95  JSR  $95F0
 9C53  A9 0B     LDA  #$0B
 9C55  20 38 D6  JSR  $D638
 9C58  20 BE 8D  JSR  $8DBE
 9C5B  20 CA A4  JSR  $A4CA
 9C5E  20 72 89  JSR  $8972
 9C61  A9 09     LDA  #$09
 9C63  20 38 D6  JSR  $D638
 9C66  20 38 98  JSR  $9838
 9C69  20 C2 97  JSR  $97C2
 9C6C  20 8F 8F  JSR  $8F8F
 9C6F  B5 00     LDA  $00, X
 9C71  A0 06     LDY  #$06
 9C73  48        PHA  
 9C74  29 01     AND  #$01
 9C76  18        CLC  
 9C77  69 30     ADC  #$30
 9C79  20 05 8E  JSR  $8E05
 9C7C  20 C4 A0  JSR  $A0C4
 9C7F  68        PLA  
 9C80  6A        ROR  
 9C81  88        DEY  
 9C82  D0 EF     BNE  $9C73
 9C84  20 72 89  JSR  $8972
 9C87  E8        INX  
 9C88  E8        INX  
 9C89  A9 0C     LDA  #$0C
 9C8B  20 38 D6  JSR  $D638
 9C8E  20 4A A1  JSR  $A14A
 9C91  20 10 A7  JSR  $A710
 9C94  20 BE 8D  JSR  $8DBE
 9C97  20 B4 8A  JSR  $8AB4
 9C9A  20 CA A4  JSR  $A4CA
 9C9D  20 8C 91  JSR  $918C
 9CA0  20 72 89  JSR  $8972
 9CA3  20 54 A3  JSR  $A354
 9CA6  20 43 8D  JSR  $8D43
 9CA9  20 72 89  JSR  $8972
 9CAC  20 49 8B  JSR  $8B49
 9CAF  68        PLA  
 9CB0  85 18     STA  $18
 9CB2  60        RTS  
 9CB3  20 0C D6  JSR  $D60C
 9CB6  A0 04     LDY  #$04
 9CB8  B5 00     LDA  $00, X
 9CBA  91 1E     STA  ($1E), Y
 9CBC  E8        INX  
 9CBD  E8        INX  
 9CBE  60        RTS  
 9CBF  A9 FF     LDA  #$FF
 9CC1  D5 01     CMP  $01, X
 9CC3  D0 12     BNE  $9CD7
 9CC5  D5 00     CMP  $00, X
 9CC7  D0 0E     BNE  $9CD7
 9CC9  CA        DEX  
 9CCA  CA        DEX  
 9CCB  74 03     STZ  $03, X
 9CCD  A9 03     LDA  #$03
 9CCF  95 02     STA  $02, X
 9CD1  74 01     STZ  $01, X
 9CD3  A9 01     LDA  #$01
 9CD5  95 00     STA  $00, X
 9CD7  A0 1E     LDY  #$1E
 9CD9  B5 00     LDA  $00, X
 9CDB  91 1E     STA  ($1E), Y
 9CDD  85 24     STA  $24
 9CDF  E8        INX  
 9CE0  E8        INX  
 9CE1  A5 24     LDA  $24
 9CE3  F0 0D     BEQ  $9CF2
 9CE5  A0 1F     LDY  #$1F
 9CE7  B5 00     LDA  $00, X
 9CE9  91 1E     STA  ($1E), Y
 9CEB  C8        INY  
 9CEC  E8        INX  
 9CED  E8        INX  
 9CEE  C6 24     DEC  $24
 9CF0  D0 F5     BNE  $9CE7
 9CF2  60        RTS  
 9CF3  64 26     STZ  $26
 9CF5  64 27     STZ  $27
 9CF7  CA        DEX  
 9CF8  CA        DEX  
 9CF9  CA        DEX  
 9CFA  CA        DEX  
 9CFB  A9 4C     LDA  #$4C
 9CFD  20 BF D4  JSR  $D4BF
 9D00  20 BF D4  JSR  $D4BF
 9D03  20 BF D4  JSR  $D4BF
 9D06  A5 00     LDA  $00
 9D08  95 02     STA  $02, X
 9D0A  A5 01     LDA  $01
 9D0C  95 03     STA  $03, X
 9D0E  A5 0D     LDA  $0D
 9D10  C5 0B     CMP  $0B
 9D12  90 2A     BCC  $9D3E
 9D14  A5 0C     LDA  $0C
 9D16  C5 0A     CMP  $0A
 9D18  90 24     BCC  $9D3E
 9D1A  A5 26     LDA  $26
 9D1C  48        PHA  
 9D1D  A5 27     LDA  $27
 9D1F  48        PHA  
 9D20  A5 28     LDA  $28
 9D22  48        PHA  
 9D23  20 9D 9A  JSR  $9A9D
 9D26  68        PLA  
 9D27  85 28     STA  $28
 9D29  68        PLA  
 9D2A  85 27     STA  $27
 9D2C  68        PLA  
 9D2D  85 26     STA  $26
 9D2F  B5 00     LDA  $00, X
 9D31  15 01     ORA  $01, X
 9D33  D0 05     BNE  $9D3A
 9D35  A9 06     LDA  #$06
 9D37  4C 22 D6  JMP  $D622
 9D3A  E8        INX  
 9D3B  E8        INX  
 9D3C  80 D0     BRA  $9D0E
 9D3E  A5 08     LDA  $08
 9D40  18        CLC  
 9D41  65 0C     ADC  $0C
 9D43  85 24     STA  $24
 9D45  A5 09     LDA  $09
 9D47  65 0D     ADC  $0D
 9D49  85 25     STA  $25
 9D4B  B2 24     LDA  ($24)
 9D4D  24 26     BIT  $26
 9D4F  30 03     BMI  $9D54
 9D51  4C 0C 9E  JMP  $9E0C
 9D54  24 27     BIT  $27
 9D56  30 03     BMI  $9D5B
 9D58  4C 02 9E  JMP  $9E02
 9D5B  70 22     BVS  $9D7F
 9D5D  A9 01     LDA  #$01
 9D5F  24 27     BIT  $27
 9D61  D0 10     BNE  $9D73
 9D63  E6 27     INC  $27
 9D65  B2 24     LDA  ($24)
 9D67  20 36 9B  JSR  $9B36
 9D6A  0A        ASL  
 9D6B  0A        ASL  
 9D6C  0A        ASL  
 9D6D  0A        ASL  
 9D6E  85 28     STA  $28
 9D70  4C 13 9E  JMP  $9E13
 9D73  64 27     STZ  $27
 9D75  B2 24     LDA  ($24)
 9D77  20 36 9B  JSR  $9B36
 9D7A  05 28     ORA  $28
 9D7C  4C 10 9E  JMP  $9E10
 9D7F  64 27     STZ  $27
 9D81  C9 61     CMP  #$61
 9D83  D0 05     BNE  $9D8A
 9D85  A9 07     LDA  #$07
 9D87  4C 10 9E  JMP  $9E10
 9D8A  C9 62     CMP  #$62
 9D8C  D0 05     BNE  $9D93
 9D8E  A9 08     LDA  #$08
 9D90  4C 10 9E  JMP  $9E10
 9D93  C9 65     CMP  #$65
 9D95  D0 04     BNE  $9D9B
 9D97  A9 1B     LDA  #$1B
 9D99  80 75     BRA  $9E10
 9D9B  C9 66     CMP  #$66
 9D9D  D0 04     BNE  $9DA3
 9D9F  A9 0C     LDA  #$0C
 9DA1  80 6D     BRA  $9E10
 9DA3  C9 6C     CMP  #$6C
 9DA5  D0 04     BNE  $9DAB
 9DA7  A9 0A     LDA  #$0A
 9DA9  80 65     BRA  $9E10
 9DAB  C9 6D     CMP  #$6D
 9DAD  D0 09     BNE  $9DB8
 9DAF  A9 0D     LDA  #$0D
 9DB1  20 BF D4  JSR  $D4BF
 9DB4  A9 0A     LDA  #$0A
 9DB6  80 58     BRA  $9E10
 9DB8  C9 6E     CMP  #$6E
 9DBA  D0 04     BNE  $9DC0
 9DBC  A9 0A     LDA  #$0A
 9DBE  80 50     BRA  $9E10
 9DC0  C9 71     CMP  #$71
 9DC2  D0 04     BNE  $9DC8
 9DC4  A9 22     LDA  #$22
 9DC6  80 48     BRA  $9E10
 9DC8  C9 72     CMP  #$72
 9DCA  D0 04     BNE  $9DD0
 9DCC  A9 0D     LDA  #$0D
 9DCE  80 40     BRA  $9E10
 9DD0  C9 74     CMP  #$74
 9DD2  D0 04     BNE  $9DD8
 9DD4  A9 09     LDA  #$09
 9DD6  80 38     BRA  $9E10
 9DD8  C9 76     CMP  #$76
 9DDA  D0 04     BNE  $9DE0
 9DDC  A9 0B     LDA  #$0B
 9DDE  80 30     BRA  $9E10
 9DE0  C9 7A     CMP  #$7A
 9DE2  D0 04     BNE  $9DE8
 9DE4  A9 00     LDA  #$00
 9DE6  80 28     BRA  $9E10
 9DE8  C9 22     CMP  #$22
 9DEA  D0 04     BNE  $9DF0
 9DEC  A9 22     LDA  #$22
 9DEE  80 20     BRA  $9E10
 9DF0  C9 78     CMP  #$78
 9DF2  D0 06     BNE  $9DFA
 9DF4  A9 BE     LDA  #$BE
 9DF6  85 27     STA  $27
 9DF8  80 19     BRA  $9E13
 9DFA  C9 5C     CMP  #$5C
 9DFC  D0 04     BNE  $9E02
 9DFE  A9 5C     LDA  #$5C
 9E00  80 0E     BRA  $9E10
 9E02  C9 5C     CMP  #$5C
 9E04  D0 06     BNE  $9E0C
 9E06  A9 FF     LDA  #$FF
 9E08  85 27     STA  $27
 9E0A  80 07     BRA  $9E13
 9E0C  C9 22     CMP  #$22
 9E0E  F0 0C     BEQ  $9E1C
 9E10  20 BF D4  JSR  $D4BF
 9E13  E6 0C     INC  $0C
 9E15  D0 02     BNE  $9E19
 9E17  E6 0D     INC  $0D
 9E19  4C 0E 9D  JMP  $9D0E
 9E1C  E6 0C     INC  $0C
 9E1E  D0 02     BNE  $9E22
 9E20  E6 0D     INC  $0D
 9E22  A5 00     LDA  $00
 9E24  38        SEC  
 9E25  F5 02     SBC  $02, X
 9E27  95 00     STA  $00, X
 9E29  A5 01     LDA  $01
 9E2B  F5 03     SBC  $03, X
 9E2D  95 01     STA  $01, X
 9E2F  B5 02     LDA  $02, X
 9E31  38        SEC  
 9E32  E9 02     SBC  #$02
 9E34  85 24     STA  $24
 9E36  B5 03     LDA  $03, X
 9E38  E9 00     SBC  #$00
 9E3A  85 25     STA  $25
 9E3C  A5 00     LDA  $00
 9E3E  92 24     STA  ($24)
 9E40  A0 01     LDY  #$01
 9E42  A5 01     LDA  $01
 9E44  91 24     STA  ($24), Y
 9E46  A5 16     LDA  $16
 9E48  05 17     ORA  $17
 9E4A  F0 03     BEQ  $9E4F
 9E4C  20 35 A0  JSR  $A035
 9E4F  60        RTS  
 9E50  20 0C D6  JSR  $D60C
 9E53  CA        DEX  
 9E54  CA        DEX  
 9E55  74 00     STZ  $00, X
 9E57  74 01     STZ  $01, X
 9E59  B5 03     LDA  $03, X
 9E5B  10 04     BPL  $9E61
 9E5D  D6 00     DEC  $00, X
 9E5F  D6 01     DEC  $01, X
 9E61  60        RTS  
 9E62  A0 2C     LDY  #$2C
 9E64  B1 1E     LDA  ($1E), Y
 9E66  C9 03     CMP  #$03
 9E68  D0 12     BNE  $9E7C
 9E6A  20 BD 83  JSR  $83BD
 9E6D  20 AF 85  JSR  $85AF
 9E70  20 8F 8F  JSR  $8F8F
 9E73  20 6A 85  JSR  $856A
 9E76  A9 01     LDA  #$01
 9E78  A0 2C     LDY  #$2C
 9E7A  91 1E     STA  ($1E), Y
 9E7C  60        RTS  
 9E7D  CA        DEX  
 9E7E  CA        DEX  
 9E7F  18        CLC  
 9E80  A5 1E     LDA  $1E
 9E82  69 02     ADC  #$02
 9E84  95 00     STA  $00, X
 9E86  A5 1F     LDA  $1F
 9E88  69 00     ADC  #$00
 9E8A  95 01     STA  $01, X
 9E8C  60        RTS  
 9E8D  20 1B D6  JSR  $D61B
 9E90  B5 00     LDA  $00, X
 9E92  15 01     ORA  $01, X
 9E94  D0 0B     BNE  $9EA1
 9E96  E8        INX  
 9E97  E8        INX  
 9E98  A9 FF     LDA  #$FF
 9E9A  95 00     STA  $00, X
 9E9C  95 01     STA  $01, X
 9E9E  4C 2B 9F  JMP  $9F2B
 9EA1  20 43 A7  JSR  $A743
 9EA4  18        CLC  
 9EA5  B5 00     LDA  $00, X
 9EA7  75 02     ADC  $02, X
 9EA9  85 24     STA  $24
 9EAB  B5 01     LDA  $01, X
 9EAD  75 03     ADC  $03, X
 9EAF  D5 07     CMP  $07, X
 9EB1  90 12     BCC  $9EC5
 9EB3  D0 06     BNE  $9EBB
 9EB5  B5 06     LDA  $06, X
 9EB7  C5 24     CMP  $24
 9EB9  B0 0A     BCS  $9EC5
 9EBB  E8        INX  
 9EBC  E8        INX  
 9EBD  E8        INX  
 9EBE  E8        INX  
 9EBF  74 00     STZ  $00, X
 9EC1  74 01     STZ  $01, X
 9EC3  80 66     BRA  $9F2B
 9EC5  18        CLC  
 9EC6  B5 08     LDA  $08, X
 9EC8  75 00     ADC  $00, X
 9ECA  85 24     STA  $24
 9ECC  B5 09     LDA  $09, X
 9ECE  75 01     ADC  $01, X
 9ED0  85 25     STA  $25
 9ED2  B5 04     LDA  $04, X
 9ED4  85 26     STA  $26
 9ED6  B5 05     LDA  $05, X
 9ED8  85 27     STA  $27
 9EDA  B5 02     LDA  $02, X
 9EDC  85 28     STA  $28
 9EDE  B5 03     LDA  $03, X
 9EE0  85 29     STA  $29
 9EE2  B2 24     LDA  ($24)
 9EE4  D2 26     CMP  ($26)
 9EE6  F0 05     BEQ  $9EED
 9EE8  20 C2 97  JSR  $97C2
 9EEB  80 B7     BRA  $9EA4
 9EED  E6 24     INC  $24
 9EEF  D0 02     BNE  $9EF3
 9EF1  E6 25     INC  $25
 9EF3  E6 26     INC  $26
 9EF5  D0 02     BNE  $9EF9
 9EF7  E6 27     INC  $27
 9EF9  A5 28     LDA  $28
 9EFB  D0 02     BNE  $9EFF
 9EFD  C6 29     DEC  $29
 9EFF  C6 28     DEC  $28
 9F01  A5 28     LDA  $28
 9F03  05 29     ORA  $29
 9F05  D0 DB     BNE  $9EE2
 9F07  18        CLC  
 9F08  B5 00     LDA  $00, X
 9F0A  75 08     ADC  $08, X
 9F0C  95 08     STA  $08, X
 9F0E  B5 01     LDA  $01, X
 9F10  75 09     ADC  $09, X
 9F12  95 09     STA  $09, X
 9F14  38        SEC  
 9F15  B5 06     LDA  $06, X
 9F17  F5 00     SBC  $00, X
 9F19  95 06     STA  $06, X
 9F1B  B5 07     LDA  $07, X
 9F1D  F5 01     SBC  $01, X
 9F1F  95 07     STA  $07, X
 9F21  E8        INX  
 9F22  E8        INX  
 9F23  E8        INX  
 9F24  E8        INX  
 9F25  A9 FF     LDA  #$FF
 9F27  95 00     STA  $00, X
 9F29  95 01     STA  $01, X
 9F2B  60        RTS  
 9F2C  24 20     BIT  $20
 9F2E  70 11     BVS  $9F41
 9F30  A9 60     LDA  #$60
 9F32  20 BF D4  JSR  $D4BF
 9F35  CA        DEX  
 9F36  CA        DEX  
 9F37  A5 04     LDA  $04
 9F39  95 00     STA  $00, X
 9F3B  A5 05     LDA  $05
 9F3D  95 01     STA  $01, X
 9F3F  80 47     BRA  $9F88
 9F41  A0 06     LDY  #$06
 9F43  A5 00     LDA  $00
 9F45  91 04     STA  ($04), Y
 9F47  C8        INY  
 9F48  A5 01     LDA  $01
 9F4A  91 04     STA  ($04), Y
 9F4C  A9 60     LDA  #$60
 9F4E  20 BF D4  JSR  $D4BF
 9F51  24 20     BIT  $20
 9F53  10 28     BPL  $9F7D
 9F55  CA        DEX  
 9F56  CA        DEX  
 9F57  CA        DEX  
 9F58  CA        DEX  
 9F59  B2 04     LDA  ($04)
 9F5B  95 00     STA  $00, X
 9F5D  74 01     STZ  $01, X
 9F5F  A5 04     LDA  $04
 9F61  18        CLC  
 9F62  69 08     ADC  #$08
 9F64  95 02     STA  $02, X
 9F66  A5 05     LDA  $05
 9F68  69 00     ADC  #$00
 9F6A  95 03     STA  $03, X
 9F6C  A9 02     LDA  #$02
 9F6E  20 38 D6  JSR  $D638
 9F71  20 9F A4  JSR  $A49F
 9F74  20 C4 A0  JSR  $A0C4
 9F77  A9 7F     LDA  #$7F
 9F79  25 20     AND  $20
 9F7B  85 20     STA  $20
 9F7D  A5 04     LDA  $04
 9F7F  85 02     STA  $02
 9F81  A5 05     LDA  $05
 9F83  85 03     STA  $03
 9F85  20 61 D5  JSR  $D561
 9F88  64 16     STZ  $16
 9F8A  64 17     STZ  $17
 9F8C  60        RTS  
 9F8D  20 0C D6  JSR  $D60C
 9F90  B5 01     LDA  $01, X
 9F92  30 04     BMI  $9F98
 9F94  E8        INX  
 9F95  E8        INX  
 9F96  80 09     BRA  $9FA1
 9F98  A9 2D     LDA  #$2D
 9F9A  95 00     STA  $00, X
 9F9C  74 01     STZ  $01, X
 9F9E  20 E6 91  JSR  $91E6
 9FA1  60        RTS  
 9FA2  A9 00     LDA  #$00
 9FA4  48        PHA  
 9FA5  80 03     BRA  $9FAA
 9FA7  A9 FF     LDA  #$FF
 9FA9  48        PHA  
 9FAA  20 0C A3  JSR  $A30C
 9FAD  20 50 9E  JSR  $9E50
 9FB0  20 37 9A  JSR  $9A37
 9FB3  20 7B A0  JSR  $A07B
 9FB6  68        PLA  
 9FB7  D0 05     BNE  $9FBE
 9FB9  20 4A A1  JSR  $A14A
 9FBC  E8        INX  
 9FBD  E8        INX  
 9FBE  60        RTS  
 9FBF  20 16 D6  JSR  $D616
 9FC2  18        CLC  
 9FC3  B5 00     LDA  $00, X
 9FC5  75 04     ADC  $04, X
 9FC7  95 04     STA  $04, X
 9FC9  B5 01     LDA  $01, X
 9FCB  75 05     ADC  $05, X
 9FCD  95 05     STA  $05, X
 9FCF  38        SEC  
 9FD0  B5 02     LDA  $02, X
 9FD2  F5 00     SBC  $00, X
 9FD4  95 02     STA  $02, X
 9FD6  B5 03     LDA  $03, X
 9FD8  F5 01     SBC  $01, X
 9FDA  95 03     STA  $03, X
 9FDC  E8        INX  
 9FDD  E8        INX  
 9FDE  60        RTS  
 9FDF  20 11 D6  JSR  $D611
 9FE2  A9 4C     LDA  #$4C
 9FE4  20 BF D4  JSR  $D4BF
 9FE7  20 BF D4  JSR  $D4BF
 9FEA  20 BF D4  JSR  $D4BF
 9FED  8A        TXA  
 9FEE  38        SEC  
 9FEF  E9 06     SBC  #$06
 9FF1  AA        TAX  
 9FF2  B5 08     LDA  $08, X
 9FF4  95 04     STA  $04, X
 9FF6  B5 09     LDA  $09, X
 9FF8  95 05     STA  $05, X
 9FFA  B5 06     LDA  $06, X
 9FFC  95 00     STA  $00, X
 9FFE  B5 07     LDA  $07, X
 A000  95 01     STA  $01, X
 A002  A5 00     LDA  $00
 A004  95 08     STA  $08, X
 A006  95 02     STA  $02, X
 A008  A5 01     LDA  $01
 A00A  95 09     STA  $09, X
 A00C  95 03     STA  $03, X
 A00E  20 D1 95  JSR  $95D1
 A011  18        CLC  
 A012  A5 00     LDA  $00
 A014  75 00     ADC  $00, X
 A016  85 00     STA  $00
 A018  A5 01     LDA  $01
 A01A  75 01     ADC  $01, X
 A01C  85 01     STA  $01
 A01E  B5 02     LDA  $02, X
 A020  38        SEC  
 A021  E9 02     SBC  #$02
 A023  85 24     STA  $24
 A025  B5 03     LDA  $03, X
 A027  E9 00     SBC  #$00
 A029  85 25     STA  $25
 A02B  A5 00     LDA  $00
 A02D  92 24     STA  ($24)
 A02F  A0 01     LDY  #$01
 A031  A5 01     LDA  $01
 A033  91 24     STA  ($24), Y
 A035  A0 A0     LDY  #$A0
 A037  A9 4F     LDA  #$4F
 A039  20 AF D4  JSR  $D4AF
 A03C  B4 03     LDY  $03, X
 A03E  B5 02     LDA  $02, X
 A040  20 BB D4  JSR  $D4BB
 A043  B4 01     LDY  $01, X
 A045  B5 00     LDA  $00, X
 A047  20 BB D4  JSR  $D4BB
 A04A  E8        INX  
 A04B  E8        INX  
 A04C  E8        INX  
 A04D  E8        INX  
 A04E  60        RTS  
 A04F  CA        DEX  
 A050  CA        DEX  
 A051  CA        DEX  
 A052  CA        DEX  
 A053  68        PLA  
 A054  85 24     STA  $24
 A056  68        PLA  
 A057  85 25     STA  $25
 A059  A0 01     LDY  #$01
 A05B  B1 24     LDA  ($24), Y
 A05D  95 02     STA  $02, X
 A05F  C8        INY  
 A060  B1 24     LDA  ($24), Y
 A062  95 03     STA  $03, X
 A064  C8        INY  
 A065  B1 24     LDA  ($24), Y
 A067  95 00     STA  $00, X
 A069  C8        INY  
 A06A  B1 24     LDA  ($24), Y
 A06C  95 01     STA  $01, X
 A06E  18        CLC  
 A06F  A5 24     LDA  $24
 A071  69 04     ADC  #$04
 A073  A8        TAY  
 A074  A5 25     LDA  $25
 A076  69 00     ADC  #$00
 A078  48        PHA  
 A079  5A        PHY  
 A07A  60        RTS  
 A07B  20 16 D6  JSR  $D616
 A07E  B5 03     LDA  $03, X
 A080  48        PHA  
 A081  B5 01     LDA  $01, X
 A083  55 03     EOR  $03, X
 A085  48        PHA  
 A086  20 39 81  JSR  $8139
 A089  E8        INX  
 A08A  E8        INX  
 A08B  20 95 8A  JSR  $8A95
 A08E  CA        DEX  
 A08F  CA        DEX  
 A090  20 56 A5  JSR  $A556
 A093  68        PLA  
 A094  10 03     BPL  $A099
 A096  20 32 96  JSR  $9632
 A099  68        PLA  
 A09A  10 07     BPL  $A0A3
 A09C  E8        INX  
 A09D  E8        INX  
 A09E  20 32 96  JSR  $9632
 A0A1  CA        DEX  
 A0A2  CA        DEX  
 A0A3  60        RTS  
 A0A4  CA        DEX  
 A0A5  CA        DEX  
 A0A6  A5 08     LDA  $08
 A0A8  95 00     STA  $00, X
 A0AA  A5 09     LDA  $09
 A0AC  95 01     STA  $01, X
 A0AE  CA        DEX  
 A0AF  CA        DEX  
 A0B0  A5 0A     LDA  $0A
 A0B2  95 00     STA  $00, X
 A0B4  A5 0B     LDA  $0B
 A0B6  95 01     STA  $01, X
 A0B8  60        RTS  
 A0B9  CA        DEX  
 A0BA  CA        DEX  
 A0BB  A5 06     LDA  $06
 A0BD  95 00     STA  $00, X
 A0BF  A5 07     LDA  $07
 A0C1  95 01     STA  $01, X
 A0C3  60        RTS  
 A0C4  A9 20     LDA  #$20
 A0C6  20 05 8E  JSR  $8E05
 A0C9  60        RTS  
 A0CA  20 0C D6  JSR  $D60C
 A0CD  B5 00     LDA  $00, X
 A0CF  15 01     ORA  $01, X
 A0D1  F0 26     BEQ  $A0F9
 A0D3  A9 20     LDA  #$20
 A0D5  B4 01     LDY  $01, X
 A0D7  D0 0A     BNE  $A0E3
 A0D9  B4 00     LDY  $00, X
 A0DB  20 05 8E  JSR  $8E05
 A0DE  88        DEY  
 A0DF  F0 18     BEQ  $A0F9
 A0E1  80 F8     BRA  $A0DB
 A0E3  B4 00     LDY  $00, X
 A0E5  F0 06     BEQ  $A0ED
 A0E7  20 05 8E  JSR  $8E05
 A0EA  88        DEY  
 A0EB  80 F8     BRA  $A0E5
 A0ED  A0 00     LDY  #$00
 A0EF  20 05 8E  JSR  $8E05
 A0F2  88        DEY  
 A0F3  D0 FA     BNE  $A0EF
 A0F5  D6 01     DEC  $01, X
 A0F7  D0 F4     BNE  $A0ED
 A0F9  E8        INX  
 A0FA  E8        INX  
 A0FB  60        RTS  
 A0FC  20 11 D6  JSR  $D611
 A0FF  20 98 A5  JSR  $A598
 A102  E8        INX  
 A103  E8        INX  
 A104  60        RTS  
 A105  20 0E A1  JSR  $A10E
 A108  20 4A A1  JSR  $A14A
 A10B  E8        INX  
 A10C  E8        INX  
 A10D  60        RTS  
 A10E  20 16 D6  JSR  $D616
 A111  20 0C A3  JSR  $A30C
 A114  20 9D 94  JSR  $949D
 A117  20 37 9A  JSR  $9A37
 A11A  20 7B A0  JSR  $A07B
 A11D  60        RTS  
 A11E  CA        DEX  
 A11F  CA        DEX  
 A120  A9 16     LDA  #$16
 A122  95 00     STA  $00, X
 A124  A9 00     LDA  #$00
 A126  95 01     STA  $01, X
 A128  60        RTS  
 A129  20 11 D6  JSR  $D611
 A12C  B5 02     LDA  $02, X
 A12E  81 00     STA  ($00, X)
 A130  F6 00     INC  $00, X
 A132  D0 02     BNE  $A136
 A134  F6 01     INC  $01, X
 A136  B5 03     LDA  $03, X
 A138  81 00     STA  ($00, X)
 A13A  E8        INX  
 A13B  E8        INX  
 A13C  E8        INX  
 A13D  E8        INX  
 A13E  60        RTS  
 A13F  CA        DEX  
 A140  CA        DEX  
 A141  A9 1C     LDA  #$1C
 A143  95 00     STA  $00, X
 A145  A9 00     LDA  #$00
 A147  95 01     STA  $01, X
 A149  60        RTS  
 A14A  20 11 D6  JSR  $D611
 A14D  B5 00     LDA  $00, X
 A14F  B4 02     LDY  $02, X
 A151  95 02     STA  $02, X
 A153  94 00     STY  $00, X
 A155  B5 01     LDA  $01, X
 A157  B4 03     LDY  $03, X
 A159  95 03     STA  $03, X
 A15B  94 01     STY  $01, X
 A15D  60        RTS  
 A15E  20 81 91  JSR  $9181
 A161  20 4A A1  JSR  $A14A
 A164  20 29 A1  JSR  $A129
 A167  60        RTS  
 A168  20 11 D6  JSR  $D611
 A16B  B5 01     LDA  $01, X
 A16D  48        PHA  
 A16E  B5 00     LDA  $00, X
 A170  48        PHA  
 A171  E8        INX  
 A172  E8        INX  
 A173  B5 01     LDA  $01, X
 A175  48        PHA  
 A176  B5 00     LDA  $00, X
 A178  48        PHA  
 A179  20 C6 93  JSR  $93C6
 A17C  68        PLA  
 A17D  85 24     STA  $24
 A17F  68        PLA  
 A180  85 25     STA  $25
 A182  68        PLA  
 A183  85 26     STA  $26
 A185  68        PLA  
 A186  85 27     STA  $27
 A188  C5 25     CMP  $25
 A18A  D0 08     BNE  $A194
 A18C  A5 26     LDA  $26
 A18E  C5 24     CMP  $24
 A190  D0 02     BNE  $A194
 A192  80 18     BRA  $A1AC
 A194  A5 27     LDA  $27
 A196  48        PHA  
 A197  A5 26     LDA  $26
 A199  48        PHA  
 A19A  E6 24     INC  $24
 A19C  D0 02     BNE  $A1A0
 A19E  E6 25     INC  $25
 A1A0  CA        DEX  
 A1A1  CA        DEX  
 A1A2  A5 24     LDA  $24
 A1A4  95 00     STA  $00, X
 A1A6  A5 25     LDA  $25
 A1A8  95 01     STA  $01, X
 A1AA  80 C7     BRA  $A173
 A1AC  60        RTS  
 A1AD  20 84 98  JSR  $9884
 A1B0  B5 00     LDA  $00, X
 A1B2  15 01     ORA  $01, X
 A1B4  D0 05     BNE  $A1BB
 A1B6  A9 05     LDA  #$05
 A1B8  4C 22 D6  JMP  $D622
 A1BB  20 EA 8F  JSR  $8FEA
 A1BE  B5 00     LDA  $00, X
 A1C0  15 01     ORA  $01, X
 A1C2  D0 05     BNE  $A1C9
 A1C4  A9 08     LDA  #$08
 A1C6  4C 22 D6  JMP  $D622
 A1C9  20 F0 95  JSR  $95F0
 A1CC  60        RTS  
 A1CD  20 AD A1  JSR  $A1AD
 A1D0  B5 00     LDA  $00, X
 A1D2  18        CLC  
 A1D3  69 03     ADC  #$03
 A1D5  85 24     STA  $24
 A1D7  B5 01     LDA  $01, X
 A1D9  69 00     ADC  #$00
 A1DB  85 25     STA  $25
 A1DD  E8        INX  
 A1DE  E8        INX  
 A1DF  A5 16     LDA  $16
 A1E1  05 17     ORA  $17
 A1E3  F0 34     BEQ  $A219
 A1E5  A0 00     LDY  #$00
 A1E7  A9 B5     LDA  #$B5
 A1E9  20 BB D4  JSR  $D4BB
 A1EC  A9 8D     LDA  #$8D
 A1EE  20 BF D4  JSR  $D4BF
 A1F1  A4 25     LDY  $25
 A1F3  A5 24     LDA  $24
 A1F5  20 BB D4  JSR  $D4BB
 A1F8  A0 01     LDY  #$01
 A1FA  A9 B5     LDA  #$B5
 A1FC  20 BB D4  JSR  $D4BB
 A1FF  A9 8D     LDA  #$8D
 A201  20 BF D4  JSR  $D4BF
 A204  E6 24     INC  $24
 A206  D0 02     BNE  $A20A
 A208  E6 25     INC  $25
 A20A  A4 25     LDY  $25
 A20C  A5 24     LDA  $24
 A20E  20 BB D4  JSR  $D4BB
 A211  A0 E8     LDY  #$E8
 A213  98        TYA  
 A214  20 BB D4  JSR  $D4BB
 A217  80 0F     BRA  $A228
 A219  20 0C D6  JSR  $D60C
 A21C  B5 00     LDA  $00, X
 A21E  92 24     STA  ($24)
 A220  A0 01     LDY  #$01
 A222  B5 01     LDA  $01, X
 A224  91 24     STA  ($24), Y
 A226  E8        INX  
 A227  E8        INX  
 A228  60        RTS  
 A229  20 0C D6  JSR  $D60C
 A22C  20 BE 8D  JSR  $8DBE
 A22F  20 87 92  JSR  $9287
 A232  F6 00     INC  $00, X
 A234  D0 02     BNE  $A238
 A236  F6 01     INC  $01, X
 A238  A1 00     LDA  ($00, X)
 A23A  29 20     AND  #$20
 A23C  F0 0D     BEQ  $A24B
 A23E  18        CLC  
 A23F  B5 02     LDA  $02, X
 A241  69 03     ADC  #$03
 A243  95 02     STA  $02, X
 A245  B5 03     LDA  $03, X
 A247  69 00     ADC  #$00
 A249  95 03     STA  $03, X
 A24B  E8        INX  
 A24C  E8        INX  
 A24D  60        RTS  
 A24E  CA        DEX  
 A24F  CA        DEX  
 A250  A9 0C     LDA  #$0C
 A252  95 00     STA  $00, X
 A254  A9 00     LDA  #$00
 A256  95 01     STA  $01, X
 A258  60        RTS  
 A259  20 1B D6  JSR  $D61B
 A25C  B5 06     LDA  $06, X
 A25E  85 36     STA  $36
 A260  B5 07     LDA  $07, X
 A262  85 37     STA  $37
 A264  B5 04     LDA  $04, X
 A266  85 38     STA  $38
 A268  B5 05     LDA  $05, X
 A26A  85 39     STA  $39
 A26C  CA        DEX  
 A26D  CA        DEX  
 A26E  A1 04     LDA  ($04, X)
 A270  95 00     STA  $00, X
 A272  74 01     STZ  $01, X
 A274  20 14 8B  JSR  $8B14
 A277  B5 00     LDA  $00, X
 A279  D0 04     BNE  $A27F
 A27B  E8        INX  
 A27C  E8        INX  
 A27D  80 67     BRA  $A2E6
 A27F  B5 02     LDA  $02, X
 A281  85 3A     STA  $3A
 A283  B5 03     LDA  $03, X
 A285  85 3B     STA  $3B
 A287  A5 38     LDA  $38
 A289  95 02     STA  $02, X
 A28B  A5 39     LDA  $39
 A28D  95 03     STA  $03, X
 A28F  A5 18     LDA  $18
 A291  95 00     STA  $00, X
 A293  74 01     STZ  $01, X
 A295  20 98 A5  JSR  $A598
 A298  B5 02     LDA  $02, X
 A29A  85 3C     STA  $3C
 A29C  B5 03     LDA  $03, X
 A29E  85 3D     STA  $3D
 A2A0  A5 36     LDA  $36
 A2A2  95 02     STA  $02, X
 A2A4  A5 37     LDA  $37
 A2A6  95 03     STA  $03, X
 A2A8  A5 18     LDA  $18
 A2AA  95 00     STA  $00, X
 A2AC  74 01     STZ  $01, X
 A2AE  20 98 A5  JSR  $A598
 A2B1  B5 00     LDA  $00, X
 A2B3  85 38     STA  $38
 A2B5  B5 01     LDA  $01, X
 A2B7  85 39     STA  $39
 A2B9  B5 02     LDA  $02, X
 A2BB  85 36     STA  $36
 A2BD  B5 03     LDA  $03, X
 A2BF  85 37     STA  $37
 A2C1  18        CLC  
 A2C2  A5 36     LDA  $36
 A2C4  65 3A     ADC  $3A
 A2C6  85 36     STA  $36
 A2C8  A5 37     LDA  $37
 A2CA  65 3B     ADC  $3B
 A2CC  85 37     STA  $37
 A2CE  A5 38     LDA  $38
 A2D0  65 3C     ADC  $3C
 A2D2  85 38     STA  $38
 A2D4  A5 39     LDA  $39
 A2D6  65 3D     ADC  $3D
 A2D8  85 39     STA  $39
 A2DA  E8        INX  
 A2DB  E8        INX  
 A2DC  F6 04     INC  $04, X
 A2DE  D0 02     BNE  $A2E2
 A2E0  F6 05     INC  $05, X
 A2E2  D6 02     DEC  $02, X
 A2E4  D0 88     BNE  $A26E
 A2E6  E8        INX  
 A2E7  E8        INX  
 A2E8  A5 36     LDA  $36
 A2EA  95 06     STA  $06, X
 A2EC  A5 37     LDA  $37
 A2EE  95 07     STA  $07, X
 A2F0  A5 38     LDA  $38
 A2F2  95 04     STA  $04, X
 A2F4  A5 39     LDA  $39
 A2F6  95 05     STA  $05, X
 A2F8  60        RTS  
 A2F9  20 0C A3  JSR  $A30C
 A2FC  20 43 91  JSR  $9143
 A2FF  20 37 9A  JSR  $9A37
 A302  20 4A A1  JSR  $A14A
 A305  20 C2 97  JSR  $97C2
 A308  20 BF 9C  JSR  $9CBF
 A30B  60        RTS  
 A30C  68        PLA  
 A30D  85 2C     STA  $2C
 A30F  7A        PLY  
 A310  20 0C D6  JSR  $D60C
 A313  B5 01     LDA  $01, X
 A315  48        PHA  
 A316  B5 00     LDA  $00, X
 A318  48        PHA  
 A319  E8        INX  
 A31A  E8        INX  
 A31B  5A        PHY  
 A31C  A5 2C     LDA  $2C
 A31E  48        PHA  
 A31F  60        RTS  
 A320  CA        DEX  
 A321  CA        DEX  
 A322  A9 FF     LDA  #$FF
 A324  95 00     STA  $00, X
 A326  95 01     STA  $01, X
 A328  60        RTS  
 A329  20 11 D6  JSR  $D611
 A32C  CA        DEX  
 A32D  CA        DEX  
 A32E  B4 04     LDY  $04, X
 A330  B5 02     LDA  $02, X
 A332  95 04     STA  $04, X
 A334  94 02     STY  $02, X
 A336  95 00     STA  $00, X
 A338  B4 05     LDY  $05, X
 A33A  B5 03     LDA  $03, X
 A33C  95 05     STA  $05, X
 A33E  94 03     STY  $03, X
 A340  95 01     STA  $01, X
 A342  60        RTS  
 A343  CA        DEX  
 A344  CA        DEX  
 A345  A9 02     LDA  #$02
 A347  95 00     STA  $00, X
 A349  74 01     STZ  $01, X
 A34B  60        RTS  
 A34C  20 11 D6  JSR  $D611
 A34F  E8        INX  
 A350  E8        INX  
 A351  E8        INX  
 A352  E8        INX  
 A353  60        RTS  
 A354  20 11 D6  JSR  $D611
 A357  CA        DEX  
 A358  CA        DEX  
 A359  CA        DEX  
 A35A  CA        DEX  
 A35B  B5 04     LDA  $04, X
 A35D  95 00     STA  $00, X
 A35F  B5 05     LDA  $05, X
 A361  95 01     STA  $01, X
 A363  B5 06     LDA  $06, X
 A365  95 02     STA  $02, X
 A367  B5 07     LDA  $07, X
 A369  95 03     STA  $03, X
 A36B  60        RTS  
 A36C  20 0C D6  JSR  $D60C
 A36F  B5 00     LDA  $00, X
 A371  85 24     STA  $24
 A373  B4 01     LDY  $01, X
 A375  84 25     STY  $25
 A377  CA        DEX  
 A378  CA        DEX  
 A379  B2 24     LDA  ($24)
 A37B  95 00     STA  $00, X
 A37D  A0 01     LDY  #$01
 A37F  B1 24     LDA  ($24), Y
 A381  95 01     STA  $01, X
 A383  C8        INY  
 A384  B1 24     LDA  ($24), Y
 A386  95 02     STA  $02, X
 A388  C8        INY  
 A389  B1 24     LDA  ($24), Y
 A38B  95 03     STA  $03, X
 A38D  60        RTS  
 A38E  20 1B D6  JSR  $D61B
 A391  CA        DEX  
 A392  CA        DEX  
 A393  CA        DEX  
 A394  CA        DEX  
 A395  B5 08     LDA  $08, X
 A397  95 00     STA  $00, X
 A399  B5 09     LDA  $09, X
 A39B  95 01     STA  $01, X
 A39D  B5 0A     LDA  $0A, X
 A39F  95 02     STA  $02, X
 A3A1  B5 0B     LDA  $0B, X
 A3A3  95 03     STA  $03, X
 A3A5  60        RTS  
 A3A6  CA        DEX  
 A3A7  CA        DEX  
 A3A8  CA        DEX  
 A3A9  CA        DEX  
 A3AA  8A        TXA  
 A3AB  BA        TSX  
 A3AC  DA        PHX  
 A3AD  7A        PLY  
 A3AE  AA        TAX  
 A3AF  B9 03 01  LDA  $0103, Y
 A3B2  95 00     STA  $00, X
 A3B4  B9 04 01  LDA  $0104, Y
 A3B7  95 01     STA  $01, X
 A3B9  B9 05 01  LDA  $0105, Y
 A3BC  95 02     STA  $02, X
 A3BE  B9 06 01  LDA  $0106, Y
 A3C1  95 03     STA  $03, X
 A3C3  60        RTS  
 A3C4  68        PLA  
 A3C5  85 24     STA  $24
 A3C7  68        PLA  
 A3C8  85 25     STA  $25
 A3CA  CA        DEX  
 A3CB  CA        DEX  
 A3CC  CA        DEX  
 A3CD  CA        DEX  
 A3CE  68        PLA  
 A3CF  95 00     STA  $00, X
 A3D1  68        PLA  
 A3D2  95 01     STA  $01, X
 A3D4  68        PLA  
 A3D5  95 02     STA  $02, X
 A3D7  68        PLA  
 A3D8  95 03     STA  $03, X
 A3DA  A5 25     LDA  $25
 A3DC  48        PHA  
 A3DD  A5 24     LDA  $24
 A3DF  48        PHA  
 A3E0  60        RTS  
 A3E1  20 0C D6  JSR  $D60C
 A3E4  B5 01     LDA  $01, X
 A3E6  0A        ASL  
 A3E7  76 01     ROR  $01, X
 A3E9  76 00     ROR  $00, X
 A3EB  60        RTS  
 A3EC  20 0C D6  JSR  $D60C
 A3EF  16 00     ASL  $00, X
 A3F1  36 01     ROL  $01, X
 A3F3  60        RTS  
 A3F4  20 16 D6  JSR  $D616
 A3F7  B5 00     LDA  $00, X
 A3F9  85 24     STA  $24
 A3FB  B4 01     LDY  $01, X
 A3FD  84 25     STY  $25
 A3FF  E8        INX  
 A400  E8        INX  
 A401  B5 00     LDA  $00, X
 A403  92 24     STA  ($24)
 A405  B5 01     LDA  $01, X
 A407  A0 01     LDY  #$01
 A409  91 24     STA  ($24), Y
 A40B  B5 02     LDA  $02, X
 A40D  C8        INY  
 A40E  91 24     STA  ($24), Y
 A410  B5 03     LDA  $03, X
 A412  C8        INY  
 A413  91 24     STA  ($24), Y
 A415  E8        INX  
 A416  E8        INX  
 A417  E8        INX  
 A418  E8        INX  
 A419  60        RTS  
 A41A  20 1B D6  JSR  $D61B
 A41D  B5 00     LDA  $00, X
 A41F  B4 04     LDY  $04, X
 A421  95 04     STA  $04, X
 A423  94 00     STY  $00, X
 A425  B5 01     LDA  $01, X
 A427  B4 05     LDY  $05, X
 A429  95 05     STA  $05, X
 A42B  94 01     STY  $01, X
 A42D  B5 02     LDA  $02, X
 A42F  B4 06     LDY  $06, X
 A431  95 06     STA  $06, X
 A433  94 02     STY  $02, X
 A435  B5 03     LDA  $03, X
 A437  B4 07     LDY  $07, X
 A439  95 07     STA  $07, X
 A43B  94 03     STY  $03, X
 A43D  60        RTS  
 A43E  68        PLA  
 A43F  85 24     STA  $24
 A441  68        PLA  
 A442  85 25     STA  $25
 A444  20 11 D6  JSR  $D611
 A447  B5 03     LDA  $03, X
 A449  48        PHA  
 A44A  B5 02     LDA  $02, X
 A44C  48        PHA  
 A44D  B5 01     LDA  $01, X
 A44F  48        PHA  
 A450  B5 00     LDA  $00, X
 A452  48        PHA  
 A453  E8        INX  
 A454  E8        INX  
 A455  E8        INX  
 A456  E8        INX  
 A457  A5 25     LDA  $25
 A459  48        PHA  
 A45A  A5 24     LDA  $24
 A45C  48        PHA  
 A45D  60        RTS  
 A45E  20 11 D6  JSR  $D611
 A461  20 78 89  JSR  $8978
 A464  20 4A A1  JSR  $A14A
 A467  20 7D 87  JSR  $877D
 A46A  20 7D 87  JSR  $877D
 A46D  20 13 8C  JSR  $8C13
 A470  20 F5 D4  JSR  $D4F5
 A473  20 BE 8D  JSR  $8DBE
 A476  20 8F 8F  JSR  $8F8F
 A479  20 4A A1  JSR  $A14A
 A47C  20 2A 86  JSR  $862A
 A47F  20 8F 8F  JSR  $8F8F
 A482  60        RTS  
 A483  20 11 D6  JSR  $D611
 A486  20 4A A1  JSR  $A14A
 A489  20 99 93  JSR  $9399
 A48C  20 99 93  JSR  $9399
 A48F  60        RTS  
 A490  20 78 89  JSR  $8978
 A493  CA        DEX  
 A494  CA        DEX  
 A495  A9 04     LDA  #$04
 A497  95 00     STA  $00, X
 A499  74 01     STZ  $01, X
 A49B  20 C5 82  JSR  $82C5
 A49E  60        RTS  
 A49F  20 11 D6  JSR  $D611
 A4A2  B5 02     LDA  $02, X
 A4A4  85 24     STA  $24
 A4A6  B5 03     LDA  $03, X
 A4A8  85 25     STA  $25
 A4AA  B5 00     LDA  $00, X
 A4AC  15 01     ORA  $01, X
 A4AE  F0 15     BEQ  $A4C5
 A4B0  B2 24     LDA  ($24)
 A4B2  20 05 8E  JSR  $8E05
 A4B5  E6 24     INC  $24
 A4B7  D0 02     BNE  $A4BB
 A4B9  E6 25     INC  $25
 A4BB  B5 00     LDA  $00, X
 A4BD  D0 02     BNE  $A4C1
 A4BF  D6 01     DEC  $01, X
 A4C1  D6 00     DEC  $00, X
 A4C3  80 E5     BRA  $A4AA
 A4C5  E8        INX  
 A4C6  E8        INX  
 A4C7  E8        INX  
 A4C8  E8        INX  
 A4C9  60        RTS  
 A4CA  20 0C D6  JSR  $D60C
 A4CD  20 58 D6  JSR  $D658
 A4D0  A9 20     LDA  #$20
 A4D2  20 05 8E  JSR  $8E05
 A4D5  60        RTS  
 A4D6  20 11 D6  JSR  $D611
 A4D9  20 0C A3  JSR  $A30C
 A4DC  20 43 A7  JSR  $A743
 A4DF  20 69 93  JSR  $9369
 A4E2  20 83 97  JSR  $9783
 A4E5  20 61 97  JSR  $9761
 A4E8  20 37 9A  JSR  $9A37
 A4EB  20 38 98  JSR  $9838
 A4EE  20 5F 95  JSR  $955F
 A4F1  20 CA A0  JSR  $A0CA
 A4F4  20 9F A4  JSR  $A49F
 A4F7  60        RTS  
 A4F8  20 11 D6  JSR  $D611
 A4FB  B5 00     LDA  $00, X
 A4FD  D5 02     CMP  $02, X
 A4FF  B5 01     LDA  $01, X
 A501  F5 03     SBC  $03, X
 A503  E8        INX  
 A504  E8        INX  
 A505  A9 00     LDA  #$00
 A507  69 FF     ADC  #$FF
 A509  95 00     STA  $00, X
 A50B  95 01     STA  $01, X
 A50D  60        RTS  
 A50E  20 11 D6  JSR  $D611
 A511  B5 02     LDA  $02, X
 A513  D5 00     CMP  $00, X
 A515  B5 03     LDA  $03, X
 A517  F5 01     SBC  $01, X
 A519  E8        INX  
 A51A  E8        INX  
 A51B  A9 00     LDA  #$00
 A51D  69 FF     ADC  #$FF
 A51F  95 00     STA  $00, X
 A521  95 01     STA  $01, X
 A523  60        RTS  
 A524  20 11 D6  JSR  $D611
 A527  20 69 93  JSR  $9369
 A52A  20 83 97  JSR  $9783
 A52D  20 61 97  JSR  $9761
 A530  20 9F A4  JSR  $A49F
 A533  20 C4 A0  JSR  $A0C4
 A536  60        RTS  
 A537  20 16 D6  JSR  $D616
 A53A  20 0C A3  JSR  $A30C
 A53D  20 69 93  JSR  $9369
 A540  20 83 97  JSR  $9783
 A543  20 61 97  JSR  $9761
 A546  20 37 9A  JSR  $9A37
 A549  20 38 98  JSR  $9838
 A54C  20 5F 95  JSR  $955F
 A54F  20 CA A0  JSR  $A0CA
 A552  20 9F A4  JSR  $A49F
 A555  60        RTS  
 A556  20 16 D6  JSR  $D616
 A559  B5 00     LDA  $00, X
 A55B  15 01     ORA  $01, X
 A55D  D0 05     BNE  $A564
 A55F  A9 04     LDA  #$04
 A561  4C 22 D6  JMP  $D622
 A564  A9 11     LDA  #$11
 A566  85 2C     STA  $2C
 A568  36 04     ROL  $04, X
 A56A  36 05     ROL  $05, X
 A56C  C6 2C     DEC  $2C
 A56E  F0 22     BEQ  $A592
 A570  36 02     ROL  $02, X
 A572  36 03     ROL  $03, X
 A574  64 24     STZ  $24
 A576  26 24     ROL  $24
 A578  38        SEC  
 A579  B5 02     LDA  $02, X
 A57B  F5 00     SBC  $00, X
 A57D  85 25     STA  $25
 A57F  B5 03     LDA  $03, X
 A581  F5 01     SBC  $01, X
 A583  A8        TAY  
 A584  A5 24     LDA  $24
 A586  E9 00     SBC  #$00
 A588  90 DE     BCC  $A568
 A58A  A5 25     LDA  $25
 A58C  95 02     STA  $02, X
 A58E  94 03     STY  $03, X
 A590  80 D6     BRA  $A568
 A592  E8        INX  
 A593  E8        INX  
 A594  20 4A A1  JSR  $A14A
 A597  60        RTS  
 A598  20 11 D6  JSR  $D611
 A59B  18        CLC  
 A59C  B5 00     LDA  $00, X
 A59E  E9 00     SBC  #$00
 A5A0  85 26     STA  $26
 A5A2  B5 01     LDA  $01, X
 A5A4  E9 00     SBC  #$00
 A5A6  90 31     BCC  $A5D9
 A5A8  85 27     STA  $27
 A5AA  A9 00     LDA  #$00
 A5AC  85 24     STA  $24
 A5AE  86 28     STX  $28
 A5B0  CA        DEX  
 A5B1  CA        DEX  
 A5B2  A0 08     LDY  #$08
 A5B4  56 04     LSR  $04, X
 A5B6  90 0C     BCC  $A5C4
 A5B8  85 25     STA  $25
 A5BA  A5 24     LDA  $24
 A5BC  65 26     ADC  $26
 A5BE  85 24     STA  $24
 A5C0  A5 25     LDA  $25
 A5C2  65 27     ADC  $27
 A5C4  6A        ROR  
 A5C5  66 24     ROR  $24
 A5C7  76 04     ROR  $04, X
 A5C9  88        DEY  
 A5CA  D0 EA     BNE  $A5B6
 A5CC  E8        INX  
 A5CD  E4 28     CPX  $28
 A5CF  D0 E1     BNE  $A5B2
 A5D1  95 01     STA  $01, X
 A5D3  A5 24     LDA  $24
 A5D5  95 00     STA  $00, X
 A5D7  80 04     BRA  $A5DD
 A5D9  74 02     STZ  $02, X
 A5DB  74 03     STZ  $03, X
 A5DD  60        RTS  
 A5DE  68        PLA  
 A5DF  68        PLA  
 A5E0  68        PLA  
 A5E1  68        PLA  
 A5E2  68        PLA  
 A5E3  68        PLA  
 A5E4  60        RTS  
 A5E5  A0 92     LDY  #$92
 A5E7  A9 23     LDA  #$23
 A5E9  20 AF D4  JSR  $D4AF
 A5EC  20 7D 87  JSR  $877D
 A5EF  60        RTS  
 A5F0  CA        DEX  
 A5F1  CA        DEX  
 A5F2  A9 00     LDA  #$00
 A5F4  38        SEC  
 A5F5  E5 00     SBC  $00
 A5F7  95 00     STA  $00, X
 A5F9  A9 7C     LDA  #$7C
 A5FB  E5 01     SBC  $01
 A5FD  95 01     STA  $01, X
 A5FF  60        RTS  
 A600  A0 2C     LDY  #$2C
 A602  B1 1E     LDA  ($1E), Y
 A604  09 02     ORA  #$02
 A606  91 1E     STA  ($1E), Y
 A608  60        RTS  
 A609  CA        DEX  
 A60A  CA        DEX  
 A60B  A9 1E     LDA  #$1E
 A60D  95 00     STA  $00, X
 A60F  A9 00     LDA  #$00
 A611  95 01     STA  $01, X
 A613  60        RTS  
 A614  20 78 89  JSR  $8978
 A617  A9 00     LDA  #$00
 A619  92 00     STA  ($00)
 A61B  E6 00     INC  $00
 A61D  D0 02     BNE  $A621
 A61F  E6 01     INC  $01
 A621  92 00     STA  ($00)
 A623  E6 00     INC  $00
 A625  D0 02     BNE  $A629
 A627  E6 01     INC  $01
 A629  20 40 89  JSR  $8940
 A62C  60        RTS  
 A62D  A0 92     LDY  #$92
 A62F  A9 23     LDA  #$23
 A631  20 AF D4  JSR  $D4AF
 A634  20 81 91  JSR  $9181
 A637  20 43 A7  JSR  $A743
 A63A  20 7D 87  JSR  $877D
 A63D  20 4A A1  JSR  $A14A
 A640  60        RTS  
 A641  20 16 D6  JSR  $D616
 A644  20 38 98  JSR  $9838
 A647  20 5F 95  JSR  $955F
 A64A  20 0C A3  JSR  $A30C
 A64D  20 5F 95  JSR  $955F
 A650  20 37 9A  JSR  $9A37
 A653  20 0E A5  JSR  $A50E
 A656  60        RTS  
 A657  20 0C D6  JSR  $D60C
 A65A  A4 0C     LDY  $0C
 A65C  C4 0A     CPY  $0A
 A65E  F0 09     BEQ  $A669
 A660  B1 08     LDA  ($08), Y
 A662  D5 00     CMP  $00, X
 A664  D0 03     BNE  $A669
 A666  C8        INY  
 A667  80 F3     BRA  $A65C
 A669  84 0C     STY  $0C
 A66B  20 DF 98  JSR  $98DF
 A66E  B5 00     LDA  $00, X
 A670  92 00     STA  ($00)
 A672  48        PHA  
 A673  20 BE 8D  JSR  $8DBE
 A676  A5 00     LDA  $00
 A678  18        CLC  
 A679  69 01     ADC  #$01
 A67B  95 02     STA  $02, X
 A67D  A5 01     LDA  $01
 A67F  69 00     ADC  #$00
 A681  95 03     STA  $03, X
 A683  20 D1 95  JSR  $95D1
 A686  CA        DEX  
 A687  CA        DEX  
 A688  A5 00     LDA  $00
 A68A  95 00     STA  $00, X
 A68C  A5 01     LDA  $01
 A68E  95 01     STA  $01, X
 A690  68        PLA  
 A691  18        CLC  
 A692  65 00     ADC  $00
 A694  85 00     STA  $00
 A696  A5 01     LDA  $01
 A698  69 00     ADC  #$00
 A69A  85 01     STA  $01
 A69C  60        RTS  
 A69D  A0 05     LDY  #$05
 A69F  B1 1E     LDA  ($1E), Y
 A6A1  C9 0C     CMP  #$0C
 A6A3  D0 05     BNE  $A6AA
 A6A5  A9 0B     LDA  #$0B
 A6A7  4C 22 D6  JMP  $D622
 A6AA  1A        INC  
 A6AB  91 1E     STA  ($1E), Y
 A6AD  CA        DEX  
 A6AE  CA        DEX  
 A6AF  95 00     STA  $00, X
 A6B1  74 01     STZ  $01, X
 A6B3  60        RTS  
 A6B4  20 72 89  JSR  $8972
 A6B7  A9 00     LDA  #$00
 A6B9  48        PHA  
 A6BA  CA        DEX  
 A6BB  CA        DEX  
 A6BC  64 28     STZ  $28
 A6BE  A0 1E     LDY  #$1E
 A6C0  A5 28     LDA  $28
 A6C2  D1 1E     CMP  ($1E), Y
 A6C4  D0 02     BNE  $A6C8
 A6C6  80 44     BRA  $A70C
 A6C8  18        CLC  
 A6C9  69 1F     ADC  #$1F
 A6CB  A8        TAY  
 A6CC  B1 1E     LDA  ($1E), Y
 A6CE  0A        ASL  
 A6CF  18        CLC  
 A6D0  69 06     ADC  #$06
 A6D2  A8        TAY  
 A6D3  B1 1E     LDA  ($1E), Y
 A6D5  95 00     STA  $00, X
 A6D7  C8        INY  
 A6D8  B1 1E     LDA  ($1E), Y
 A6DA  95 01     STA  $01, X
 A6DC  20 BE 8D  JSR  $8DBE
 A6DF  20 0D 96  JSR  $960D
 A6E2  68        PLA  
 A6E3  18        CLC  
 A6E4  75 00     ADC  $00, X
 A6E6  1A        INC  
 A6E7  C9 4F     CMP  #$4F
 A6E9  90 05     BCC  $A6F0
 A6EB  20 72 89  JSR  $8972
 A6EE  A9 00     LDA  #$00
 A6F0  48        PHA  
 A6F1  20 9F A4  JSR  $A49F
 A6F4  A9 20     LDA  #$20
 A6F6  20 05 8E  JSR  $8E05
 A6F9  20 C2 97  JSR  $97C2
 A6FC  20 C2 97  JSR  $97C2
 A6FF  20 8F 8F  JSR  $8F8F
 A702  B5 00     LDA  $00, X
 A704  15 01     ORA  $01, X
 A706  D0 D4     BNE  $A6DC
 A708  E6 28     INC  $28
 A70A  80 B2     BRA  $A6BE
 A70C  68        PLA  
 A70D  E8        INX  
 A70E  E8        INX  
 A70F  60        RTS  
 A710  20 0C D6  JSR  $D60C
 A713  B5 00     LDA  $00, X
 A715  85 24     STA  $24
 A717  B5 01     LDA  $01, X
 A719  85 25     STA  $25
 A71B  A0 06     LDY  #$06
 A71D  B1 24     LDA  ($24), Y
 A71F  88        DEY  
 A720  88        DEY  
 A721  38        SEC  
 A722  F1 24     SBC  ($24), Y
 A724  95 00     STA  $00, X
 A726  A0 07     LDY  #$07
 A728  B1 24     LDA  ($24), Y
 A72A  88        DEY  
 A72B  88        DEY  
 A72C  F1 24     SBC  ($24), Y
 A72E  95 01     STA  $01, X
 A730  60        RTS  
 A731  20 11 D6  JSR  $D611
 A734  B5 00     LDA  $00, X
 A736  55 02     EOR  $02, X
 A738  95 02     STA  $02, X
 A73A  B5 01     LDA  $01, X
 A73C  55 03     EOR  $03, X
 A73E  95 03     STA  $03, X
 A740  E8        INX  
 A741  E8        INX  
 A742  60        RTS  
 A743  CA        DEX  
 A744  CA        DEX  
 A745  74 00     STZ  $00, X
 A747  74 01     STZ  $01, X
 A749  60        RTS  
 A74A  20 0C D6  JSR  $D60C
 A74D  B5 00     LDA  $00, X
 A74F  15 01     ORA  $01, X
 A751  F0 04     BEQ  $A757
 A753  A9 00     LDA  #$00
 A755  80 02     BRA  $A759
 A757  A9 FF     LDA  #$FF
 A759  95 00     STA  $00, X
 A75B  95 01     STA  $01, X
 A75D  60        RTS  
 A75E  20 0C D6  JSR  $D60C
 A761  A0 00     LDY  #$00
 A763  B5 01     LDA  $01, X
 A765  30 05     BMI  $A76C
 A767  15 00     ORA  $00, X
 A769  F0 01     BEQ  $A76C
 A76B  88        DEY  
 A76C  98        TYA  
 A76D  95 00     STA  $00, X
 A76F  95 01     STA  $01, X
 A771  60        RTS  
 A772  20 0C D6  JSR  $D60C
 A775  A0 00     LDY  #$00
 A777  B5 01     LDA  $01, X
 A779  10 01     BPL  $A77C
 A77B  88        DEY  
 A77C  98        TYA  
 A77D  95 00     STA  $00, X
 A77F  95 01     STA  $01, X
 A781  60        RTS  
 A782  20 0C D6  JSR  $D60C
 A785  A0 00     LDY  #$00
 A787  B5 00     LDA  $00, X
 A789  15 01     ORA  $01, X
 A78B  F0 01     BEQ  $A78E
 A78D  88        DEY  
 A78E  98        TYA  
 A78F  95 00     STA  $00, X
 A791  95 01     STA  $01, X
 A793  60        RTS  
 A794  20 BE 8D  JSR  $8DBE
 A797  20 7D 9E  JSR  $9E7D
 A79A  20 29 A1  JSR  $A129
 A79D  20 BF 85  JSR  $85BF
 A7A0  60        RTS  
 A7A1  20 94 A7  JSR  $A794
 A7A4  20 3D 8D  JSR  $8D3D
 A7A7  64 2E     STZ  $2E
 A7A9  CA        DEX  
 A7AA  CA        DEX  
 A7AB  A5 2E     LDA  $2E
 A7AD  95 00     STA  $00, X
 A7AF  74 01     STZ  $01, X
 A7B1  20 76 A8  JSR  $A876
 A7B4  E6 2E     INC  $2E
 A7B6  A9 10     LDA  #$10
 A7B8  C5 2E     CMP  $2E
 A7BA  D0 ED     BNE  $A7A9
 A7BC  60        RTS  
 A7BD  20 94 A7  JSR  $A794
 A7C0  CA        DEX  
 A7C1  CA        DEX  
 A7C2  74 00     STZ  $00, X
 A7C4  A9 04     LDA  #$04
 A7C6  95 01     STA  $01, X
 A7C8  20 F9 8E  JSR  $8EF9
 A7CB  20 00 A6  JSR  $A600
 A7CE  60        RTS  
 A7CF  20 5D A8  JSR  $A85D
 A7D2  CA        DEX  
 A7D3  CA        DEX  
 A7D4  A9 40     LDA  #$40
 A7D6  95 00     STA  $00, X
 A7D8  74 01     STZ  $01, X
 A7DA  20 F9 8E  JSR  $8EF9
 A7DD  20 00 A6  JSR  $A600
 A7E0  60        RTS  
 A7E1  CA        DEX  
 A7E2  CA        DEX  
 A7E3  A0 02     LDY  #$02
 A7E5  B1 1E     LDA  ($1E), Y
 A7E7  95 00     STA  $00, X
 A7E9  C8        INY  
 A7EA  B1 1E     LDA  ($1E), Y
 A7EC  95 01     STA  $01, X
 A7EE  20 CB 83  JSR  $83CB
 A7F1  20 72 89  JSR  $8972
 A7F4  80 08     BRA  $A7FE
 A7F6  53 63 72 65 65 6E 20 23                          |Screen #        |
 A7FE  20 4F A0  JSR  $A04F
 A801  F6 A7 08 00                                      |....            |
 A805  20 9F A4  JSR  $A49F
 A808  20 7D 9E  JSR  $9E7D
 A80B  20 8F 8F  JSR  $8F8F
 A80E  CA        DEX  
 A80F  CA        DEX  
 A810  A9 04     LDA  #$04
 A812  95 00     STA  $00, X
 A814  74 01     STZ  $01, X
 A816  20 D6 A4  JSR  $A4D6
 A819  64 28     STZ  $28
 A81B  20 72 89  JSR  $8972
 A81E  CA        DEX  
 A81F  CA        DEX  
 A820  CA        DEX  
 A821  CA        DEX  
 A822  74 03     STZ  $03, X
 A824  A5 28     LDA  $28
 A826  95 02     STA  $02, X
 A828  74 01     STZ  $01, X
 A82A  A9 02     LDA  #$02
 A82C  95 00     STA  $00, X
 A82E  20 D6 A4  JSR  $A4D6
 A831  20 C4 A0  JSR  $A0C4
 A834  20 BE 8D  JSR  $8DBE
 A837  CA        DEX  
 A838  CA        DEX  
 A839  A9 40     LDA  #$40
 A83B  95 00     STA  $00, X
 A83D  74 01     STZ  $01, X
 A83F  20 9F A4  JSR  $A49F
 A842  18        CLC  
 A843  A9 40     LDA  #$40
 A845  75 00     ADC  $00, X
 A847  95 00     STA  $00, X
 A849  B5 01     LDA  $01, X
 A84B  69 00     ADC  #$00
 A84D  95 01     STA  $01, X
 A84F  E6 28     INC  $28
 A851  A5 28     LDA  $28
 A853  C9 10     CMP  #$10
 A855  D0 C4     BNE  $A81B
 A857  20 72 89  JSR  $8972
 A85A  E8        INX  
 A85B  E8        INX  
 A85C  60        RTS  
 A85D  20 0C D6  JSR  $D60C
 A860  A0 06     LDY  #$06
 A862  16 00     ASL  $00, X
 A864  36 01     ROL  $01, X
 A866  88        DEY  
 A867  D0 F9     BNE  $A862
 A869  20 7D 9E  JSR  $9E7D
 A86C  20 8F 8F  JSR  $8F8F
 A86F  20 CB 83  JSR  $83CB
 A872  20 88 99  JSR  $9988
 A875  60        RTS  
 A876  20 72 89  JSR  $8972
 A879  20 BE 8D  JSR  $8DBE
 A87C  20 43 A3  JSR  $A343
 A87F  20 D6 A4  JSR  $A4D6
 A882  20 C4 A0  JSR  $A0C4
 A885  A9 2A     LDA  #$2A
 A887  20 05 8E  JSR  $8E05
 A88A  20 C4 A0  JSR  $A0C4
 A88D  20 5D A8  JSR  $A85D
 A890  20 BE 8D  JSR  $8DBE
 A893  CA        DEX  
 A894  CA        DEX  
 A895  A9 40     LDA  #$40
 A897  95 00     STA  $00, X
 A899  74 01     STZ  $01, X
 A89B  20 4E 81  JSR  $814E
 A89E  20 BE 8D  JSR  $8DBE
 A8A1  20 7D 96  JSR  $967D
 A8A4  20 88 99  JSR  $9988
 A8A7  CA        DEX  
 A8A8  CA        DEX  
 A8A9  A9 40     LDA  #$40
 A8AB  95 00     STA  $00, X
 A8AD  74 01     STZ  $01, X
 A8AF  20 FC 9A  JSR  $9AFC
 A8B2  20 5F 95  JSR  $955F
 A8B5  20 F9 8E  JSR  $8EF9
 A8B8  20 00 A6  JSR  $A600
 A8BB  60        RTS  
 A8BC  A9 69     LDA  #$69
 A8BE  4C 17 AC  JMP  $AC17
 A8C1  A9 7D     LDA  #$7D
 A8C3  4C 17 AC  JMP  $AC17
 A8C6  A9 79     LDA  #$79
 A8C8  4C 17 AC  JMP  $AC17
 A8CB  A9 65     LDA  #$65
 A8CD  4C 17 AC  JMP  $AC17
 A8D0  A9 72     LDA  #$72
 A8D2  4C 17 AC  JMP  $AC17
 A8D5  A9 71     LDA  #$71
 A8D7  4C 17 AC  JMP  $AC17
 A8DA  A9 75     LDA  #$75
 A8DC  4C 17 AC  JMP  $AC17
 A8DF  A9 61     LDA  #$61
 A8E1  4C 17 AC  JMP  $AC17
 A8E4  A9 2D     LDA  #$2D
 A8E6  4C 17 AC  JMP  $AC17
 A8E9  A9 29     LDA  #$29
 A8EB  4C 17 AC  JMP  $AC17
 A8EE  A9 3D     LDA  #$3D
 A8F0  4C 17 AC  JMP  $AC17
 A8F3  A9 39     LDA  #$39
 A8F5  4C 17 AC  JMP  $AC17
 A8F8  A9 25     LDA  #$25
 A8FA  4C 17 AC  JMP  $AC17
 A8FD  A9 32     LDA  #$32
 A8FF  4C 17 AC  JMP  $AC17
 A902  A9 31     LDA  #$31
 A904  4C 17 AC  JMP  $AC17
 A907  A9 35     LDA  #$35
 A909  4C 17 AC  JMP  $AC17
 A90C  A9 21     LDA  #$21
 A90E  4C 17 AC  JMP  $AC17
 A911  A9 0E     LDA  #$0E
 A913  4C 17 AC  JMP  $AC17
 A916  A9 0A     LDA  #$0A
 A918  4C 17 AC  JMP  $AC17
 A91B  A9 1E     LDA  #$1E
 A91D  4C 17 AC  JMP  $AC17
 A920  A9 06     LDA  #$06
 A922  4C 17 AC  JMP  $AC17
 A925  A9 16     LDA  #$16
 A927  4C 17 AC  JMP  $AC17
 A92A  A9 90     LDA  #$90
 A92C  4C 17 AC  JMP  $AC17
 A92F  A9 B0     LDA  #$B0
 A931  A0 02     LDY  #$02
 A933  4C 17 AC  JMP  $AC17
 A936  A9 F0     LDA  #$F0
 A938  4C 17 AC  JMP  $AC17
 A93B  A9 2C     LDA  #$2C
 A93D  4C 17 AC  JMP  $AC17
 A940  A9 89     LDA  #$89
 A942  4C 17 AC  JMP  $AC17
 A945  A9 3C     LDA  #$3C
 A947  4C 17 AC  JMP  $AC17
 A94A  A9 24     LDA  #$24
 A94C  4C 17 AC  JMP  $AC17
 A94F  A9 34     LDA  #$34
 A951  4C 17 AC  JMP  $AC17
 A954  A9 30     LDA  #$30
 A956  4C 17 AC  JMP  $AC17
 A959  A9 D0     LDA  #$D0
 A95B  4C 17 AC  JMP  $AC17
 A95E  A9 10     LDA  #$10
 A960  4C 17 AC  JMP  $AC17
 A963  A9 80     LDA  #$80
 A965  4C 17 AC  JMP  $AC17
 A968  A9 00     LDA  #$00
 A96A  4C 17 AC  JMP  $AC17
 A96D  A9 50     LDA  #$50
 A96F  4C 17 AC  JMP  $AC17
 A972  A9 70     LDA  #$70
 A974  4C 17 AC  JMP  $AC17
 A977  A9 18     LDA  #$18
 A979  4C 17 AC  JMP  $AC17
 A97C  A9 D8     LDA  #$D8
 A97E  4C 17 AC  JMP  $AC17
 A981  A9 58     LDA  #$58
 A983  4C 17 AC  JMP  $AC17
 A986  A9 B8     LDA  #$B8
 A988  4C 17 AC  JMP  $AC17
 A98B  A9 CD     LDA  #$CD
 A98D  4C 17 AC  JMP  $AC17
 A990  A9 C9     LDA  #$C9
 A992  4C 17 AC  JMP  $AC17
 A995  A9 DD     LDA  #$DD
 A997  4C 17 AC  JMP  $AC17
 A99A  A9 D9     LDA  #$D9
 A99C  4C 17 AC  JMP  $AC17
 A99F  A9 C5     LDA  #$C5
 A9A1  4C 17 AC  JMP  $AC17
 A9A4  A9 D2     LDA  #$D2
 A9A6  4C 17 AC  JMP  $AC17
 A9A9  A9 D1     LDA  #$D1
 A9AB  4C 17 AC  JMP  $AC17
 A9AE  A9 D5     LDA  #$D5
 A9B0  4C 17 AC  JMP  $AC17
 A9B3  A9 C1     LDA  #$C1
 A9B5  4C 17 AC  JMP  $AC17
 A9B8  A9 EC     LDA  #$EC
 A9BA  4C 17 AC  JMP  $AC17
 A9BD  A9 E0     LDA  #$E0
 A9BF  4C 17 AC  JMP  $AC17
 A9C2  A9 E4     LDA  #$E4
 A9C4  4C 17 AC  JMP  $AC17
 A9C7  A9 CC     LDA  #$CC
 A9C9  A0 03     LDY  #$03
 A9CB  4C 17 AC  JMP  $AC17
 A9CE  A9 C0     LDA  #$C0
 A9D0  4C 17 AC  JMP  $AC17
 A9D3  A9 C4     LDA  #$C4
 A9D5  4C 17 AC  JMP  $AC17
 A9D8  A9 CE     LDA  #$CE
 A9DA  4C 17 AC  JMP  $AC17
 A9DD  A9 3A     LDA  #$3A
 A9DF  4C 17 AC  JMP  $AC17
 A9E2  A9 DE     LDA  #$DE
 A9E4  4C 17 AC  JMP  $AC17
 A9E7  A9 C6     LDA  #$C6
 A9E9  4C 17 AC  JMP  $AC17
 A9EC  A9 D6     LDA  #$D6
 A9EE  4C 17 AC  JMP  $AC17
 A9F1  A9 CA     LDA  #$CA
 A9F3  4C 17 AC  JMP  $AC17
 A9F6  A9 88     LDA  #$88
 A9F8  4C 17 AC  JMP  $AC17
 A9FB  A9 4D     LDA  #$4D
 A9FD  4C 17 AC  JMP  $AC17
 AA00  A9 49     LDA  #$49
 AA02  4C 17 AC  JMP  $AC17
 AA05  A9 5D     LDA  #$5D
 AA07  4C 17 AC  JMP  $AC17
 AA0A  A9 59     LDA  #$59
 AA0C  4C 17 AC  JMP  $AC17
 AA0F  A9 45     LDA  #$45
 AA11  4C 17 AC  JMP  $AC17
 AA14  A9 52     LDA  #$52
 AA16  4C 17 AC  JMP  $AC17
 AA19  A9 51     LDA  #$51
 AA1B  4C 17 AC  JMP  $AC17
 AA1E  A9 55     LDA  #$55
 AA20  4C 17 AC  JMP  $AC17
 AA23  A9 41     LDA  #$41
 AA25  4C 17 AC  JMP  $AC17
 AA28  A9 EE     LDA  #$EE
 AA2A  4C 17 AC  JMP  $AC17
 AA2D  A9 1A     LDA  #$1A
 AA2F  4C 17 AC  JMP  $AC17
 AA32  A9 FE     LDA  #$FE
 AA34  4C 17 AC  JMP  $AC17
 AA37  A9 E6     LDA  #$E6
 AA39  4C 17 AC  JMP  $AC17
 AA3C  A9 F6     LDA  #$F6
 AA3E  4C 17 AC  JMP  $AC17
 AA41  A9 E8     LDA  #$E8
 AA43  4C 17 AC  JMP  $AC17
 AA46  A9 C8     LDA  #$C8
 AA48  4C 17 AC  JMP  $AC17
 AA4B  A9 4C     LDA  #$4C
 AA4D  4C 17 AC  JMP  $AC17
 AA50  A9 6C     LDA  #$6C
 AA52  4C 17 AC  JMP  $AC17
 AA55  A9 7C     LDA  #$7C
 AA57  4C 17 AC  JMP  $AC17
 AA5A  A9 20     LDA  #$20
 AA5C  4C 17 AC  JMP  $AC17
 AA5F  A9 AD     LDA  #$AD
 AA61  4C 17 AC  JMP  $AC17
 AA64  A9 A9     LDA  #$A9
 AA66  4C 17 AC  JMP  $AC17
 AA69  A9 BD     LDA  #$BD
 AA6B  4C 17 AC  JMP  $AC17
 AA6E  A9 B9     LDA  #$B9
 AA70  4C 17 AC  JMP  $AC17
 AA73  A9 A5     LDA  #$A5
 AA75  4C 17 AC  JMP  $AC17
 AA78  A9 B2     LDA  #$B2
 AA7A  4C 17 AC  JMP  $AC17
 AA7D  A9 B1     LDA  #$B1
 AA7F  4C 17 AC  JMP  $AC17
 AA82  A9 B5     LDA  #$B5
 AA84  4C 17 AC  JMP  $AC17
 AA87  A9 A1     LDA  #$A1
 AA89  4C 17 AC  JMP  $AC17
 AA8C  A9 AE     LDA  #$AE
 AA8E  4C 17 AC  JMP  $AC17
 AA91  A9 A2     LDA  #$A2
 AA93  4C 17 AC  JMP  $AC17
 AA96  A9 BE     LDA  #$BE
 AA98  4C 17 AC  JMP  $AC17
 AA9B  A9 A6     LDA  #$A6
 AA9D  4C 17 AC  JMP  $AC17
 AAA0  A9 B6     LDA  #$B6
 AAA2  4C 17 AC  JMP  $AC17
 AAA5  A9 AC     LDA  #$AC
 AAA7  4C 17 AC  JMP  $AC17
 AAAA  A9 A0     LDA  #$A0
 AAAC  4C 17 AC  JMP  $AC17
 AAAF  A9 BC     LDA  #$BC
 AAB1  4C 17 AC  JMP  $AC17
 AAB4  A9 A4     LDA  #$A4
 AAB6  4C 17 AC  JMP  $AC17
 AAB9  A9 B4     LDA  #$B4
 AABB  4C 17 AC  JMP  $AC17
 AABE  A9 4E     LDA  #$4E
 AAC0  4C 17 AC  JMP  $AC17
 AAC3  A9 4A     LDA  #$4A
 AAC5  4C 17 AC  JMP  $AC17
 AAC8  A9 5E     LDA  #$5E
 AACA  4C 17 AC  JMP  $AC17
 AACD  A9 46     LDA  #$46
 AACF  4C 17 AC  JMP  $AC17
 AAD2  A9 56     LDA  #$56
 AAD4  4C 17 AC  JMP  $AC17
 AAD7  A9 EA     LDA  #$EA
 AAD9  4C 17 AC  JMP  $AC17
 AADC  A9 0D     LDA  #$0D
 AADE  4C 17 AC  JMP  $AC17
 AAE1  A9 09     LDA  #$09
 AAE3  4C 17 AC  JMP  $AC17
 AAE6  A9 1D     LDA  #$1D
 AAE8  4C 17 AC  JMP  $AC17
 AAEB  A9 19     LDA  #$19
 AAED  4C 17 AC  JMP  $AC17
 AAF0  A9 05     LDA  #$05
 AAF2  4C 17 AC  JMP  $AC17
 AAF5  A9 12     LDA  #$12
 AAF7  A0 02     LDY  #$02
 AAF9  4C 17 AC  JMP  $AC17
 AAFC  A9 11     LDA  #$11
 AAFE  4C 17 AC  JMP  $AC17
 AB01  A9 15     LDA  #$15
 AB03  4C 17 AC  JMP  $AC17
 AB06  A9 01     LDA  #$01
 AB08  4C 17 AC  JMP  $AC17
 AB0B  A9 48     LDA  #$48
 AB0D  4C 17 AC  JMP  $AC17
 AB10  A9 08     LDA  #$08
 AB12  4C 17 AC  JMP  $AC17
 AB15  A9 DA     LDA  #$DA
 AB17  4C 17 AC  JMP  $AC17
 AB1A  A9 5A     LDA  #$5A
 AB1C  4C 17 AC  JMP  $AC17
 AB1F  A9 68     LDA  #$68
 AB21  4C 17 AC  JMP  $AC17
 AB24  A9 28     LDA  #$28
 AB26  4C 17 AC  JMP  $AC17
 AB29  A9 FA     LDA  #$FA
 AB2B  4C 17 AC  JMP  $AC17
 AB2E  A9 7A     LDA  #$7A
 AB30  4C 17 AC  JMP  $AC17
 AB33  A9 2E     LDA  #$2E
 AB35  4C 17 AC  JMP  $AC17
 AB38  A9 2A     LDA  #$2A
 AB3A  4C 17 AC  JMP  $AC17
 AB3D  A9 3E     LDA  #$3E
 AB3F  4C 17 AC  JMP  $AC17
 AB42  A9 26     LDA  #$26
 AB44  4C 17 AC  JMP  $AC17
 AB47  A9 36     LDA  #$36
 AB49  4C 17 AC  JMP  $AC17
 AB4C  A9 6E     LDA  #$6E
 AB4E  4C 17 AC  JMP  $AC17
 AB51  A9 6A     LDA  #$6A
 AB53  4C 17 AC  JMP  $AC17
 AB56  A9 7E     LDA  #$7E
 AB58  4C 17 AC  JMP  $AC17
 AB5B  A9 66     LDA  #$66
 AB5D  4C 17 AC  JMP  $AC17
 AB60  A9 76     LDA  #$76
 AB62  4C 17 AC  JMP  $AC17
 AB65  A9 40     LDA  #$40
 AB67  4C 17 AC  JMP  $AC17
 AB6A  A9 60     LDA  #$60
 AB6C  4C 17 AC  JMP  $AC17
 AB6F  A9 ED     LDA  #$ED
 AB71  4C 17 AC  JMP  $AC17
 AB74  A9 E9     LDA  #$E9
 AB76  4C 17 AC  JMP  $AC17
 AB79  A9 FD     LDA  #$FD
 AB7B  4C 17 AC  JMP  $AC17
 AB7E  A9 F9     LDA  #$F9
 AB80  4C 17 AC  JMP  $AC17
 AB83  A9 E5     LDA  #$E5
 AB85  4C 17 AC  JMP  $AC17
 AB88  A9 F2     LDA  #$F2
 AB8A  4C 17 AC  JMP  $AC17
 AB8D  A9 F1     LDA  #$F1
 AB8F  4C 17 AC  JMP  $AC17
 AB92  A9 F5     LDA  #$F5
 AB94  4C 17 AC  JMP  $AC17
 AB97  A9 E1     LDA  #$E1
 AB99  80 7C     BRA  $AC17
 AB9B  A9 38     LDA  #$38
 AB9D  80 78     BRA  $AC17
 AB9F  A9 F8     LDA  #$F8
 ABA1  80 74     BRA  $AC17
 ABA3  A9 78     LDA  #$78
 ABA5  80 70     BRA  $AC17
 ABA7  A9 8D     LDA  #$8D
 ABA9  80 6C     BRA  $AC17
 ABAB  A9 9D     LDA  #$9D
 ABAD  80 68     BRA  $AC17
 ABAF  A9 99     LDA  #$99
 ABB1  80 64     BRA  $AC17
 ABB3  A9 85     LDA  #$85
 ABB5  80 60     BRA  $AC17
 ABB7  A9 92     LDA  #$92
 ABB9  80 5C     BRA  $AC17
 ABBB  A9 91     LDA  #$91
 ABBD  80 58     BRA  $AC17
 ABBF  A9 95     LDA  #$95
 ABC1  80 54     BRA  $AC17
 ABC3  A9 81     LDA  #$81
 ABC5  80 50     BRA  $AC17
 ABC7  A9 8E     LDA  #$8E
 ABC9  80 4C     BRA  $AC17
 ABCB  A9 86     LDA  #$86
 ABCD  80 48     BRA  $AC17
 ABCF  A9 96     LDA  #$96
 ABD1  80 44     BRA  $AC17
 ABD3  A9 8C     LDA  #$8C
 ABD5  80 40     BRA  $AC17
 ABD7  A9 84     LDA  #$84
 ABD9  80 3C     BRA  $AC17
 ABDB  A9 94     LDA  #$94
 ABDD  80 38     BRA  $AC17
 ABDF  A9 9C     LDA  #$9C
 ABE1  80 34     BRA  $AC17
 ABE3  A9 9E     LDA  #$9E
 ABE5  80 30     BRA  $AC17
 ABE7  A9 64     LDA  #$64
 ABE9  80 2C     BRA  $AC17
 ABEB  A9 74     LDA  #$74
 ABED  80 28     BRA  $AC17
 ABEF  A9 AA     LDA  #$AA
 ABF1  80 24     BRA  $AC17
 ABF3  A9 A8     LDA  #$A8
 ABF5  80 20     BRA  $AC17
 ABF7  A9 1C     LDA  #$1C
 ABF9  80 1C     BRA  $AC17
 ABFB  A9 14     LDA  #$14
 ABFD  80 18     BRA  $AC17
 ABFF  A9 0C     LDA  #$0C
 AC01  80 14     BRA  $AC17
 AC03  A9 04     LDA  #$04
 AC05  80 10     BRA  $AC17
 AC07  A9 BA     LDA  #$BA
 AC09  80 0C     BRA  $AC17
 AC0B  A9 8A     LDA  #$8A
 AC0D  80 08     BRA  $AC17
 AC0F  A9 9A     LDA  #$9A
 AC11  80 04     BRA  $AC17
 AC13  A9 98     LDA  #$98
 AC15  80 00     BRA  $AC17
 AC17  A8        TAY  
 AC18  20 BF D4  JSR  $D4BF
 AC1B  A9 16     LDA  #$16
 AC1D  85 26     STA  $26
 AC1F  A9 AD     LDA  #$AD
 AC21  85 27     STA  $27
 AC23  98        TYA  
 AC24  0A        ASL  
 AC25  90 02     BCC  $AC29
 AC27  E6 27     INC  $27
 AC29  A8        TAY  
 AC2A  B1 26     LDA  ($26), Y
 AC2C  85 28     STA  $28
 AC2E  C8        INY  
 AC2F  B1 26     LDA  ($26), Y
 AC31  85 29     STA  $29
 AC33  B2 28     LDA  ($28)
 AC35  2A        ROL  
 AC36  2A        ROL  
 AC37  2A        ROL  
 AC38  29 03     AND  #$03
 AC3A  A8        TAY  
 AC3B  88        DEY  
 AC3C  F0 12     BEQ  $AC50
 AC3E  20 0C D6  JSR  $D60C
 AC41  B5 00     LDA  $00, X
 AC43  20 BF D4  JSR  $D4BF
 AC46  88        DEY  
 AC47  F0 05     BEQ  $AC4E
 AC49  B5 01     LDA  $01, X
 AC4B  20 BF D4  JSR  $D4BF
 AC4E  E8        INX  
 AC4F  E8        INX  
 AC50  60        RTS  
 AC51  A0 00     LDY  #$00
 AC53  B9 61 AC  LDA  $AC61, Y
 AC56  C9 FF     CMP  #$FF
 AC58  F0 06     BEQ  $AC60
 AC5A  20 BF D4  JSR  $D4BF
 AC5D  C8        INY  
 AC5E  80 F3     BRA  $AC53
 AC60  60        RTS  
 AC61  CA CA 95 00 74 01 FF                             |....t..         |
 AC68  60        RTS  
 AC69  20 81 91  JSR  $9181
 AC6C  20 5F 95  JSR  $955F
 AC6F  3A        DEC  
 AC70  3A        DEC  
 AC71  60        RTS  
 AC72  20 72 89  JSR  $8972
 AC75  20 38 98  JSR  $9838
 AC78  20 CA A4  JSR  $A4CA
 AC7B  20 C4 A0  JSR  $A0C4
 AC7E  A9 16     LDA  #$16
 AC80  85 26     STA  $26
 AC82  A9 AD     LDA  #$AD
 AC84  85 27     STA  $27
 AC86  A1 02     LDA  ($02, X)
 AC88  0A        ASL  
 AC89  90 02     BCC  $AC8D
 AC8B  E6 27     INC  $27
 AC8D  A8        TAY  
 AC8E  B1 26     LDA  ($26), Y
 AC90  85 28     STA  $28
 AC92  48        PHA  
 AC93  C8        INY  
 AC94  B1 26     LDA  ($26), Y
 AC96  85 29     STA  $29
 AC98  48        PHA  
 AC99  B2 28     LDA  ($28)
 AC9B  A8        TAY  
 AC9C  10 38     BPL  $ACD6
 AC9E  20 43 A7  JSR  $A743
 ACA1  F6 04     INC  $04, X
 ACA3  D0 02     BNE  $ACA7
 ACA5  F6 05     INC  $05, X
 ACA7  B5 02     LDA  $02, X
 ACA9  D0 02     BNE  $ACAD
 ACAB  D6 03     DEC  $03, X
 ACAD  D6 02     DEC  $02, X
 ACAF  A1 04     LDA  ($04, X)
 ACB1  95 00     STA  $00, X
 ACB3  98        TYA  
 ACB4  2A        ROL  
 ACB5  10 12     BPL  $ACC9
 ACB7  F6 04     INC  $04, X
 ACB9  D0 02     BNE  $ACBD
 ACBB  F6 05     INC  $05, X
 ACBD  B5 02     LDA  $02, X
 ACBF  D0 02     BNE  $ACC3
 ACC1  D6 03     DEC  $03, X
 ACC3  D6 02     DEC  $02, X
 ACC5  A1 04     LDA  ($04, X)
 ACC7  95 01     STA  $01, X
 ACC9  CA        DEX  
 ACCA  CA        DEX  
 ACCB  A9 05     LDA  #$05
 ACCD  95 00     STA  $00, X
 ACCF  74 01     STZ  $01, X
 ACD1  20 D6 A4  JSR  $A4D6
 ACD4  80 0B     BRA  $ACE1
 ACD6  CA        DEX  
 ACD7  CA        DEX  
 ACD8  A9 05     LDA  #$05
 ACDA  95 00     STA  $00, X
 ACDC  74 01     STZ  $01, X
 ACDE  20 CA A0  JSR  $A0CA
 ACE1  20 C4 A0  JSR  $A0C4
 ACE4  CA        DEX  
 ACE5  CA        DEX  
 ACE6  68        PLA  
 ACE7  95 01     STA  $01, X
 ACE9  68        PLA  
 ACEA  95 00     STA  $00, X
 ACEC  20 5E 89  JSR  $895E
 ACEF  74 01     STZ  $01, X
 ACF1  B5 00     LDA  $00, X
 ACF3  29 07     AND  #$07
 ACF5  95 00     STA  $00, X
 ACF7  20 9F A4  JSR  $A49F
 ACFA  20 72 89  JSR  $8972
 ACFD  F6 02     INC  $02, X
 ACFF  D0 02     BNE  $AD03
 AD01  F6 03     INC  $03, X
 AD03  20 B6 97  JSR  $97B6
 AD06  B5 00     LDA  $00, X
 AD08  15 01     ORA  $01, X
 AD0A  F0 07     BEQ  $AD13
 AD0C  B5 01     LDA  $01, X
 AD0E  30 03     BMI  $AD13
 AD10  4C 75 AC  JMP  $AC75
 AD13  4C 4C A3  JMP  $A34C
 AD16  16 AF 1A AF AE B3 AE B3 22 AF 28 AF 2E AF AE B3  |........".(.....|
 AD26  34 AF 38 AF 3E AF AE B3 44 AF 48 AF 4C AF 50 AF  |4.8.>...D.H.L.P.|
 AD36  55 AF 59 AF 61 AF AE B3 68 AF 6E AF 75 AF 7C AF  |U.Y.a...h.n.u.|.|
 AD46  83 AF 87 AF 8D AF AE B3 93 AF 97 AF AE B3 9D AF  |................|
 AD56  A3 AF A7 AF AE B3 AE B3 AF AF B5 AF BB AF C1 AF  |................|
 AD66  C8 AF CC AF D2 AF AE B3 D8 AF DC AF E1 AF E5 AF  |................|
 AD76  EA AF EE AF F6 AF AE B3 FD AF 05 B0 0C B0 13 B0  |................|
 AD86  1A B0 1E B0 24 B0 AE B3 2A B0 30 B0 36 B0 50 AF  |....$...*.0.6.P.|
 AD96  41 B0 45 B0 AE B3 AE B3 AE B3 4D B0 53 B0 59 B0  |A.E.......M.S.Y.|
 ADA6  60 B0 64 B0 6A B0 AE B3 70 B0 74 B0 78 B0 7C B0  |`.d.j...p.t.x.|.|
 ADB6  81 B0 85 B0 8D B0 AE B3 AE B3 94 B0 9B B0 A2 B0  |................|
 ADC6  A9 B0 AD B0 B3 B0 AE B3 AE B3 AE B3 BD B0 C3 B0  |................|
 ADD6  C8 B0 CC B0 AE B3 AE B3 D4 B0 DA B0 E0 B0 E6 B0  |................|
 ADE6  ED B0 F1 B0 F7 B0 AE B3 FD B0 03 B1 07 B1 0B B1  |................|
 ADF6  10 B1 14 B1 1C B1 AE B3 23 B1 2A B1 31 B1 38 B1  |........#.*.1.8.|
 AE06  3F B1 43 B1 49 B1 AE B3 4D B1 54 B1 5A B1 60 B1  |?.C.I...M.T.Z.`.|
 AE16  65 B1 69 B1 AE B3 AE B3 71 B1 77 B1 7D B1 AE B3  |e.i.....q.w.}...|
 AE26  83 B1 87 B1 8D B1 AE B3 91 B1 95 B1 99 B1 9D B1  |................|
 AE36  A2 B1 A6 B1 AE B1 AE B3 B5 B1 BC B1 C3 B1 CA B1  |................|
 AE46  D1 B1 D5 B1 DB B1 AE B3 DF B1 E3 B1 E9 B1 EF B1  |................|
 AE56  F4 B1 FA B1 02 B2 AE B3 08 B2 0E B2 14 B2 1A B2  |................|
 AE66  21 B2 25 B2 2B B2 AE B3 2F B2 33 B2 37 B2 3B B2  |!.%.+.../.3.7.;.|
 AE76  40 B2 44 B2 4C B2 AE B3 53 B2 5A B2 61 B2 68 B2  |@.D.L...S.Z.a.h.|
 AE86  6F B2 73 B2 79 B2 AE B3 7D B2 83 B2 89 B2 8F B2  |o.s.y...}.......|
 AE96  94 B2 9A B2 AE B3 AE B3 A2 B2 A8 B2 AE B2 B4 B2  |................|
 AEA6  BB B2 BF B2 C5 B2 AE B3 C9 B2 CD B2 D1 B2 D5 B2  |................|
 AEB6  DA B2 DE B2 E6 B2 AE B3 AE B3 ED B2 F4 B2 FB B2  |................|
 AEC6  02 B3 06 B3 0C B3 AE B3 AE B3 10 B3 16 B3 1C B3  |................|
 AED6  21 B3 27 B3 AE B3 AE B3 2F B3 35 B3 3B B3 41 B3  |!.'...../.5.;.A.|
 AEE6  48 B3 4C B3 52 B3 AE B3 56 B3 5A B3 5E B3 62 B3  |H.L.R...V.Z.^.b.|
 AEF6  67 B3 6B B3 73 B3 AE B3 AE B3 7A B3 81 B3 88 B3  |g.k.s.....z.....|
 AF06  8F B3 93 B3 99 B3 AE B3 AE B3 9D B3 A3 B3 A9 B3  |................|
 AF16  83 62 72 6B 87 6F 72 61 2E 7A 78 69 85 74 73 62  |.brk.ora.zxi.tsb|
 AF26  2E 7A 85 6F 72 64 2E 7A 85 61 73 6C 2E 7A 43 70  |.z.ord.z.asl.zCp|
 AF36  68 70 85 6F 72 61 2E 23 45 61 73 6C 2E 61 C3 74  |hp.ora.#Easl.a.t|
 AF46  73 62 C3 6F 72 61 C3 61 73 6C C4 62 62 72 30 83  |sb.ora.asl.bbr0.|
 AF56  62 70 6C 87 6F 72 61 2E 7A 69 79 86 6F 72 61 2E  |bpl.ora.ziy.ora.|
 AF66  7A 69 85 74 72 62 2E 7A 86 6F 72 61 2E 7A 78 86  |zi.trb.z.ora.zx.|
 AF76  61 73 6C 2E 7A 78 86 72 6D 62 31 2E 7A 43 63 6C  |asl.zx.rmb1.zCcl|
 AF86  63 C5 6F 72 61 2E 79 45 69 6E 63 2E 61 C3 74 72  |c.ora.yEinc.a.tr|
 AF96  62 C5 6F 72 61 2E 78 C5 61 73 6C 2E 78 C3 6A 73  |b.ora.x.asl.x.js|
 AFA6  72 87 61 6E 64 2E 7A 78 69 85 62 69 74 2E 7A 85  |r.and.zxi.bit.z.|
 AFB6  61 6E 64 2E 7A 85 72 6F 6C 2E 7A 86 72 6D 62 32  |and.z.rol.z.rmb2|
 AFC6  2E 7A 43 70 6C 70 85 61 6E 64 2E 23 45 72 6F 6C  |.zCplp.and.#Erol|
 AFD6  2E 61 C3 62 69 74 C4 61 6E 64 2E C3 72 6F 6C C4  |.a.bit.and..rol.|
 AFE6  62 62 72 32 83 62 6D 69 87 61 6E 64 2E 7A 69 79  |bbr2.bmi.and.ziy|
 AFF6  86 61 6E 64 2E 7A 69 87 62 69 74 2E 7A 78 69 86  |.and.zi.bit.zxi.|
 B006  61 6E 64 2E 7A 78 86 72 6F 6C 2E 7A 78 86 72 6D  |and.zx.rol.zx.rm|
 B016  62 33 2E 7A 43 73 65 63 C5 61 6E 64 2E 79 45 64  |b3.zCsec.and.yEd|
 B026  65 63 2E 61 C5 62 69 74 2E 78 C5 61 6E 64 2E 78  |ec.a.bit.x.and.x|
 B036  C5 72 6F 6C 2E 78 C4 62 62 72 33 43 72 74 69 87  |.rol.x.bbr3Crti.|
 B046  65 6F 72 2E 7A 78 69 85 65 6F 72 2E 7A 85 6C 73  |eor.zxi.eor.z.ls|
 B056  72 2E 7A 86 72 62 6D 34 2E 7A 43 70 68 61 85 65  |r.z.rbm4.zCpha.e|
 B066  6F 72 2E 23 45 6C 73 72 2E 61 C3 6A 6D 70 C3 65  |or.#Elsr.a.jmp.e|
 B076  6F 72 C3 6C 73 72 C4 62 62 72 34 83 62 76 63 87  |or.lsr.bbr4.bvc.|
 B086  65 6F 72 2E 7A 69 79 86 65 6F 72 2E 7A 69 86 65  |eor.ziy.eor.zi.e|
 B096  6F 72 2E 7A 78 86 6C 73 72 2E 7A 78 86 72 62 6D  |or.zx.lsr.zx.rbm|
 B0A6  35 2E 7A 43 63 6C 69 C5 65 6F 72 2E 79 43 70 68  |5.zCcli.eor.yCph|
 B0B6  79 C5 65 6F 72 2E 78 C5 6C 73 72 2E 78 C4 62 62  |y.eor.x.lsr.x.bb|
 B0C6  72 35 43 72 74 73 87 61 64 63 2E 7A 78 69 85 73  |r5Crts.adc.zxi.s|
 B0D6  74 7A 2E 7A 85 61 64 63 2E 7A 85 72 6F 72 2E 7A  |tz.z.adc.z.ror.z|
 B0E6  86 72 6D 62 36 2E 7A 43 70 6C 61 85 61 64 63 2E  |.rmb6.zCpla.adc.|
 B0F6  23 45 72 6F 72 2E 61 C5 6A 6D 70 2E 69 C3 61 64  |#Eror.a.jmp.i.ad|
 B106  63 C3 72 6F 72 C4 62 62 72 36 83 62 76 73 87 61  |c.ror.bbr6.bvs.a|
 B116  64 63 2E 7A 69 79 86 61 64 63 2E 7A 69 86 73 74  |dc.ziy.adc.zi.st|
 B126  7A 2E 7A 78 86 61 64 63 2E 7A 78 86 72 6F 72 2E  |z.zx.adc.zx.ror.|
 B136  7A 78 86 72 6D 62 37 2E 7A 43 73 65 69 C5 61 64  |zx.rmb7.zCsei.ad|
 B146  63 2E 79 43 70 6C 79 C6 6A 6D 70 2E 78 69 C5 61  |c.yCply.jmp.xi.a|
 B156  64 63 2E 78 C5 72 6F 72 2E 78 C4 62 62 72 37 83  |dc.x.ror.x.bbr7.|
 B166  62 72 61 87 73 74 61 2E 7A 78 69 85 73 74 79 2E  |bra.sta.zxi.sty.|
 B176  7A 85 73 74 61 2E 7A 85 73 74 78 2E 7A 43 64 65  |z.sta.z.stx.zCde|
 B186  79 85 62 69 74 2E 23 43 74 78 61 C3 73 74 79 C3  |y.bit.#Ctxa.sty.|
 B196  73 74 61 C3 73 74 78 C4 62 62 73 30 83 62 63 63  |sta.stx.bbs0.bcc|
 B1A6  87 73 74 61 2E 7A 69 79 86 73 74 61 2E 7A 69 86  |.sta.ziy.sta.zi.|
 B1B6  73 74 79 2E 7A 78 86 73 74 61 2E 7A 78 86 73 74  |sty.zx.sta.zx.st|
 B1C6  78 2E 7A 79 86 73 6D 62 31 2E 7A 43 74 79 61 C5  |x.zy.smb1.zCtya.|
 B1D6  73 74 61 2E 79 43 74 78 73 C3 73 74 7A C5 73 74  |sta.yCtxs.stz.st|
 B1E6  61 2E 78 C5 73 74 7A 2E 78 C4 62 62 73 31 85 6C  |a.x.stz.x.bbs1.l|
 B1F6  64 79 2E 23 87 6C 64 61 2E 7A 78 69 85 6C 64 78  |dy.#.lda.zxi.ldx|
 B206  2E 23 85 6C 64 79 2E 7A 85 6C 64 61 2E 7A 85 6C  |.#.ldy.z.lda.z.l|
 B216  64 78 2E 7A 86 73 6D 62 32 2E 7A 43 74 61 79 85  |dx.z.smb2.zCtay.|
 B226  6C 64 61 2E 23 43 74 61 78 C3 6C 64 79 C3 6C 64  |lda.#Ctax.ldy.ld|
 B236  61 C3 6C 64 78 C4 62 62 73 32 83 62 63 73 87 6C  |a.ldx.bbs2.bcs.l|
 B246  64 61 2E 7A 69 79 86 6C 64 61 2E 7A 69 86 6C 64  |da.ziy.lda.zi.ld|
 B256  79 2E 7A 78 86 6C 64 61 2E 7A 78 86 6C 64 78 2E  |y.zx.lda.zx.ldx.|
 B266  7A 79 86 73 6D 62 33 2E 7A 43 63 6C 76 C5 6C 64  |zy.smb3.zCclv.ld|
 B276  61 2E 79 43 74 73 78 C5 6C 64 79 2E 78 C5 6C 64  |a.yCtsx.ldy.x.ld|
 B286  61 2E 78 C5 6C 64 78 2E 79 C4 62 62 73 34 85 63  |a.x.ldx.y.bbs4.c|
 B296  70 79 2E 23 87 63 6D 70 2E 7A 78 69 85 63 70 79  |py.#.cmp.zxi.cpy|
 B2A6  2E 7A 85 63 6D 70 2E 7A 85 64 65 63 2E 7A 86 73  |.z.cmp.z.dec.z.s|
 B2B6  6D 62 34 2E 7A 43 69 6E 79 85 63 6D 70 2E 23 43  |mb4.zCiny.cmp.#C|
 B2C6  64 65 78 C3 63 70 79 C3 63 6D 70 C3 64 65 63 C4  |dex.cpy.cmp.dec.|
 B2D6  62 62 73 34 83 62 6E 65 87 63 6D 70 2E 7A 69 79  |bbs4.bne.cmp.ziy|
 B2E6  86 63 6D 70 2E 7A 69 86 63 6D 70 2E 7A 78 86 64  |.cmp.zi.cmp.zx.d|
 B2F6  65 63 2E 7A 78 86 73 6D 62 35 2E 7A 43 63 6C 64  |ec.zx.smb5.zCcld|
 B306  C5 63 6D 70 2E 79 43 70 68 78 C5 63 6D 70 2E 78  |.cmp.yCphx.cmp.x|
 B316  C5 64 65 63 2E 78 C4 62 62 73 35 85 63 70 78 2E  |.dec.x.bbs5.cpx.|
 B326  23 87 73 62 63 2E 7A 78 69 85 63 70 78 2E 7A 85  |#.sbc.zxi.cpx.z.|
 B336  73 62 63 2E 7A 85 69 6E 63 2E 7A 86 73 6D 62 36  |sbc.z.inc.z.smb6|
 B346  2E 7A 43 69 6E 78 85 73 62 63 2E 23 43 6E 6F 70  |.zCinx.sbc.#Cnop|
 B356  C3 63 70 78 C3 73 62 63 C3 69 6E 63 C4 62 62 73  |.cpx.sbc.inc.bbs|
 B366  36 83 62 65 71 87 73 62 63 2E 7A 69 79 86 73 62  |6.beq.sbc.ziy.sb|
 B376  63 2E 7A 69 86 73 62 63 2E 7A 78 86 69 6E 63 2E  |c.zi.sbc.zx.inc.|
 B386  7A 78 86 73 6D 62 37 2E 7A 43 73 65 64 C5 73 62  |zx.smb7.zCsed.sb|
 B396  63 2E 79 43 70 6C 78 C5 73 62 63 2E 78 C5 69 6E  |c.yCplx.sbc.x.in|
 B3A6  63 2E 78 C4 62 62 73 37 01 3F                    |c.x.bbs7.?      |
 B3B0  64 2E     STZ  $2E
 B3B2  64 2F     STZ  $2F
 B3B4  64 30     STZ  $30
 B3B6  64 31     STZ  $31
 B3B8  64 32     STZ  $32
 B3BA  20 43 A7  JSR  $A743
 B3BD  20 43 A7  JSR  $A743
 B3C0  20 72 89  JSR  $8972
 B3C3  A9 81     LDA  #$81
 B3C5  14 32     TRB  $32
 B3C7  20 8E B8  JSR  $B88E
 B3CA  A5 0A     LDA  $0A
 B3CC  D0 1F     BNE  $B3ED
 B3CE  CA        DEX  
 B3CF  CA        DEX  
 B3D0  A5 30     LDA  $30
 B3D2  95 00     STA  $00, X
 B3D4  A5 31     LDA  $31
 B3D6  95 01     STA  $01, X
 B3D8  A9 80     LDA  #$80
 B3DA  04 32     TSB  $32
 B3DC  20 C2 97  JSR  $97C2
 B3DF  20 AA B8  JSR  $B8AA
 B3E2  B0 03     BCS  $B3E7
 B3E4  4C 7E B8  JMP  $B87E
 B3E7  20 43 A7  JSR  $A743
 B3EA  4C B8 B4  JMP  $B4B8
 B3ED  20 43 A7  JSR  $A743
 B3F0  20 43 A7  JSR  $A743
 B3F3  B2 08     LDA  ($08)
 B3F5  C9 2E     CMP  #$2E
 B3F7  D0 3A     BNE  $B433
 B3F9  20 9F B8  JSR  $B89F
 B3FC  A5 30     LDA  $30
 B3FE  95 02     STA  $02, X
 B400  A5 31     LDA  $31
 B402  95 03     STA  $03, X
 B404  A9 80     LDA  #$80
 B406  04 32     TSB  $32
 B408  A5 0A     LDA  $0A
 B40A  3A        DEC  
 B40B  D0 03     BNE  $B410
 B40D  4C B8 B4  JMP  $B4B8
 B410  CA        DEX  
 B411  CA        DEX  
 B412  CA        DEX  
 B413  CA        DEX  
 B414  A5 08     LDA  $08
 B416  95 02     STA  $02, X
 B418  A5 09     LDA  $09
 B41A  95 03     STA  $03, X
 B41C  A5 0A     LDA  $0A
 B41E  95 00     STA  $00, X
 B420  A5 0B     LDA  $0B
 B422  95 01     STA  $01, X
 B424  20 B6 97  JSR  $97B6
 B427  20 4A A1  JSR  $A14A
 B42A  20 C2 97  JSR  $97C2
 B42D  20 4A A1  JSR  $A14A
 B430  4C 10 B5  JMP  $B510
 B433  B2 08     LDA  ($08)
 B435  C9 24     CMP  #$24
 B437  D0 1C     BNE  $B455
 B439  20 9F B8  JSR  $B89F
 B43C  E8        INX  
 B43D  E8        INX  
 B43E  20 CC B8  JSR  $B8CC
 B441  20 4A A1  JSR  $A14A
 B444  A9 80     LDA  #$80
 B446  04 32     TSB  $32
 B448  A5 0A     LDA  $0A
 B44A  3A        DEC  
 B44B  D0 03     BNE  $B450
 B44D  4C B8 B4  JMP  $B4B8
 B450  A0 01     LDY  #$01
 B452  4C 8C B5  JMP  $B58C
 B455  B2 08     LDA  ($08)
 B457  C9 25     CMP  #$25
 B459  F0 04     BEQ  $B45F
 B45B  C9 2C     CMP  #$2C
 B45D  D0 17     BNE  $B476
 B45F  20 9F B8  JSR  $B89F
 B462  A9 01     LDA  #$01
 B464  95 02     STA  $02, X
 B466  74 03     STZ  $03, X
 B468  E8        INX  
 B469  E8        INX  
 B46A  20 CC B8  JSR  $B8CC
 B46D  A9 80     LDA  #$80
 B46F  04 32     TSB  $32
 B471  A0 01     LDY  #$01
 B473  4C 8C B5  JMP  $B58C
 B476  B2 08     LDA  ($08)
 B478  C9 3B     CMP  #$3B
 B47A  D0 0D     BNE  $B489
 B47C  20 9F B8  JSR  $B89F
 B47F  A5 30     LDA  $30
 B481  95 02     STA  $02, X
 B483  A5 31     LDA  $31
 B485  95 03     STA  $03, X
 B487  80 DF     BRA  $B468
 B489  20 43 A7  JSR  $A743
 B48C  20 43 A7  JSR  $A743
 B48F  CA        DEX  
 B490  CA        DEX  
 B491  CA        DEX  
 B492  CA        DEX  
 B493  A5 08     LDA  $08
 B495  95 02     STA  $02, X
 B497  A5 09     LDA  $09
 B499  95 03     STA  $03, X
 B49B  A5 0A     LDA  $0A
 B49D  95 00     STA  $00, X
 B49F  A5 0B     LDA  $0B
 B4A1  95 01     STA  $01, X
 B4A3  20 59 A2  JSR  $A259
 B4A6  B5 00     LDA  $00, X
 B4A8  15 01     ORA  $01, X
 B4AA  D0 24     BNE  $B4D0
 B4AC  E8        INX  
 B4AD  E8        INX  
 B4AE  E8        INX  
 B4AF  E8        INX  
 B4B0  20 8F 8A  JSR  $8A8F
 B4B3  20 7D 96  JSR  $967D
 B4B6  E8        INX  
 B4B7  E8        INX  
 B4B8  20 4A A1  JSR  $A14A
 B4BB  20 AA B8  JSR  $B8AA
 B4BE  B0 03     BCS  $B4C3
 B4C0  4C 7C B8  JMP  $B87C
 B4C3  20 4A A1  JSR  $A14A
 B4C6  20 39 B9  JSR  $B939
 B4C9  A9 80     LDA  #$80
 B4CB  04 32     TSB  $32
 B4CD  4C 67 B7  JMP  $B767
 B4D0  20 BE 8D  JSR  $8DBE
 B4D3  CA        DEX  
 B4D4  CA        DEX  
 B4D5  A5 0A     LDA  $0A
 B4D7  95 00     STA  $00, X
 B4D9  A5 0B     LDA  $0B
 B4DB  95 01     STA  $01, X
 B4DD  20 DD 8E  JSR  $8EDD
 B4E0  B5 00     LDA  $00, X
 B4E2  15 01     ORA  $01, X
 B4E4  F0 0E     BEQ  $B4F4
 B4E6  8A        TXA  
 B4E7  18        CLC  
 B4E8  69 0A     ADC  #$0A
 B4EA  AA        TAX  
 B4EB  A9 80     LDA  #$80
 B4ED  14 32     TRB  $32
 B4EF  A0 00     LDY  #$00
 B4F1  4C 8C B5  JMP  $B58C
 B4F4  E8        INX  
 B4F5  E8        INX  
 B4F6  20 0C A3  JSR  $A30C
 B4F9  20 7D 96  JSR  $967D
 B4FC  20 8F 8A  JSR  $8A8F
 B4FF  B5 00     LDA  $00, X
 B501  95 06     STA  $06, X
 B503  B5 01     LDA  $01, X
 B505  95 07     STA  $07, X
 B507  E8        INX  
 B508  E8        INX  
 B509  20 37 9A  JSR  $9A37
 B50C  A9 80     LDA  #$80
 B50E  04 32     TSB  $32
 B510  A1 02     LDA  ($02, X)
 B512  C9 2C     CMP  #$2C
 B514  F0 0D     BEQ  $B523
 B516  38        SEC  
 B517  A5 0A     LDA  $0A
 B519  F5 00     SBC  $00, X
 B51B  A8        TAY  
 B51C  E8        INX  
 B51D  E8        INX  
 B51E  E8        INX  
 B51F  E8        INX  
 B520  4C 8C B5  JMP  $B58C
 B523  F6 02     INC  $02, X
 B525  D0 02     BNE  $B529
 B527  F6 03     INC  $03, X
 B529  B5 01     LDA  $01, X
 B52B  F0 02     BEQ  $B52F
 B52D  D6 01     DEC  $01, X
 B52F  D6 00     DEC  $00, X
 B531  A1 02     LDA  ($02, X)
 B533  C9 24     CMP  #$24
 B535  D0 14     BNE  $B54B
 B537  38        SEC  
 B538  A5 0A     LDA  $0A
 B53A  F5 02     SBC  $02, X
 B53C  A8        TAY  
 B53D  C8        INY  
 B53E  5A        PHY  
 B53F  8A        TXA  
 B540  18        CLC  
 B541  69 06     ADC  #$06
 B543  AA        TAX  
 B544  20 CC B8  JSR  $B8CC
 B547  7A        PLY  
 B548  4C 8C B5  JMP  $B58C
 B54B  20 0C A3  JSR  $A30C
 B54E  20 43 A7  JSR  $A743
 B551  20 43 A7  JSR  $A743
 B554  20 FC 9A  JSR  $9AFC
 B557  20 37 9A  JSR  $9A37
 B55A  20 BE 8D  JSR  $8DBE
 B55D  20 0C A3  JSR  $A30C
 B560  20 59 A2  JSR  $A259
 B563  20 BE 8D  JSR  $8DBE
 B566  20 37 9A  JSR  $9A37
 B569  20 DD 8E  JSR  $8EDD
 B56C  B5 00     LDA  $00, X
 B56E  15 01     ORA  $01, X
 B570  F0 08     BEQ  $B57A
 B572  8A        TXA  
 B573  18        CLC  
 B574  69 0C     ADC  #$0C
 B576  AA        TAX  
 B577  4C 80 B8  JMP  $B880
 B57A  E8        INX  
 B57B  E8        INX  
 B57C  38        SEC  
 B57D  A5 0A     LDA  $0A
 B57F  F5 00     SBC  $00, X
 B581  48        PHA  
 B582  20 4C A3  JSR  $A34C
 B585  20 8F 8A  JSR  $8A8F
 B588  20 51 96  JSR  $9651
 B58B  7A        PLY  
 B58C  B1 08     LDA  ($08), Y
 B58E  85 24     STA  $24
 B590  DA        PHX  
 B591  A2 00     LDX  #$00
 B593  BD 64 B9  LDA  $B964, X
 B596  F0 07     BEQ  $B59F
 B598  C5 24     CMP  $24
 B59A  F0 07     BEQ  $B5A3
 B59C  E8        INX  
 B59D  80 F4     BRA  $B593
 B59F  FA        PLX  
 B5A0  4C 7C B8  JMP  $B87C
 B5A3  8A        TXA  
 B5A4  0A        ASL  
 B5A5  AA        TAX  
 B5A6  7C 6F B9  JMP  ($B96F, X)
 B5A9  E8        INX  
 B5AA  E8        INX  
 B5AB  E8        INX  
 B5AC  E8        INX  
 B5AD  4C C3 B3  JMP  $B3C3
 B5B0  64 0A     STZ  $0A
 B5B2  64 0B     STZ  $0B
 B5B4  20 4C A3  JSR  $A34C
 B5B7  60        RTS  
 B5B8  FA        PLX  
 B5B9  E8        INX  
 B5BA  E8        INX  
 B5BB  24 32     BIT  $32
 B5BD  30 08     BMI  $B5C7
 B5BF  A5 30     LDA  $30
 B5C1  95 00     STA  $00, X
 B5C3  A5 31     LDA  $31
 B5C5  95 01     STA  $01, X
 B5C7  20 02 B9  JSR  $B902
 B5CA  20 72 89  JSR  $8972
 B5CD  20 8E B8  JSR  $B88E
 B5D0  B2 08     LDA  ($08)
 B5D2  C9 2E     CMP  #$2E
 B5D4  D0 16     BNE  $B5EC
 B5D6  A4 0A     LDY  $0A
 B5D8  C0 01     CPY  #$01
 B5DA  D0 10     BNE  $B5EC
 B5DC  A4 0B     LDY  $0B
 B5DE  D0 0C     BNE  $B5EC
 B5E0  E8        INX  
 B5E1  E8        INX  
 B5E2  A9 40     LDA  #$40
 B5E4  04 32     TSB  $32
 B5E6  20 72 89  JSR  $8972
 B5E9  4C C3 B3  JMP  $B3C3
 B5EC  20 BE 8D  JSR  $8DBE
 B5EF  20 81 91  JSR  $9181
 B5F2  20 4A A1  JSR  $A14A
 B5F5  20 8F 8F  JSR  $8F8F
 B5F8  20 7D 87  JSR  $877D
 B5FB  20 29 A3  JSR  $A329
 B5FE  20 4A A1  JSR  $A14A
 B601  20 29 A1  JSR  $A129
 B604  20 81 91  JSR  $9181
 B607  A5 00     LDA  $00
 B609  18        CLC  
 B60A  69 04     ADC  #$04
 B60C  85 00     STA  $00
 B60E  90 02     BCC  $B612
 B610  E6 01     INC  $01
 B612  E6 30     INC  $30
 B614  D0 02     BNE  $B618
 B616  E6 31     INC  $31
 B618  20 81 91  JSR  $9181
 B61B  20 BE 8D  JSR  $8DBE
 B61E  CA        DEX  
 B61F  CA        DEX  
 B620  A5 08     LDA  $08
 B622  95 00     STA  $00, X
 B624  A5 09     LDA  $09
 B626  95 01     STA  $01, X
 B628  20 4A A1  JSR  $A14A
 B62B  CA        DEX  
 B62C  CA        DEX  
 B62D  A5 0A     LDA  $0A
 B62F  95 00     STA  $00, X
 B631  A5 0B     LDA  $0B
 B633  95 01     STA  $01, X
 B635  20 D1 95  JSR  $95D1
 B638  18        CLC  
 B639  A5 00     LDA  $00
 B63B  65 0A     ADC  $0A
 B63D  85 00     STA  $00
 B63F  90 06     BCC  $B647
 B641  A5 01     LDA  $01
 B643  65 0B     ADC  $0B
 B645  85 01     STA  $01
 B647  20 38 98  JSR  $9838
 B64A  20 29 A1  JSR  $A129
 B64D  20 C2 97  JSR  $97C2
 B650  20 C2 97  JSR  $97C2
 B653  20 BE 8D  JSR  $8DBE
 B656  A5 0A     LDA  $0A
 B658  95 02     STA  $02, X
 B65A  A5 0B     LDA  $0B
 B65C  95 03     STA  $03, X
 B65E  20 29 A1  JSR  $A129
 B661  20 72 89  JSR  $8972
 B664  4C CD B5  JMP  $B5CD
 B667  FA        PLX  
 B668  20 9F B8  JSR  $B89F
 B66B  20 F4 B8  JSR  $B8F4
 B66E  B5 00     LDA  $00, X
 B670  15 01     ORA  $01, X
 B672  D0 08     BNE  $B67C
 B674  20 38 98  JSR  $9838
 B677  20 B9 B6  JSR  $B6B9
 B67A  80 33     BRA  $B6AF
 B67C  20 AA B8  JSR  $B8AA
 B67F  B0 03     BCS  $B684
 B681  4C 7C B8  JMP  $B87C
 B684  20 54 A3  JSR  $A354
 B687  20 6C 91  JSR  $916C
 B68A  B5 00     LDA  $00, X
 B68C  15 01     ORA  $01, X
 B68E  D0 0D     BNE  $B69D
 B690  E8        INX  
 B691  E8        INX  
 B692  20 BE 8D  JSR  $8DBE
 B695  20 B9 B6  JSR  $B6B9
 B698  20 B6 97  JSR  $97B6
 B69B  80 E7     BRA  $B684
 B69D  E8        INX  
 B69E  E8        INX  
 B69F  B5 02     LDA  $02, X
 B6A1  D0 02     BNE  $B6A5
 B6A3  D6 03     DEC  $03, X
 B6A5  D6 02     DEC  $02, X
 B6A7  B5 02     LDA  $02, X
 B6A9  85 30     STA  $30
 B6AB  B5 03     LDA  $03, X
 B6AD  85 31     STA  $31
 B6AF  A9 40     LDA  #$40
 B6B1  04 32     TSB  $32
 B6B3  20 72 89  JSR  $8972
 B6B6  4C A9 B5  JMP  $B5A9
 B6B9  20 BE 8D  JSR  $8DBE
 B6BC  20 02 B9  JSR  $B902
 B6BF  20 8F 8F  JSR  $8F8F
 B6C2  20 4A A1  JSR  $A14A
 B6C5  20 B6 97  JSR  $97B6
 B6C8  20 02 B9  JSR  $B902
 B6CB  20 29 A1  JSR  $A129
 B6CE  60        RTS  
 B6CF  FA        PLX  
 B6D0  A5 2E     LDA  $2E
 B6D2  05 2F     ORA  $2F
 B6D4  D0 08     BNE  $B6DE
 B6D6  CA        DEX  
 B6D7  CA        DEX  
 B6D8  74 00     STZ  $00, X
 B6DA  74 01     STZ  $01, X
 B6DC  80 21     BRA  $B6FF
 B6DE  20 F4 B8  JSR  $B8F4
 B6E1  24 32     BIT  $32
 B6E3  30 0C     BMI  $B6F1
 B6E5  CA        DEX  
 B6E6  CA        DEX  
 B6E7  A5 30     LDA  $30
 B6E9  95 00     STA  $00, X
 B6EB  A5 31     LDA  $31
 B6ED  95 01     STA  $01, X
 B6EF  80 0E     BRA  $B6FF
 B6F1  B5 00     LDA  $00, X
 B6F3  15 01     ORA  $01, X
 B6F5  D0 05     BNE  $B6FC
 B6F7  20 38 98  JSR  $9838
 B6FA  80 03     BRA  $B6FF
 B6FC  20 BE 8D  JSR  $8DBE
 B6FF  20 72 89  JSR  $8972
 B702  20 CA A4  JSR  $A4CA
 B705  20 72 89  JSR  $8972
 B708  4C A9 B5  JMP  $B5A9
 B70B  FA        PLX  
 B70C  24 32     BIT  $32
 B70E  30 17     BMI  $B727
 B710  20 72 89  JSR  $8972
 B713  20 0C A3  JSR  $A30C
 B716  20 FC 9A  JSR  $9AFC
 B719  20 BE 8D  JSR  $8DBE
 B71C  20 CA A4  JSR  $A4CA
 B71F  20 7D 96  JSR  $967D
 B722  20 37 9A  JSR  $9A37
 B725  80 11     BRA  $B738
 B727  20 38 98  JSR  $9838
 B72A  20 72 89  JSR  $8972
 B72D  20 CA A4  JSR  $A4CA
 B730  B5 02     LDA  $02, X
 B732  95 06     STA  $06, X
 B734  B5 03     LDA  $03, X
 B736  95 07     STA  $07, X
 B738  20 72 89  JSR  $8972
 B73B  4C A9 B5  JMP  $B5A9
 B73E  FA        PLX  
 B73F  E8        INX  
 B740  E8        INX  
 B741  24 32     BIT  $32
 B743  30 08     BMI  $B74D
 B745  A5 30     LDA  $30
 B747  95 00     STA  $00, X
 B749  A5 31     LDA  $31
 B74B  95 01     STA  $01, X
 B74D  B5 00     LDA  $00, X
 B74F  15 01     ORA  $01, X
 B751  F0 09     BEQ  $B75C
 B753  20 B6 97  JSR  $97B6
 B756  20 43 A7  JSR  $A743
 B759  20 27 95  JSR  $9527
 B75C  4C C7 B5  JMP  $B5C7
 B75F  FA        PLX  
 B760  A9 01     LDA  #$01
 B762  04 32     TSB  $32
 B764  80 05     BRA  $B76B
 B766  FA        PLX  
 B767  A9 01     LDA  #$01
 B769  14 32     TRB  $32
 B76B  20 9F B8  JSR  $B89F
 B76E  20 F4 B8  JSR  $B8F4
 B771  20 72 89  JSR  $8972
 B774  B5 00     LDA  $00, X
 B776  15 01     ORA  $01, X
 B778  D0 08     BNE  $B782
 B77A  20 38 98  JSR  $9838
 B77D  20 A3 B7  JSR  $B7A3
 B780  80 1E     BRA  $B7A0
 B782  20 54 A3  JSR  $A354
 B785  20 6C 91  JSR  $916C
 B788  B5 00     LDA  $00, X
 B78A  15 01     ORA  $01, X
 B78C  D0 10     BNE  $B79E
 B78E  E8        INX  
 B78F  E8        INX  
 B790  20 38 98  JSR  $9838
 B793  20 A3 B7  JSR  $B7A3
 B796  F6 02     INC  $02, X
 B798  D0 02     BNE  $B79C
 B79A  F6 03     INC  $03, X
 B79C  80 E4     BRA  $B782
 B79E  E8        INX  
 B79F  E8        INX  
 B7A0  4C A9 B5  JMP  $B5A9
 B7A3  A5 32     LDA  $32
 B7A5  4A        LSR  
 B7A6  90 0B     BCC  $B7B3
 B7A8  20 BE 8D  JSR  $8DBE
 B7AB  20 CA A4  JSR  $A4CA
 B7AE  A9 09     LDA  #$09
 B7B0  20 05 8E  JSR  $8E05
 B7B3  20 02 B9  JSR  $B902
 B7B6  20 42 B9  JSR  $B942
 B7B9  60        RTS  
 B7BA  FA        PLX  
 B7BB  24 32     BIT  $32
 B7BD  50 03     BVC  $B7C2
 B7BF  4C 7C B8  JMP  $B87C
 B7C2  4C B0 B5  JMP  $B5B0
 B7C5  FA        PLX  
 B7C6  4C B0 B5  JMP  $B5B0
 B7C9  FA        PLX  
 B7CA  20 9F B8  JSR  $B89F
 B7CD  24 32     BIT  $32
 B7CF  30 13     BMI  $B7E4
 B7D1  B5 06     LDA  $06, X
 B7D3  15 07     ORA  $07, X
 B7D5  D0 03     BNE  $B7DA
 B7D7  4C 7C B8  JMP  $B87C
 B7DA  B5 06     LDA  $06, X
 B7DC  95 02     STA  $02, X
 B7DE  B5 07     LDA  $07, X
 B7E0  95 03     STA  $03, X
 B7E2  80 08     BRA  $B7EC
 B7E4  B5 02     LDA  $02, X
 B7E6  95 06     STA  $06, X
 B7E8  B5 03     LDA  $03, X
 B7EA  95 07     STA  $07, X
 B7EC  A9 2E     LDA  #$2E
 B7EE  95 00     STA  $00, X
 B7F0  A9 00     LDA  #$00
 B7F2  95 01     STA  $01, X
 B7F4  20 38 98  JSR  $9838
 B7F7  20 0C A3  JSR  $A30C
 B7FA  20 8F 8F  JSR  $8F8F
 B7FD  B5 00     LDA  $00, X
 B7FF  15 01     ORA  $01, X
 B801  F0 55     BEQ  $B858
 B803  20 54 A3  JSR  $A354
 B806  20 3E A4  JSR  $A43E
 B809  20 C2 97  JSR  $97C2
 B80C  20 C2 97  JSR  $97C2
 B80F  20 BE 8D  JSR  $8DBE
 B812  20 8F 8F  JSR  $8F8F
 B815  20 4A A1  JSR  $A14A
 B818  20 C2 97  JSR  $97C2
 B81B  20 C2 97  JSR  $97C2
 B81E  20 8F 8F  JSR  $8F8F
 B821  20 7D 96  JSR  $967D
 B824  20 4A A1  JSR  $A14A
 B827  20 FC 9A  JSR  $9AFC
 B82A  20 BE 8D  JSR  $8DBE
 B82D  20 0C A3  JSR  $A30C
 B830  20 D1 95  JSR  $95D1
 B833  20 37 9A  JSR  $9A37
 B836  20 C4 A3  JSR  $A3C4
 B839  20 7D 96  JSR  $967D
 B83C  20 88 99  JSR  $9988
 B83F  20 BE 8D  JSR  $8DBE
 B842  CA        DEX  
 B843  CA        DEX  
 B844  A9 0A     LDA  #$0A
 B846  95 00     STA  $00, X
 B848  74 01     STZ  $01, X
 B84A  20 4A A1  JSR  $A14A
 B84D  20 29 A1  JSR  $A129
 B850  20 C2 97  JSR  $97C2
 B853  20 4A A1  JSR  $A14A
 B856  80 A2     BRA  $B7FA
 B858  20 4A A1  JSR  $A14A
 B85B  20 37 9A  JSR  $9A37
 B85E  20 5F 95  JSR  $955F
 B861  B5 00     LDA  $00, X
 B863  95 04     STA  $04, X
 B865  B5 01     LDA  $01, X
 B867  95 05     STA  $05, X
 B869  20 72 89  JSR  $8972
 B86C  20 BE 8D  JSR  $8DBE
 B86F  20 CA A4  JSR  $A4CA
 B872  20 72 89  JSR  $8972
 B875  A9 40     LDA  #$40
 B877  14 32     TRB  $32
 B879  4C A9 B5  JMP  $B5A9
 B87C  E8        INX  
 B87D  E8        INX  
 B87E  E8        INX  
 B87F  E8        INX  
 B880  20 72 89  JSR  $8972
 B883  A9 3F     LDA  #$3F
 B885  20 05 8E  JSR  $8E05
 B888  20 72 89  JSR  $8972
 B88B  4C C3 B3  JMP  $B3C3
 B88E  20 9D 9A  JSR  $9A9D
 B891  B5 00     LDA  $00, X
 B893  15 01     ORA  $01, X
 B895  D0 05     BNE  $B89C
 B897  7A        PLY  
 B898  7A        PLY  
 B899  4C 7E B8  JMP  $B87E
 B89C  E8        INX  
 B89D  E8        INX  
 B89E  60        RTS  
 B89F  A5 2E     LDA  $2E
 B8A1  05 2F     ORA  $2F
 B8A3  D0 04     BNE  $B8A9
 B8A5  7A        PLY  
 B8A6  7A        PLY  
 B8A7  80 D7     BRA  $B880
 B8A9  60        RTS  
 B8AA  38        SEC  
 B8AB  B5 00     LDA  $00, X
 B8AD  15 01     ORA  $01, X
 B8AF  F0 19     BEQ  $B8CA
 B8B1  20 BE 8D  JSR  $8DBE
 B8B4  20 CC B8  JSR  $B8CC
 B8B7  20 4A A1  JSR  $A14A
 B8BA  20 77 93  JSR  $9377
 B8BD  B5 00     LDA  $00, X
 B8BF  15 01     ORA  $01, X
 B8C1  D0 05     BNE  $B8C8
 B8C3  E8        INX  
 B8C4  E8        INX  
 B8C5  38        SEC  
 B8C6  80 03     BRA  $B8CB
 B8C8  E8        INX  
 B8C9  E8        INX  
 B8CA  18        CLC  
 B8CB  60        RTS  
 B8CC  64 24     STZ  $24
 B8CE  64 25     STZ  $25
 B8D0  CA        DEX  
 B8D1  CA        DEX  
 B8D2  A9 2E     LDA  #$2E
 B8D4  95 00     STA  $00, X
 B8D6  A9 00     LDA  #$00
 B8D8  95 01     STA  $01, X
 B8DA  20 8F 8F  JSR  $8F8F
 B8DD  B5 00     LDA  $00, X
 B8DF  15 01     ORA  $01, X
 B8E1  F0 08     BEQ  $B8EB
 B8E3  E6 24     INC  $24
 B8E5  D0 02     BNE  $B8E9
 B8E7  E6 25     INC  $25
 B8E9  80 EF     BRA  $B8DA
 B8EB  A5 24     LDA  $24
 B8ED  95 00     STA  $00, X
 B8EF  A5 25     LDA  $25
 B8F1  95 01     STA  $01, X
 B8F3  60        RTS  
 B8F4  B5 02     LDA  $02, X
 B8F6  15 03     ORA  $03, X
 B8F8  D0 07     BNE  $B901
 B8FA  24 32     BIT  $32
 B8FC  10 03     BPL  $B901
 B8FE  4C 7C B8  JMP  $B87C
 B901  60        RTS  
 B902  CA        DEX  
 B903  CA        DEX  
 B904  A9 2E     LDA  #$2E
 B906  95 00     STA  $00, X
 B908  A9 00     LDA  #$00
 B90A  95 01     STA  $01, X
 B90C  B5 02     LDA  $02, X
 B90E  15 03     ORA  $03, X
 B910  D0 05     BNE  $B917
 B912  20 51 96  JSR  $9651
 B915  80 21     BRA  $B938
 B917  20 8F 8F  JSR  $8F8F
 B91A  B5 00     LDA  $00, X
 B91C  15 01     ORA  $01, X
 B91E  D0 05     BNE  $B925
 B920  20 51 96  JSR  $9651
 B923  80 13     BRA  $B938
 B925  20 4A A1  JSR  $A14A
 B928  20 B6 97  JSR  $97B6
 B92B  B5 00     LDA  $00, X
 B92D  15 01     ORA  $01, X
 B92F  F0 05     BEQ  $B936
 B931  20 4A A1  JSR  $A14A
 B934  80 E1     BRA  $B917
 B936  E8        INX  
 B937  E8        INX  
 B938  60        RTS  
 B939  B5 02     LDA  $02, X
 B93B  85 30     STA  $30
 B93D  B5 03     LDA  $03, X
 B93F  85 31     STA  $31
 B941  60        RTS  
 B942  20 C2 97  JSR  $97C2
 B945  20 C2 97  JSR  $97C2
 B948  20 BE 8D  JSR  $8DBE
 B94B  20 C2 97  JSR  $97C2
 B94E  20 C2 97  JSR  $97C2
 B951  20 8F 8F  JSR  $8F8F
 B954  20 4A A1  JSR  $A14A
 B957  20 8F 8F  JSR  $8F8F
 B95A  20 4A A1  JSR  $A14A
 B95D  20 9F A4  JSR  $A49F
 B960  20 72 89  JSR  $8972
 B963  60        RTS  
 B964  61 66 69 64 70 6E 3D 77 71 51 00 B8 B5 0B B7 3E  |afidpn=wqQ.....>|
 B974  B7 67 B6 66 B7 5F B7 CF B6 C9 B7 BA B7 C5 B7 20  |.g.f._......... |
 B984  63 72 20 2E 28 20 54 61 6C 69 20 46 6F 72 74 68  |cr .( Tali Forth|
 B994  20 32 20 66 6F 72 20 74 68 65 20 36 35 63 30 32  | 2 for the 65c02|
 B9A4  29 20 63 72 20 2E 28 20 56 65 72 73 69 6F 6E 20  |) cr .( Version |
 B9B4  42 45 54 41 20 33 31 2E 20 44 65 63 20 32 30 31  |BETA 31. Dec 201|
 B9C4  38 20 29 20 63 72 20 2E 28 20 43 6F 70 79 72 69  |8 ) cr .( Copyri|
 B9D4  67 68 74 20 32 30 31 34 2D 32 30 31 39 20 53 63  |ght 2014-2019 Sc|
 B9E4  6F 74 20 57 2E 20 53 74 65 76 65 6E 73 6F 6E 29  |ot W. Stevenson)|
 B9F4  20 63 72 20 2E 28 20 54 61 6C 69 20 46 6F 72 74  | cr .( Tali Fort|
 BA04  68 20 32 20 63 6F 6D 65 73 20 77 69 74 68 20 61  |h 2 comes with a|
 BA14  62 73 6F 6C 75 74 65 6C 79 20 4E 4F 20 57 41 52  |bsolutely NO WAR|
 BA24  52 41 4E 54 59 29 20 63 72 20 2E 28 20 54 79 70  |RANTY) cr .( Typ|
 BA34  65 20 27 62 79 65 27 20 74 6F 20 65 78 69 74 29  |e 'bye' to exit)|
 BA44  20 63 72 20 20 20 03 00 00 00 07 86 08 86 62 79  | cr   ........by|
 BA54  65 04 00 4A BA 00 80 C5 80 63 6F 6C 64 02 08 55  |e..J.....cold..U|
 BA64  BA CC 8D CF 8D 65 64 03 08 61 BA 25 9C B2 9C 73  |.....ed..a.%...s|
 BA74  65 65 05 00 6B BA D7 90 DD 90 66 6F 72 74 68 05  |ee..k.....forth.|
 BA84  00 76 BA EA 97 14 98 6F 72 64 65 72 06 00 83 BA  |.v.....order....|
 BA94  F9 A2 0B A3 3E 6F 72 64 65 72 08 00 90 BA FA 99  |....>order......|
 BAA4  06 9A 70 72 65 76 69 6F 75 73 04 00 9E BA 3A 83  |..previous....:.|
 BAB4  49 83 61 6C 73 6F 04 00 AE BA CC 97 D7 97 6F 6E  |I.also........on|
 BAC4  6C 79 0E 00 BA BA 43 A7 49 A7 66 6F 72 74 68 2D  |ly....C.I.forth-|
 BAD4  77 6F 72 64 6C 69 73 74 0F 00 C6 BA AD 97 B5 97  |wordlist........|
 BAE4  65 64 69 74 6F 72 2D 77 6F 72 64 6C 69 73 74 12  |editor-wordlist.|
 BAF4  00 DC BA 43 A3 4B A3 61 73 73 65 6D 62 6C 65 72  |...C.K.assembler|
 BB04  2D 77 6F 72 64 6C 69 73 74 0D 00 F3 BA F3 9A FB  |-wordlist.......|
 BB14  9A 72 6F 6F 74 2D 77 6F 72 64 6C 69 73 74 09 00  |.root-wordlist..|
 BB24  0D BB 43 91 6B 91 67 65 74 2D 6F 72 64 65 72 09  |..C.k.get-order.|
 BB34  00 22 BB BF 9C F2 9C 73 65 74 2D 6F 72 64 65 72  |.".....set-order|
 BB44  0B 00 33 BB 38 91 42 91 67 65 74 2D 63 75 72 72  |..3.8.B.get-curr|
 BB54  65 6E 74 0B 10 44 BB B3 9C BE 9C 73 65 74 2D 63  |ent..D.....set-c|
 BB64  75 72 72 65 6E 74 0F 10 57 BB 44 9B 24 9C 73 65  |urrent..W.D.$.se|
 BB74  61 72 63 68 2D 77 6F 72 64 6C 69 73 74 08 00 6A  |arch-wordlist..j|
 BB84  BB 9D A6 B3 A6 77 6F 72 64 6C 69 73 74 0B 00 81  |.....wordlist...|
 BB94  BB FC 8A 04 8B 64 65 66 69 6E 69 74 69 6F 6E 73  |.....definitions|
 BBA4  13 10 91 BB 1E 84 46 85 62 6C 6F 63 6B 2D 72 61  |......F.block-ra|
 BBB4  6D 64 72 69 76 65 2D 69 6E 69 74 04 10 A4 BB 8C  |mdrive-init.....|
 BBC4  93 98 93 6C 69 73 74 04 10 BF BB 68 A1 AC A1 74  |...list....h...t|
 BBD4  68 72 75 04 10 CB BB C6 93 09 94 6C 6F 61 64 05  |hru........load.|
 BBE4  00 D7 BB 96 90 9F 90 66 6C 75 73 68 0D 00 E3 BB  |.......flush....|
 BBF4  08 8E 0E 8E 65 6D 70 74 79 2D 62 75 66 66 65 72  |....empty-buffer|
 BC04  73 06 00 F0 BB BF 85 EF 85 62 75 66 66 65 72 06  |s........buffer.|
 BC14  00 05 BC 00 A6 08 A6 75 70 64 61 74 65 05 00 13  |.......update...|
 BC24  BC CB 83 1D 84 62 6C 6F 63 6B 0C 00 21 BC 62 9E  |.....block..!.b.|
 BC34  7C 9E 73 61 76 65 2D 62 75 66 66 65 72 73 11 28  ||.save-buffers.(|
 BC44  2E BC 55 85 64 85 62 6C 6F 63 6B 2D 72 65 61 64  |..U.d.block-read|
 BC54  2D 76 65 63 74 6F 72 0A 28 42 BC 47 85 55 85 62  |-vector.(B.G.U.b|
 BC64  6C 6F 63 6B 2D 72 65 61 64 12 08 5B BC 78 85 87  |lock-read..[.x..|
 BC74  85 62 6C 6F 63 6B 2D 77 72 69 74 65 2D 76 65 63  |.block-write-vec|
 BC84  74 6F 72 0B 08 6D BC 6A 85 78 85 62 6C 6F 63 6B  |tor..m.j.x.block|
 BC94  2D 77 72 69 74 65 03 00 87 BC AD 83 BC 83 62 6C  |-write........bl|
 BCA4  6B 03 00 9A BC 7D 9E 8C 9E 73 63 72 09 00 A5 BC  |k....}...scr....|
 BCB4  BD 83 CA 83 62 6C 6B 62 75 66 66 65 72 0C 00 B0  |....blkbuffer...|
 BCC4  BC AF 85 BE 85 62 75 66 66 62 6C 6F 63 6B 6E 75  |.....buffblocknu|
 BCD4  6D 0A 00 C1 BC F7 85 06 86 62 75 66 66 73 74 61  |m........buffsta|
 BCE4  74 75 73 07 00 D5 BC F0 85 F6 85 62 75 66 66 65  |tus........buffe|
 BCF4  72 3A 08 00 E7 BC 09 A6 13 A6 75 73 65 72 61 64  |r:........userad|
 BD04  64 72 09 04 F6 BC 8A 82 A2 82 61 63 74 69 6F 6E  |dr........action|
 BD14  2D 6F 66 02 04 06 BD 0A 93 22 93 69 73 06 00 17  |-of......".is...|
 BD24  BD F5 8A FB 8A 64 65 66 65 72 21 06 00 21 BD EE  |.....defer!..!..|
 BD34  8A F4 8A 64 65 66 65 72 40 07 0D 2F BD 0F 8E 23  |...defer@../...#|
 BD44  8E 65 6E 64 63 61 73 65 05 0D 3D BD D0 8D E9 8D  |.endcase..=.....|
 BD54  65 6E 64 6F 66 02 0D 4C BD 94 97 AC 97 6F 66 04  |endof..L.....of.|
 BD64  0D 59 BD 43 A7 49 A7 63 61 73 65 05 0D 63 BD 2D  |.Y.C.I.case..c.-|
 BD74  A6 40 A6 77 68 69 6C 65 05 0D 6F BD E5 A5 EF A5  |.@.while..o.....|
 BD84  75 6E 74 69 6C 06 0D 7C BD DF 9A EB 9A 72 65 70  |until..|.....rep|
 BD94  65 61 74 04 0D 89 BD D0 8D E9 8D 65 6C 73 65 04  |eat........else.|
 BDA4  0D 97 BD 5E A1 67 A1 74 68 65 6E 02 0D A3 BD 12  |...^.g.then.....|
 BDB4  92 22 92 69 66 02 04 AF BD 67 8C 75 8C 2E 28 01  |.".if....g.u..(.|
 BDC4  04 B9 BD 74 98 83 98 28 04 10 C3 BD 57 A6 9C A6  |...t...(....W...|
 BDD4  77 6F 72 64 04 10 CC BD A2 8F E9 8F 66 69 6E 64  |word........find|
 BDE4  0C 10 D8 BD 24 8E A0 8E 65 6E 76 69 72 6F 6E 6D  |....$...environm|
 BDF4  65 6E 74 3F 06 18 E4 BD 8D 9E 2B 9F 73 65 61 72  |ent?......+.sear|
 BE04  63 68 07 10 F8 BD 97 87 FB 87 63 6F 6D 70 61 72  |ch........compar|
 BE14  65 06 10 06 BE 49 8B 4F 8B 64 69 73 61 73 6D 02  |e....I.O.disasm.|
 BE24  00 15 BE AF 8C F2 8C 2E 73 04 10 23 BE 43 8D A9  |........s..#.C..|
 BE34  8D 64 75 6D 70 04 00 2D BE 9E 83 A3 83 62 65 6C  |.dump..-.....bel|
 BE44  6C 05 00 39 BE C4 82 C4 82 61 6C 69 67 6E 07 00  |l..9.....align..|
 BE54  45 BE C4 82 C4 82 61 6C 69 67 6E 65 64 08 10 52  |E.....aligned..R|
 BE64  BE 10 A7 30 A7 77 6F 72 64 73 69 7A 65 05 00 61  |...0.wordsize..a|
 BE74  BE B4 A6 0F A7 77 6F 72 64 73 06 04 71 BE B8 94  |.....words..q...|
 BE84  F5 94 6D 61 72 6B 65 72 05 10 7E BE 6A 83 87 83  |..marker..~.j...|
 BE94  61 74 2D 78 79 04 00 8C BE 56 98 73 98 70 61 67  |at-xy....V.s.pag|
 BEA4  65 02 00 99 BE 72 89 77 89 63 72 05 00 A5 BE 66  |e....r.w.cr....f|
 BEB4  92 70 92 69 6E 70 75 74 06 00 AF BE 2D 98 37 98  |.p.input....-.7.|
 BEC4  6F 75 74 70 75 74 04 10 BC BE 8D 9F A1 9F 73 69  |output........si|
 BED4  67 6E 04 10 CA BE E6 91 F7 91 68 6F 6C 64 02 10  |gn........hold..|
 BEE4  D6 BE 61 97 82 97 23 3E 02 10 E2 BE 83 97 93 97  |..a...#>........|
 BEF4  23 73 01 10 EC BE 2C 97 60 97 23 02 00 F6 BE 69  |#s....,.`.#....i|
 BF04  93 76 93 3C 23 03 00 FF BE 4E A2 58 A2 3E 69 6E  |.v.<#....N.X.>in|
 BF14  06 10 09 BF 41 A6 56 A6 77 69 74 68 69 6E 08 10  |....A.V.within..|
 BF24  14 BF 93 91 E5 91 68 65 78 73 74 6F 72 65 06 10  |......hexstore..|
 BF34  22 BF 55 86 A1 86 63 6C 65 61 76 65 03 00 32 BF  |".U...cleave..2.|
 BF44  46 98 55 98 70 61 64 05 10 40 BF A2 86 DC 86 63  |F.U.pad..@.....c|
 BF54  6D 6F 76 65 06 10 4B BF DD 86 17 87 63 6D 6F 76  |move..K.....cmov|
 BF64  65 3E 04 18 58 BF D1 95 EF 95 6D 6F 76 65 01 04  |e>..X.....move..|
 BF74  66 BF 88 83 90 83 5C 02 10 72 BF 05 A1 0D A1 2A  |f.....\..r.....*|
 BF84  2F 05 10 7B BF 0E A1 1D A1 2A 2F 6D 6F 64 03 10  |/..{.....*/mod..|
 BF94  85 BF C8 95 D0 95 6D 6F 64 04 10 92 BF A7 9F BE  |......mod.......|
 BFA4  9F 2F 6D 6F 64 01 10 9D BF A2 9F BE 9F 2F 06 10  |./mod......../..|
 BFB4  A9 BF A0 90 D6 90 66 6D 2F 6D 6F 64 06 10 B2 BF  |......fm/mod....|
 BFC4  7B A0 A3 A0 73 6D 2F 72 65 6D 06 10 C0 BF 56 A5  |{...sm/rem....V.|
 BFD4  97 A5 75 6D 2F 6D 6F 64 01 10 CE BF FC A0 04 A1  |..um/mod........|
 BFE4  2A 03 10 DC BF 98 A5 DD A5 75 6D 2A 02 10 E5 BF  |*........um*....|
 BFF4  9D 94 B7 94 6D 2A 05 10 F0 BF 5E 89 71 89 63 6F  |....m*....^.q.co|
 C004  75 6E 74 07 00 FA BF B4 8A BA 8A 64 65 63 69 6D  |unt........decim|
 C014  61 6C 03 00 07 C0 8C 91 92 91 68 65 78 07 10 16  |al........hex...|
 C024  C0 59 A2 F8 A2 3E 6E 75 6D 62 65 72 06 10 21 C0  |.Y...>number..!.|
 C034  99 96 2B 97 6E 75 6D 62 65 72 06 10 30 C0 14 8B  |..+.number..0...|
 C044  48 8B 64 69 67 69 74 3F 04 00 3E C0 91 83 99 83  |H.digit?..>.....|
 C054  62 61 73 65 08 10 4C C0 E4 90 37 91 65 76 61 6C  |base..L...7.eval|
 C064  75 61 74 65 05 00 58 C0 1E A1 28 A1 73 74 61 74  |uate..X...(.stat|
 C074  65 05 17 68 C0 A3 82 C3 82 61 67 61 69 6E 05 07  |e..h.....again..|
 C084  75 C0 9A 83 9D 83 62 65 67 69 6E 04 00 82 C0 83  |u.....begin.....|
 C094  80 C5 80 71 75 69 74 07 0D 8F C0 60 9A 9C 9A 72  |...quit....`...r|
 C0A4  65 63 75 72 73 65 05 03 9B C0 5F 93 64 93 6C 65  |ecurse...._.d.le|
 C0B4  61 76 65 06 03 AA C0 DE A5 E4 A5 75 6E 6C 6F 6F  |ave........unloo|
 C0C4  70 04 03 B7 C0 87 8F 88 8F 65 78 69 74 05 05 C5  |p........exit...|
 C0D4  C0 11 94 77 94 2B 6C 6F 6F 70 04 05 D1 C0 0A 94  |...w.+loop......|
 C0E4  77 94 6C 6F 6F 70 01 03 DE C0 23 93 3C 93 6A 01  |w.loop....#.<.j.|
 C0F4  03 EA C0 F8 91 11 92 69 03 0D F3 C0 6B 8B CB 8B  |.......i....k...|
 C104  3F 64 6F 02 0D FC C0 71 8B CB 8B 64 6F 06 0D 07  |?do....q...do...|
 C114  C1 19 81 23 81 61 62 6F 72 74 22 05 00 11 C1 81  |...#.abort".....|
 C124  80 C5 80 61 62 6F 72 74 0F 00 1F C1 3F A1 49 A1  |...abort....?.I.|
 C134  73 74 72 69 70 2D 75 6E 64 65 72 66 6C 6F 77 08  |strip-underflow.|
 C144  00 2C C1 27 96 31 96 6E 63 2D 6C 69 6D 69 74 0C  |.,.'.1.nc-limit.|
 C154  00 43 C1 2E 83 39 83 61 6C 6C 6F 77 2D 6E 61 74  |.C...9.allow-nat|
 C164  69 76 65 0D 00 53 C1 4A 83 57 83 61 6C 77 61 79  |ive..S.J.W.alway|
 C174  73 2D 6E 61 74 69 76 65 0C 00 67 C1 43 96 50 96  |s-native..g.C.P.|
 C184  6E 65 76 65 72 2D 6E 61 74 69 76 65 0C 00 7C C1  |never-native..|.|
 C194  14 89 1F 89 63 6F 6D 70 69 6C 65 2D 6F 6E 6C 79  |....compile-only|
 C1A4  09 00 90 C1 5A 92 65 92 69 6D 6D 65 64 69 61 74  |....Z.e.immediat|
 C1B4  65 08 05 A4 C1 BB 99 F9 99 70 6F 73 74 70 6F 6E  |e........postpon|
 C1C4  65 03 04 B5 C1 2C 9B 35 9B 73 5C 22 02 0C C5 C1  |e....,.5.s\"....|
 C1D4  F3 9C 4F 9E 73 22 02 05 D0 C1 76 8C 80 8C 2E 22  |..O.s"....v...."|
 C1E4  08 15 DA C1 DF 9F 4E A0 73 6C 69 74 65 72 61 6C  |......N.sliteral|
 C1F4  07 15 E4 C1 99 93 A6 93 6C 69 74 65 72 61 6C 01  |........literal.|
 C204  04 F4 C1 EC 9A F2 9A 5D 01 05 03 C2 64 93 68 93  |.......]....d.h.|
 C214  5B 08 18 0C C2 FC 87 13 89 63 6F 6D 70 69 6C 65  |[........compile|
 C224  2C 07 00 15 C2 5F 87 7C 87 3A 6E 6F 6E 61 6D 65  |,...._.|.:noname|
 C234  01 05 25 C2 2C 9F 8C 9F 3B 01 00 34 C2 18 87 5E  |..%.,...;..4...^|
 C244  87 3A 09 00 3D C2 B9 A0 C3 A0 73 6F 75 72 63 65  |.:..=.....source|
 C254  2D 69 64 06 00 46 C2 A4 A0 B8 A0 73 6F 75 72 63  |-id..F.....sourc|
 C264  65 0F 10 57 C2 60 8F 86 8F 65 78 65 63 75 74 65  |e..W.`...execute|
 C274  2D 70 61 72 73 69 6E 67 05 10 65 C2 DF 98 76 99  |-parsing..e...v.|
 C284  70 61 72 73 65 0A 08 7C C2 84 98 76 99 70 61 72  |parse..|...v.par|
 C294  73 65 2D 6E 61 6D 65 08 00 89 C2 4A 93 57 93 6C  |se-name....J.W.l|
 C2A4  61 74 65 73 74 6E 74 08 00 9B C2 58 93 5E 93 6C  |atestnt....X.^.l|
 C2B4  61 74 65 73 74 78 74 05 00 AB C2 BB 8A ED 8A 64  |atestxt........d|
 C2C4  65 66 65 72 05 10 BB C2 29 A2 4D A2 3E 62 6F 64  |efer....).M.>bod|
 C2D4  79 0B 10 C8 C2 0D 96 26 96 6E 61 6D 65 3E 73 74  |y......&.name>st|
 C2E4  72 69 6E 67 08 10 D5 C2 87 92 F9 92 69 6E 74 3E  |ring........int>|
 C2F4  6E 61 6D 65 08 10 E8 C2 F0 95 0C 96 6E 61 6D 65  |name........name|
 C304  3E 69 6E 74 03 05 F8 C2 A8 85 AE 85 5B 27 5D 01  |>int........['].|
 C314  00 08 C3 AD A1 CC A1 27 09 10 13 C3 EA 8F 95 90  |.......'........|
 C324  66 69 6E 64 2D 6E 61 6D 65 04 10 1C C3 09 8F 4B  |find-name......K|
 C334  8F 66 69 6C 6C 05 00 2D C3 F9 8E 4B 8F 62 6C 61  |.fill..-...K.bla|
 C344  6E 6B 05 00 39 C3 03 8F 4B 8F 65 72 61 73 65 02  |nk..9...K.erase.|
 C354  10 46 C3 6E 8A 8E 8A 64 2B 02 10 53 C3 4D 8A 6D  |.F.n...d+..S.M.m|
 C364  8A 64 2D 03 10 5D C3 8F 8A 94 8A 64 3E 73 03 10  |.d-..].....d>s..|
 C374  67 C3 50 9E 61 9E 73 3E 64 02 0C 72 C3 CD A1 28  |g.P.a.s>d..r...(|
 C384  A2 74 6F 05 10 7D C3 20 89 5D 89 76 61 6C 75 65  |.to..}. .].value|
 C394  08 10 87 C3 20 89 5D 89 63 6F 6E 73 74 61 6E 74  |.... .].constant|
 C3A4  08 00 94 C3 14 A6 2C A6 76 61 72 69 61 62 6C 65  |......,.variable|
 C3B4  05 05 A4 C3 04 8C 12 8C 64 6F 65 73 3E 06 00 B4  |........does>...|
 C3C4  C3 78 89 4C 8A 63 72 65 61 74 65 05 10 C1 C3 C5  |.x.L.create.....|
 C3D4  82 2D 83 61 6C 6C 6F 74 03 00 CF C3 3D 93 46 93  |.-.allot....=.F.|
 C3E4  6B 65 79 05 00 DC C3 05 8B 13 8B 64 65 70 74 68  |key........depth|
 C3F4  06 00 E7 C3 F0 A5 FF A5 75 6E 75 73 65 64 07 08  |........unused..|
 C404  F4 C3 48 9A 5F 9A 72 3E 69 6E 70 75 74 07 08 02  |..H._.r>input...|
 C414  C4 71 92 86 92 69 6E 70 75 74 3E 72 06 18 11 C4  |.q...input>r....|
 C424  4E 81 89 82 61 63 63 65 70 74 06 00 20 C4 9D 9A  |N...accept.. ...|
 C434  DE 9A 72 65 66 69 6C 6C 07 10 2E C4 BF 9F DE 9F  |..refill........|
 C444  2F 73 74 72 69 6E 67 08 10 3C C4 72 95 8A 95 2D  |/string..<.r...-|
 C454  6C 65 61 64 69 6E 67 09 10 4B C4 8B 95 C7 95 2D  |leading..K.....-|
 C464  74 72 61 69 6C 69 6E 67 02 00 5B C4 A4 83 AC 83  |trailing..[.....|
 C474  62 6C 06 10 6C C4 CA A0 FB A0 73 70 61 63 65 73  |bl..l.....spaces|
 C484  06 10 76 C4 88 85 A0 85 62 6F 75 6E 64 73 02 10  |..v.....bounds..|
 C494  84 C4 09 86 13 86 63 2C 07 10 92 C4 50 8B 6A 8B  |......c,....P.j.|
 C4A4  64 6E 65 67 61 74 65 06 10 9C C4 32 96 42 96 6E  |dnegate....2.B.n|
 C4B4  65 67 61 74 65 06 10 AB C4 FA 92 09 93 69 6E 76  |egate........inv|
 C4C4  65 72 74 03 11 B9 C4 3E A4 5D A4 32 3E 72 03 01  |ert....>.].2>r..|
 C4D4  C7 C4 C4 A3 E0 A3 32 72 3E 03 09 D2 C4 A6 A3 C3  |......2r>.......|
 C4E4  A3 32 72 40 08 14 DD C4 83 A4 8F A4 32 6C 69 74  |.2r@........2lit|
 C4F4  65 72 61 6C 09 10 E8 C4 5E A4 82 A4 32 63 6F 6E  |eral....^...2con|
 C504  73 74 61 6E 74 09 00 F8 C4 90 A4 9E A4 32 76 61  |stant........2va|
 C514  72 69 61 62 6C 65 02 10 09 C5 6C A3 8D A3 32 40  |riable....l...2@|
 C524  02 10 1A C5 F4 A3 19 A4 32 21 05 10 24 C5 8E A3  |........2!..$...|
 C534  A5 A3 32 6F 76 65 72 05 10 2E C5 1A A4 3D A4 32  |..2over......=.2|
 C544  73 77 61 70 05 10 3B C5 4C A3 53 A3 32 64 72 6F  |swap..;.L.S.2dro|
 C554  70 03 10 48 C5 27 95 42 95 6D 61 78 03 10 55 C5  |p..H.'.B.max..U.|
 C564  43 95 5E 95 6D 69 6E 02 10 60 C5 72 A7 81 A7 30  |C.^.min..`.r...0|
 C574  3C 02 10 6B C5 5E A7 71 A7 30 3E 03 10 75 C5 82  |<..k.^.q.0>..u..|
 C584  A7 93 A7 30 3C 3E 02 10 7F C5 4A A7 5D A7 30 3D  |...0<>....J.].0=|
 C594  01 10 8A C5 6C 91 80 91 3E 02 10 94 C5 F8 A4 0D  |....l...>.......|
 C5A4  A5 75 3E 02 10 9D C5 0E A5 23 A5 75 3C 01 10 A7  |.u>......#.u<...|
 C5B4  C5 77 93 8B 93 3C 02 10 B1 C5 5F 96 7C 96 3C 3E  |.w...<...._.|.<>|
 C5C4  01 10 BA C5 DD 8E F8 8E 3D 02 10 C4 C5 E1 A3 EB  |........=.......|
 C5D4  A3 32 2F 02 10 CD C5 EC A3 F3 A3 32 2A 02 10 D7  |.2/........2*...|
 C5E4  C5 C2 97 CB 97 31 2B 02 10 E1 C5 B6 97 C1 97 31  |.....1+........1|
 C5F4  2D 04 00 EB C5 81 91 8B 91 68 65 72 65 05 10 F5  |-........here...|
 C604  C5 2A 86 39 86 63 65 6C 6C 2B 05 00 01 C6 EC A3  |.*.9.cell+......|
 C614  F3 A3 63 65 6C 6C 73 05 12 0E C6 51 86 54 86 63  |..cells....Q.T.c|
 C624  68 61 72 73 05 00 1B C6 C2 97 CB 97 63 68 61 72  |hars........char|
 C634  2B 06 05 28 C6 A1 85 A7 85 5B 63 68 61 72 5D 04  |+..(.....[char].|
 C644  00 35 C6 3A 86 50 86 63 68 61 72 04 00 43 C6 77  |.5.:.P.char..C.w|
 C654  99 87 99 70 69 63 6B 06 10 4F C6 89 94 9C 94 6C  |...pick..O.....l|
 C664  73 68 69 66 74 06 10 5B C6 18 9B 2B 9B 72 73 68  |shift..[...+.rsh|
 C674  69 66 74 03 10 69 C6 31 A7 42 A7 78 6F 72 02 10  |ift..i.1.B.xor..|
 C684  77 C6 D8 97 E9 97 6F 72 03 10 82 C6 58 83 69 83  |w.....or....X.i.|
 C694  61 6E 64 04 10 8C C6 95 8A B3 8A 64 61 62 73 03  |and........dabs.|
 C6A4  10 97 C6 39 81 4D 81 61 62 73 01 10 A3 C6 5F 95  |...9.M.abs...._.|
 C6B4  71 95 2D 01 10 AE C6 88 99 9A 99 2B 04 10 B7 C6  |q.-........+....|
 C6C4  0E 9A 21 9A 3F 64 75 70 04 10 C0 C6 54 A3 6B A3  |..!.?dup....T.k.|
 C6D4  32 64 75 70 01 00 CC C6 43 A3 4B A3 32 01 00 D8  |2dup....C.K.2...|
 C6E4  C6 AD 97 B5 97 31 01 00 E1 C6 43 A7 49 A7 30 05  |.....1....C.I.0.|
 C6F4  00 EA C6 C4 A0 C9 A0 73 70 61 63 65 04 00 F3 C6  |.......space....|
 C704  20 A3 28 A3 74 72 75 65 05 00 00 C7 88 8F 8E 8F  | .(.true........|
 C714  66 61 6C 73 65 01 00 0C C7 07 9A 0D 9A 3F 04 10  |false........?..|
 C724  19 C7 37 A5 55 A5 75 64 2E 72 03 10 22 C7 24 A5  |..7.U.ud.r..".$.|
 C734  36 A5 75 64 2E 03 10 2E C7 12 8D 3C 8D 64 2E 72  |6.ud.......<.d.r|
 C744  02 10 39 C7 F3 8C 11 8D 64 2E 02 10 44 C7 81 8C  |..9.....d...D...|
 C754  AE 8C 2E 72 03 10 4E C7 D6 A4 F7 A4 75 2E 72 02  |...r..N.....u.r.|
 C764  10 58 C7 CA A4 D5 A4 75 2E 01 10 63 C7 45 8C 66  |.X.....u...c.E.f|
 C774  8C 2E 04 10 6D C7 9F A4 C9 A4 74 79 70 65 04 18  |....m.....type..|
 C784  76 C7 FE 8D 08 8E 65 6D 69 74 07 10 82 C7 4C 8F  |v.....emit....L.|
 C794  52 8F 65 78 65 63 75 74 65 02 10 8E C7 9B 99 BA  |R.execute.......|
 C7A4  99 2B 21 02 10 9D C7 1E 86 29 86 63 21 02 10 A7  |.+!......).c!...|
 C7B4  C7 14 86 1D 86 63 40 01 10 B1 C7 7D 87 96 87 2C  |.....c@....}...,|
 C7C4  04 10 BB C7 29 A3 42 A3 74 75 63 6B 04 10 C4 C7  |....).B.tuck....|
 C7D4  7D 96 98 96 2D 72 6F 74 03 10 D0 C7 FC 9A 17 9B  |}...-rot........|
 C7E4  72 6F 74 03 10 DC C7 51 96 5E 96 6E 69 70 02 01  |rot....Q.^.nip..|
 C7F4  E7 C7 22 9A 36 9A 72 40 02 01 F2 C7 37 9A 47 9A  |..".6.r@....7.G.|
 C804  72 3E 02 11 FC C7 0C A3 1F A3 3E 72 04 10 06 C8  |r>........>r....|
 C814  38 98 45 98 6F 76 65 72 01 10 10 C8 8F 8F A1 8F  |8.E.over........|
 C824  40 01 10 1C C8 29 A1 3E A1 21 04 10 25 C8 4A A1  |@....).>.!..%.J.|
 C834  5D A1 73 77 61 70 03 10 2E C8 BE 8D CB 8D 64 75  |].swap........du|
 C844  70 04 10 3A C8 3D 8D 42 8D 64 72 6F 70 05 00 00  |p..:.=.B.drop...|
 C854  00 B4 A6 0F A7 77 6F 72 64 73 0E 00 51 C8 43 A7  |.....words..Q.C.|
 C864  49 A7 66 6F 72 74 68 2D 77 6F 72 64 6C 69 73 74  |I.forth-wordlist|
 C874  05 00 5E C8 D7 90 DD 90 66 6F 72 74 68 09 00 74  |..^.....forth..t|
 C884  C8 BF 9C F2 9C 73 65 74 2D 6F 72 64 65 72 0C 00  |.....set-order..|
 C894  00 00 A1 A7 BC A7 65 6E 74 65 72 2D 73 63 72 65  |......enter-scre|
 C8A4  65 6E 0C 00 92 C8 BD A7 CE A7 65 72 61 73 65 2D  |en........erase-|
 C8B4  73 63 72 65 65 6E 02 00 A6 C8 CF A7 E0 A7 65 6C  |screen........el|
 C8C4  01 00 BA C8 E1 A7 5C A8 6C 04 10 C4 C8 5D A8 75  |......\.l....].u|
 C8D4  A8 6C 69 6E 65 01 00 CD C8 76 A8 BB A8 6F 05 04  |.line....v...o..|
 C8E4  EF C8 BC A8 C1 A8 61 64 63 2E 23 05 04 FC C8 C1  |......adc.#.....|
 C8F4  A8 C6 A8 61 64 63 2E 78 05 04 09 C9 C6 A8 CB A8  |...adc.x........|
 C904  61 64 63 2E 79 05 04 16 C9 CB A8 D0 A8 61 64 63  |adc.y........adc|
 C914  2E 7A 06 04 24 C9 D0 A8 D5 A8 61 64 63 2E 7A 69  |.z..$.....adc.zi|
 C924  07 04 33 C9 D5 A8 DA A8 61 64 63 2E 7A 69 79 06  |..3.....adc.ziy.|
 C934  04 41 C9 DA A8 DF A8 61 64 63 2E 7A 78 07 04 50  |.A.....adc.zx..P|
 C944  C9 DF A8 E4 A8 61 64 63 2E 7A 78 69 04 04 5C C9  |.....adc.zxi..\.|
 C954  E4 A8 E9 A8 61 6E 64 2E 05 04 69 C9 E9 A8 EE A8  |....and...i.....|
 C964  61 6E 64 2E 23 05 04 76 C9 EE A8 F3 A8 61 6E 64  |and.#..v.....and|
 C974  2E 78 05 04 83 C9 F3 A8 F8 A8 61 6E 64 2E 79 05  |.x........and.y.|
 C984  04 90 C9 F8 A8 FD A8 61 6E 64 2E 7A 06 04 9E C9  |.......and.z....|
 C994  FD A8 02 A9 61 6E 64 2E 7A 69 07 04 AD C9 02 A9  |....and.zi......|
 C9A4  07 A9 61 6E 64 2E 7A 69 79 06 04 BB C9 07 A9 0C  |..and.ziy.......|
 C9B4  A9 61 6E 64 2E 7A 78 07 04 CA C9 0C A9 11 A9 61  |.and.zx........a|
 C9C4  6E 64 2E 7A 78 69 03 04 D5 C9 11 A9 16 A9 61 73  |nd.zxi........as|
 C9D4  6C 05 04 E2 C9 16 A9 1B A9 61 73 6C 2E 61 05 04  |l........asl.a..|
 C9E4  EF C9 1B A9 20 A9 61 73 6C 2E 78 05 04 FC C9 20  |.... .asl.x.... |
 C9F4  A9 25 A9 61 73 6C 2E 7A 06 04 0A CA 25 A9 2A A9  |.%.asl.z....%.*.|
 CA04  61 73 6C 2E 7A 78 03 04 15 CA 2A A9 2F A9 62 63  |asl.zx....*./.bc|
 CA14  63 03 04 20 CA 2F A9 36 A9 62 63 73 03 04 2B CA  |c.. ./.6.bcs..+.|
 CA24  36 A9 3B A9 62 65 71 03 04 36 CA 3B A9 40 A9 62  |6.;.beq..6.;.@.b|
 CA34  69 74 05 04 43 CA 40 A9 45 A9 62 69 74 2E 23 05  |it..C.@.E.bit.#.|
 CA44  04 50 CA 45 A9 4A A9 62 69 74 2E 78 05 04 5D CA  |.P.E.J.bit.x..].|
 CA54  4A A9 4F A9 62 69 74 2E 7A 06 04 6B CA 4F A9 54  |J.O.bit.z..k.O.T|
 CA64  A9 62 69 74 2E 7A 78 03 04 76 CA 54 A9 59 A9 62  |.bit.zx..v.T.Y.b|
 CA74  6D 69 03 04 81 CA 59 A9 5E A9 62 6E 65 03 04 8C  |mi....Y.^.bne...|
 CA84  CA 5E A9 63 A9 62 70 6C 03 04 97 CA 63 A9 68 A9  |.^.c.bpl....c.h.|
 CA94  62 72 61 03 04 A2 CA 68 A9 6D A9 62 72 6B 03 04  |bra....h.m.brk..|
 CAA4  AD CA 6D A9 72 A9 62 76 63 03 04 B8 CA 72 A9 77  |..m.r.bvc....r.w|
 CAB4  A9 62 76 73 03 04 C3 CA 77 A9 7C A9 63 6C 63 03  |.bvs....w.|.clc.|
 CAC4  04 CE CA 7C A9 81 A9 63 6C 64 03 04 D9 CA 81 A9  |...|...cld......|
 CAD4  86 A9 63 6C 69 03 04 E4 CA 86 A9 8B A9 63 6C 76  |..cli........clv|
 CAE4  03 04 EF CA 8B A9 90 A9 63 6D 70 05 04 FC CA 90  |........cmp.....|
 CAF4  A9 95 A9 63 6D 70 2E 23 05 04 09 CB 95 A9 9A A9  |...cmp.#........|
 CB04  63 6D 70 2E 78 05 04 16 CB 9A A9 9F A9 63 6D 70  |cmp.x........cmp|
 CB14  2E 79 05 04 23 CB 9F A9 A4 A9 63 6D 70 2E 7A 06  |.y..#.....cmp.z.|
 CB24  04 31 CB A4 A9 A9 A9 63 6D 70 2E 7A 69 07 04 40  |.1.....cmp.zi..@|
 CB34  CB A9 A9 AE A9 63 6D 70 2E 7A 69 79 06 04 4E CB  |.....cmp.ziy..N.|
 CB44  AE A9 B3 A9 63 6D 70 2E 7A 78 07 04 5D CB B3 A9  |....cmp.zx..]...|
 CB54  B8 A9 63 6D 70 2E 7A 78 69 03 04 68 CB B8 A9 BD  |..cmp.zxi..h....|
 CB64  A9 63 70 78 05 04 75 CB BD A9 C2 A9 63 70 78 2E  |.cpx..u.....cpx.|
 CB74  23 05 04 82 CB C2 A9 C7 A9 63 70 78 2E 7A 03 04  |#........cpx.z..|
 CB84  8D CB C7 A9 CE A9 63 70 79 05 04 9A CB CE A9 D3  |......cpy.......|
 CB94  A9 63 70 79 2E 23 05 04 A7 CB D3 A9 D8 A9 63 70  |.cpy.#........cp|
 CBA4  79 2E 7A 03 04 B2 CB D8 A9 DD A9 64 65 63 05 04  |y.z........dec..|
 CBB4  BF CB DD A9 E2 A9 64 65 63 2E 61 05 04 CC CB E2  |......dec.a.....|
 CBC4  A9 E7 A9 64 65 63 2E 78 05 04 D9 CB E7 A9 EC A9  |...dec.x........|
 CBD4  64 65 63 2E 7A 06 04 E7 CB EC A9 F1 A9 64 65 63  |dec.z........dec|
 CBE4  2E 7A 78 03 04 F2 CB F1 A9 F6 A9 64 65 78 03 04  |.zx........dex..|
 CBF4  FD CB F6 A9 FB A9 64 65 79 03 04 08 CC FB A9 00  |......dey.......|
 CC04  AA 65 6F 72 05 04 15 CC 00 AA 05 AA 65 6F 72 2E  |.eor........eor.|
 CC14  23 05 04 22 CC 05 AA 0A AA 65 6F 72 2E 78 05 04  |#..".....eor.x..|
 CC24  2F CC 0A AA 0F AA 65 6F 72 2E 79 05 04 3C CC 0F  |/.....eor.y..<..|
 CC34  AA 14 AA 65 6F 72 2E 7A 06 04 4A CC 14 AA 19 AA  |...eor.z..J.....|
 CC44  65 6F 72 2E 7A 69 07 04 59 CC 19 AA 1E AA 65 6F  |eor.zi..Y.....eo|
 CC54  72 2E 7A 69 79 06 04 67 CC 1E AA 23 AA 65 6F 72  |r.ziy..g...#.eor|
 CC64  2E 7A 78 07 04 76 CC 23 AA 28 AA 65 6F 72 2E 7A  |.zx..v.#.(.eor.z|
 CC74  78 69 03 04 81 CC 28 AA 2D AA 69 6E 63 05 04 8E  |xi....(.-.inc...|
 CC84  CC 2D AA 32 AA 69 6E 63 2E 61 05 04 9B CC 32 AA  |.-.2.inc.a....2.|
 CC94  37 AA 69 6E 63 2E 78 05 04 A8 CC 37 AA 3C AA 69  |7.inc.x....7.<.i|
 CCA4  6E 63 2E 7A 06 04 B6 CC 3C AA 41 AA 69 6E 63 2E  |nc.z....<.A.inc.|
 CCB4  7A 78 03 04 C1 CC 41 AA 46 AA 69 6E 78 03 04 CC  |zx....A.F.inx...|
 CCC4  CC 46 AA 4B AA 69 6E 79 03 04 D7 CC 4B AA 50 AA  |.F.K.iny....K.P.|
 CCD4  6A 6D 70 05 04 E4 CC 50 AA 55 AA 6A 6D 70 2E 69  |jmp....P.U.jmp.i|
 CCE4  06 04 F2 CC 55 AA 5A AA 6A 6D 70 2E 78 69 03 04  |....U.Z.jmp.xi..|
 CCF4  FD CC 5A AA 5F AA 6A 73 72 03 04 08 CD 5F AA 64  |..Z._.jsr...._.d|
 CD04  AA 6C 64 61 05 04 15 CD 64 AA 69 AA 6C 64 61 2E  |.lda....d.i.lda.|
 CD14  23 05 04 22 CD 69 AA 6E AA 6C 64 61 2E 78 05 04  |#..".i.n.lda.x..|
 CD24  2F CD 6E AA 73 AA 6C 64 61 2E 79 05 04 3C CD 73  |/.n.s.lda.y..<.s|
 CD34  AA 78 AA 6C 64 61 2E 7A 06 04 4A CD 78 AA 7D AA  |.x.lda.z..J.x.}.|
 CD44  6C 64 61 2E 7A 69 07 04 59 CD 7D AA 82 AA 6C 64  |lda.zi..Y.}...ld|
 CD54  61 2E 7A 69 79 06 04 67 CD 82 AA 87 AA 6C 64 61  |a.ziy..g.....lda|
 CD64  2E 7A 78 07 04 76 CD 87 AA 8C AA 6C 64 61 2E 7A  |.zx..v.....lda.z|
 CD74  78 69 03 04 81 CD 8C AA 91 AA 6C 64 78 05 04 8E  |xi........ldx...|
 CD84  CD 91 AA 96 AA 6C 64 78 2E 23 05 04 9B CD 96 AA  |.....ldx.#......|
 CD94  9B AA 6C 64 78 2E 79 05 04 A8 CD 9B AA A0 AA 6C  |..ldx.y........l|
 CDA4  64 78 2E 7A 06 04 B6 CD A0 AA A5 AA 6C 64 78 2E  |dx.z........ldx.|
 CDB4  7A 79 03 04 C1 CD A5 AA AA AA 6C 64 79 05 04 CE  |zy........ldy...|
 CDC4  CD AA AA AF AA 6C 64 79 2E 23 05 04 DB CD AF AA  |.....ldy.#......|
 CDD4  B4 AA 6C 64 79 2E 78 05 04 E8 CD B4 AA B9 AA 6C  |..ldy.x........l|
 CDE4  64 79 2E 7A 06 04 F6 CD B9 AA BE AA 6C 64 79 2E  |dy.z........ldy.|
 CDF4  7A 78 03 04 01 CE BE AA C3 AA 6C 73 72 05 04 0E  |zx........lsr...|
 CE04  CE C3 AA C8 AA 6C 73 72 2E 61 05 04 1B CE C8 AA  |.....lsr.a......|
 CE14  CD AA 6C 73 72 2E 78 05 04 28 CE CD AA D2 AA 6C  |..lsr.x..(.....l|
 CE24  73 72 2E 7A 06 04 36 CE D2 AA D7 AA 6C 73 72 2E  |sr.z..6.....lsr.|
 CE34  7A 78 03 04 41 CE D7 AA DC AA 6E 6F 70 03 04 4C  |zx..A.....nop..L|
 CE44  CE DC AA E1 AA 6F 72 61 05 04 59 CE E1 AA E6 AA  |.....ora..Y.....|
 CE54  6F 72 61 2E 23 05 04 66 CE E6 AA EB AA 6F 72 61  |ora.#..f.....ora|
 CE64  2E 78 05 04 73 CE EB AA F0 AA 6F 72 61 2E 79 05  |.x..s.....ora.y.|
 CE74  04 80 CE F0 AA F5 AA 6F 72 61 2E 7A 06 04 8E CE  |.......ora.z....|
 CE84  F5 AA FC AA 6F 72 61 2E 7A 69 07 04 9D CE FC AA  |....ora.zi......|
 CE94  01 AB 6F 72 61 2E 7A 69 79 06 04 AB CE 01 AB 06  |..ora.ziy.......|
 CEA4  AB 6F 72 61 2E 7A 78 07 04 BA CE 06 AB 0B AB 6F  |.ora.zx........o|
 CEB4  72 61 2E 7A 78 69 03 04 C5 CE 0B AB 10 AB 70 68  |ra.zxi........ph|
 CEC4  61 03 04 D0 CE 10 AB 15 AB 70 68 70 03 04 DB CE  |a........php....|
 CED4  15 AB 1A AB 70 68 78 03 04 E6 CE 1A AB 1F AB 70  |....phx........p|
 CEE4  68 79 03 04 F1 CE 1F AB 24 AB 70 6C 61 03 04 FC  |hy......$.pla...|
 CEF4  CE 24 AB 29 AB 70 6C 70 03 04 07 CF 29 AB 2E AB  |.$.).plp....)...|
 CF04  70 6C 78 03 04 12 CF 2E AB 33 AB 70 6C 79 03 04  |plx......3.ply..|
 CF14  1D CF 33 AB 38 AB 72 6F 6C 05 04 2A CF 38 AB 3D  |..3.8.rol..*.8.=|
 CF24  AB 72 6F 6C 2E 61 05 04 37 CF 3D AB 42 AB 72 6F  |.rol.a..7.=.B.ro|
 CF34  6C 2E 78 05 04 44 CF 42 AB 47 AB 72 6F 6C 2E 7A  |l.x..D.B.G.rol.z|
 CF44  06 04 52 CF 47 AB 4C AB 72 6F 6C 2E 7A 78 03 04  |..R.G.L.rol.zx..|
 CF54  5D CF 4C AB 51 AB 72 6F 72 05 04 6A CF 51 AB 56  |].L.Q.ror..j.Q.V|
 CF64  AB 72 6F 72 2E 61 05 04 77 CF 56 AB 5B AB 72 6F  |.ror.a..w.V.[.ro|
 CF74  72 2E 78 05 04 84 CF 5B AB 60 AB 72 6F 72 2E 7A  |r.x....[.`.ror.z|
 CF84  06 04 92 CF 60 AB 65 AB 72 6F 72 2E 7A 78 03 04  |....`.e.ror.zx..|
 CF94  9D CF 65 AB 6A AB 72 74 69 03 04 A8 CF 6A AB 6F  |..e.j.rti....j.o|
 CFA4  AB 72 74 73 03 04 B3 CF 6F AB 74 AB 73 62 63 05  |.rts....o.t.sbc.|
 CFB4  04 C0 CF 74 AB 79 AB 73 62 63 2E 23 05 04 CD CF  |...t.y.sbc.#....|
 CFC4  79 AB 7E AB 73 62 63 2E 78 05 04 DA CF 7E AB 83  |y.~.sbc.x....~..|
 CFD4  AB 73 62 63 2E 79 05 04 E7 CF 83 AB 88 AB 73 62  |.sbc.y........sb|
 CFE4  63 2E 7A 06 04 F5 CF 88 AB 8D AB 73 62 63 2E 7A  |c.z........sbc.z|
 CFF4  69 07 04 04 D0 8D AB 92 AB 73 62 63 2E 7A 69 79  |i........sbc.ziy|
 D004  06 04 12 D0 92 AB 97 AB 73 62 63 2E 7A 78 07 04  |........sbc.zx..|
 D014  21 D0 97 AB 9B AB 73 62 63 2E 7A 78 69 03 04 2C  |!.....sbc.zxi..,|
 D024  D0 9B AB 9F AB 73 65 63 03 04 37 D0 9F AB A3 AB  |.....sec..7.....|
 D034  73 65 64 03 04 42 D0 A3 AB A7 AB 73 65 69 03 04  |sed..B.....sei..|
 D044  4D D0 A7 AB AB AB 73 74 61 05 04 5A D0 AB AB AF  |M.....sta..Z....|
 D054  AB 73 74 61 2E 78 05 04 67 D0 AF AB B3 AB 73 74  |.sta.x..g.....st|
 D064  61 2E 79 05 04 74 D0 B3 AB B7 AB 73 74 61 2E 7A  |a.y..t.....sta.z|
 D074  06 04 82 D0 B7 AB BB AB 73 74 61 2E 7A 69 07 04  |........sta.zi..|
 D084  91 D0 BB AB BF AB 73 74 61 2E 7A 69 79 06 04 9F  |......sta.ziy...|
 D094  D0 BF AB C3 AB 73 74 61 2E 7A 78 07 04 AE D0 C3  |.....sta.zx.....|
 D0A4  AB C7 AB 73 74 61 2E 7A 78 69 03 04 B9 D0 C7 AB  |...sta.zxi......|
 D0B4  CB AB 73 74 78 05 04 C6 D0 CB AB CF AB 73 74 78  |..stx........stx|
 D0C4  2E 7A 06 04 D4 D0 CF AB D3 AB 73 74 78 2E 7A 79  |.z........stx.zy|
 D0D4  03 04 DF D0 D3 AB D7 AB 73 74 79 05 04 EC D0 D7  |........sty.....|
 D0E4  AB DB AB 73 74 79 2E 7A 06 04 FA D0 DB AB DF AB  |...sty.z........|
 D0F4  73 74 79 2E 7A 78 03 04 05 D1 DF AB E3 AB 73 74  |sty.zx........st|
 D104  7A 05 04 12 D1 E3 AB E7 AB 73 74 7A 2E 78 05 04  |z........stz.x..|
 D114  1F D1 E7 AB EB AB 73 74 7A 2E 7A 06 04 2D D1 EB  |......stz.z..-..|
 D124  AB EF AB 73 74 7A 2E 7A 78 03 04 38 D1 EF AB F3  |...stz.zx..8....|
 D134  AB 74 61 78 03 04 43 D1 F3 AB F7 AB 74 61 79 03  |.tax..C.....tay.|
 D144  04 4E D1 F7 AB FB AB 74 72 62 05 04 5B D1 FB AB  |.N.....trb..[...|
 D154  FF AB 74 72 62 2E 7A 03 04 66 D1 FF AB 03 AC 74  |..trb.z..f.....t|
 D164  73 62 05 04 73 D1 03 AC 07 AC 74 73 62 2E 7A 03  |sb..s.....tsb.z.|
 D174  04 7E D1 07 AC 0B AC 74 73 78 03 04 89 D1 0B AC  |.~.....tsx......|
 D184  0F AC 74 78 61 03 04 94 D1 0F AC 13 AC 74 78 73  |..txa........txs|
 D194  03 04 9F D1 13 AC 17 AC 74 79 61 03 04 AA D1 81  |........tya.....|
 D1A4  91 8B 91 2D 2D 3E 02 04 B4 D1 68 AC 68 AC 3C 6A  |...-->....h.h.<j|
 D1B4  02 04 BE D1 69 AC 71 AC 3C 62 06 04 00 00 51 AC  |....i.q.<b....Q.|
 D1C4  60 AC 70 75 73 68 2D 61 E6 D1 EA D1 F4 D1 5A D2  |`.push-a......Z.|
 D1D4  FF D1 23 D2 52 D2 47 D2 61 D2 67 D2 83 D2 88 D2  |..#.R.G.a.g.....|
 D1E4  8D D2 20 6F 6B 00 20 63 6F 6D 70 69 6C 65 64 00  |.. ok. compiled.|
 D1F4  72 65 64 65 66 69 6E 65 64 20 00 30 31 32 33 34  |redefined .01234|
 D204  35 36 37 38 39 61 62 63 64 65 66 67 68 69 6A 6B  |56789abcdefghijk|
 D214  6C 6D 6E 6F 70 71 72 73 74 75 76 77 78 79 7A 30  |lmnopqrstuvwxyz0|
 D224  31 32 33 34 35 36 37 38 39 41 42 43 44 45 46 47  |123456789ABCDEFG|
 D234  48 49 4A 4B 4C 4D 4E 4F 50 51 52 53 54 55 56 57  |HIJKLMNOPQRSTUVW|
 D244  58 59 5A 41 73 73 65 6D 62 6C 65 72 20 00 45 64  |XYZAssembler .Ed|
 D254  69 74 6F 72 20 00 46 6F 72 74 68 20 00 52 6F 6F  |itor .Forth .Roo|
 D264  74 20 00 66 6C 61 67 73 20 28 43 4F 20 41 4E 20  |t .flags (CO AN |
 D274  49 4D 20 4E 4E 20 55 46 20 48 43 29 3A 20 00 6E  |IM NN UF HC): .n|
 D284  74 3A 20 00 78 74 3A 20 00 73 69 7A 65 20 28 64  |t: .xt: .size (d|
 D294  65 63 69 6D 61 6C 29 3A 20 00 B8 D2 D9 D2 F9 D2  |ecimal): .......|
 D2A4  1A D3 37 D3 48 D3 58 D3 86 D3 9E D3 AD D3 BD D3  |..7.H.X.........|
 D2B4  D9 D3 F0 D3 41 4C 4C 4F 54 20 75 73 69 6E 67 20  |....ALLOT using |
 D2C4  61 6C 6C 20 61 76 61 69 6C 61 62 6C 65 20 6D 65  |all available me|
 D2D4  6D 6F 72 79 00 49 6C 6C 65 67 61 6C 20 53 4F 55  |mory.Illegal SOU|
 D2E4  52 43 45 2D 49 44 20 64 75 72 69 6E 67 20 52 45  |RCE-ID during RE|
 D2F4  46 49 4C 4C 00 49 6E 74 65 72 70 72 65 74 69 6E  |FILL.Interpretin|
 D304  67 20 61 20 63 6F 6D 70 69 6C 65 2D 6F 6E 6C 79  |g a compile-only|
 D314  20 77 6F 72 64 00 44 45 46 45 52 65 64 20 77 6F  | word.DEFERed wo|
 D324  72 64 20 6E 6F 74 20 64 65 66 69 6E 65 64 20 79  |rd not defined y|
 D334  65 74 00 44 69 76 69 73 69 6F 6E 20 62 79 20 7A  |et.Division by z|
 D344  65 72 6F 00 50 61 72 73 69 6E 67 20 66 61 69 6C  |ero.Parsing fail|
 D354  75 72 65 00 51 55 49 54 20 63 6F 75 6C 64 20 6E  |ure.QUIT could n|
 D364  6F 74 20 67 65 74 20 69 6E 70 75 74 20 28 52 45  |ot get input (RE|
 D374  46 49 4C 4C 20 72 65 74 75 72 6E 65 64 20 2D 31  |FILL returned -1|
 D384  29 00 41 6C 72 65 61 64 79 20 69 6E 20 63 6F 6D  |).Already in com|
 D394  70 69 6C 65 20 6D 6F 64 65 00 55 6E 64 65 66 69  |pile mode.Undefi|
 D3A4  6E 65 64 20 77 6F 72 64 00 53 74 61 63 6B 20 75  |ned word.Stack u|
 D3B4  6E 64 65 72 66 6C 6F 77 00 4D 61 78 20 6D 65 6D  |nderflow.Max mem|
 D3C4  6F 72 79 20 66 72 65 65 64 20 77 69 74 68 20 41  |ory freed with A|
 D3D4  4C 4C 4F 54 00 4E 6F 20 77 6F 72 64 6C 69 73 74  |LLOT.No wordlist|
 D3E4  73 20 61 76 61 69 6C 61 62 6C 65 00 50 6C 65 61  |s available.Plea|
 D3F4  73 65 20 61 73 73 69 67 6E 20 76 65 63 74 6F 72  |se assign vector|
 D404  73 20 42 4C 4F 43 4B 2D 52 45 41 44 2D 56 45 43  |s BLOCK-READ-VEC|
 D414  54 4F 52 20 61 6E 64 20 42 4C 4F 43 4B 2D 57 52  |TOR and BLOCK-WR|
 D424  49 54 45 2D 56 45 43 54 4F 52 00 0F 2F 43 4F 55  |ITE-VECTOR../COU|
 D434  4E 54 45 44 2D 53 54 52 49 4E 47 05 2F 48 4F 4C  |NTED-STRING./HOL|
 D444  44 04 2F 50 41 44 11 41 44 44 52 45 53 53 2D 55  |D./PAD.ADDRESS-U|
 D454  4E 49 54 2D 42 49 54 53 07 46 4C 4F 4F 52 45 44  |NIT-BITS.FLOORED|
 D464  08 4D 41 58 2D 43 48 41 52 05 4D 41 58 2D 4E 05  |.MAX-CHAR.MAX-N.|
 D474  4D 41 58 2D 55 12 52 45 54 55 52 4E 2D 53 54 41  |MAX-U.RETURN-STA|
 D484  43 4B 2D 43 45 4C 4C 53 0B 53 54 41 43 4B 2D 43  |CK-CELLS.STACK-C|
 D494  45 4C 4C 53 09 57 4F 52 44 4C 49 53 54 53 05 4D  |ELLS.WORDLISTS.M|
 D4A4  41 58 2D 44 06 4D 41 58 2D 55 44                 |AX-D.MAX-UD     |
 D4AF  48        PHA  
 D4B0  A9 20     LDA  #$20
 D4B2  80 03     BRA  $D4B7
 D4B4  48        PHA  
 D4B5  A9 4C     LDA  #$4C
 D4B7  20 BF D4  JSR  $D4BF
 D4BA  68        PLA  
 D4BB  20 BF D4  JSR  $D4BF
 D4BE  98        TYA  
 D4BF  92 00     STA  ($00)
 D4C1  E6 00     INC  $00
 D4C3  D0 02     BNE  $D4C7
 D4C5  E6 01     INC  $01
 D4C7  60        RTS  
 D4C8  CA        DEX  
 D4C9  CA        DEX  
 D4CA  68        PLA  
 D4CB  85 24     STA  $24
 D4CD  68        PLA  
 D4CE  85 25     STA  $25
 D4D0  A0 01     LDY  #$01
 D4D2  B1 24     LDA  ($24), Y
 D4D4  95 00     STA  $00, X
 D4D6  C8        INY  
 D4D7  B1 24     LDA  ($24), Y
 D4D9  95 01     STA  $01, X
 D4DB  60        RTS  
 D4DC  68        PLA  
 D4DD  85 24     STA  $24
 D4DF  68        PLA  
 D4E0  85 25     STA  $25
 D4E2  A0 01     LDY  #$01
 D4E4  B1 24     LDA  ($24), Y
 D4E6  85 26     STA  $26
 D4E8  C8        INY  
 D4E9  B1 24     LDA  ($24), Y
 D4EB  85 27     STA  $27
 D4ED  6C 26 00  JMP  ($0026)
 D4F0  A9 03     LDA  #$03
 D4F2  4C 22 D6  JMP  $D622
 D4F5  7A        PLY  
 D4F6  68        PLA  
 D4F7  C8        INY  
 D4F8  D0 01     BNE  $D4FB
 D4FA  1A        INC  
 D4FB  84 26     STY  $26
 D4FD  85 27     STA  $27
 D4FF  CA        DEX  
 D500  CA        DEX  
 D501  7A        PLY  
 D502  68        PLA  
 D503  C8        INY  
 D504  D0 01     BNE  $D507
 D506  1A        INC  
 D507  94 00     STY  $00, X
 D509  95 01     STA  $01, X
 D50B  6C 26 00  JMP  ($0026)
 D50E  7A        PLY  
 D50F  68        PLA  
 D510  C8        INY  
 D511  D0 01     BNE  $D514
 D513  1A        INC  
 D514  CA        DEX  
 D515  CA        DEX  
 D516  95 01     STA  $01, X
 D518  98        TYA  
 D519  95 00     STA  $00, X
 D51B  60        RTS  
 D51C  48        PHA  
 D51D  4A        LSR  
 D51E  4A        LSR  
 D51F  4A        LSR  
 D520  4A        LSR  
 D521  20 25 D5  JSR  $D525
 D524  68        PLA  
 D525  29 0F     AND  #$0F
 D527  09 30     ORA  #$30
 D529  C9 3A     CMP  #$3A
 D52B  90 02     BCC  $D52F
 D52D  69 06     ADC  #$06
 D52F  4C 05 8E  JMP  $8E05
 D532  60        RTS  
 D533  B5 00     LDA  $00, X
 D535  D5 02     CMP  $02, X
 D537  F0 0A     BEQ  $D543
 D539  B5 01     LDA  $01, X
 D53B  F5 03     SBC  $03, X
 D53D  09 01     ORA  #$01
 D53F  70 08     BVS  $D549
 D541  80 08     BRA  $D54B
 D543  B5 01     LDA  $01, X
 D545  F5 03     SBC  $03, X
 D547  50 04     BVC  $D54D
 D549  49 80     EOR  #$80
 D54B  09 01     ORA  #$01
 D54D  60        RTS  
 D54E  A0 04     LDY  #$04
 D550  B1 1E     LDA  ($1E), Y
 D552  0A        ASL  
 D553  18        CLC  
 D554  69 06     ADC  #$06
 D556  A8        TAY  
 D557  B1 1E     LDA  ($1E), Y
 D559  85 02     STA  $02
 D55B  C8        INY  
 D55C  B1 1E     LDA  ($1E), Y
 D55E  85 03     STA  $03
 D560  60        RTS  
 D561  A0 04     LDY  #$04
 D563  B1 1E     LDA  ($1E), Y
 D565  0A        ASL  
 D566  18        CLC  
 D567  69 06     ADC  #$06
 D569  A8        TAY  
 D56A  A5 02     LDA  $02
 D56C  91 1E     STA  ($1E), Y
 D56E  C8        INY  
 D56F  A5 03     LDA  $03
 D571  91 1E     STA  ($1E), Y
 D573  60        RTS  
 D574  20 84 98  JSR  $9884
 D577  B5 00     LDA  $00, X
 D579  15 01     ORA  $01, X
 D57B  F0 70     BEQ  $D5ED
 D57D  20 54 A3  JSR  $A354
 D580  20 EA 8F  JSR  $8FEA
 D583  B5 00     LDA  $00, X
 D585  15 01     ORA  $01, X
 D587  D0 28     BNE  $D5B1
 D589  E8        INX  
 D58A  E8        INX  
 D58B  20 99 96  JSR  $9699
 D58E  A5 16     LDA  $16
 D590  F0 E2     BEQ  $D574
 D592  A9 20     LDA  #$20
 D594  24 20     BIT  $20
 D596  F0 0D     BEQ  $D5A5
 D598  20 4A A1  JSR  $A14A
 D59B  A0 93     LDY  #$93
 D59D  A9 A7     LDA  #$A7
 D59F  20 AF D4  JSR  $D4AF
 D5A2  20 7D 87  JSR  $877D
 D5A5  A0 93     LDY  #$93
 D5A7  A9 A7     LDA  #$A7
 D5A9  20 AF D4  JSR  $D4AF
 D5AC  20 7D 87  JSR  $877D
 D5AF  80 C3     BRA  $D574
 D5B1  B5 00     LDA  $00, X
 D5B3  95 04     STA  $04, X
 D5B5  B5 01     LDA  $01, X
 D5B7  95 05     STA  $05, X
 D5B9  E8        INX  
 D5BA  E8        INX  
 D5BB  E8        INX  
 D5BC  E8        INX  
 D5BD  B5 00     LDA  $00, X
 D5BF  85 22     STA  $22
 D5C1  B5 01     LDA  $01, X
 D5C3  85 23     STA  $23
 D5C5  20 F0 95  JSR  $95F0
 D5C8  A5 16     LDA  $16
 D5CA  D0 13     BNE  $D5DF
 D5CC  A0 01     LDY  #$01
 D5CE  B1 22     LDA  ($22), Y
 D5D0  29 01     AND  #$01
 D5D2  F0 05     BEQ  $D5D9
 D5D4  A9 02     LDA  #$02
 D5D6  4C 22 D6  JMP  $D622
 D5D9  20 4C 8F  JSR  $8F4C
 D5DC  4C 74 D5  JMP  $D574
 D5DF  A0 01     LDY  #$01
 D5E1  B1 22     LDA  ($22), Y
 D5E3  29 04     AND  #$04
 D5E5  D0 F2     BNE  $D5D9
 D5E7  20 FC 87  JSR  $87FC
 D5EA  4C 74 D5  JMP  $D574
 D5ED  E8        INX  
 D5EE  E8        INX  
 D5EF  E8        INX  
 D5F0  E8        INX  
 D5F1  60        RTS  
 D5F2  C9 20     CMP  #$20
 D5F4  90 08     BCC  $D5FE
 D5F6  C9 7F     CMP  #$7F
 D5F8  B0 03     BCS  $D5FD
 D5FA  38        SEC  
 D5FB  80 01     BRA  $D5FE
 D5FD  18        CLC  
 D5FE  60        RTS  
 D5FF  C9 00     CMP  #$00
 D601  90 08     BCC  $D60B
 D603  C9 21     CMP  #$21
 D605  B0 03     BCS  $D60A
 D607  38        SEC  
 D608  80 01     BRA  $D60B
 D60A  18        CLC  
 D60B  60        RTS  
 D60C  E0 77     CPX  #$77
 D60E  10 10     BPL  $D620
 D610  60        RTS  
 D611  E0 75     CPX  #$75
 D613  10 0B     BPL  $D620
 D615  60        RTS  
 D616  E0 73     CPX  #$73
 D618  10 06     BPL  $D620
 D61A  60        RTS  
 D61B  E0 71     CPX  #$71
 D61D  10 01     BPL  $D620
 D61F  60        RTS  
 D620  A9 09     LDA  #$09
 D622  0A        ASL  
 D623  A8        TAY  
 D624  B9 9E D2  LDA  $D29E, Y
 D627  85 28     STA  $28
 D629  C8        INY  
 D62A  B9 9E D2  LDA  $D29E, Y
 D62D  85 29     STA  $29
 D62F  20 45 D6  JSR  $D645
 D632  20 72 89  JSR  $8972
 D635  4C 81 80  JMP  $8081
 D638  0A        ASL  
 D639  A8        TAY  
 D63A  B9 CC D1  LDA  $D1CC, Y
 D63D  85 28     STA  $28
 D63F  C8        INY  
 D640  B9 CC D1  LDA  $D1CC, Y
 D643  85 29     STA  $29
 D645  A0 00     LDY  #$00
 D647  B1 28     LDA  ($28), Y
 D649  F0 06     BEQ  $D651
 D64B  20 05 8E  JSR  $8E05
 D64E  C8        INY  
 D64F  80 F6     BRA  $D647
 D651  60        RTS  
 D652  20 38 D6  JSR  $D638
 D655  4C 72 89  JMP  $8972
 D658  20 43 A7  JSR  $A743
 D65B  20 69 93  JSR  $9369
 D65E  20 83 97  JSR  $9783
 D661  20 61 97  JSR  $9761
 D664  4C 9F A4  JMP  $A49F
 D667  00 00 00 00 00 00 00 00 00 00 00 00 00 00 00 00  |................|
 D677  00 00 00 00 00 00 00 00 00 00 00 00 00 00 00 00  |................|
 D687  00 00 00 00 00 00 00 00 00 00 00 00 00 00 00 00  |................|
 D697  00 00 00 00 00 00 00 00 00 00 00 00 00 00 00 00  |................|
 D6A7  00 00 00 00 00 00 00 00 00 00 00 00 00 00 00 00  |................|
 D6B7  00 00 00 00 00 00 00 00 00 00 00 00 00 00 00 00  |................|
 D6C7  00 00 00 00 00 00 00 00 00 00 00 00 00 00 00 00  |................|
 D6D7  00 00 00 00 00 00 00 00 00 00 00 00 00 00 00 00  |................|
 D6E7  00 00 00 00 00 00 00 00 00 00 00 00 00 00 00 00  |................|
 D6F7  00 00 00 00 00 00 00 00 00 00 00 00 00 00 00 00  |................|
 D707  00 00 00 00 00 00 00 00 00 00 00 00 00 00 00 00  |................|
 D717  00 00 00 00 00 00 00 00 00 00 00 00 00 00 00 00  |................|
 D727  00 00 00 00 00 00 00 00 00 00 00 00 00 00 00 00  |................|
 D737  00 00 00 00 00 00 00 00 00 00 00 00 00 00 00 00  |................|
 D747  00 00 00 00 00 00 00 00 00 00 00 00 00 00 00 00  |................|
 D757  00 00 00 00 00 00 00 00 00 00 00 00 00 00 00 00  |................|
 D767  00 00 00 00 00 00 00 00 00 00 00 00 00 00 00 00  |................|
 D777  00 00 00 00 00 00 00 00 00 00 00 00 00 00 00 00  |................|
 D787  00 00 00 00 00 00 00 00 00 00 00 00 00 00 00 00  |................|
 D797  00 00 00 00 00 00 00 00 00 00 00 00 00 00 00 00  |................|
 D7A7  00 00 00 00 00 00 00 00 00 00 00 00 00 00 00 00  |................|
 D7B7  00 00 00 00 00 00 00 00 00 00 00 00 00 00 00 00  |................|
 D7C7  00 00 00 00 00 00 00 00 00 00 00 00 00 00 00 00  |................|
 D7D7  00 00 00 00 00 00 00 00 00 00 00 00 00 00 00 00  |................|
 D7E7  00 00 00 00 00 00 00 00 00 00 00 00 00 00 00 00  |................|
 D7F7  00 00 00 00 00 00 00 00 00 00 00 00 00 00 00 00  |................|
 D807  00 00 00 00 00 00 00 00 00 00 00 00 00 00 00 00  |................|
 D817  00 00 00 00 00 00 00 00 00 00 00 00 00 00 00 00  |................|
 D827  00 00 00 00 00 00 00 00 00 00 00 00 00 00 00 00  |................|
 D837  00 00 00 00 00 00 00 00 00 00 00 00 00 00 00 00  |................|
 D847  00 00 00 00 00 00 00 00 00 00 00 00 00 00 00 00  |................|
 D857  00 00 00 00 00 00 00 00 00 00 00 00 00 00 00 00  |................|
 D867  00 00 00 00 00 00 00 00 00 00 00 00 00 00 00 00  |................|
 D877  00 00 00 00 00 00 00 00 00 00 00 00 00 00 00 00  |................|
 D887  00 00 00 00 00 00 00 00 00 00 00 00 00 00 00 00  |................|
 D897  00 00 00 00 00 00 00 00 00 00 00 00 00 00 00 00  |................|
 D8A7  00 00 00 00 00 00 00 00 00 00 00 00 00 00 00 00  |................|
 D8B7  00 00 00 00 00 00 00 00 00 00 00 00 00 00 00 00  |................|
 D8C7  00 00 00 00 00 00 00 00 00 00 00 00 00 00 00 00  |................|
 D8D7  00 00 00 00 00 00 00 00 00 00 00 00 00 00 00 00  |................|
 D8E7  00 00 00 00 00 00 00 00 00 00 00 00 00 00 00 00  |................|
 D8F7  00 00 00 00 00 00 00 00 00 00 00 00 00 00 00 00  |................|
 D907  00 00 00 00 00 00 00 00 00 00 00 00 00 00 00 00  |................|
 D917  00 00 00 00 00 00 00 00 00 00 00 00 00 00 00 00  |................|
 D927  00 00 00 00 00 00 00 00 00 00 00 00 00 00 00 00  |................|
 D937  00 00 00 00 00 00 00 00 00 00 00 00 00 00 00 00  |................|
 D947  00 00 00 00 00 00 00 00 00 00 00 00 00 00 00 00  |................|
 D957  00 00 00 00 00 00 00 00 00 00 00 00 00 00 00 00  |................|
 D967  00 00 00 00 00 00 00 00 00 00 00 00 00 00 00 00  |................|
 D977  00 00 00 00 00 00 00 00 00 00 00 00 00 00 00 00  |................|
 D987  00 00 00 00 00 00 00 00 00 00 00 00 00 00 00 00  |................|
 D997  00 00 00 00 00 00 00 00 00 00 00 00 00 00 00 00  |................|
 D9A7  00 00 00 00 00 00 00 00 00 00 00 00 00 00 00 00  |................|
 D9B7  00 00 00 00 00 00 00 00 00 00 00 00 00 00 00 00  |................|
 D9C7  00 00 00 00 00 00 00 00 00 00 00 00 00 00 00 00  |................|
 D9D7  00 00 00 00 00 00 00 00 00 00 00 00 00 00 00 00  |................|
 D9E7  00 00 00 00 00 00 00 00 00 00 00 00 00 00 00 00  |................|
 D9F7  00 00 00 00 00 00 00 00 00 00 00 00 00 00 00 00  |................|
 DA07  00 00 00 00 00 00 00 00 00 00 00 00 00 00 00 00  |................|
 DA17  00 00 00 00 00 00 00 00 00 00 00 00 00 00 00 00  |................|
 DA27  00 00 00 00 00 00 00 00 00 00 00 00 00 00 00 00  |................|
 DA37  00 00 00 00 00 00 00 00 00 00 00 00 00 00 00 00  |................|
 DA47  00 00 00 00 00 00 00 00 00 00 00 00 00 00 00 00  |................|
 DA57  00 00 00 00 00 00 00 00 00 00 00 00 00 00 00 00  |................|
 DA67  00 00 00 00 00 00 00 00 00 00 00 00 00 00 00 00  |................|
 DA77  00 00 00 00 00 00 00 00 00 00 00 00 00 00 00 00  |................|
 DA87  00 00 00 00 00 00 00 00 00 00 00 00 00 00 00 00  |................|
 DA97  00 00 00 00 00 00 00 00 00 00 00 00 00 00 00 00  |................|
 DAA7  00 00 00 00 00 00 00 00 00 00 00 00 00 00 00 00  |................|
 DAB7  00 00 00 00 00 00 00 00 00 00 00 00 00 00 00 00  |................|
 DAC7  00 00 00 00 00 00 00 00 00 00 00 00 00 00 00 00  |................|
 DAD7  00 00 00 00 00 00 00 00 00 00 00 00 00 00 00 00  |................|
 DAE7  00 00 00 00 00 00 00 00 00 00 00 00 00 00 00 00  |................|
 DAF7  00 00 00 00 00 00 00 00 00 00 00 00 00 00 00 00  |................|
 DB07  00 00 00 00 00 00 00 00 00 00 00 00 00 00 00 00  |................|
 DB17  00 00 00 00 00 00 00 00 00 00 00 00 00 00 00 00  |................|
 DB27  00 00 00 00 00 00 00 00 00 00 00 00 00 00 00 00  |................|
 DB37  00 00 00 00 00 00 00 00 00 00 00 00 00 00 00 00  |................|
 DB47  00 00 00 00 00 00 00 00 00 00 00 00 00 00 00 00  |................|
 DB57  00 00 00 00 00 00 00 00 00 00 00 00 00 00 00 00  |................|
 DB67  00 00 00 00 00 00 00 00 00 00 00 00 00 00 00 00  |................|
 DB77  00 00 00 00 00 00 00 00 00 00 00 00 00 00 00 00  |................|
 DB87  00 00 00 00 00 00 00 00 00 00 00 00 00 00 00 00  |................|
 DB97  00 00 00 00 00 00 00 00 00 00 00 00 00 00 00 00  |................|
 DBA7  00 00 00 00 00 00 00 00 00 00 00 00 00 00 00 00  |................|
 DBB7  00 00 00 00 00 00 00 00 00 00 00 00 00 00 00 00  |................|
 DBC7  00 00 00 00 00 00 00 00 00 00 00 00 00 00 00 00  |................|
 DBD7  00 00 00 00 00 00 00 00 00 00 00 00 00 00 00 00  |................|
 DBE7  00 00 00 00 00 00 00 00 00 00 00 00 00 00 00 00  |................|
 DBF7  00 00 00 00 00 00 00 00 00 00 00 00 00 00 00 00  |................|
 DC07  00 00 00 00 00 00 00 00 00 00 00 00 00 00 00 00  |................|
 DC17  00 00 00 00 00 00 00 00 00 00 00 00 00 00 00 00  |................|
 DC27  00 00 00 00 00 00 00 00 00 00 00 00 00 00 00 00  |................|
 DC37  00 00 00 00 00 00 00 00 00 00 00 00 00 00 00 00  |................|
 DC47  00 00 00 00 00 00 00 00 00 00 00 00 00 00 00 00  |................|
 DC57  00 00 00 00 00 00 00 00 00 00 00 00 00 00 00 00  |................|
 DC67  00 00 00 00 00 00 00 00 00 00 00 00 00 00 00 00  |................|
 DC77  00 00 00 00 00 00 00 00 00 00 00 00 00 00 00 00  |................|
 DC87  00 00 00 00 00 00 00 00 00 00 00 00 00 00 00 00  |................|
 DC97  00 00 00 00 00 00 00 00 00 00 00 00 00 00 00 00  |................|
 DCA7  00 00 00 00 00 00 00 00 00 00 00 00 00 00 00 00  |................|
 DCB7  00 00 00 00 00 00 00 00 00 00 00 00 00 00 00 00  |................|
 DCC7  00 00 00 00 00 00 00 00 00 00 00 00 00 00 00 00  |................|
 DCD7  00 00 00 00 00 00 00 00 00 00 00 00 00 00 00 00  |................|
 DCE7  00 00 00 00 00 00 00 00 00 00 00 00 00 00 00 00  |................|
 DCF7  00 00 00 00 00 00 00 00 00 00 00 00 00 00 00 00  |................|
 DD07  00 00 00 00 00 00 00 00 00 00 00 00 00 00 00 00  |................|
 DD17  00 00 00 00 00 00 00 00 00 00 00 00 00 00 00 00  |................|
 DD27  00 00 00 00 00 00 00 00 00 00 00 00 00 00 00 00  |................|
 DD37  00 00 00 00 00 00 00 00 00 00 00 00 00 00 00 00  |................|
 DD47  00 00 00 00 00 00 00 00 00 00 00 00 00 00 00 00  |................|
 DD57  00 00 00 00 00 00 00 00 00 00 00 00 00 00 00 00  |................|
 DD67  00 00 00 00 00 00 00 00 00 00 00 00 00 00 00 00  |................|
 DD77  00 00 00 00 00 00 00 00 00 00 00 00 00 00 00 00  |................|
 DD87  00 00 00 00 00 00 00 00 00 00 00 00 00 00 00 00  |................|
 DD97  00 00 00 00 00 00 00 00 00 00 00 00 00 00 00 00  |................|
 DDA7  00 00 00 00 00 00 00 00 00 00 00 00 00 00 00 00  |................|
 DDB7  00 00 00 00 00 00 00 00 00 00 00 00 00 00 00 00  |................|
 DDC7  00 00 00 00 00 00 00 00 00 00 00 00 00 00 00 00  |................|
 DDD7  00 00 00 00 00 00 00 00 00 00 00 00 00 00 00 00  |................|
 DDE7  00 00 00 00 00 00 00 00 00 00 00 00 00 00 00 00  |................|
 DDF7  00 00 00 00 00 00 00 00 00 00 00 00 00 00 00 00  |................|
 DE07  00 00 00 00 00 00 00 00 00 00 00 00 00 00 00 00  |................|
 DE17  00 00 00 00 00 00 00 00 00 00 00 00 00 00 00 00  |................|
 DE27  00 00 00 00 00 00 00 00 00 00 00 00 00 00 00 00  |................|
 DE37  00 00 00 00 00 00 00 00 00 00 00 00 00 00 00 00  |................|
 DE47  00 00 00 00 00 00 00 00 00 00 00 00 00 00 00 00  |................|
 DE57  00 00 00 00 00 00 00 00 00 00 00 00 00 00 00 00  |................|
 DE67  00 00 00 00 00 00 00 00 00 00 00 00 00 00 00 00  |................|
 DE77  00 00 00 00 00 00 00 00 00 00 00 00 00 00 00 00  |................|
 DE87  00 00 00 00 00 00 00 00 00 00 00 00 00 00 00 00  |................|
 DE97  00 00 00 00 00 00 00 00 00 00 00 00 00 00 00 00  |................|
 DEA7  00 00 00 00 00 00 00 00 00 00 00 00 00 00 00 00  |................|
 DEB7  00 00 00 00 00 00 00 00 00 00 00 00 00 00 00 00  |................|
 DEC7  00 00 00 00 00 00 00 00 00 00 00 00 00 00 00 00  |................|
 DED7  00 00 00 00 00 00 00 00 00 00 00 00 00 00 00 00  |................|
 DEE7  00 00 00 00 00 00 00 00 00 00 00 00 00 00 00 00  |................|
 DEF7  00 00 00 00 00 00 00 00 00 00 00 00 00 00 00 00  |................|
 DF07  00 00 00 00 00 00 00 00 00 00 00 00 00 00 00 00  |................|
 DF17  00 00 00 00 00 00 00 00 00 00 00 00 00 00 00 00  |................|
 DF27  00 00 00 00 00 00 00 00 00 00 00 00 00 00 00 00  |................|
 DF37  00 00 00 00 00 00 00 00 00 00 00 00 00 00 00 00  |................|
 DF47  00 00 00 00 00 00 00 00 00 00 00 00 00 00 00 00  |................|
 DF57  00 00 00 00 00 00 00 00 00 00 00 00 00 00 00 00  |................|
 DF67  00 00 00 00 00 00 00 00 00 00 00 00 00 00 00 00  |................|
 DF77  00 00 00 00 00 00 00 00 00 00 00 00 00 00 00 00  |................|
 DF87  00 00 00 00 00 00 00 00 00 00 00 00 00 00 00 00  |................|
 DF97  00 00 00 00 00 00 00 00 00 00 00 00 00 00 00 00  |................|
 DFA7  00 00 00 00 00 00 00 00 00 00 00 00 00 00 00 00  |................|
 DFB7  00 00 00 00 00 00 00 00 00 00 00 00 00 00 00 00  |................|
 DFC7  00 00 00 00 00 00 00 00 00 00 00 00 00 00 00 00  |................|
 DFD7  00 00 00 00 00 00 00 00 00 00 00 00 00 00 00 00  |................|
 DFE7  00 00 00 00 00 00 00 00 00 00 00 00 00 00 00 00  |................|
 DFF7  00 00 00 00 00 00 00 00 00 00 00 00 00 00 00 00  |................|
 E007  00 00 00 00 00 00 00 00 00 00 00 00 00 00 00 00  |................|
 E017  00 00 00 00 00 00 00 00 00 00 00 00 00 00 00 00  |................|
 E027  00 00 00 00 00 00 00 00 00 00 00 00 00 00 00 00  |................|
 E037  00 00 00 00 00 00 00 00 00 00 00 00 00 00 00 00  |................|
 E047  00 00 00 00 00 00 00 00 00 00 00 00 00 00 00 00  |................|
 E057  00 00 00 00 00 00 00 00 00 00 00 00 00 00 00 00  |................|
 E067  00 00 00 00 00 00 00 00 00 00 00 00 00 00 00 00  |................|
 E077  00 00 00 00 00 00 00 00 00 00 00 00 00 00 00 00  |................|
 E087  00 00 00 00 00 00 00 00 00 00 00 00 00 00 00 00  |................|
 E097  00 00 00 00 00 00 00 00 00 00 00 00 00 00 00 00  |................|
 E0A7  00 00 00 00 00 00 00 00 00 00 00 00 00 00 00 00  |................|
 E0B7  00 00 00 00 00 00 00 00 00 00 00 00 00 00 00 00  |................|
 E0C7  00 00 00 00 00 00 00 00 00 00 00 00 00 00 00 00  |................|
 E0D7  00 00 00 00 00 00 00 00 00 00 00 00 00 00 00 00  |................|
 E0E7  00 00 00 00 00 00 00 00 00 00 00 00 00 00 00 00  |................|
 E0F7  00 00 00 00 00 00 00 00 00 00 00 00 00 00 00 00  |................|
 E107  00 00 00 00 00 00 00 00 00 00 00 00 00 00 00 00  |................|
 E117  00 00 00 00 00 00 00 00 00 00 00 00 00 00 00 00  |................|
 E127  00 00 00 00 00 00 00 00 00 00 00 00 00 00 00 00  |................|
 E137  00 00 00 00 00 00 00 00 00 00 00 00 00 00 00 00  |................|
 E147  00 00 00 00 00 00 00 00 00 00 00 00 00 00 00 00  |................|
 E157  00 00 00 00 00 00 00 00 00 00 00 00 00 00 00 00  |................|
 E167  00 00 00 00 00 00 00 00 00 00 00 00 00 00 00 00  |................|
 E177  00 00 00 00 00 00 00 00 00 00 00 00 00 00 00 00  |................|
 E187  00 00 00 00 00 00 00 00 00 00 00 00 00 00 00 00  |................|
 E197  00 00 00 00 00 00 00 00 00 00 00 00 00 00 00 00  |................|
 E1A7  00 00 00 00 00 00 00 00 00 00 00 00 00 00 00 00  |................|
 E1B7  00 00 00 00 00 00 00 00 00 00 00 00 00 00 00 00  |................|
 E1C7  00 00 00 00 00 00 00 00 00 00 00 00 00 00 00 00  |................|
 E1D7  00 00 00 00 00 00 00 00 00 00 00 00 00 00 00 00  |................|
 E1E7  00 00 00 00 00 00 00 00 00 00 00 00 00 00 00 00  |................|
 E1F7  00 00 00 00 00 00 00 00 00 00 00 00 00 00 00 00  |................|
 E207  00 00 00 00 00 00 00 00 00 00 00 00 00 00 00 00  |................|
 E217  00 00 00 00 00 00 00 00 00 00 00 00 00 00 00 00  |................|
 E227  00 00 00 00 00 00 00 00 00 00 00 00 00 00 00 00  |................|
 E237  00 00 00 00 00 00 00 00 00 00 00 00 00 00 00 00  |................|
 E247  00 00 00 00 00 00 00 00 00 00 00 00 00 00 00 00  |................|
 E257  00 00 00 00 00 00 00 00 00 00 00 00 00 00 00 00  |................|
 E267  00 00 00 00 00 00 00 00 00 00 00 00 00 00 00 00  |................|
 E277  00 00 00 00 00 00 00 00 00 00 00 00 00 00 00 00  |................|
 E287  00 00 00 00 00 00 00 00 00 00 00 00 00 00 00 00  |................|
 E297  00 00 00 00 00 00 00 00 00 00 00 00 00 00 00 00  |................|
 E2A7  00 00 00 00 00 00 00 00 00 00 00 00 00 00 00 00  |................|
 E2B7  00 00 00 00 00 00 00 00 00 00 00 00 00 00 00 00  |................|
 E2C7  00 00 00 00 00 00 00 00 00 00 00 00 00 00 00 00  |................|
 E2D7  00 00 00 00 00 00 00 00 00 00 00 00 00 00 00 00  |................|
 E2E7  00 00 00 00 00 00 00 00 00 00 00 00 00 00 00 00  |................|
 E2F7  00 00 00 00 00 00 00 00 00 00 00 00 00 00 00 00  |................|
 E307  00 00 00 00 00 00 00 00 00 00 00 00 00 00 00 00  |................|
 E317  00 00 00 00 00 00 00 00 00 00 00 00 00 00 00 00  |................|
 E327  00 00 00 00 00 00 00 00 00 00 00 00 00 00 00 00  |................|
 E337  00 00 00 00 00 00 00 00 00 00 00 00 00 00 00 00  |................|
 E347  00 00 00 00 00 00 00 00 00 00 00 00 00 00 00 00  |................|
 E357  00 00 00 00 00 00 00 00 00 00 00 00 00 00 00 00  |................|
 E367  00 00 00 00 00 00 00 00 00 00 00 00 00 00 00 00  |................|
 E377  00 00 00 00 00 00 00 00 00 00 00 00 00 00 00 00  |................|
 E387  00 00 00 00 00 00 00 00 00 00 00 00 00 00 00 00  |................|
 E397  00 00 00 00 00 00 00 00 00 00 00 00 00 00 00 00  |................|
 E3A7  00 00 00 00 00 00 00 00 00 00 00 00 00 00 00 00  |................|
 E3B7  00 00 00 00 00 00 00 00 00 00 00 00 00 00 00 00  |................|
 E3C7  00 00 00 00 00 00 00 00 00 00 00 00 00 00 00 00  |................|
 E3D7  00 00 00 00 00 00 00 00 00 00 00 00 00 00 00 00  |................|
 E3E7  00 00 00 00 00 00 00 00 00 00 00 00 00 00 00 00  |................|
 E3F7  00 00 00 00 00 00 00 00 00 00 00 00 00 00 00 00  |................|
 E407  00 00 00 00 00 00 00 00 00 00 00 00 00 00 00 00  |................|
 E417  00 00 00 00 00 00 00 00 00 00 00 00 00 00 00 00  |................|
 E427  00 00 00 00 00 00 00 00 00 00 00 00 00 00 00 00  |................|
 E437  00 00 00 00 00 00 00 00 00 00 00 00 00 00 00 00  |................|
 E447  00 00 00 00 00 00 00 00 00 00 00 00 00 00 00 00  |................|
 E457  00 00 00 00 00 00 00 00 00 00 00 00 00 00 00 00  |................|
 E467  00 00 00 00 00 00 00 00 00 00 00 00 00 00 00 00  |................|
 E477  00 00 00 00 00 00 00 00 00 00 00 00 00 00 00 00  |................|
 E487  00 00 00 00 00 00 00 00 00 00 00 00 00 00 00 00  |................|
 E497  00 00 00 00 00 00 00 00 00 00 00 00 00 00 00 00  |................|
 E4A7  00 00 00 00 00 00 00 00 00 00 00 00 00 00 00 00  |................|
 E4B7  00 00 00 00 00 00 00 00 00 00 00 00 00 00 00 00  |................|
 E4C7  00 00 00 00 00 00 00 00 00 00 00 00 00 00 00 00  |................|
 E4D7  00 00 00 00 00 00 00 00 00 00 00 00 00 00 00 00  |................|
 E4E7  00 00 00 00 00 00 00 00 00 00 00 00 00 00 00 00  |................|
 E4F7  00 00 00 00 00 00 00 00 00 00 00 00 00 00 00 00  |................|
 E507  00 00 00 00 00 00 00 00 00 00 00 00 00 00 00 00  |................|
 E517  00 00 00 00 00 00 00 00 00 00 00 00 00 00 00 00  |................|
 E527  00 00 00 00 00 00 00 00 00 00 00 00 00 00 00 00  |................|
 E537  00 00 00 00 00 00 00 00 00 00 00 00 00 00 00 00  |................|
 E547  00 00 00 00 00 00 00 00 00 00 00 00 00 00 00 00  |................|
 E557  00 00 00 00 00 00 00 00 00 00 00 00 00 00 00 00  |................|
 E567  00 00 00 00 00 00 00 00 00 00 00 00 00 00 00 00  |................|
 E577  00 00 00 00 00 00 00 00 00 00 00 00 00 00 00 00  |................|
 E587  00 00 00 00 00 00 00 00 00 00 00 00 00 00 00 00  |................|
 E597  00 00 00 00 00 00 00 00 00 00 00 00 00 00 00 00  |................|
 E5A7  00 00 00 00 00 00 00 00 00 00 00 00 00 00 00 00  |................|
 E5B7  00 00 00 00 00 00 00 00 00 00 00 00 00 00 00 00  |................|
 E5C7  00 00 00 00 00 00 00 00 00 00 00 00 00 00 00 00  |................|
 E5D7  00 00 00 00 00 00 00 00 00 00 00 00 00 00 00 00  |................|
 E5E7  00 00 00 00 00 00 00 00 00 00 00 00 00 00 00 00  |................|
 E5F7  00 00 00 00 00 00 00 00 00 00 00 00 00 00 00 00  |................|
 E607  00 00 00 00 00 00 00 00 00 00 00 00 00 00 00 00  |................|
 E617  00 00 00 00 00 00 00 00 00 00 00 00 00 00 00 00  |................|
 E627  00 00 00 00 00 00 00 00 00 00 00 00 00 00 00 00  |................|
 E637  00 00 00 00 00 00 00 00 00 00 00 00 00 00 00 00  |................|
 E647  00 00 00 00 00 00 00 00 00 00 00 00 00 00 00 00  |................|
 E657  00 00 00 00 00 00 00 00 00 00 00 00 00 00 00 00  |................|
 E667  00 00 00 00 00 00 00 00 00 00 00 00 00 00 00 00  |................|
 E677  00 00 00 00 00 00 00 00 00 00 00 00 00 00 00 00  |................|
 E687  00 00 00 00 00 00 00 00 00 00 00 00 00 00 00 00  |................|
 E697  00 00 00 00 00 00 00 00 00 00 00 00 00 00 00 00  |................|
 E6A7  00 00 00 00 00 00 00 00 00 00 00 00 00 00 00 00  |................|
 E6B7  00 00 00 00 00 00 00 00 00 00 00 00 00 00 00 00  |................|
 E6C7  00 00 00 00 00 00 00 00 00 00 00 00 00 00 00 00  |................|
 E6D7  00 00 00 00 00 00 00 00 00 00 00 00 00 00 00 00  |................|
 E6E7  00 00 00 00 00 00 00 00 00 00 00 00 00 00 00 00  |................|
 E6F7  00 00 00 00 00 00 00 00 00 00 00 00 00 00 00 00  |................|
 E707  00 00 00 00 00 00 00 00 00 00 00 00 00 00 00 00  |................|
 E717  00 00 00 00 00 00 00 00 00 00 00 00 00 00 00 00  |................|
 E727  00 00 00 00 00 00 00 00 00 00 00 00 00 00 00 00  |................|
 E737  00 00 00 00 00 00 00 00 00 00 00 00 00 00 00 00  |................|
 E747  00 00 00 00 00 00 00 00 00 00 00 00 00 00 00 00  |................|
 E757  00 00 00 00 00 00 00 00 00 00 00 00 00 00 00 00  |................|
 E767  00 00 00 00 00 00 00 00 00 00 00 00 00 00 00 00  |................|
 E777  00 00 00 00 00 00 00 00 00 00 00 00 00 00 00 00  |................|
 E787  00 00 00 00 00 00 00 00 00 00 00 00 00 00 00 00  |................|
 E797  00 00 00 00 00 00 00 00 00 00 00 00 00 00 00 00  |................|
 E7A7  00 00 00 00 00 00 00 00 00 00 00 00 00 00 00 00  |................|
 E7B7  00 00 00 00 00 00 00 00 00 00 00 00 00 00 00 00  |................|
 E7C7  00 00 00 00 00 00 00 00 00 00 00 00 00 00 00 00  |................|
 E7D7  00 00 00 00 00 00 00 00 00 00 00 00 00 00 00 00  |................|
 E7E7  00 00 00 00 00 00 00 00 00 00 00 00 00 00 00 00  |................|
 E7F7  00 00 00 00 00 00 00 00 00 00 00 00 00 00 00 00  |................|
 E807  00 00 00 00 00 00 00 00 00 00 00 00 00 00 00 00  |................|
 E817  00 00 00 00 00 00 00 00 00 00 00 00 00 00 00 00  |................|
 E827  00 00 00 00 00 00 00 00 00 00 00 00 00 00 00 00  |................|
 E837  00 00 00 00 00 00 00 00 00 00 00 00 00 00 00 00  |................|
 E847  00 00 00 00 00 00 00 00 00 00 00 00 00 00 00 00  |................|
 E857  00 00 00 00 00 00 00 00 00 00 00 00 00 00 00 00  |................|
 E867  00 00 00 00 00 00 00 00 00 00 00 00 00 00 00 00  |................|
 E877  00 00 00 00 00 00 00 00 00 00 00 00 00 00 00 00  |................|
 E887  00 00 00 00 00 00 00 00 00 00 00 00 00 00 00 00  |................|
 E897  00 00 00 00 00 00 00 00 00 00 00 00 00 00 00 00  |................|
 E8A7  00 00 00 00 00 00 00 00 00 00 00 00 00 00 00 00  |................|
 E8B7  00 00 00 00 00 00 00 00 00 00 00 00 00 00 00 00  |................|
 E8C7  00 00 00 00 00 00 00 00 00 00 00 00 00 00 00 00  |................|
 E8D7  00 00 00 00 00 00 00 00 00 00 00 00 00 00 00 00  |................|
 E8E7  00 00 00 00 00 00 00 00 00 00 00 00 00 00 00 00  |................|
 E8F7  00 00 00 00 00 00 00 00 00 00 00 00 00 00 00 00  |................|
 E907  00 00 00 00 00 00 00 00 00 00 00 00 00 00 00 00  |................|
 E917  00 00 00 00 00 00 00 00 00 00 00 00 00 00 00 00  |................|
 E927  00 00 00 00 00 00 00 00 00 00 00 00 00 00 00 00  |................|
 E937  00 00 00 00 00 00 00 00 00 00 00 00 00 00 00 00  |................|
 E947  00 00 00 00 00 00 00 00 00 00 00 00 00 00 00 00  |................|
 E957  00 00 00 00 00 00 00 00 00 00 00 00 00 00 00 00  |................|
 E967  00 00 00 00 00 00 00 00 00 00 00 00 00 00 00 00  |................|
 E977  00 00 00 00 00 00 00 00 00 00 00 00 00 00 00 00  |................|
 E987  00 00 00 00 00 00 00 00 00 00 00 00 00 00 00 00  |................|
 E997  00 00 00 00 00 00 00 00 00 00 00 00 00 00 00 00  |................|
 E9A7  00 00 00 00 00 00 00 00 00 00 00 00 00 00 00 00  |................|
 E9B7  00 00 00 00 00 00 00 00 00 00 00 00 00 00 00 00  |................|
 E9C7  00 00 00 00 00 00 00 00 00 00 00 00 00 00 00 00  |................|
 E9D7  00 00 00 00 00 00 00 00 00 00 00 00 00 00 00 00  |................|
 E9E7  00 00 00 00 00 00 00 00 00 00 00 00 00 00 00 00  |................|
 E9F7  00 00 00 00 00 00 00 00 00 00 00 00 00 00 00 00  |................|
 EA07  00 00 00 00 00 00 00 00 00 00 00 00 00 00 00 00  |................|
 EA17  00 00 00 00 00 00 00 00 00 00 00 00 00 00 00 00  |................|
 EA27  00 00 00 00 00 00 00 00 00 00 00 00 00 00 00 00  |................|
 EA37  00 00 00 00 00 00 00 00 00 00 00 00 00 00 00 00  |................|
 EA47  00 00 00 00 00 00 00 00 00 00 00 00 00 00 00 00  |................|
 EA57  00 00 00 00 00 00 00 00 00 00 00 00 00 00 00 00  |................|
 EA67  00 00 00 00 00 00 00 00 00 00 00 00 00 00 00 00  |................|
 EA77  00 00 00 00 00 00 00 00 00 00 00 00 00 00 00 00  |................|
 EA87  00 00 00 00 00 00 00 00 00 00 00 00 00 00 00 00  |................|
 EA97  00 00 00 00 00 00 00 00 00 00 00 00 00 00 00 00  |................|
 EAA7  00 00 00 00 00 00 00 00 00 00 00 00 00 00 00 00  |................|
 EAB7  00 00 00 00 00 00 00 00 00 00 00 00 00 00 00 00  |................|
 EAC7  00 00 00 00 00 00 00 00 00 00 00 00 00 00 00 00  |................|
 EAD7  00 00 00 00 00 00 00 00 00 00 00 00 00 00 00 00  |................|
 EAE7  00 00 00 00 00 00 00 00 00 00 00 00 00 00 00 00  |................|
 EAF7  00 00 00 00 00 00 00 00 00 00 00 00 00 00 00 00  |................|
 EB07  00 00 00 00 00 00 00 00 00 00 00 00 00 00 00 00  |................|
 EB17  00 00 00 00 00 00 00 00 00 00 00 00 00 00 00 00  |................|
 EB27  00 00 00 00 00 00 00 00 00 00 00 00 00 00 00 00  |................|
 EB37  00 00 00 00 00 00 00 00 00 00 00 00 00 00 00 00  |................|
 EB47  00 00 00 00 00 00 00 00 00 00 00 00 00 00 00 00  |................|
 EB57  00 00 00 00 00 00 00 00 00 00 00 00 00 00 00 00  |................|
 EB67  00 00 00 00 00 00 00 00 00 00 00 00 00 00 00 00  |................|
 EB77  00 00 00 00 00 00 00 00 00 00 00 00 00 00 00 00  |................|
 EB87  00 00 00 00 00 00 00 00 00 00 00 00 00 00 00 00  |................|
 EB97  00 00 00 00 00 00 00 00 00 00 00 00 00 00 00 00  |................|
 EBA7  00 00 00 00 00 00 00 00 00 00 00 00 00 00 00 00  |................|
 EBB7  00 00 00 00 00 00 00 00 00 00 00 00 00 00 00 00  |................|
 EBC7  00 00 00 00 00 00 00 00 00 00 00 00 00 00 00 00  |................|
 EBD7  00 00 00 00 00 00 00 00 00 00 00 00 00 00 00 00  |................|
 EBE7  00 00 00 00 00 00 00 00 00 00 00 00 00 00 00 00  |................|
 EBF7  00 00 00 00 00 00 00 00 00 00 00 00 00 00 00 00  |................|
 EC07  00 00 00 00 00 00 00 00 00 00 00 00 00 00 00 00  |................|
 EC17  00 00 00 00 00 00 00 00 00 00 00 00 00 00 00 00  |................|
 EC27  00 00 00 00 00 00 00 00 00 00 00 00 00 00 00 00  |................|
 EC37  00 00 00 00 00 00 00 00 00 00 00 00 00 00 00 00  |................|
 EC47  00 00 00 00 00 00 00 00 00 00 00 00 00 00 00 00  |................|
 EC57  00 00 00 00 00 00 00 00 00 00 00 00 00 00 00 00  |................|
 EC67  00 00 00 00 00 00 00 00 00 00 00 00 00 00 00 00  |................|
 EC77  00 00 00 00 00 00 00 00 00 00 00 00 00 00 00 00  |................|
 EC87  00 00 00 00 00 00 00 00 00 00 00 00 00 00 00 00  |................|
 EC97  00 00 00 00 00 00 00 00 00 00 00 00 00 00 00 00  |................|
 ECA7  00 00 00 00 00 00 00 00 00 00 00 00 00 00 00 00  |................|
 ECB7  00 00 00 00 00 00 00 00 00 00 00 00 00 00 00 00  |................|
 ECC7  00 00 00 00 00 00 00 00 00 00 00 00 00 00 00 00  |................|
 ECD7  00 00 00 00 00 00 00 00 00 00 00 00 00 00 00 00  |................|
 ECE7  00 00 00 00 00 00 00 00 00 00 00 00 00 00 00 00  |................|
 ECF7  00 00 00 00 00 00 00 00 00 00 00 00 00 00 00 00  |................|
 ED07  00 00 00 00 00 00 00 00 00 00 00 00 00 00 00 00  |................|
 ED17  00 00 00 00 00 00 00 00 00 00 00 00 00 00 00 00  |................|
 ED27  00 00 00 00 00 00 00 00 00 00 00 00 00 00 00 00  |................|
 ED37  00 00 00 00 00 00 00 00 00 00 00 00 00 00 00 00  |................|
 ED47  00 00 00 00 00 00 00 00 00 00 00 00 00 00 00 00  |................|
 ED57  00 00 00 00 00 00 00 00 00 00 00 00 00 00 00 00  |................|
 ED67  00 00 00 00 00 00 00 00 00 00 00 00 00 00 00 00  |................|
 ED77  00 00 00 00 00 00 00 00 00 00 00 00 00 00 00 00  |................|
 ED87  00 00 00 00 00 00 00 00 00 00 00 00 00 00 00 00  |................|
 ED97  00 00 00 00 00 00 00 00 00 00 00 00 00 00 00 00  |................|
 EDA7  00 00 00 00 00 00 00 00 00 00 00 00 00 00 00 00  |................|
 EDB7  00 00 00 00 00 00 00 00 00 00 00 00 00 00 00 00  |................|
 EDC7  00 00 00 00 00 00 00 00 00 00 00 00 00 00 00 00  |................|
 EDD7  00 00 00 00 00 00 00 00 00 00 00 00 00 00 00 00  |................|
 EDE7  00 00 00 00 00 00 00 00 00 00 00 00 00 00 00 00  |................|
 EDF7  00 00 00 00 00 00 00 00 00 00 00 00 00 00 00 00  |................|
 EE07  00 00 00 00 00 00 00 00 00 00 00 00 00 00 00 00  |................|
 EE17  00 00 00 00 00 00 00 00 00 00 00 00 00 00 00 00  |................|
 EE27  00 00 00 00 00 00 00 00 00 00 00 00 00 00 00 00  |................|
 EE37  00 00 00 00 00 00 00 00 00 00 00 00 00 00 00 00  |................|
 EE47  00 00 00 00 00 00 00 00 00 00 00 00 00 00 00 00  |................|
 EE57  00 00 00 00 00 00 00 00 00 00 00 00 00 00 00 00  |................|
 EE67  00 00 00 00 00 00 00 00 00 00 00 00 00 00 00 00  |................|
 EE77  00 00 00 00 00 00 00 00 00 00 00 00 00 00 00 00  |................|
 EE87  00 00 00 00 00 00 00 00 00 00 00 00 00 00 00 00  |................|
 EE97  00 00 00 00 00 00 00 00 00 00 00 00 00 00 00 00  |................|
 EEA7  00 00 00 00 00 00 00 00 00 00 00 00 00 00 00 00  |................|
 EEB7  00 00 00 00 00 00 00 00 00 00 00 00 00 00 00 00  |................|
 EEC7  00 00 00 00 00 00 00 00 00 00 00 00 00 00 00 00  |................|
 EED7  00 00 00 00 00 00 00 00 00 00 00 00 00 00 00 00  |................|
 EEE7  00 00 00 00 00 00 00 00 00 00 00 00 00 00 00 00  |................|
 EEF7  00 00 00 00 00 00 00 00 00 00 00 00 00 00 00 00  |................|
 EF07  00 00 00 00 00 00 00 00 00 00 00 00 00 00 00 00  |................|
 EF17  00 00 00 00 00 00 00 00 00 00 00 00 00 00 00 00  |................|
 EF27  00 00 00 00 00 00 00 00 00 00 00 00 00 00 00 00  |................|
 EF37  00 00 00 00 00 00 00 00 00 00 00 00 00 00 00 00  |................|
 EF47  00 00 00 00 00 00 00 00 00 00 00 00 00 00 00 00  |................|
 EF57  00 00 00 00 00 00 00 00 00 00 00 00 00 00 00 00  |................|
 EF67  00 00 00 00 00 00 00 00 00 00 00 00 00 00 00 00  |................|
 EF77  00 00 00 00 00 00 00 00 00 00 00 00 00 00 00 00  |................|
 EF87  00 00 00 00 00 00 00 00 00 00 00 00 00 00 00 00  |................|
 EF97  00 00 00 00 00 00 00 00 00 00 00 00 00 00 00 00  |................|
 EFA7  00 00 00 00 00 00 00 00 00 00 00 00 00 00 00 00  |................|
 EFB7  00 00 00 00 00 00 00 00 00 00 00 00 00 00 00 00  |................|
 EFC7  00 00 00 00 00 00 00 00 00 00 00 00 00 00 00 00  |................|
 EFD7  00 00 00 00 00 00 00 00 00 00 00 00 00 00 00 00  |................|
 EFE7  00 00 00 00 00 00 00 00 00 00 00 00 00 00 00 00  |................|
 EFF7  00 00 00 00 00 00 00 00 00 00 00 00 00 00 00 00  |................|
 F007  00 00 00 00 00 00 00 00 00                       |.........       |
 F010  78        SEI  
 F011  A2 00     LDX  #$00
 F013  BD 2B F0  LDA  $F02B, X
 F016  F0 06     BEQ  $F01E
 F018  20 27 F0  JSR  $F027
 F01B  E8        INX  
 F01C  80 F5     BRA  $F013
 F01E  4C 00 80  JMP  $8000
 F021  AD 04 F0  LDA  $F004
 F024  F0 FB     BEQ  $F021
 F026  60        RTS  
 F027  8D 01 F0  STA  $F001
 F02A  60        RTS  
 F02B  54 61 6C 69 20 46 6F 72 74 68 20 32 20 64 65 66  |Tali Forth 2 def|
 F03B  61 75 6C 74 20 6B 65 72 6E 65 6C 20 66 6F 72 20  |ault kernel for |
 F04B  70 79 36 35 6D 6F 6E 20 28 31 38 2E 20 46 65 62  |py65mon (18. Feb|
 F05B  20 32 30 31 38 29 0A 00 00 00 00 00 00 00 00 00  | 2018)..........|
 F06B  00 00 00 00 00 00 00 00 00 00 00 00 00 00 00 00  |................|
 F07B  00 00 00 00 00 00 00 00 00 00 00 00 00 00 00 00  |................|
 F08B  00 00 00 00 00 00 00 00 00 00 00 00 00 00 00 00  |................|
 F09B  00 00 00 00 00 00 00 00 00 00 00 00 00 00 00 00  |................|
 F0AB  00 00 00 00 00 00 00 00 00 00 00 00 00 00 00 00  |................|
 F0BB  00 00 00 00 00 00 00 00 00 00 00 00 00 00 00 00  |................|
 F0CB  00 00 00 00 00 00 00 00 00 00 00 00 00 00 00 00  |................|
 F0DB  00 00 00 00 00 00 00 00 00 00 00 00 00 00 00 00  |................|
 F0EB  00 00 00 00 00 00 00 00 00 00 00 00 00 00 00 00  |................|
 F0FB  00 00 00 00 00 00 00 00 00 00 00 00 00 00 00 00  |................|
 F10B  00 00 00 00 00 00 00 00 00 00 00 00 00 00 00 00  |................|
 F11B  00 00 00 00 00 00 00 00 00 00 00 00 00 00 00 00  |................|
 F12B  00 00 00 00 00 00 00 00 00 00 00 00 00 00 00 00  |................|
 F13B  00 00 00 00 00 00 00 00 00 00 00 00 00 00 00 00  |................|
 F14B  00 00 00 00 00 00 00 00 00 00 00 00 00 00 00 00  |................|
 F15B  00 00 00 00 00 00 00 00 00 00 00 00 00 00 00 00  |................|
 F16B  00 00 00 00 00 00 00 00 00 00 00 00 00 00 00 00  |................|
 F17B  00 00 00 00 00 00 00 00 00 00 00 00 00 00 00 00  |................|
 F18B  00 00 00 00 00 00 00 00 00 00 00 00 00 00 00 00  |................|
 F19B  00 00 00 00 00 00 00 00 00 00 00 00 00 00 00 00  |................|
 F1AB  00 00 00 00 00 00 00 00 00 00 00 00 00 00 00 00  |................|
 F1BB  00 00 00 00 00 00 00 00 00 00 00 00 00 00 00 00  |................|
 F1CB  00 00 00 00 00 00 00 00 00 00 00 00 00 00 00 00  |................|
 F1DB  00 00 00 00 00 00 00 00 00 00 00 00 00 00 00 00  |................|
 F1EB  00 00 00 00 00 00 00 00 00 00 00 00 00 00 00 00  |................|
 F1FB  00 00 00 00 00 00 00 00 00 00 00 00 00 00 00 00  |................|
 F20B  00 00 00 00 00 00 00 00 00 00 00 00 00 00 00 00  |................|
 F21B  00 00 00 00 00 00 00 00 00 00 00 00 00 00 00 00  |................|
 F22B  00 00 00 00 00 00 00 00 00 00 00 00 00 00 00 00  |................|
 F23B  00 00 00 00 00 00 00 00 00 00 00 00 00 00 00 00  |................|
 F24B  00 00 00 00 00 00 00 00 00 00 00 00 00 00 00 00  |................|
 F25B  00 00 00 00 00 00 00 00 00 00 00 00 00 00 00 00  |................|
 F26B  00 00 00 00 00 00 00 00 00 00 00 00 00 00 00 00  |................|
 F27B  00 00 00 00 00 00 00 00 00 00 00 00 00 00 00 00  |................|
 F28B  00 00 00 00 00 00 00 00 00 00 00 00 00 00 00 00  |................|
 F29B  00 00 00 00 00 00 00 00 00 00 00 00 00 00 00 00  |................|
 F2AB  00 00 00 00 00 00 00 00 00 00 00 00 00 00 00 00  |................|
 F2BB  00 00 00 00 00 00 00 00 00 00 00 00 00 00 00 00  |................|
 F2CB  00 00 00 00 00 00 00 00 00 00 00 00 00 00 00 00  |................|
 F2DB  00 00 00 00 00 00 00 00 00 00 00 00 00 00 00 00  |................|
 F2EB  00 00 00 00 00 00 00 00 00 00 00 00 00 00 00 00  |................|
 F2FB  00 00 00 00 00 00 00 00 00 00 00 00 00 00 00 00  |................|
 F30B  00 00 00 00 00 00 00 00 00 00 00 00 00 00 00 00  |................|
 F31B  00 00 00 00 00 00 00 00 00 00 00 00 00 00 00 00  |................|
 F32B  00 00 00 00 00 00 00 00 00 00 00 00 00 00 00 00  |................|
 F33B  00 00 00 00 00 00 00 00 00 00 00 00 00 00 00 00  |................|
 F34B  00 00 00 00 00 00 00 00 00 00 00 00 00 00 00 00  |................|
 F35B  00 00 00 00 00 00 00 00 00 00 00 00 00 00 00 00  |................|
 F36B  00 00 00 00 00 00 00 00 00 00 00 00 00 00 00 00  |................|
 F37B  00 00 00 00 00 00 00 00 00 00 00 00 00 00 00 00  |................|
 F38B  00 00 00 00 00 00 00 00 00 00 00 00 00 00 00 00  |................|
 F39B  00 00 00 00 00 00 00 00 00 00 00 00 00 00 00 00  |................|
 F3AB  00 00 00 00 00 00 00 00 00 00 00 00 00 00 00 00  |................|
 F3BB  00 00 00 00 00 00 00 00 00 00 00 00 00 00 00 00  |................|
 F3CB  00 00 00 00 00 00 00 00 00 00 00 00 00 00 00 00  |................|
 F3DB  00 00 00 00 00 00 00 00 00 00 00 00 00 00 00 00  |................|
 F3EB  00 00 00 00 00 00 00 00 00 00 00 00 00 00 00 00  |................|
 F3FB  00 00 00 00 00 00 00 00 00 00 00 00 00 00 00 00  |................|
 F40B  00 00 00 00 00 00 00 00 00 00 00 00 00 00 00 00  |................|
 F41B  00 00 00 00 00 00 00 00 00 00 00 00 00 00 00 00  |................|
 F42B  00 00 00 00 00 00 00 00 00 00 00 00 00 00 00 00  |................|
 F43B  00 00 00 00 00 00 00 00 00 00 00 00 00 00 00 00  |................|
 F44B  00 00 00 00 00 00 00 00 00 00 00 00 00 00 00 00  |................|
 F45B  00 00 00 00 00 00 00 00 00 00 00 00 00 00 00 00  |................|
 F46B  00 00 00 00 00 00 00 00 00 00 00 00 00 00 00 00  |................|
 F47B  00 00 00 00 00 00 00 00 00 00 00 00 00 00 00 00  |................|
 F48B  00 00 00 00 00 00 00 00 00 00 00 00 00 00 00 00  |................|
 F49B  00 00 00 00 00 00 00 00 00 00 00 00 00 00 00 00  |................|
 F4AB  00 00 00 00 00 00 00 00 00 00 00 00 00 00 00 00  |................|
 F4BB  00 00 00 00 00 00 00 00 00 00 00 00 00 00 00 00  |................|
 F4CB  00 00 00 00 00 00 00 00 00 00 00 00 00 00 00 00  |................|
 F4DB  00 00 00 00 00 00 00 00 00 00 00 00 00 00 00 00  |................|
 F4EB  00 00 00 00 00 00 00 00 00 00 00 00 00 00 00 00  |................|
 F4FB  00 00 00 00 00 00 00 00 00 00 00 00 00 00 00 00  |................|
 F50B  00 00 00 00 00 00 00 00 00 00 00 00 00 00 00 00  |................|
 F51B  00 00 00 00 00 00 00 00 00 00 00 00 00 00 00 00  |................|
 F52B  00 00 00 00 00 00 00 00 00 00 00 00 00 00 00 00  |................|
 F53B  00 00 00 00 00 00 00 00 00 00 00 00 00 00 00 00  |................|
 F54B  00 00 00 00 00 00 00 00 00 00 00 00 00 00 00 00  |................|
 F55B  00 00 00 00 00 00 00 00 00 00 00 00 00 00 00 00  |................|
 F56B  00 00 00 00 00 00 00 00 00 00 00 00 00 00 00 00  |................|
 F57B  00 00 00 00 00 00 00 00 00 00 00 00 00 00 00 00  |................|
 F58B  00 00 00 00 00 00 00 00 00 00 00 00 00 00 00 00  |................|
 F59B  00 00 00 00 00 00 00 00 00 00 00 00 00 00 00 00  |................|
 F5AB  00 00 00 00 00 00 00 00 00 00 00 00 00 00 00 00  |................|
 F5BB  00 00 00 00 00 00 00 00 00 00 00 00 00 00 00 00  |................|
 F5CB  00 00 00 00 00 00 00 00 00 00 00 00 00 00 00 00  |................|
 F5DB  00 00 00 00 00 00 00 00 00 00 00 00 00 00 00 00  |................|
 F5EB  00 00 00 00 00 00 00 00 00 00 00 00 00 00 00 00  |................|
 F5FB  00 00 00 00 00 00 00 00 00 00 00 00 00 00 00 00  |................|
 F60B  00 00 00 00 00 00 00 00 00 00 00 00 00 00 00 00  |................|
 F61B  00 00 00 00 00 00 00 00 00 00 00 00 00 00 00 00  |................|
 F62B  00 00 00 00 00 00 00 00 00 00 00 00 00 00 00 00  |................|
 F63B  00 00 00 00 00 00 00 00 00 00 00 00 00 00 00 00  |................|
 F64B  00 00 00 00 00 00 00 00 00 00 00 00 00 00 00 00  |................|
 F65B  00 00 00 00 00 00 00 00 00 00 00 00 00 00 00 00  |................|
 F66B  00 00 00 00 00 00 00 00 00 00 00 00 00 00 00 00  |................|
 F67B  00 00 00 00 00 00 00 00 00 00 00 00 00 00 00 00  |................|
 F68B  00 00 00 00 00 00 00 00 00 00 00 00 00 00 00 00  |................|
 F69B  00 00 00 00 00 00 00 00 00 00 00 00 00 00 00 00  |................|
 F6AB  00 00 00 00 00 00 00 00 00 00 00 00 00 00 00 00  |................|
 F6BB  00 00 00 00 00 00 00 00 00 00 00 00 00 00 00 00  |................|
 F6CB  00 00 00 00 00 00 00 00 00 00 00 00 00 00 00 00  |................|
 F6DB  00 00 00 00 00 00 00 00 00 00 00 00 00 00 00 00  |................|
 F6EB  00 00 00 00 00 00 00 00 00 00 00 00 00 00 00 00  |................|
 F6FB  00 00 00 00 00 00 00 00 00 00 00 00 00 00 00 00  |................|
 F70B  00 00 00 00 00 00 00 00 00 00 00 00 00 00 00 00  |................|
 F71B  00 00 00 00 00 00 00 00 00 00 00 00 00 00 00 00  |................|
 F72B  00 00 00 00 00 00 00 00 00 00 00 00 00 00 00 00  |................|
 F73B  00 00 00 00 00 00 00 00 00 00 00 00 00 00 00 00  |................|
 F74B  00 00 00 00 00 00 00 00 00 00 00 00 00 00 00 00  |................|
 F75B  00 00 00 00 00 00 00 00 00 00 00 00 00 00 00 00  |................|
 F76B  00 00 00 00 00 00 00 00 00 00 00 00 00 00 00 00  |................|
 F77B  00 00 00 00 00 00 00 00 00 00 00 00 00 00 00 00  |................|
 F78B  00 00 00 00 00 00 00 00 00 00 00 00 00 00 00 00  |................|
 F79B  00 00 00 00 00 00 00 00 00 00 00 00 00 00 00 00  |................|
 F7AB  00 00 00 00 00 00 00 00 00 00 00 00 00 00 00 00  |................|
 F7BB  00 00 00 00 00 00 00 00 00 00 00 00 00 00 00 00  |................|
 F7CB  00 00 00 00 00 00 00 00 00 00 00 00 00 00 00 00  |................|
 F7DB  00 00 00 00 00 00 00 00 00 00 00 00 00 00 00 00  |................|
 F7EB  00 00 00 00 00 00 00 00 00 00 00 00 00 00 00 00  |................|
 F7FB  00 00 00 00 00 00 00 00 00 00 00 00 00 00 00 00  |................|
 F80B  00 00 00 00 00 00 00 00 00 00 00 00 00 00 00 00  |................|
 F81B  00 00 00 00 00 00 00 00 00 00 00 00 00 00 00 00  |................|
 F82B  00 00 00 00 00 00 00 00 00 00 00 00 00 00 00 00  |................|
 F83B  00 00 00 00 00 00 00 00 00 00 00 00 00 00 00 00  |................|
 F84B  00 00 00 00 00 00 00 00 00 00 00 00 00 00 00 00  |................|
 F85B  00 00 00 00 00 00 00 00 00 00 00 00 00 00 00 00  |................|
 F86B  00 00 00 00 00 00 00 00 00 00 00 00 00 00 00 00  |................|
 F87B  00 00 00 00 00 00 00 00 00 00 00 00 00 00 00 00  |................|
 F88B  00 00 00 00 00 00 00 00 00 00 00 00 00 00 00 00  |................|
 F89B  00 00 00 00 00 00 00 00 00 00 00 00 00 00 00 00  |................|
 F8AB  00 00 00 00 00 00 00 00 00 00 00 00 00 00 00 00  |................|
 F8BB  00 00 00 00 00 00 00 00 00 00 00 00 00 00 00 00  |................|
 F8CB  00 00 00 00 00 00 00 00 00 00 00 00 00 00 00 00  |................|
 F8DB  00 00 00 00 00 00 00 00 00 00 00 00 00 00 00 00  |................|
 F8EB  00 00 00 00 00 00 00 00 00 00 00 00 00 00 00 00  |................|
 F8FB  00 00 00 00 00 00 00 00 00 00 00 00 00 00 00 00  |................|
 F90B  00 00 00 00 00 00 00 00 00 00 00 00 00 00 00 00  |................|
 F91B  00 00 00 00 00 00 00 00 00 00 00 00 00 00 00 00  |................|
 F92B  00 00 00 00 00 00 00 00 00 00 00 00 00 00 00 00  |................|
 F93B  00 00 00 00 00 00 00 00 00 00 00 00 00 00 00 00  |................|
 F94B  00 00 00 00 00 00 00 00 00 00 00 00 00 00 00 00  |................|
 F95B  00 00 00 00 00 00 00 00 00 00 00 00 00 00 00 00  |................|
 F96B  00 00 00 00 00 00 00 00 00 00 00 00 00 00 00 00  |................|
 F97B  00 00 00 00 00 00 00 00 00 00 00 00 00 00 00 00  |................|
 F98B  00 00 00 00 00 00 00 00 00 00 00 00 00 00 00 00  |................|
 F99B  00 00 00 00 00 00 00 00 00 00 00 00 00 00 00 00  |................|
 F9AB  00 00 00 00 00 00 00 00 00 00 00 00 00 00 00 00  |................|
 F9BB  00 00 00 00 00 00 00 00 00 00 00 00 00 00 00 00  |................|
 F9CB  00 00 00 00 00 00 00 00 00 00 00 00 00 00 00 00  |................|
 F9DB  00 00 00 00 00 00 00 00 00 00 00 00 00 00 00 00  |................|
 F9EB  00 00 00 00 00 00 00 00 00 00 00 00 00 00 00 00  |................|
 F9FB  00 00 00 00 00 00 00 00 00 00 00 00 00 00 00 00  |................|
 FA0B  00 00 00 00 00 00 00 00 00 00 00 00 00 00 00 00  |................|
 FA1B  00 00 00 00 00 00 00 00 00 00 00 00 00 00 00 00  |................|
 FA2B  00 00 00 00 00 00 00 00 00 00 00 00 00 00 00 00  |................|
 FA3B  00 00 00 00 00 00 00 00 00 00 00 00 00 00 00 00  |................|
 FA4B  00 00 00 00 00 00 00 00 00 00 00 00 00 00 00 00  |................|
 FA5B  00 00 00 00 00 00 00 00 00 00 00 00 00 00 00 00  |................|
 FA6B  00 00 00 00 00 00 00 00 00 00 00 00 00 00 00 00  |................|
 FA7B  00 00 00 00 00 00 00 00 00 00 00 00 00 00 00 00  |................|
 FA8B  00 00 00 00 00 00 00 00 00 00 00 00 00 00 00 00  |................|
 FA9B  00 00 00 00 00 00 00 00 00 00 00 00 00 00 00 00  |................|
 FAAB  00 00 00 00 00 00 00 00 00 00 00 00 00 00 00 00  |................|
 FABB  00 00 00 00 00 00 00 00 00 00 00 00 00 00 00 00  |................|
 FACB  00 00 00 00 00 00 00 00 00 00 00 00 00 00 00 00  |................|
 FADB  00 00 00 00 00 00 00 00 00 00 00 00 00 00 00 00  |................|
 FAEB  00 00 00 00 00 00 00 00 00 00 00 00 00 00 00 00  |................|
 FAFB  00 00 00 00 00 00 00 00 00 00 00 00 00 00 00 00  |................|
 FB0B  00 00 00 00 00 00 00 00 00 00 00 00 00 00 00 00  |................|
 FB1B  00 00 00 00 00 00 00 00 00 00 00 00 00 00 00 00  |................|
 FB2B  00 00 00 00 00 00 00 00 00 00 00 00 00 00 00 00  |................|
 FB3B  00 00 00 00 00 00 00 00 00 00 00 00 00 00 00 00  |................|
 FB4B  00 00 00 00 00 00 00 00 00 00 00 00 00 00 00 00  |................|
 FB5B  00 00 00 00 00 00 00 00 00 00 00 00 00 00 00 00  |................|
 FB6B  00 00 00 00 00 00 00 00 00 00 00 00 00 00 00 00  |................|
 FB7B  00 00 00 00 00 00 00 00 00 00 00 00 00 00 00 00  |................|
 FB8B  00 00 00 00 00 00 00 00 00 00 00 00 00 00 00 00  |................|
 FB9B  00 00 00 00 00 00 00 00 00 00 00 00 00 00 00 00  |................|
 FBAB  00 00 00 00 00 00 00 00 00 00 00 00 00 00 00 00  |................|
 FBBB  00 00 00 00 00 00 00 00 00 00 00 00 00 00 00 00  |................|
 FBCB  00 00 00 00 00 00 00 00 00 00 00 00 00 00 00 00  |................|
 FBDB  00 00 00 00 00 00 00 00 00 00 00 00 00 00 00 00  |................|
 FBEB  00 00 00 00 00 00 00 00 00 00 00 00 00 00 00 00  |................|
 FBFB  00 00 00 00 00 00 00 00 00 00 00 00 00 00 00 00  |................|
 FC0B  00 00 00 00 00 00 00 00 00 00 00 00 00 00 00 00  |................|
 FC1B  00 00 00 00 00 00 00 00 00 00 00 00 00 00 00 00  |................|
 FC2B  00 00 00 00 00 00 00 00 00 00 00 00 00 00 00 00  |................|
 FC3B  00 00 00 00 00 00 00 00 00 00 00 00 00 00 00 00  |................|
 FC4B  00 00 00 00 00 00 00 00 00 00 00 00 00 00 00 00  |................|
 FC5B  00 00 00 00 00 00 00 00 00 00 00 00 00 00 00 00  |................|
 FC6B  00 00 00 00 00 00 00 00 00 00 00 00 00 00 00 00  |................|
 FC7B  00 00 00 00 00 00 00 00 00 00 00 00 00 00 00 00  |................|
 FC8B  00 00 00 00 00 00 00 00 00 00 00 00 00 00 00 00  |................|
 FC9B  00 00 00 00 00 00 00 00 00 00 00 00 00 00 00 00  |................|
 FCAB  00 00 00 00 00 00 00 00 00 00 00 00 00 00 00 00  |................|
 FCBB  00 00 00 00 00 00 00 00 00 00 00 00 00 00 00 00  |................|
 FCCB  00 00 00 00 00 00 00 00 00 00 00 00 00 00 00 00  |................|
 FCDB  00 00 00 00 00 00 00 00 00 00 00 00 00 00 00 00  |................|
 FCEB  00 00 00 00 00 00 00 00 00 00 00 00 00 00 00 00  |................|
 FCFB  00 00 00 00 00 00 00 00 00 00 00 00 00 00 00 00  |................|
 FD0B  00 00 00 00 00 00 00 00 00 00 00 00 00 00 00 00  |................|
 FD1B  00 00 00 00 00 00 00 00 00 00 00 00 00 00 00 00  |................|
 FD2B  00 00 00 00 00 00 00 00 00 00 00 00 00 00 00 00  |................|
 FD3B  00 00 00 00 00 00 00 00 00 00 00 00 00 00 00 00  |................|
 FD4B  00 00 00 00 00 00 00 00 00 00 00 00 00 00 00 00  |................|
 FD5B  00 00 00 00 00 00 00 00 00 00 00 00 00 00 00 00  |................|
 FD6B  00 00 00 00 00 00 00 00 00 00 00 00 00 00 00 00  |................|
 FD7B  00 00 00 00 00 00 00 00 00 00 00 00 00 00 00 00  |................|
 FD8B  00 00 00 00 00 00 00 00 00 00 00 00 00 00 00 00  |................|
 FD9B  00 00 00 00 00 00 00 00 00 00 00 00 00 00 00 00  |................|
 FDAB  00 00 00 00 00 00 00 00 00 00 00 00 00 00 00 00  |................|
 FDBB  00 00 00 00 00 00 00 00 00 00 00 00 00 00 00 00  |................|
 FDCB  00 00 00 00 00 00 00 00 00 00 00 00 00 00 00 00  |................|
 FDDB  00 00 00 00 00 00 00 00 00 00 00 00 00 00 00 00  |................|
 FDEB  00 00 00 00 00 00 00 00 00 00 00 00 00 00 00 00  |................|
 FDFB  00 00 00 00 00 00 00 00 00 00 00 00 00 00 00 00  |................|
 FE0B  00 00 00 00 00 00 00 00 00 00 00 00 00 00 00 00  |................|
 FE1B  00 00 00 00 00 00 00 00 00 00 00 00 00 00 00 00  |................|
 FE2B  00 00 00 00 00 00 00 00 00 00 00 00 00 00 00 00  |................|
 FE3B  00 00 00 00 00 00 00 00 00 00 00 00 00 00 00 00  |................|
 FE4B  00 00 00 00 00 00 00 00 00 00 00 00 00 00 00 00  |................|
 FE5B  00 00 00 00 00 00 00 00 00 00 00 00 00 00 00 00  |................|
 FE6B  00 00 00 00 00 00 00 00 00 00 00 00 00 00 00 00  |................|
 FE7B  00 00 00 00 00 00 00 00 00 00 00 00 00 00 00 00  |................|
 FE8B  00 00 00 00 00 00 00 00 00 00 00 00 00 00 00 00  |................|
 FE9B  00 00 00 00 00 00 00 00 00 00 00 00 00 00 00 00  |................|
 FEAB  00 00 00 00 00 00 00 00 00 00 00 00 00 00 00 00  |................|
 FEBB  00 00 00 00 00 00 00 00 00 00 00 00 00 00 00 00  |................|
 FECB  00 00 00 00 00 00 00 00 00 00 00 00 00 00 00 00  |................|
 FEDB  00 00 00 00 00 00 00 00 00 00 00 00 00 00 00 00  |................|
 FEEB  00 00 00 00 00 00 00 00 00 00 00 00 00 00 00 00  |................|
 FEFB  00 00 00 00 00 00 00 00 00 00 00 00 00 00 00 00  |................|
 FF0B  00 00 00 00 00 00 00 00 00 00 00 00 00 00 00 00  |................|
 FF1B  00 00 00 00 00 00 00 00 00 00 00 00 00 00 00 00  |................|
 FF2B  00 00 00 00 00 00 00 00 00 00 00 00 00 00 00 00  |................|
 FF3B  00 00 00 00 00 00 00 00 00 00 00 00 00 00 00 00  |................|
 FF4B  00 00 00 00 00 00 00 00 00 00 00 00 00 00 00 00  |................|
 FF5B  00 00 00 00 00 00 00 00 00 00 00 00 00 00 00 00  |................|
 FF6B  00 00 00 00 00 00 00 00 00 00 00 00 00 00 00 00  |................|
 FF7B  00 00 00 00 00 00 00 00 00 00 00 00 00 00 00 00  |................|
 FF8B  00 00 00 00 00 00 00 00 00 00 00 00 00 00 00 00  |................|
 FF9B  00 00 00 00 00 00 00 00 00 00 00 00 00 00 00 00  |................|
 FFAB  00 00 00 00 00 00 00 00 00 00 00 00 00 00 00 00  |................|
 FFBB  00 00 00 00 00 00 00 00 00 00 00 00 00 00 00 00  |................|
 FFCB  00 00 00 00 00 00 00 00 00 00 00 00 00 00 00 00  |................|
 FFDB  00 00 00 00 00 00 00 00 00 00 00 00 00 00 00 00  |................|
 FFEB  00 00 00 00 00 00 00 00 00 00 00 00 00 00 00 10  |................|
 FFFB  F0 10 F0 10 F0                                   |.....           |
