 8000  D8        CLD  
 8001  A9 27     LDA  #$27
 8003  85 10     STA  $10
 8005  A9 F0     LDA  #$F0
 8007  85 11     STA  $11
 8009  A9 21     LDA  #$21
 800B  85 12     STA  $12
 800D  A9 F0     LDA  #$F0
 800F  85 13     STA  $13
 8011  A2 FF     LDX  #$FF
 8013  9A        TXS  
 8014  A2 78     LDX  #$78
 8016  A9 0A     LDA  #$0A
 8018  85 18     STA  $18
 801A  64 19     STZ  $19
 801C  A9 14     LDA  #$14
 801E  85 1A     STA  $1A
 8020  64 1B     STZ  $1B
 8022  64 1C     STZ  $1C
 8024  64 1D     STZ  $1D
 8026  A9 FF     LDA  #$FF
 8028  85 00     STA  $00
 802A  A9 02     LDA  #$02
 802C  85 01     STA  $01
 802E  A5 00     LDA  $00
 8030  85 3C     STA  $3C
 8032  A5 01     LDA  $01
 8034  85 3D     STA  $3D
 8036  E6 01     INC  $01
 8038  A0 00     LDY  #$00
 803A  A9 00     LDA  #$00
 803C  91 3C     STA  ($3C), Y
 803E  C8        INY  
 803F  D0 FB     BNE  $803C
 8041  A0 04     LDY  #$04
 8043  A9 00     LDA  #$00
 8045  91 3C     STA  ($3C), Y
 8047  C8        INY  
 8048  A9 04     LDA  #$04
 804A  91 3C     STA  ($3C), Y
 804C  C8        INY  
 804D  A9 74     LDA  #$74
 804F  91 3C     STA  ($3C), Y
 8051  C8        INY  
 8052  A9 CB     LDA  #$CB
 8054  91 3C     STA  ($3C), Y
 8056  C8        INY  
 8057  A9 08     LDA  #$08
 8059  91 3C     STA  ($3C), Y
 805B  C8        INY  
 805C  A9 CC     LDA  #$CC
 805E  91 3C     STA  ($3C), Y
 8060  C8        INY  
 8061  A9 CD     LDA  #$CD
 8063  91 3C     STA  ($3C), Y
 8065  C8        INY  
 8066  A9 D4     LDA  #$D4
 8068  91 3C     STA  ($3C), Y
 806A  C8        INY  
 806B  A9 B0     LDA  #$B0
 806D  91 3C     STA  ($3C), Y
 806F  C8        INY  
 8070  A9 CB     LDA  #$CB
 8072  91 3C     STA  ($3C), Y
 8074  A0 1E     LDY  #$1E
 8076  A9 01     LDA  #$01
 8078  91 3C     STA  ($3C), Y
 807A  A0 2E     LDY  #$2E
 807C  A9 C9     LDA  #$C9
 807E  91 3C     STA  ($3C), Y
 8080  C8        INY  
 8081  A9 85     LDA  #$85
 8083  91 3C     STA  ($3C), Y
 8085  C8        INY  
 8086  A9 C9     LDA  #$C9
 8088  91 3C     STA  ($3C), Y
 808A  C8        INY  
 808B  A9 85     LDA  #$85
 808D  91 3C     STA  ($3C), Y
 808F  A0 28     LDY  #$28
 8091  A5 00     LDA  $00
 8093  91 3C     STA  ($3C), Y
 8095  C8        INY  
 8096  A5 01     LDA  $01
 8098  91 3C     STA  ($3C), Y
 809A  A9 04     LDA  #$04
 809C  18        CLC  
 809D  65 01     ADC  $01
 809F  85 01     STA  $01
 80A1  A9 00     LDA  #$00
 80A3  85 08     STA  $08
 80A5  A9 02     LDA  #$02
 80A7  85 09     STA  $09
 80A9  64 0A     STZ  $0A
 80AB  64 0B     STZ  $0B
 80AD  64 06     STZ  $06
 80AF  64 07     STZ  $07
 80B1  64 16     STZ  $16
 80B3  64 17     STZ  $17
 80B5  A9 74     LDA  #$74
 80B7  85 02     STA  $02
 80B9  A9 CB     LDA  #$CB
 80BB  85 03     STA  $03
 80BD  20 7A 8A  JSR  $8A7A
 80C0  CA        DEX  
 80C1  CA        DEX  
 80C2  CA        DEX  
 80C3  CA        DEX  
 80C4  A9 08     LDA  #$08
 80C6  95 02     STA  $02, X
 80C8  A9 BC     LDA  #$BC
 80CA  95 03     STA  $03, X
 80CC  A9 B3     LDA  #$B3
 80CE  38        SEC  
 80CF  E9 08     SBC  #$08
 80D1  95 00     STA  $00, X
 80D3  A9 BD     LDA  #$BD
 80D5  E9 BC     SBC  #$BC
 80D7  95 01     STA  $01, X
 80D9  20 7D 90  JSR  $907D
 80DC  CA        DEX  
 80DD  CA        DEX  
 80DE  CA        DEX  
 80DF  CA        DEX  
 80E0  A9 B3     LDA  #$B3
 80E2  95 02     STA  $02, X
 80E4  A9 BD     LDA  #$BD
 80E6  95 03     STA  $03, X
 80E8  A9 B5     LDA  #$B5
 80EA  38        SEC  
 80EB  E9 B3     SBC  #$B3
 80ED  95 00     STA  $00, X
 80EF  A9 BD     LDA  #$BD
 80F1  E9 BD     SBC  #$BD
 80F3  95 01     STA  $01, X
 80F5  20 7D 90  JSR  $907D
 80F8  9C 00 7C  STZ  $7C00
 80FB  9C 80 7C  STZ  $7C80
 80FE  9C 00 7D  STZ  $7D00
 8101  9C 80 7D  STZ  $7D80
 8104  9C 00 7E  STZ  $7E00
 8107  9C 80 7E  STZ  $7E80
 810A  9C 00 7F  STZ  $7F00
 810D  9C 80 7F  STZ  $7F80
 8110  A2 78     LDX  #$78
 8112  8A        TXA  
 8113  A2 FF     LDX  #$FF
 8115  9A        TXS  
 8116  AA        TAX  
 8117  64 0E     STZ  $0E
 8119  64 0F     STZ  $0F
 811B  64 06     STZ  $06
 811D  64 07     STZ  $07
 811F  64 16     STZ  $16
 8121  64 17     STZ  $17
 8123  A9 00     LDA  #$00
 8125  85 08     STA  $08
 8127  A9 02     LDA  #$02
 8129  85 09     STA  $09
 812B  64 0A     STZ  $0A
 812D  64 0B     STZ  $0B
 812F  20 98 9B  JSR  $9B98
 8132  B5 00     LDA  $00, X
 8134  D0 05     BNE  $813B
 8136  A9 06     LDA  #$06
 8138  4C 93 D8  JMP  $D893
 813B  E8        INX  
 813C  E8        INX  
 813D  20 F9 D7  JSR  $D7F9
 8140  E0 78     CPX  #$78
 8142  F0 05     BEQ  $8149
 8144  90 03     BCC  $8149
 8146  4C 91 D8  JMP  $D891
 8149  A5 16     LDA  $16
 814B  F0 02     BEQ  $814F
 814D  A9 01     LDA  #$01
 814F  20 A6 D8  JSR  $D8A6
 8152  80 CF     BRA  $8123
 8154  20 4D 9E  JSR  $9E4D
 8157  A0 81     LDY  #$81
 8159  A9 5F     LDA  #$5F
 815B  20 59 D7  JSR  $D759
 815E  60        RTS  
 815F  B5 04     LDA  $04, X
 8161  15 05     ORA  $05, X
 8163  F0 09     BEQ  $816E
 8165  20 84 A6  JSR  $A684
 8168  20 7A 8A  JSR  $8A7A
 816B  4C 10 81  JMP  $8110
 816E  8A        TXA  
 816F  18        CLC  
 8170  69 06     ADC  #$06
 8172  AA        TAX  
 8173  60        RTS  
 8174  E0 77     CPX  #$77
 8176  30 03     BMI  $817B
 8178  4C 91 D8  JMP  $D891
 817B  B5 01     LDA  $01, X
 817D  10 0D     BPL  $818C
 817F  38        SEC  
 8180  A9 00     LDA  #$00
 8182  F5 00     SBC  $00, X
 8184  95 00     STA  $00, X
 8186  A9 00     LDA  #$00
 8188  F5 01     SBC  $01, X
 818A  95 01     STA  $01, X
 818C  60        RTS  
 818D  E0 75     CPX  #$75
 818F  30 03     BMI  $8194
 8191  4C 91 D8  JMP  $D891
 8194  B5 00     LDA  $00, X
 8196  15 01     ORA  $01, X
 8198  D0 09     BNE  $81A3
 819A  E8        INX  
 819B  E8        INX  
 819C  74 00     STZ  $00, X
 819E  74 01     STZ  $01, X
 81A0  4C 8F 82  JMP  $828F
 81A3  B5 00     LDA  $00, X
 81A5  85 22     STA  $22
 81A7  64 23     STZ  $23
 81A9  B5 02     LDA  $02, X
 81AB  85 20     STA  $20
 81AD  B5 03     LDA  $03, X
 81AF  85 21     STA  $21
 81B1  E8        INX  
 81B2  E8        INX  
 81B3  A0 00     LDY  #$00
 81B5  A5 3A     LDA  $3A
 81B7  29 F7     AND  #$F7
 81B9  1A        INC  
 81BA  09 08     ORA  #$08
 81BC  85 3A     STA  $3A
 81BE  20 42 94  JSR  $9442
 81C1  C9 0A     CMP  #$0A
 81C3  F0 20     BEQ  $81E5
 81C5  C9 0D     CMP  #$0D
 81C7  F0 1C     BEQ  $81E5
 81C9  C9 08     CMP  #$08
 81CB  F0 22     BEQ  $81EF
 81CD  C9 7F     CMP  #$7F
 81CF  F0 1E     BEQ  $81EF
 81D1  C9 10     CMP  #$10
 81D3  F0 36     BEQ  $820B
 81D5  C9 0E     CMP  #$0E
 81D7  F0 44     BEQ  $821D
 81D9  20 08 8F  JSR  $8F08
 81DC  91 20     STA  ($20), Y
 81DE  C8        INY  
 81DF  C4 22     CPY  $22
 81E1  D0 DB     BNE  $81BE
 81E3  80 03     BRA  $81E8
 81E5  20 5C A2  JSR  $A25C
 81E8  94 00     STY  $00, X
 81EA  74 01     STZ  $01, X
 81EC  4C 8F 82  JMP  $828F
 81EF  C0 00     CPY  #$00
 81F1  D0 06     BNE  $81F9
 81F3  A9 07     LDA  #$07
 81F5  20 08 8F  JSR  $8F08
 81F8  C8        INY  
 81F9  88        DEY  
 81FA  A9 08     LDA  #$08
 81FC  20 08 8F  JSR  $8F08
 81FF  A9 20     LDA  #$20
 8201  20 08 8F  JSR  $8F08
 8204  A9 08     LDA  #$08
 8206  20 08 8F  JSR  $8F08
 8209  80 B3     BRA  $81BE
 820B  A5 3A     LDA  $3A
 820D  29 07     AND  #$07
 820F  D0 08     BNE  $8219
 8211  A5 3A     LDA  $3A
 8213  09 07     ORA  #$07
 8215  85 3A     STA  $3A
 8217  80 11     BRA  $822A
 8219  C6 3A     DEC  $3A
 821B  80 0D     BRA  $822A
 821D  A9 08     LDA  #$08
 821F  24 3A     BIT  $3A
 8221  D0 07     BNE  $822A
 8223  A5 3A     LDA  $3A
 8225  29 F7     AND  #$F7
 8227  1A        INC  
 8228  85 3A     STA  $3A
 822A  A5 3A     LDA  $3A
 822C  29 F7     AND  #$F7
 822E  85 3A     STA  $3A
 8230  A9 00     LDA  #$00
 8232  85 24     STA  $24
 8234  A9 7C     LDA  #$7C
 8236  85 25     STA  $25
 8238  A5 3A     LDA  $3A
 823A  6A        ROR  
 823B  29 03     AND  #$03
 823D  18        CLC  
 823E  65 25     ADC  $25
 8240  85 25     STA  $25
 8242  A5 3A     LDA  $3A
 8244  6A        ROR  
 8245  6A        ROR  
 8246  29 80     AND  #$80
 8248  18        CLC  
 8249  65 24     ADC  $24
 824B  85 24     STA  $24
 824D  90 02     BCC  $8251
 824F  E6 25     INC  $25
 8251  A9 0D     LDA  #$0D
 8253  20 08 8F  JSR  $8F08
 8256  C0 00     CPY  #$00
 8258  F0 08     BEQ  $8262
 825A  A9 20     LDA  #$20
 825C  20 08 8F  JSR  $8F08
 825F  88        DEY  
 8260  80 F4     BRA  $8256
 8262  A9 0D     LDA  #$0D
 8264  20 08 8F  JSR  $8F08
 8267  B1 24     LDA  ($24), Y
 8269  85 3B     STA  $3B
 826B  E6 24     INC  $24
 826D  D0 02     BNE  $8271
 826F  E6 25     INC  $25
 8271  A9 0D     LDA  #$0D
 8273  20 08 8F  JSR  $8F08
 8276  C4 3B     CPY  $3B
 8278  D0 03     BNE  $827D
 827A  4C BE 81  JMP  $81BE
 827D  C4 22     CPY  $22
 827F  F0 0A     BEQ  $828B
 8281  B1 24     LDA  ($24), Y
 8283  91 20     STA  ($20), Y
 8285  20 08 8F  JSR  $8F08
 8288  C8        INY  
 8289  80 EB     BRA  $8276
 828B  88        DEY  
 828C  4C BE 81  JMP  $81BE
 828F  A9 00     LDA  #$00
 8291  85 24     STA  $24
 8293  A9 7C     LDA  #$7C
 8295  85 25     STA  $25
 8297  A5 3A     LDA  $3A
 8299  6A        ROR  
 829A  29 03     AND  #$03
 829C  18        CLC  
 829D  65 25     ADC  $25
 829F  85 25     STA  $25
 82A1  A5 3A     LDA  $3A
 82A3  6A        ROR  
 82A4  6A        ROR  
 82A5  29 80     AND  #$80
 82A7  18        CLC  
 82A8  65 24     ADC  $24
 82AA  85 24     STA  $24
 82AC  90 02     BCC  $82B0
 82AE  E6 25     INC  $25
 82B0  98        TYA  
 82B1  C9 80     CMP  #$80
 82B3  90 02     BCC  $82B7
 82B5  A9 7F     LDA  #$7F
 82B7  85 3B     STA  $3B
 82B9  A0 00     LDY  #$00
 82BB  91 24     STA  ($24), Y
 82BD  E6 24     INC  $24
 82BF  D0 02     BNE  $82C3
 82C1  E6 25     INC  $25
 82C3  C4 3B     CPY  $3B
 82C5  F0 07     BEQ  $82CE
 82C7  B1 20     LDA  ($20), Y
 82C9  91 24     STA  ($24), Y
 82CB  C8        INY  
 82CC  80 F5     BRA  $82C3
 82CE  60        RTS  
 82CF  A5 16     LDA  $16
 82D1  05 17     ORA  $17
 82D3  F0 0C     BEQ  $82E1
 82D5  20 10 86  JSR  $8610
 82D8  A0 8B     LDY  #$8B
 82DA  A9 D4     LDA  #$D4
 82DC  20 59 D7  JSR  $D759
 82DF  80 06     BRA  $82E7
 82E1  20 52 A3  JSR  $A352
 82E4  20 D4 8B  JSR  $8BD4
 82E7  60        RTS  
 82E8  E0 77     CPX  #$77
 82EA  30 03     BMI  $82EF
 82EC  4C 91 D8  JMP  $D891
 82EF  A0 00     LDY  #$00
 82F1  A9 4C     LDA  #$4C
 82F3  91 00     STA  ($00), Y
 82F5  C8        INY  
 82F6  B5 00     LDA  $00, X
 82F8  91 00     STA  ($00), Y
 82FA  C8        INY  
 82FB  B5 01     LDA  $01, X
 82FD  91 00     STA  ($00), Y
 82FF  C8        INY  
 8300  98        TYA  
 8301  18        CLC  
 8302  65 00     ADC  $00
 8304  85 00     STA  $00
 8306  90 02     BCC  $830A
 8308  E6 01     INC  $01
 830A  E8        INX  
 830B  E8        INX  
 830C  60        RTS  
 830D  60        RTS  
 830E  E0 77     CPX  #$77
 8310  30 03     BMI  $8315
 8312  4C 91 D8  JMP  $D891
 8315  B5 01     LDA  $01, X
 8317  30 22     BMI  $833B
 8319  18        CLC  
 831A  A5 00     LDA  $00
 831C  75 00     ADC  $00, X
 831E  85 00     STA  $00
 8320  A5 01     LDA  $01
 8322  75 01     ADC  $01, X
 8324  85 01     STA  $01
 8326  A0 00     LDY  #$00
 8328  C4 00     CPY  $00
 832A  A9 7C     LDA  #$7C
 832C  E5 01     SBC  $01
 832E  B0 48     BCS  $8378
 8330  84 00     STY  $00
 8332  A9 7C     LDA  #$7C
 8334  85 01     STA  $01
 8336  A9 00     LDA  #$00
 8338  4C 93 D8  JMP  $D893
 833B  CA        DEX  
 833C  CA        DEX  
 833D  A5 00     LDA  $00
 833F  95 00     STA  $00, X
 8341  A5 01     LDA  $01
 8343  95 01     STA  $01, X
 8345  20 8F 9A  JSR  $9A8F
 8348  CA        DEX  
 8349  CA        DEX  
 834A  A9 FF     LDA  #$FF
 834C  95 00     STA  $00, X
 834E  A9 02     LDA  #$02
 8350  95 01     STA  $01, X
 8352  20 DE D7  JSR  $D7DE
 8355  F0 17     BEQ  $836E
 8357  30 15     BMI  $836E
 8359  A9 FF     LDA  #$FF
 835B  85 00     STA  $00
 835D  A9 02     LDA  #$02
 835F  85 01     STA  $01
 8361  A9 74     LDA  #$74
 8363  85 02     STA  $02
 8365  A9 CB     LDA  #$CB
 8367  85 03     STA  $03
 8369  A9 0A     LDA  #$0A
 836B  4C 93 D8  JMP  $D893
 836E  B5 02     LDA  $02, X
 8370  85 00     STA  $00
 8372  B5 03     LDA  $03, X
 8374  85 01     STA  $01
 8376  E8        INX  
 8377  E8        INX  
 8378  E8        INX  
 8379  E8        INX  
 837A  60        RTS  
 837B  20 DC D8  JSR  $D8DC
 837E  A0 01     LDY  #$01
 8380  B1 02     LDA  ($02), Y
 8382  29 F5     AND  #$F5
 8384  91 02     STA  ($02), Y
 8386  60        RTS  
 8387  20 78 92  JSR  $9278
 838A  20 37 99  JSR  $9937
 838D  20 E7 A2  JSR  $A2E7
 8390  20 FC 98  JSR  $98FC
 8393  20 19 9E  JSR  $9E19
 8396  60        RTS  
 8397  20 DC D8  JSR  $D8DC
 839A  A0 01     LDY  #$01
 839C  B1 02     LDA  ($02), Y
 839E  09 02     ORA  #$02
 83A0  29 F7     AND  #$F7
 83A2  91 02     STA  ($02), Y
 83A4  60        RTS  
 83A5  E0 75     CPX  #$75
 83A7  30 03     BMI  $83AC
 83A9  4C 91 D8  JMP  $D891
 83AC  B5 00     LDA  $00, X
 83AE  35 02     AND  $02, X
 83B0  95 02     STA  $02, X
 83B2  B5 01     LDA  $01, X
 83B4  35 03     AND  $03, X
 83B6  95 03     STA  $03, X
 83B8  E8        INX  
 83B9  E8        INX  
 83BA  60        RTS  
 83BB  CA        DEX  
 83BC  CA        DEX  
 83BD  A9 02     LDA  #$02
 83BF  95 00     STA  $00, X
 83C1  74 01     STZ  $01, X
 83C3  60        RTS  
 83C4  E0 75     CPX  #$75
 83C6  30 03     BMI  $83CB
 83C8  4C 91 D8  JMP  $D891
 83CB  A9 1B     LDA  #$1B
 83CD  20 08 8F  JSR  $8F08
 83D0  A9 5B     LDA  #$5B
 83D2  20 08 8F  JSR  $8F08
 83D5  20 C9 D8  JSR  $D8C9
 83D8  A9 3B     LDA  #$3B
 83DA  20 08 8F  JSR  $8F08
 83DD  20 C9 D8  JSR  $D8C9
 83E0  A9 48     LDA  #$48
 83E2  20 08 8F  JSR  $8F08
 83E5  60        RTS  
 83E6  A5 0A     LDA  $0A
 83E8  85 0C     STA  $0C
 83EA  A5 0B     LDA  $0B
 83EC  85 0D     STA  $0D
 83EE  60        RTS  
 83EF  CA        DEX  
 83F0  CA        DEX  
 83F1  A9 18     LDA  #$18
 83F3  95 00     STA  $00, X
 83F5  A9 00     LDA  #$00
 83F7  95 01     STA  $01, X
 83F9  60        RTS  
 83FA  20 BA 92  JSR  $92BA
 83FD  60        RTS  
 83FE  A9 07     LDA  #$07
 8400  20 08 8F  JSR  $8F08
 8403  60        RTS  
 8404  CA        DEX  
 8405  CA        DEX  
 8406  A9 20     LDA  #$20
 8408  95 00     STA  $00, X
 840A  74 01     STZ  $01, X
 840C  60        RTS  
 840D  CA        DEX  
 840E  CA        DEX  
 840F  18        CLC  
 8410  A5 3C     LDA  $3C
 8412  69 00     ADC  #$00
 8414  95 00     STA  $00, X
 8416  A5 3D     LDA  $3D
 8418  69 00     ADC  #$00
 841A  95 01     STA  $01, X
 841C  60        RTS  
 841D  CA        DEX  
 841E  CA        DEX  
 841F  A0 28     LDY  #$28
 8421  B1 3C     LDA  ($3C), Y
 8423  95 00     STA  $00, X
 8425  C8        INY  
 8426  B1 3C     LDA  ($3C), Y
 8428  95 01     STA  $01, X
 842A  60        RTS  
 842B  A0 2A     LDY  #$2A
 842D  B1 3C     LDA  ($3C), Y
 842F  D5 00     CMP  $00, X
 8431  D0 0F     BNE  $8442
 8433  C8        INY  
 8434  B1 3C     LDA  ($3C), Y
 8436  D5 01     CMP  $01, X
 8438  D0 08     BNE  $8442
 843A  A0 2C     LDY  #$2C
 843C  B1 3C     LDA  ($3C), Y
 843E  29 01     AND  #$01
 8440  D0 30     BNE  $8472
 8442  A0 2C     LDY  #$2C
 8444  B1 3C     LDA  ($3C), Y
 8446  C9 03     CMP  #$03
 8448  D0 0C     BNE  $8456
 844A  20 1D 84  JSR  $841D
 844D  20 33 86  JSR  $8633
 8450  20 1F 91  JSR  $911F
 8453  20 CE 85  JSR  $85CE
 8456  A0 2A     LDY  #$2A
 8458  B5 00     LDA  $00, X
 845A  91 3C     STA  ($3C), Y
 845C  C8        INY  
 845D  B5 01     LDA  $01, X
 845F  91 3C     STA  ($3C), Y
 8461  20 1D 84  JSR  $841D
 8464  20 E7 A2  JSR  $A2E7
 8467  20 AB 85  JSR  $85AB
 846A  A9 01     LDA  #$01
 846C  A0 2C     LDY  #$2C
 846E  91 3C     STA  ($3C), Y
 8470  CA        DEX  
 8471  CA        DEX  
 8472  A0 28     LDY  #$28
 8474  B1 3C     LDA  ($3C), Y
 8476  95 00     STA  $00, X
 8478  C8        INY  
 8479  B1 3C     LDA  ($3C), Y
 847B  95 01     STA  $01, X
 847D  60        RTS  
 847E  E0 77     CPX  #$77
 8480  30 03     BMI  $8485
 8482  4C 91 D8  JMP  $D891
 8485  4C A0 85  JMP  $85A0
 8488  62 61 73 65 20 40 20 73 77 61 70 20 64 65 63 69  |base @ swap deci|
 8498  6D 61 6C 20 31 30 32 34 20 2A 20 64 75 70 20 62  |mal 1024 * dup b|
 84A8  75 66 66 65 72 3A 20 72 61 6D 64 72 69 76 65 20  |uffer: ramdrive |
 84B8  3A 20 62 6C 6F 63 6B 2D 72 65 61 64 2D 72 61 6D  |: block-read-ram|
 84C8  64 72 69 76 65 20 72 61 6D 64 72 69 76 65 20 73  |drive ramdrive s|
 84D8  77 61 70 20 31 30 32 34 20 2A 20 2B 20 73 77 61  |wap 1024 * + swa|
 84E8  70 20 31 30 32 34 20 6D 6F 76 65 20 3B 20 3A 20  |p 1024 move ; : |
 84F8  62 6C 6F 63 6B 2D 77 72 69 74 65 2D 72 61 6D 64  |block-write-ramd|
 8508  72 69 76 65 20 72 61 6D 64 72 69 76 65 20 73 77  |rive ramdrive sw|
 8518  61 70 20 31 30 32 34 20 2A 20 2B 20 31 30 32 34  |ap 1024 * + 1024|
 8528  20 6D 6F 76 65 20 3B 20 27 20 62 6C 6F 63 6B 2D  | move ; ' block-|
 8538  72 65 61 64 2D 72 61 6D 64 72 69 76 65 20 62 6C  |read-ramdrive bl|
 8548  6F 63 6B 2D 72 65 61 64 2D 76 65 63 74 6F 72 20  |ock-read-vector |
 8558  21 20 27 20 62 6C 6F 63 6B 2D 77 72 69 74 65 2D  |! ' block-write-|
 8568  72 61 6D 64 72 69 76 65 20 62 6C 6F 63 6B 2D 77  |ramdrive block-w|
 8578  72 69 74 65 2D 76 65 63 74 6F 72 20 21 20 72 61  |rite-vector ! ra|
 8588  6D 64 72 69 76 65 20 73 77 61 70 20 62 6C 61 6E  |mdrive swap blan|
 8598  6B 20 62 61 73 65 20 21                          |k base !        |
 85A0  20 E3 A1  JSR  $A1E3
 85A3  88 84 18 01                                      |....            |
 85A7  20 7D 90  JSR  $907D
 85AA  60        RTS  
 85AB  A0 2E     LDY  #$2E
 85AD  B1 3C     LDA  ($3C), Y
 85AF  85 20     STA  $20
 85B1  C8        INY  
 85B2  B1 3C     LDA  ($3C), Y
 85B4  85 21     STA  $21
 85B6  6C 20 00  JMP  ($0020)
 85B9  CA        DEX  
 85BA  CA        DEX  
 85BB  18        CLC  
 85BC  A5 3C     LDA  $3C
 85BE  69 2E     ADC  #$2E
 85C0  95 00     STA  $00, X
 85C2  A5 3D     LDA  $3D
 85C4  69 00     ADC  #$00
 85C6  95 01     STA  $01, X
 85C8  60        RTS  
 85C9  A9 0C     LDA  #$0C
 85CB  4C 93 D8  JMP  $D893
 85CE  A0 30     LDY  #$30
 85D0  B1 3C     LDA  ($3C), Y
 85D2  85 20     STA  $20
 85D4  C8        INY  
 85D5  B1 3C     LDA  ($3C), Y
 85D7  85 21     STA  $21
 85D9  6C 20 00  JMP  ($0020)
 85DC  CA        DEX  
 85DD  CA        DEX  
 85DE  18        CLC  
 85DF  A5 3C     LDA  $3C
 85E1  69 30     ADC  #$30
 85E3  95 00     STA  $00, X
 85E5  A5 3D     LDA  $3D
 85E7  69 00     ADC  #$00
 85E9  95 01     STA  $01, X
 85EB  60        RTS  
 85EC  E0 75     CPX  #$75
 85EE  30 03     BMI  $85F3
 85F0  4C 91 D8  JMP  $D891
 85F3  18        CLC  
 85F4  B5 00     LDA  $00, X
 85F6  B4 02     LDY  $02, X
 85F8  75 02     ADC  $02, X
 85FA  95 02     STA  $02, X
 85FC  94 00     STY  $00, X
 85FE  B5 01     LDA  $01, X
 8600  B4 03     LDY  $03, X
 8602  75 03     ADC  $03, X
 8604  95 03     STA  $03, X
 8606  94 01     STY  $01, X
 8608  60        RTS  
 8609  20 D2 86  JSR  $86D2
 860C  20 9C 94  JSR  $949C
 860F  60        RTS  
 8610  20 52 A3  JSR  $A352
 8613  20 9C 94  JSR  $949C
 8616  60        RTS  
 8617  A0 86     LDY  #$86
 8619  A9 1F     LDA  #$1F
 861B  20 59 D7  JSR  $D759
 861E  60        RTS  
 861F  68        PLA  
 8620  85 1E     STA  $1E
 8622  68        PLA  
 8623  85 1F     STA  $1F
 8625  A0 01     LDY  #$01
 8627  B1 1E     LDA  ($1E), Y
 8629  85 20     STA  $20
 862B  C8        INY  
 862C  B1 1E     LDA  ($1E), Y
 862E  85 21     STA  $21
 8630  6C 20 00  JMP  ($0020)
 8633  CA        DEX  
 8634  CA        DEX  
 8635  18        CLC  
 8636  A5 3C     LDA  $3C
 8638  69 2A     ADC  #$2A
 863A  95 00     STA  $00, X
 863C  A5 3D     LDA  $3D
 863E  69 00     ADC  #$00
 8640  95 01     STA  $01, X
 8642  60        RTS  
 8643  A0 2C     LDY  #$2C
 8645  B1 3C     LDA  ($3C), Y
 8647  C9 03     CMP  #$03
 8649  D0 0C     BNE  $8657
 864B  20 1D 84  JSR  $841D
 864E  20 33 86  JSR  $8633
 8651  20 1F 91  JSR  $911F
 8654  20 CE 85  JSR  $85CE
 8657  A0 2A     LDY  #$2A
 8659  B5 00     LDA  $00, X
 865B  91 3C     STA  ($3C), Y
 865D  C8        INY  
 865E  B5 01     LDA  $01, X
 8660  91 3C     STA  ($3C), Y
 8662  A9 01     LDA  #$01
 8664  A0 2C     LDY  #$2C
 8666  91 3C     STA  ($3C), Y
 8668  A0 28     LDY  #$28
 866A  B1 3C     LDA  ($3C), Y
 866C  95 00     STA  $00, X
 866E  C8        INY  
 866F  B1 3C     LDA  ($3C), Y
 8671  95 01     STA  $01, X
 8673  60        RTS  
 8674  20 80 8A  JSR  $8A80
 8677  20 0E 83  JSR  $830E
 867A  60        RTS  
 867B  CA        DEX  
 867C  CA        DEX  
 867D  18        CLC  
 867E  A5 3C     LDA  $3C
 8680  69 2C     ADC  #$2C
 8682  95 00     STA  $00, X
 8684  A5 3D     LDA  $3D
 8686  69 00     ADC  #$00
 8688  95 01     STA  $01, X
 868A  60        RTS  
 868B  00        BRK  
 868C  60        RTS  
 868D  E0 77     CPX  #$77
 868F  30 03     BMI  $8694
 8691  4C 91 D8  JMP  $D891
 8694  B5 00     LDA  $00, X
 8696  20 69 D7  JSR  $D769
 8699  E8        INX  
 869A  E8        INX  
 869B  60        RTS  
 869C  E0 77     CPX  #$77
 869E  30 03     BMI  $86A3
 86A0  4C 91 D8  JMP  $D891
 86A3  A1 00     LDA  ($00, X)
 86A5  95 00     STA  $00, X
 86A7  74 01     STZ  $01, X
 86A9  60        RTS  
 86AA  E0 75     CPX  #$75
 86AC  30 03     BMI  $86B1
 86AE  4C 91 D8  JMP  $D891
 86B1  B5 02     LDA  $02, X
 86B3  81 00     STA  ($00, X)
 86B5  E8        INX  
 86B6  E8        INX  
 86B7  E8        INX  
 86B8  E8        INX  
 86B9  60        RTS  
 86BA  20 5F A9  JSR  $A95F
 86BD  60        RTS  
 86BE  E0 77     CPX  #$77
 86C0  30 03     BMI  $86C5
 86C2  4C 91 D8  JMP  $D891
 86C5  F6 00     INC  $00, X
 86C7  D0 02     BNE  $86CB
 86C9  F6 01     INC  $01, X
 86CB  F6 00     INC  $00, X
 86CD  D0 02     BNE  $86D1
 86CF  F6 01     INC  $01, X
 86D1  60        RTS  
 86D2  20 87 99  JSR  $9987
 86D5  B5 00     LDA  $00, X
 86D7  15 01     ORA  $01, X
 86D9  D0 05     BNE  $86E0
 86DB  A9 05     LDA  #$05
 86DD  4C 93 D8  JMP  $D893
 86E0  E8        INX  
 86E1  E8        INX  
 86E2  A1 00     LDA  ($00, X)
 86E4  95 00     STA  $00, X
 86E6  74 01     STZ  $01, X
 86E8  60        RTS  
 86E9  E0 77     CPX  #$77
 86EB  30 03     BMI  $86F0
 86ED  4C 91 D8  JMP  $D891
 86F0  60        RTS  
 86F1  E0 73     CPX  #$73
 86F3  30 03     BMI  $86F8
 86F5  4C 91 D8  JMP  $D891
 86F8  B5 00     LDA  $00, X
 86FA  20 84 D8  JSR  $D884
 86FD  90 02     BCC  $8701
 86FF  A9 20     LDA  #$20
 8701  A8        TAY  
 8702  CA        DEX  
 8703  CA        DEX  
 8704  B5 04     LDA  $04, X
 8706  95 00     STA  $00, X
 8708  B5 05     LDA  $05, X
 870A  95 01     STA  $01, X
 870C  B5 06     LDA  $06, X
 870E  95 02     STA  $02, X
 8710  B5 07     LDA  $07, X
 8712  95 03     STA  $03, X
 8714  B5 00     LDA  $00, X
 8716  15 01     ORA  $01, X
 8718  F0 79     BEQ  $8793
 871A  98        TYA  
 871B  C9 20     CMP  #$20
 871D  D0 09     BNE  $8728
 871F  A1 02     LDA  ($02, X)
 8721  20 84 D8  JSR  $D884
 8724  B0 32     BCS  $8758
 8726  80 04     BRA  $872C
 8728  C1 02     CMP  ($02, X)
 872A  F0 2C     BEQ  $8758
 872C  B5 00     LDA  $00, X
 872E  D0 02     BNE  $8732
 8730  D6 01     DEC  $01, X
 8732  D6 00     DEC  $00, X
 8734  B5 00     LDA  $00, X
 8736  15 01     ORA  $01, X
 8738  F0 08     BEQ  $8742
 873A  F6 02     INC  $02, X
 873C  D0 02     BNE  $8740
 873E  F6 03     INC  $03, X
 8740  80 D8     BRA  $871A
 8742  B5 04     LDA  $04, X
 8744  95 00     STA  $00, X
 8746  B5 05     LDA  $05, X
 8748  95 01     STA  $01, X
 874A  B5 06     LDA  $06, X
 874C  95 02     STA  $02, X
 874E  B5 07     LDA  $07, X
 8750  95 03     STA  $03, X
 8752  74 04     STZ  $04, X
 8754  74 05     STZ  $05, X
 8756  80 3B     BRA  $8793
 8758  B5 06     LDA  $06, X
 875A  48        PHA  
 875B  B5 07     LDA  $07, X
 875D  48        PHA  
 875E  B5 02     LDA  $02, X
 8760  95 06     STA  $06, X
 8762  B5 03     LDA  $03, X
 8764  95 07     STA  $07, X
 8766  F6 06     INC  $06, X
 8768  D0 02     BNE  $876C
 876A  F6 07     INC  $07, X
 876C  68        PLA  
 876D  95 03     STA  $03, X
 876F  68        PLA  
 8770  95 02     STA  $02, X
 8772  B5 05     LDA  $05, X
 8774  48        PHA  
 8775  B5 04     LDA  $04, X
 8777  48        PHA  
 8778  B5 00     LDA  $00, X
 877A  95 04     STA  $04, X
 877C  B5 01     LDA  $01, X
 877E  95 05     STA  $05, X
 8780  68        PLA  
 8781  38        SEC  
 8782  F5 00     SBC  $00, X
 8784  95 00     STA  $00, X
 8786  68        PLA  
 8787  F5 01     SBC  $01, X
 8789  95 01     STA  $01, X
 878B  B5 04     LDA  $04, X
 878D  D0 02     BNE  $8791
 878F  D6 05     DEC  $05, X
 8791  D6 04     DEC  $04, X
 8793  60        RTS  
 8794  E0 73     CPX  #$73
 8796  30 03     BMI  $879B
 8798  4C 91 D8  JMP  $D891
 879B  B5 02     LDA  $02, X
 879D  85 22     STA  $22
 879F  B5 03     LDA  $03, X
 87A1  85 23     STA  $23
 87A3  B5 04     LDA  $04, X
 87A5  85 20     STA  $20
 87A7  B5 05     LDA  $05, X
 87A9  85 21     STA  $21
 87AB  A0 00     LDY  #$00
 87AD  B5 01     LDA  $01, X
 87AF  F0 0F     BEQ  $87C0
 87B1  B1 20     LDA  ($20), Y
 87B3  91 22     STA  ($22), Y
 87B5  C8        INY  
 87B6  D0 F9     BNE  $87B1
 87B8  E6 21     INC  $21
 87BA  E6 23     INC  $23
 87BC  D6 01     DEC  $01, X
 87BE  D0 F1     BNE  $87B1
 87C0  B5 00     LDA  $00, X
 87C2  F0 09     BEQ  $87CD
 87C4  B1 20     LDA  ($20), Y
 87C6  91 22     STA  ($22), Y
 87C8  C8        INY  
 87C9  D6 00     DEC  $00, X
 87CB  D0 F7     BNE  $87C4
 87CD  8A        TXA  
 87CE  18        CLC  
 87CF  69 06     ADC  #$06
 87D1  AA        TAX  
 87D2  60        RTS  
 87D3  E0 73     CPX  #$73
 87D5  30 03     BMI  $87DA
 87D7  4C 91 D8  JMP  $D891
 87DA  B5 02     LDA  $02, X
 87DC  85 22     STA  $22
 87DE  B5 03     LDA  $03, X
 87E0  18        CLC  
 87E1  75 01     ADC  $01, X
 87E3  85 23     STA  $23
 87E5  B5 04     LDA  $04, X
 87E7  85 20     STA  $20
 87E9  B5 05     LDA  $05, X
 87EB  18        CLC  
 87EC  75 01     ADC  $01, X
 87EE  85 21     STA  $21
 87F0  F6 01     INC  $01, X
 87F2  B4 00     LDY  $00, X
 87F4  F0 0E     BEQ  $8804
 87F6  88        DEY  
 87F7  F0 07     BEQ  $8800
 87F9  B1 20     LDA  ($20), Y
 87FB  91 22     STA  ($22), Y
 87FD  88        DEY  
 87FE  D0 F9     BNE  $87F9
 8800  B2 20     LDA  ($20)
 8802  92 22     STA  ($22)
 8804  C6 21     DEC  $21
 8806  C6 23     DEC  $23
 8808  D6 01     DEC  $01, X
 880A  D0 EA     BNE  $87F6
 880C  8A        TXA  
 880D  18        CLC  
 880E  69 06     ADC  #$06
 8810  AA        TAX  
 8811  60        RTS  
 8812  A5 16     LDA  $16
 8814  05 17     ORA  $17
 8816  F0 05     BEQ  $881D
 8818  A9 07     LDA  #$07
 881A  4C 93 D8  JMP  $D893
 881D  C6 16     DEC  $16
 881F  C6 17     DEC  $17
 8821  A9 40     LDA  #$40
 8823  05 3A     ORA  $3A
 8825  85 3A     STA  $3A
 8827  20 DC D8  JSR  $D8DC
 882A  A5 03     LDA  $03
 882C  48        PHA  
 882D  A5 02     LDA  $02
 882F  48        PHA  
 8830  20 80 8A  JSR  $8A80
 8833  20 DC D8  JSR  $D8DC
 8836  A5 02     LDA  $02
 8838  85 04     STA  $04
 883A  A5 03     LDA  $03
 883C  85 05     STA  $05
 883E  68        PLA  
 883F  85 02     STA  $02
 8841  68        PLA  
 8842  85 03     STA  $03
 8844  20 EF D8  JSR  $D8EF
 8847  A5 00     LDA  $00
 8849  38        SEC  
 884A  E9 03     SBC  #$03
 884C  85 00     STA  $00
 884E  B0 02     BCS  $8852
 8850  C6 01     DEC  $01
 8852  60        RTS  
 8853  A5 16     LDA  $16
 8855  05 17     ORA  $17
 8857  F0 05     BEQ  $885E
 8859  A9 07     LDA  #$07
 885B  4C 93 D8  JMP  $D893
 885E  C6 16     DEC  $16
 8860  C6 17     DEC  $17
 8862  A9 BF     LDA  #$BF
 8864  25 3A     AND  $3A
 8866  85 3A     STA  $3A
 8868  A5 00     LDA  $00
 886A  85 04     STA  $04
 886C  A5 01     LDA  $01
 886E  85 05     STA  $05
 8870  60        RTS  
 8871  E0 77     CPX  #$77
 8873  D0 03     BNE  $8878
 8875  4C 91 D8  JMP  $D891
 8878  B5 00     LDA  $00, X
 887A  92 00     STA  ($00)
 887C  E6 00     INC  $00
 887E  D0 02     BNE  $8882
 8880  E6 01     INC  $01
 8882  B5 01     LDA  $01, X
 8884  92 00     STA  ($00)
 8886  E6 00     INC  $00
 8888  D0 02     BNE  $888C
 888A  E6 01     INC  $01
 888C  E8        INX  
 888D  E8        INX  
 888E  60        RTS  
 888F  E0 71     CPX  #$71
 8891  D0 03     BNE  $8896
 8893  4C 91 D8  JMP  $D891
 8896  B5 02     LDA  $02, X
 8898  85 22     STA  $22
 889A  B5 03     LDA  $03, X
 889C  85 23     STA  $23
 889E  B5 06     LDA  $06, X
 88A0  85 20     STA  $20
 88A2  B5 07     LDA  $07, X
 88A4  85 21     STA  $21
 88A6  B5 04     LDA  $04, X
 88A8  15 05     ORA  $05, X
 88AA  F0 2C     BEQ  $88D8
 88AC  B5 00     LDA  $00, X
 88AE  15 01     ORA  $01, X
 88B0  F0 3A     BEQ  $88EC
 88B2  B2 20     LDA  ($20)
 88B4  D2 22     CMP  ($22)
 88B6  90 26     BCC  $88DE
 88B8  D0 32     BNE  $88EC
 88BA  E6 20     INC  $20
 88BC  D0 02     BNE  $88C0
 88BE  E6 21     INC  $21
 88C0  E6 22     INC  $22
 88C2  D0 02     BNE  $88C6
 88C4  E6 23     INC  $23
 88C6  B5 04     LDA  $04, X
 88C8  D0 02     BNE  $88CC
 88CA  D6 05     DEC  $05, X
 88CC  D6 04     DEC  $04, X
 88CE  B5 00     LDA  $00, X
 88D0  D0 02     BNE  $88D4
 88D2  D6 01     DEC  $01, X
 88D4  D6 00     DEC  $00, X
 88D6  80 CE     BRA  $88A6
 88D8  B5 00     LDA  $00, X
 88DA  15 01     ORA  $01, X
 88DC  F0 08     BEQ  $88E6
 88DE  A9 FF     LDA  #$FF
 88E0  95 06     STA  $06, X
 88E2  95 07     STA  $07, X
 88E4  80 0C     BRA  $88F2
 88E6  74 06     STZ  $06, X
 88E8  74 07     STZ  $07, X
 88EA  80 06     BRA  $88F2
 88EC  A9 01     LDA  #$01
 88EE  95 06     STA  $06, X
 88F0  74 07     STZ  $07, X
 88F2  8A        TXA  
 88F3  18        CLC  
 88F4  69 06     ADC  #$06
 88F6  AA        TAX  
 88F7  60        RTS  
 88F8  E0 77     CPX  #$77
 88FA  30 03     BMI  $88FF
 88FC  4C 91 D8  JMP  $D891
 88FF  B5 01     LDA  $01, X
 8901  48        PHA  
 8902  B5 00     LDA  $00, X
 8904  48        PHA  
 8905  20 7A 93  JSR  $937A
 8908  B5 00     LDA  $00, X
 890A  15 01     ORA  $01, X
 890C  D0 03     BNE  $8911
 890E  4C F9 89  JMP  $89F9
 8911  B5 00     LDA  $00, X
 8913  85 28     STA  $28
 8915  B5 01     LDA  $01, X
 8917  85 29     STA  $29
 8919  F6 00     INC  $00, X
 891B  D0 02     BNE  $891F
 891D  F6 01     INC  $01, X
 891F  A1 00     LDA  ($00, X)
 8921  85 24     STA  $24
 8923  29 02     AND  #$02
 8925  F0 0D     BEQ  $8934
 8927  A5 28     LDA  $28
 8929  95 00     STA  $00, X
 892B  A5 29     LDA  $29
 892D  95 01     STA  $01, X
 892F  20 24 A9  JSR  $A924
 8932  80 27     BRA  $895B
 8934  A5 24     LDA  $24
 8936  29 08     AND  #$08
 8938  F0 03     BEQ  $893D
 893A  4C F9 89  JMP  $89F9
 893D  A5 28     LDA  $28
 893F  95 00     STA  $00, X
 8941  A5 29     LDA  $29
 8943  95 01     STA  $01, X
 8945  20 24 A9  JSR  $A924
 8948  B5 01     LDA  $01, X
 894A  C5 1B     CMP  $1B
 894C  90 0D     BCC  $895B
 894E  D0 08     BNE  $8958
 8950  B5 00     LDA  $00, X
 8952  C5 1A     CMP  $1A
 8954  90 05     BCC  $895B
 8956  F0 03     BEQ  $895B
 8958  4C F9 89  JMP  $89F9
 895B  CA        DEX  
 895C  CA        DEX  
 895D  CA        DEX  
 895E  CA        DEX  
 895F  B5 04     LDA  $04, X
 8961  95 00     STA  $00, X
 8963  B5 05     LDA  $05, X
 8965  95 01     STA  $01, X
 8967  68        PLA  
 8968  95 04     STA  $04, X
 896A  68        PLA  
 896B  95 05     STA  $05, X
 896D  A5 00     LDA  $00
 896F  95 02     STA  $02, X
 8971  A5 01     LDA  $01
 8973  95 03     STA  $03, X
 8975  A0 00     LDY  #$00
 8977  B9 E7 89  LDA  $89E7, Y
 897A  D5 04     CMP  $04, X
 897C  D0 07     BNE  $8985
 897E  B9 E8 89  LDA  $89E8, Y
 8981  D5 05     CMP  $05, X
 8983  F0 0C     BEQ  $8991
 8985  B9 E7 89  LDA  $89E7, Y
 8988  19 E8 89  ORA  $89E8, Y
 898B  F0 22     BEQ  $89AF
 898D  C8        INY  
 898E  C8        INY  
 898F  80 E6     BRA  $8977
 8991  98        TYA  
 8992  4A        LSR  
 8993  A8        TAY  
 8994  B9 F3 89  LDA  $89F3, Y
 8997  85 28     STA  $28
 8999  18        CLC  
 899A  75 04     ADC  $04, X
 899C  95 04     STA  $04, X
 899E  90 02     BCC  $89A2
 89A0  F6 05     INC  $05, X
 89A2  06 28     ASL  $28
 89A4  38        SEC  
 89A5  B5 00     LDA  $00, X
 89A7  E5 28     SBC  $28
 89A9  95 00     STA  $00, X
 89AB  B0 02     BCS  $89AF
 89AD  D6 01     DEC  $01, X
 89AF  A5 1C     LDA  $1C
 89B1  05 1D     ORA  $1D
 89B3  F0 1C     BEQ  $89D1
 89B5  A5 24     LDA  $24
 89B7  29 10     AND  #$10
 89B9  F0 16     BEQ  $89D1
 89BB  18        CLC  
 89BC  B5 04     LDA  $04, X
 89BE  69 07     ADC  #$07
 89C0  95 04     STA  $04, X
 89C2  90 02     BCC  $89C6
 89C4  F6 05     INC  $05, X
 89C6  38        SEC  
 89C7  B5 00     LDA  $00, X
 89C9  E9 07     SBC  #$07
 89CB  95 00     STA  $00, X
 89CD  B0 02     BCS  $89D1
 89CF  D6 01     DEC  $01, X
 89D1  B5 01     LDA  $01, X
 89D3  48        PHA  
 89D4  B5 00     LDA  $00, X
 89D6  48        PHA  
 89D7  20 DF 96  JSR  $96DF
 89DA  18        CLC  
 89DB  68        PLA  
 89DC  65 00     ADC  $00
 89DE  85 00     STA  $00
 89E0  68        PLA  
 89E1  65 01     ADC  $01
 89E3  85 01     STA  $01
 89E5  80 2C     BRA  $8A13
 89E7  4A 9B 35 9B BD A4 17 A6 8D A5 00 00 04 04 04 06  |J.5.............|
 89F7  06 00                                            |..              |
 89F9  A9 20     LDA  #$20
 89FB  92 00     STA  ($00)
 89FD  A0 01     LDY  #$01
 89FF  68        PLA  
 8A00  91 00     STA  ($00), Y
 8A02  C8        INY  
 8A03  68        PLA  
 8A04  91 00     STA  ($00), Y
 8A06  A9 03     LDA  #$03
 8A08  18        CLC  
 8A09  65 00     ADC  $00
 8A0B  85 00     STA  $00
 8A0D  90 02     BCC  $8A11
 8A0F  E6 01     INC  $01
 8A11  E8        INX  
 8A12  E8        INX  
 8A13  60        RTS  
 8A14  20 DC D8  JSR  $D8DC
 8A17  A0 01     LDY  #$01
 8A19  B1 02     LDA  ($02), Y
 8A1B  09 01     ORA  #$01
 8A1D  91 02     STA  ($02), Y
 8A1F  60        RTS  
 8A20  E0 77     CPX  #$77
 8A22  30 03     BMI  $8A27
 8A24  4C 91 D8  JMP  $D891
 8A27  20 80 8A  JSR  $8A80
 8A2A  38        SEC  
 8A2B  A5 00     LDA  $00
 8A2D  E9 02     SBC  #$02
 8A2F  85 20     STA  $20
 8A31  A5 01     LDA  $01
 8A33  E9 00     SBC  #$00
 8A35  85 21     STA  $21
 8A37  A9 72     LDA  #$72
 8A39  92 20     STA  ($20)
 8A3B  A0 01     LDY  #$01
 8A3D  A9 D7     LDA  #$D7
 8A3F  91 20     STA  ($20), Y
 8A41  20 71 88  JSR  $8871
 8A44  20 45 94  JSR  $9445
 8A47  B5 00     LDA  $00, X
 8A49  85 20     STA  $20
 8A4B  B5 01     LDA  $01, X
 8A4D  85 21     STA  $21
 8A4F  A0 06     LDY  #$06
 8A51  B1 20     LDA  ($20), Y
 8A53  18        CLC  
 8A54  69 02     ADC  #$02
 8A56  91 20     STA  ($20), Y
 8A58  C8        INY  
 8A59  B1 20     LDA  ($20), Y
 8A5B  69 00     ADC  #$00
 8A5D  91 20     STA  ($20), Y
 8A5F  E8        INX  
 8A60  E8        INX  
 8A61  60        RTS  
 8A62  E0 77     CPX  #$77
 8A64  30 03     BMI  $8A69
 8A66  4C 91 D8  JMP  $D891
 8A69  A1 00     LDA  ($00, X)
 8A6B  A8        TAY  
 8A6C  F6 00     INC  $00, X
 8A6E  D0 02     BNE  $8A72
 8A70  F6 01     INC  $01, X
 8A72  98        TYA  
 8A73  CA        DEX  
 8A74  CA        DEX  
 8A75  95 00     STA  $00, X
 8A77  74 01     STZ  $01, X
 8A79  60        RTS  
 8A7A  A9 0A     LDA  #$0A
 8A7C  20 08 8F  JSR  $8F08
 8A7F  60        RTS  
 8A80  20 87 99  JSR  $9987
 8A83  B5 00     LDA  $00, X
 8A85  15 01     ORA  $01, X
 8A87  D0 05     BNE  $8A8E
 8A89  A9 05     LDA  #$05
 8A8B  4C 93 D8  JMP  $D893
 8A8E  74 01     STZ  $01, X
 8A90  B5 00     LDA  $00, X
 8A92  85 22     STA  $22
 8A94  A5 00     LDA  $00
 8A96  85 20     STA  $20
 8A98  A5 01     LDA  $01
 8A9A  85 21     STA  $21
 8A9C  B5 00     LDA  $00, X
 8A9E  18        CLC  
 8A9F  69 08     ADC  #$08
 8AA1  85 24     STA  $24
 8AA3  18        CLC  
 8AA4  69 03     ADC  #$03
 8AA6  95 00     STA  $00, X
 8AA8  74 01     STZ  $01, X
 8AAA  20 0E 83  JSR  $830E
 8AAD  20 DC D8  JSR  $D8DC
 8AB0  A0 00     LDY  #$00
 8AB2  A5 22     LDA  $22
 8AB4  91 20     STA  ($20), Y
 8AB6  A9 08     LDA  #$08
 8AB8  09 20     ORA  #$20
 8ABA  C8        INY  
 8ABB  91 20     STA  ($20), Y
 8ABD  C8        INY  
 8ABE  A5 02     LDA  $02
 8AC0  91 20     STA  ($20), Y
 8AC2  C8        INY  
 8AC3  A5 03     LDA  $03
 8AC5  91 20     STA  ($20), Y
 8AC7  C8        INY  
 8AC8  A5 21     LDA  $21
 8ACA  85 03     STA  $03
 8ACC  A5 20     LDA  $20
 8ACE  85 02     STA  $02
 8AD0  18        CLC  
 8AD1  65 24     ADC  $24
 8AD3  91 20     STA  ($20), Y
 8AD5  48        PHA  
 8AD6  C8        INY  
 8AD7  A5 21     LDA  $21
 8AD9  69 00     ADC  #$00
 8ADB  91 20     STA  ($20), Y
 8ADD  C8        INY  
 8ADE  68        PLA  
 8ADF  18        CLC  
 8AE0  69 03     ADC  #$03
 8AE2  91 20     STA  ($20), Y
 8AE4  88        DEY  
 8AE5  B1 20     LDA  ($20), Y
 8AE7  69 00     ADC  #$00
 8AE9  C8        INY  
 8AEA  C8        INY  
 8AEB  91 20     STA  ($20), Y
 8AED  C8        INY  
 8AEE  B5 00     LDA  $00, X
 8AF0  38        SEC  
 8AF1  E9 08     SBC  #$08
 8AF3  85 28     STA  $28
 8AF5  B5 01     LDA  $01, X
 8AF7  E9 00     SBC  #$00
 8AF9  85 29     STA  $29
 8AFB  B1 28     LDA  ($28), Y
 8AFD  C9 5B     CMP  #$5B
 8AFF  B0 07     BCS  $8B08
 8B01  C9 41     CMP  #$41
 8B03  90 03     BCC  $8B08
 8B05  18        CLC  
 8B06  69 20     ADC  #$20
 8B08  91 20     STA  ($20), Y
 8B0A  C8        INY  
 8B0B  C6 22     DEC  $22
 8B0D  D0 EC     BNE  $8AFB
 8B0F  A9 20     LDA  #$20
 8B11  91 20     STA  ($20), Y
 8B13  C8        INY  
 8B14  A9 B9     LDA  #$B9
 8B16  91 20     STA  ($20), Y
 8B18  C8        INY  
 8B19  A9 D7     LDA  #$D7
 8B1B  91 20     STA  ($20), Y
 8B1D  20 EF D8  JSR  $D8EF
 8B20  E8        INX  
 8B21  E8        INX  
 8B22  60        RTS  
 8B23  E0 71     CPX  #$71
 8B25  30 03     BMI  $8B2A
 8B27  4C 91 D8  JMP  $D891
 8B2A  38        SEC  
 8B2B  B5 06     LDA  $06, X
 8B2D  F5 02     SBC  $02, X
 8B2F  95 06     STA  $06, X
 8B31  B5 07     LDA  $07, X
 8B33  F5 03     SBC  $03, X
 8B35  95 07     STA  $07, X
 8B37  B5 04     LDA  $04, X
 8B39  F5 00     SBC  $00, X
 8B3B  95 04     STA  $04, X
 8B3D  B5 05     LDA  $05, X
 8B3F  F5 01     SBC  $01, X
 8B41  95 05     STA  $05, X
 8B43  E8        INX  
 8B44  E8        INX  
 8B45  E8        INX  
 8B46  E8        INX  
 8B47  60        RTS  
 8B48  E0 71     CPX  #$71
 8B4A  30 03     BMI  $8B4F
 8B4C  4C 91 D8  JMP  $D891
 8B4F  18        CLC  
 8B50  B5 02     LDA  $02, X
 8B52  75 06     ADC  $06, X
 8B54  95 06     STA  $06, X
 8B56  B5 03     LDA  $03, X
 8B58  75 07     ADC  $07, X
 8B5A  95 07     STA  $07, X
 8B5C  B5 00     LDA  $00, X
 8B5E  75 04     ADC  $04, X
 8B60  95 04     STA  $04, X
 8B62  B5 01     LDA  $01, X
 8B64  75 05     ADC  $05, X
 8B66  95 05     STA  $05, X
 8B68  E8        INX  
 8B69  E8        INX  
 8B6A  E8        INX  
 8B6B  E8        INX  
 8B6C  60        RTS  
 8B6D  E0 75     CPX  #$75
 8B6F  30 03     BMI  $8B74
 8B71  4C 91 D8  JMP  $D891
 8B74  E8        INX  
 8B75  E8        INX  
 8B76  60        RTS  
 8B77  E0 75     CPX  #$75
 8B79  30 03     BMI  $8B7E
 8B7B  4C 91 D8  JMP  $D891
 8B7E  B5 01     LDA  $01, X
 8B80  10 17     BPL  $8B99
 8B82  A0 00     LDY  #$00
 8B84  38        SEC  
 8B85  98        TYA  
 8B86  F5 02     SBC  $02, X
 8B88  95 02     STA  $02, X
 8B8A  98        TYA  
 8B8B  F5 03     SBC  $03, X
 8B8D  95 03     STA  $03, X
 8B8F  98        TYA  
 8B90  F5 00     SBC  $00, X
 8B92  95 00     STA  $00, X
 8B94  98        TYA  
 8B95  F5 01     SBC  $01, X
 8B97  95 01     STA  $01, X
 8B99  60        RTS  
 8B9A  A9 0A     LDA  #$0A
 8B9C  85 18     STA  $18
 8B9E  64 19     STZ  $19
 8BA0  60        RTS  
 8BA1  20 80 8A  JSR  $8A80
 8BA4  A5 00     LDA  $00
 8BA6  38        SEC  
 8BA7  E9 02     SBC  #$02
 8BA9  85 20     STA  $20
 8BAB  A5 01     LDA  $01
 8BAD  E9 00     SBC  #$00
 8BAF  85 21     STA  $21
 8BB1  A0 00     LDY  #$00
 8BB3  A9 86     LDA  #$86
 8BB5  91 20     STA  ($20), Y
 8BB7  C8        INY  
 8BB8  A9 D7     LDA  #$D7
 8BBA  91 20     STA  ($20), Y
 8BBC  A9 9A     LDA  #$9A
 8BBE  92 00     STA  ($00)
 8BC0  E6 00     INC  $00
 8BC2  D0 02     BNE  $8BC6
 8BC4  E6 01     INC  $01
 8BC6  A9 D7     LDA  #$D7
 8BC8  92 00     STA  ($00)
 8BCA  E6 00     INC  $00
 8BCC  D0 02     BNE  $8BD0
 8BCE  E6 01     INC  $01
 8BD0  20 44 8A  JSR  $8A44
 8BD3  60        RTS  
 8BD4  20 D2 A3  JSR  $A3D2
 8BD7  20 1F 91  JSR  $911F
 8BDA  60        RTS  
 8BDB  20 D2 A3  JSR  $A3D2
 8BDE  20 CD A2  JSR  $A2CD
 8BE1  60        RTS  
 8BE2  A0 1F     LDY  #$1F
 8BE4  B1 3C     LDA  ($3C), Y
 8BE6  A0 04     LDY  #$04
 8BE8  91 3C     STA  ($3C), Y
 8BEA  60        RTS  
 8BEB  A9 78     LDA  #$78
 8BED  86 26     STX  $26
 8BEF  38        SEC  
 8BF0  E5 26     SBC  $26
 8BF2  4A        LSR  
 8BF3  CA        DEX  
 8BF4  CA        DEX  
 8BF5  95 00     STA  $00, X
 8BF7  74 01     STZ  $01, X
 8BF9  60        RTS  
 8BFA  E0 77     CPX  #$77
 8BFC  30 03     BMI  $8C01
 8BFE  4C 91 D8  JMP  $D891
 8C01  CA        DEX  
 8C02  CA        DEX  
 8C03  74 00     STZ  $00, X
 8C05  74 01     STZ  $01, X
 8C07  74 03     STZ  $03, X
 8C09  B5 02     LDA  $02, X
 8C0B  C9 30     CMP  #$30
 8C0D  90 23     BCC  $8C32
 8C0F  C9 3A     CMP  #$3A
 8C11  90 12     BCC  $8C25
 8C13  C9 41     CMP  #$41
 8C15  90 1B     BCC  $8C32
 8C17  C9 61     CMP  #$61
 8C19  90 07     BCC  $8C22
 8C1B  C9 7B     CMP  #$7B
 8C1D  B0 03     BCS  $8C22
 8C1F  18        CLC  
 8C20  69 E0     ADC  #$E0
 8C22  38        SEC  
 8C23  E9 07     SBC  #$07
 8C25  38        SEC  
 8C26  E9 30     SBC  #$30
 8C28  C5 18     CMP  $18
 8C2A  B0 06     BCS  $8C32
 8C2C  95 02     STA  $02, X
 8C2E  D6 00     DEC  $00, X
 8C30  D6 01     DEC  $01, X
 8C32  60        RTS  
 8C33  E0 75     CPX  #$75
 8C35  30 03     BMI  $8C3A
 8C37  4C 91 D8  JMP  $D891
 8C3A  20 C1 AE  JSR  $AEC1
 8C3D  60        RTS  
 8C3E  E0 75     CPX  #$75
 8C40  30 03     BMI  $8C45
 8C42  4C 91 D8  JMP  $D891
 8C45  A0 00     LDY  #$00
 8C47  38        SEC  
 8C48  98        TYA  
 8C49  F5 02     SBC  $02, X
 8C4B  95 02     STA  $02, X
 8C4D  98        TYA  
 8C4E  F5 03     SBC  $03, X
 8C50  95 03     STA  $03, X
 8C52  98        TYA  
 8C53  F5 00     SBC  $00, X
 8C55  95 00     STA  $00, X
 8C57  98        TYA  
 8C58  F5 01     SBC  $01, X
 8C5A  95 01     STA  $01, X
 8C5C  60        RTS  
 8C5D  A9 FF     LDA  #$FF
 8C5F  85 20     STA  $20
 8C61  80 02     BRA  $8C65
 8C63  64 20     STZ  $20
 8C65  CA        DEX  
 8C66  CA        DEX  
 8C67  A5 00     LDA  $00
 8C69  95 00     STA  $00, X
 8C6B  A5 01     LDA  $01
 8C6D  95 01     STA  $01, X
 8C6F  A9 05     LDA  #$05
 8C71  A8        TAY  
 8C72  91 00     STA  ($00), Y
 8C74  88        DEY  
 8C75  10 FB     BPL  $8C72
 8C77  1A        INC  
 8C78  18        CLC  
 8C79  65 00     ADC  $00
 8C7B  85 00     STA  $00
 8C7D  90 02     BCC  $8C81
 8C7F  E6 01     INC  $01
 8C81  A5 20     LDA  $20
 8C83  F0 17     BEQ  $8C9C
 8C85  A0 14     LDY  #$14
 8C87  5A        PHY  
 8C88  B9 E2 8C  LDA  $8CE2, Y
 8C8B  91 00     STA  ($00), Y
 8C8D  88        DEY  
 8C8E  10 F8     BPL  $8C88
 8C90  68        PLA  
 8C91  18        CLC  
 8C92  65 00     ADC  $00
 8C94  85 00     STA  $00
 8C96  A5 01     LDA  $01
 8C98  69 00     ADC  #$00
 8C9A  85 01     STA  $01
 8C9C  A0 24     LDY  #$24
 8C9E  5A        PHY  
 8C9F  B9 BE 8C  LDA  $8CBE, Y
 8CA2  91 00     STA  ($00), Y
 8CA4  88        DEY  
 8CA5  10 F8     BPL  $8C9F
 8CA7  68        PLA  
 8CA8  18        CLC  
 8CA9  65 00     ADC  $00
 8CAB  85 00     STA  $00
 8CAD  A5 01     LDA  $01
 8CAF  69 00     ADC  #$00
 8CB1  85 01     STA  $01
 8CB3  CA        DEX  
 8CB4  CA        DEX  
 8CB5  A5 00     LDA  $00
 8CB7  95 00     STA  $00, X
 8CB9  A5 01     LDA  $01
 8CBB  95 01     STA  $01, X
 8CBD  60        RTS  
 8CBE  38        SEC  
 8CBF  A9 00     LDA  #$00
 8CC1  F5 02     SBC  $02, X
 8CC3  95 02     STA  $02, X
 8CC5  A9 80     LDA  #$80
 8CC7  F5 03     SBC  $03, X
 8CC9  95 03     STA  $03, X
 8CCB  48        PHA  
 8CCC  B5 02     LDA  $02, X
 8CCE  48        PHA  
 8CCF  18        CLC  
 8CD0  B5 00     LDA  $00, X
 8CD2  75 02     ADC  $02, X
 8CD4  95 00     STA  $00, X
 8CD6  B5 01     LDA  $01, X
 8CD8  75 03     ADC  $03, X
 8CDA  48        PHA  
 8CDB  B5 00     LDA  $00, X
 8CDD  48        PHA  
 8CDE  E8        INX  
 8CDF  E8        INX  
 8CE0  E8        INX  
 8CE1  E8        INX  
 8CE2  20 11 A5  JSR  $A511
 8CE5  20 E8 8F  JSR  $8FE8
 8CE8  B5 00     LDA  $00, X
 8CEA  15 01     ORA  $01, X
 8CEC  F0 06     BEQ  $8CF4
 8CEE  8A        TXA  
 8CEF  18        CLC  
 8CF0  69 06     ADC  #$06
 8CF2  AA        TAX  
 8CF3  60        RTS  
 8CF4  E8        INX  
 8CF5  E8        INX  
 8CF6  A0 8D     LDY  #$8D
 8CF8  A9 05     LDA  #$05
 8CFA  20 59 D7  JSR  $D759
 8CFD  A0 D7     LDY  #$D7
 8CFF  A9 9F     LDA  #$9F
 8D01  20 59 D7  JSR  $D759
 8D04  60        RTS  
 8D05  7A        PLY  
 8D06  68        PLA  
 8D07  C8        INY  
 8D08  D0 01     BNE  $8D0B
 8D0A  1A        INC  
 8D0B  84 20     STY  $20
 8D0D  85 21     STA  $21
 8D0F  20 DC D8  JSR  $D8DC
 8D12  A5 02     LDA  $02
 8D14  18        CLC  
 8D15  69 04     ADC  #$04
 8D17  85 22     STA  $22
 8D19  A5 03     LDA  $03
 8D1B  69 00     ADC  #$00
 8D1D  85 23     STA  $23
 8D1F  B2 22     LDA  ($22)
 8D21  18        CLC  
 8D22  69 01     ADC  #$01
 8D24  85 24     STA  $24
 8D26  A0 01     LDY  #$01
 8D28  B1 22     LDA  ($22), Y
 8D2A  69 00     ADC  #$00
 8D2C  85 25     STA  $25
 8D2E  A5 20     LDA  $20
 8D30  92 24     STA  ($24)
 8D32  A5 21     LDA  $21
 8D34  91 24     STA  ($24), Y
 8D36  60        RTS  
 8D37  E0 77     CPX  #$77
 8D39  30 03     BMI  $8D3E
 8D3B  4C 91 D8  JMP  $D891
 8D3E  20 C8 8E  JSR  $8EC8
 8D41  20 74 81  JSR  $8174
 8D44  20 5F A9  JSR  $A95F
 8D47  20 64 94  JSR  $9464
 8D4A  20 B5 98  JSR  $98B5
 8D4D  20 F7 9B  JSR  $9BF7
 8D50  20 15 A1  JSR  $A115
 8D53  20 8F 98  JSR  $988F
 8D56  20 84 A6  JSR  $A684
 8D59  20 5C A2  JSR  $A25C
 8D5C  60        RTS  
 8D5D  CA        DEX  
 8D5E  CA        DEX  
 8D5F  A9 29     LDA  #$29
 8D61  95 00     STA  $00, X
 8D63  74 01     STZ  $01, X
 8D65  20 E2 99  JSR  $99E2
 8D68  20 84 A6  JSR  $A684
 8D6B  60        RTS  
 8D6C  20 4D 9E  JSR  $9E4D
 8D6F  A0 A6     LDY  #$A6
 8D71  A9 84     LDA  #$84
 8D73  20 59 D7  JSR  $D759
 8D76  60        RTS  
 8D77  E0 75     CPX  #$75
 8D79  30 03     BMI  $8D7E
 8D7B  4C 91 D8  JMP  $D891
 8D7E  20 BD A4  JSR  $A4BD
 8D81  20 C8 8E  JSR  $8EC8
 8D84  20 74 81  JSR  $8174
 8D87  20 5F A9  JSR  $A95F
 8D8A  20 64 94  JSR  $9464
 8D8D  20 B5 98  JSR  $98B5
 8D90  20 F7 9B  JSR  $9BF7
 8D93  20 15 A1  JSR  $A115
 8D96  20 8F 98  JSR  $988F
 8D99  20 4A 9B  JSR  $9B4A
 8D9C  20 37 99  JSR  $9937
 8D9F  20 7A 96  JSR  $967A
 8DA2  20 62 A2  JSR  $A262
 8DA5  20 84 A6  JSR  $A684
 8DA8  60        RTS  
 8DA9  20 EB 8B  JSR  $8BEB
 8DAC  A9 3C     LDA  #$3C
 8DAE  20 08 8F  JSR  $8F08
 8DB1  B5 00     LDA  $00, X
 8DB3  48        PHA  
 8DB4  CA        DEX  
 8DB5  CA        DEX  
 8DB6  95 00     STA  $00, X
 8DB8  74 01     STZ  $01, X
 8DBA  20 C9 D8  JSR  $D8C9
 8DBD  A9 3E     LDA  #$3E
 8DBF  20 08 8F  JSR  $8F08
 8DC2  A9 20     LDA  #$20
 8DC4  20 08 8F  JSR  $8F08
 8DC7  E8        INX  
 8DC8  E8        INX  
 8DC9  E0 78     CPX  #$78
 8DCB  F0 1E     BEQ  $8DEB
 8DCD  7A        PLY  
 8DCE  A9 77     LDA  #$77
 8DD0  85 24     STA  $24
 8DD2  64 25     STZ  $25
 8DD4  CA        DEX  
 8DD5  CA        DEX  
 8DD6  B2 24     LDA  ($24)
 8DD8  95 01     STA  $01, X
 8DDA  C6 24     DEC  $24
 8DDC  B2 24     LDA  ($24)
 8DDE  95 00     STA  $00, X
 8DE0  C6 24     DEC  $24
 8DE2  5A        PHY  
 8DE3  20 37 8D  JSR  $8D37
 8DE6  7A        PLY  
 8DE7  88        DEY  
 8DE8  D0 EA     BNE  $8DD4
 8DEA  48        PHA  
 8DEB  68        PLA  
 8DEC  60        RTS  
 8DED  E0 75     CPX  #$75
 8DEF  30 03     BMI  $8DF4
 8DF1  4C 91 D8  JMP  $D891
 8DF4  20 DE A4  JSR  $A4DE
 8DF7  20 77 8B  JSR  $8B77
 8DFA  20 64 94  JSR  $9464
 8DFD  20 B5 98  JSR  $98B5
 8E00  20 F7 9B  JSR  $9BF7
 8E03  20 15 A1  JSR  $A115
 8E06  20 8F 98  JSR  $988F
 8E09  20 84 A6  JSR  $A684
 8E0C  20 5C A2  JSR  $A25C
 8E0F  60        RTS  
 8E10  E0 73     CPX  #$73
 8E12  30 03     BMI  $8E17
 8E14  4C 91 D8  JMP  $D891
 8E17  20 BD A4  JSR  $A4BD
 8E1A  20 DE A4  JSR  $A4DE
 8E1D  20 77 8B  JSR  $8B77
 8E20  20 64 94  JSR  $9464
 8E23  20 B5 98  JSR  $98B5
 8E26  20 F7 9B  JSR  $9BF7
 8E29  20 15 A1  JSR  $A115
 8E2C  20 8F 98  JSR  $988F
 8E2F  20 4A 9B  JSR  $9B4A
 8E32  20 37 99  JSR  $9937
 8E35  20 7A 96  JSR  $967A
 8E38  20 62 A2  JSR  $A262
 8E3B  20 84 A6  JSR  $A684
 8E3E  60        RTS  
 8E3F  E0 77     CPX  #$77
 8E41  30 03     BMI  $8E46
 8E43  4C 91 D8  JMP  $D891
 8E46  E8        INX  
 8E47  E8        INX  
 8E48  60        RTS  
 8E49  E0 75     CPX  #$75
 8E4B  30 03     BMI  $8E50
 8E4D  4C 91 D8  JMP  $D891
 8E50  A0 10     LDY  #$10
 8E52  64 22     STZ  $22
 8E54  20 7A 8A  JSR  $8A7A
 8E57  B5 03     LDA  $03, X
 8E59  20 C7 D7  JSR  $D7C7
 8E5C  B5 02     LDA  $02, X
 8E5E  20 C7 D7  JSR  $D7C7
 8E61  20 5C A2  JSR  $A25C
 8E64  20 5C A2  JSR  $A25C
 8E67  B5 00     LDA  $00, X
 8E69  15 01     ORA  $01, X
 8E6B  F0 39     BEQ  $8EA6
 8E6D  A1 02     LDA  ($02, X)
 8E6F  48        PHA  
 8E70  20 C7 D7  JSR  $D7C7
 8E73  20 5C A2  JSR  $A25C
 8E76  68        PLA  
 8E77  20 77 D8  JSR  $D877
 8E7A  B0 02     BCS  $8E7E
 8E7C  A9 2E     LDA  #$2E
 8E7E  5A        PHY  
 8E7F  A4 22     LDY  $22
 8E81  91 00     STA  ($00), Y
 8E83  E6 22     INC  $22
 8E85  7A        PLY  
 8E86  C0 09     CPY  #$09
 8E88  D0 03     BNE  $8E8D
 8E8A  20 5C A2  JSR  $A25C
 8E8D  F6 02     INC  $02, X
 8E8F  D0 02     BNE  $8E93
 8E91  F6 03     INC  $03, X
 8E93  B5 00     LDA  $00, X
 8E95  D0 02     BNE  $8E99
 8E97  D6 01     DEC  $01, X
 8E99  D6 00     DEC  $00, X
 8E9B  88        DEY  
 8E9C  D0 C9     BNE  $8E67
 8E9E  20 5C A2  JSR  $A25C
 8EA1  20 B4 8E  JSR  $8EB4
 8EA4  80 AA     BRA  $8E50
 8EA6  A5 22     LDA  $22
 8EA8  F0 06     BEQ  $8EB0
 8EAA  20 5C A2  JSR  $A25C
 8EAD  20 B4 8E  JSR  $8EB4
 8EB0  20 05 A5  JSR  $A505
 8EB3  60        RTS  
 8EB4  A0 00     LDY  #$00
 8EB6  B1 00     LDA  ($00), Y
 8EB8  20 08 8F  JSR  $8F08
 8EBB  C8        INY  
 8EBC  C0 08     CPY  #$08
 8EBE  D0 03     BNE  $8EC3
 8EC0  20 5C A2  JSR  $A25C
 8EC3  C6 22     DEC  $22
 8EC5  D0 EF     BNE  $8EB6
 8EC7  60        RTS  
 8EC8  E0 77     CPX  #$77
 8ECA  30 03     BMI  $8ECF
 8ECC  4C 91 D8  JMP  $D891
 8ECF  CA        DEX  
 8ED0  CA        DEX  
 8ED1  B5 02     LDA  $02, X
 8ED3  95 00     STA  $00, X
 8ED5  B5 03     LDA  $03, X
 8ED7  95 01     STA  $01, X
 8ED9  60        RTS  
 8EDA  20 FF B5  JSR  $B5FF
 8EDD  60        RTS  
 8EDE  CA        DEX  
 8EDF  CA        DEX  
 8EE0  A9 01     LDA  #$01
 8EE2  95 00     STA  $00, X
 8EE4  74 01     STZ  $01, X
 8EE6  60        RTS  
 8EE7  20 17 86  JSR  $8617
 8EEA  20 BA 92  JSR  $92BA
 8EED  20 5F A9  JSR  $A95F
 8EF0  20 71 88  JSR  $8871
 8EF3  20 BA 92  JSR  $92BA
 8EF6  20 F7 9B  JSR  $9BF7
 8EF9  20 CD A2  JSR  $A2CD
 8EFC  60        RTS  
 8EFD  E0 77     CPX  #$77
 8EFF  30 03     BMI  $8F04
 8F01  4C 91 D8  JMP  $D891
 8F04  B5 00     LDA  $00, X
 8F06  E8        INX  
 8F07  E8        INX  
 8F08  6C 10 00  JMP  ($0010)
 8F0B  A0 2C     LDY  #$2C
 8F0D  A9 00     LDA  #$00
 8F0F  91 3C     STA  ($3C), Y
 8F11  60        RTS  
 8F12  A0 8E     LDY  #$8E
 8F14  A9 3F     LDA  #$3F
 8F16  20 59 D7  JSR  $D759
 8F19  B5 00     LDA  $00, X
 8F1B  15 01     ORA  $01, X
 8F1D  F0 05     BEQ  $8F24
 8F1F  20 FF A2  JSR  $A2FF
 8F22  80 F5     BRA  $8F19
 8F24  E8        INX  
 8F25  E8        INX  
 8F26  60        RTS  
 8F27  20 E7 8E  JSR  $8EE7
 8F2A  60        RTS  
 8F2B  E0 75     CPX  #$75
 8F2D  30 03     BMI  $8F32
 8F2F  4C 91 D8  JMP  $D891
 8F32  A0 00     LDY  #$00
 8F34  5A        PHY  
 8F35  20 11 A5  JSR  $A511
 8F38  CA        DEX  
 8F39  CA        DEX  
 8F3A  B9 AC 8F  LDA  $8FAC, Y
 8F3D  95 00     STA  $00, X
 8F3F  C8        INY  
 8F40  B9 AC 8F  LDA  $8FAC, Y
 8F43  95 01     STA  $01, X
 8F45  C8        INY  
 8F46  15 00     ORA  $00, X
 8F48  F0 4D     BEQ  $8F97
 8F4A  5A        PHY  
 8F4B  20 62 8A  JSR  $8A62
 8F4E  20 8F 88  JSR  $888F
 8F51  7A        PLY  
 8F52  B5 00     LDA  $00, X
 8F54  15 01     ORA  $01, X
 8F56  F0 04     BEQ  $8F5C
 8F58  E8        INX  
 8F59  E8        INX  
 8F5A  80 D9     BRA  $8F35
 8F5C  E8        INX  
 8F5D  E8        INX  
 8F5E  88        DEY  
 8F5F  88        DEY  
 8F60  68        PLA  
 8F61  D0 0D     BNE  $8F70
 8F63  B9 CA 8F  LDA  $8FCA, Y
 8F66  95 02     STA  $02, X
 8F68  C8        INY  
 8F69  B9 CA 8F  LDA  $8FCA, Y
 8F6C  95 03     STA  $03, X
 8F6E  80 1F     BRA  $8F8F
 8F70  CA        DEX  
 8F71  CA        DEX  
 8F72  98        TYA  
 8F73  38        SEC  
 8F74  E9 18     SBC  #$18
 8F76  0A        ASL  
 8F77  A8        TAY  
 8F78  B9 E0 8F  LDA  $8FE0, Y
 8F7B  95 02     STA  $02, X
 8F7D  C8        INY  
 8F7E  B9 E0 8F  LDA  $8FE0, Y
 8F81  95 03     STA  $03, X
 8F83  C8        INY  
 8F84  B9 E0 8F  LDA  $8FE0, Y
 8F87  95 04     STA  $04, X
 8F89  C8        INY  
 8F8A  B9 E0 8F  LDA  $8FE0, Y
 8F8D  95 05     STA  $05, X
 8F8F  A9 FF     LDA  #$FF
 8F91  95 00     STA  $00, X
 8F93  95 01     STA  $01, X
 8F95  80 14     BRA  $8FAB
 8F97  68        PLA  
 8F98  D0 09     BNE  $8FA3
 8F9A  1A        INC  
 8F9B  48        PHA  
 8F9C  8A        TXA  
 8F9D  18        CLC  
 8F9E  69 06     ADC  #$06
 8FA0  AA        TAX  
 8FA1  80 92     BRA  $8F35
 8FA3  8A        TXA  
 8FA4  18        CLC  
 8FA5  69 0A     ADC  #$0A
 8FA7  AA        TAX  
 8FA8  20 18 91  JSR  $9118
 8FAB  60        RTS  
 8FAC  D9 D6 E9 D6 EF D6 F4 D6 06 D7 0E D7 17 D7 1D D7  |................|
 8FBC  23 D7 36 D7 42 D7 00 00 4C D7 52 D7 00 00 FF 7F  |#.6.B...L.R.....|
 8FCC  FF 00 54 00 08 00 00 00 FF 00 FF 7F FF FF 80 00  |..T.............|
 8FDC  20 00 09 00 FF 7F FF FF FF FF FF FF              | ...........    |
 8FE8  E0 75     CPX  #$75
 8FEA  30 03     BMI  $8FEF
 8FEC  4C 91 D8  JMP  $D891
 8FEF  B5 00     LDA  $00, X
 8FF1  D5 02     CMP  $02, X
 8FF3  D0 0A     BNE  $8FFF
 8FF5  B5 01     LDA  $01, X
 8FF7  D5 03     CMP  $03, X
 8FF9  D0 04     BNE  $8FFF
 8FFB  A9 FF     LDA  #$FF
 8FFD  80 02     BRA  $9001
 8FFF  A9 00     LDA  #$00
 9001  95 02     STA  $02, X
 9003  95 03     STA  $03, X
 9005  E8        INX  
 9006  E8        INX  
 9007  60        RTS  
 9008  CA        DEX  
 9009  CA        DEX  
 900A  A9 20     LDA  #$20
 900C  95 00     STA  $00, X
 900E  74 01     STZ  $01, X
 9010  80 06     BRA  $9018
 9012  CA        DEX  
 9013  CA        DEX  
 9014  74 00     STZ  $00, X
 9016  74 01     STZ  $01, X
 9018  E0 73     CPX  #$73
 901A  30 03     BMI  $901F
 901C  4C 91 D8  JMP  $D891
 901F  B5 04     LDA  $04, X
 9021  85 20     STA  $20
 9023  B5 05     LDA  $05, X
 9025  85 21     STA  $21
 9027  B5 02     LDA  $02, X
 9029  85 22     STA  $22
 902B  B5 03     LDA  $03, X
 902D  85 23     STA  $23
 902F  B5 00     LDA  $00, X
 9031  A8        TAY  
 9032  A9 7F     LDA  #$7F
 9034  C5 21     CMP  $21
 9036  90 21     BCC  $9059
 9038  D0 06     BNE  $9040
 903A  A9 FF     LDA  #$FF
 903C  C5 20     CMP  $20
 903E  90 19     BCC  $9059
 9040  A5 22     LDA  $22
 9042  05 23     ORA  $23
 9044  F0 13     BEQ  $9059
 9046  98        TYA  
 9047  92 20     STA  ($20)
 9049  A5 22     LDA  $22
 904B  D0 02     BNE  $904F
 904D  C6 23     DEC  $23
 904F  C6 22     DEC  $22
 9051  E6 20     INC  $20
 9053  D0 DD     BNE  $9032
 9055  E6 21     INC  $21
 9057  80 D9     BRA  $9032
 9059  8A        TXA  
 905A  18        CLC  
 905B  69 06     ADC  #$06
 905D  AA        TAX  
 905E  60        RTS  
 905F  20 C0 9F  JSR  $9FC0
 9062  A0 2C     LDY  #$2C
 9064  A9 00     LDA  #$00
 9066  91 3C     STA  ($3C), Y
 9068  60        RTS  
 9069  CA        DEX  
 906A  CA        DEX  
 906B  74 00     STZ  $00, X
 906D  74 01     STZ  $01, X
 906F  60        RTS  
 9070  A0 1F     LDY  #$1F
 9072  A9 00     LDA  #$00
 9074  91 3C     STA  ($3C), Y
 9076  60        RTS  
 9077  A9 FF     LDA  #$FF
 9079  85 20     STA  $20
 907B  80 15     BRA  $9092
 907D  E0 75     CPX  #$75
 907F  30 03     BMI  $9084
 9081  4C 91 D8  JMP  $D891
 9084  64 20     STZ  $20
 9086  B5 00     LDA  $00, X
 9088  15 01     ORA  $01, X
 908A  D0 06     BNE  $9092
 908C  E8        INX  
 908D  E8        INX  
 908E  E8        INX  
 908F  E8        INX  
 9090  80 6C     BRA  $90FE
 9092  A0 01     LDY  #$01
 9094  B1 3C     LDA  ($3C), Y
 9096  48        PHA  
 9097  88        DEY  
 9098  B1 3C     LDA  ($3C), Y
 909A  48        PHA  
 909B  A5 20     LDA  $20
 909D  D0 05     BNE  $90A4
 909F  91 3C     STA  ($3C), Y
 90A1  C8        INY  
 90A2  91 3C     STA  ($3C), Y
 90A4  A5 0D     LDA  $0D
 90A6  48        PHA  
 90A7  A5 0C     LDA  $0C
 90A9  48        PHA  
 90AA  A5 07     LDA  $07
 90AC  48        PHA  
 90AD  A5 06     LDA  $06
 90AF  48        PHA  
 90B0  A5 09     LDA  $09
 90B2  48        PHA  
 90B3  A5 08     LDA  $08
 90B5  48        PHA  
 90B6  A5 0B     LDA  $0B
 90B8  48        PHA  
 90B9  A5 0A     LDA  $0A
 90BB  48        PHA  
 90BC  A9 FF     LDA  #$FF
 90BE  85 06     STA  $06
 90C0  85 07     STA  $07
 90C2  64 0C     STZ  $0C
 90C4  64 0D     STZ  $0D
 90C6  B5 00     LDA  $00, X
 90C8  85 0A     STA  $0A
 90CA  B5 01     LDA  $01, X
 90CC  85 0B     STA  $0B
 90CE  B5 02     LDA  $02, X
 90D0  85 08     STA  $08
 90D2  B5 03     LDA  $03, X
 90D4  85 09     STA  $09
 90D6  E8        INX  
 90D7  E8        INX  
 90D8  E8        INX  
 90D9  E8        INX  
 90DA  20 F9 D7  JSR  $D7F9
 90DD  68        PLA  
 90DE  85 0A     STA  $0A
 90E0  68        PLA  
 90E1  85 0B     STA  $0B
 90E3  68        PLA  
 90E4  85 08     STA  $08
 90E6  68        PLA  
 90E7  85 09     STA  $09
 90E9  68        PLA  
 90EA  85 06     STA  $06
 90EC  68        PLA  
 90ED  85 07     STA  $07
 90EF  68        PLA  
 90F0  85 0C     STA  $0C
 90F2  68        PLA  
 90F3  85 0D     STA  $0D
 90F5  A0 00     LDY  #$00
 90F7  68        PLA  
 90F8  91 3C     STA  ($3C), Y
 90FA  C8        INY  
 90FB  68        PLA  
 90FC  91 3C     STA  ($3C), Y
 90FE  60        RTS  
 90FF  E0 77     CPX  #$77
 9101  30 03     BMI  $9106
 9103  4C 91 D8  JMP  $D891
 9106  20 0A 91  JSR  $910A
 9109  60        RTS  
 910A  B5 00     LDA  $00, X
 910C  85 0E     STA  $0E
 910E  B5 01     LDA  $01, X
 9110  85 0F     STA  $0F
 9112  E8        INX  
 9113  E8        INX  
 9114  6C 0E 00  JMP  ($000E)
 9117  60        RTS  
 9118  CA        DEX  
 9119  CA        DEX  
 911A  74 00     STZ  $00, X
 911C  74 01     STZ  $01, X
 911E  60        RTS  
 911F  E0 77     CPX  #$77
 9121  30 03     BMI  $9126
 9123  4C 91 D8  JMP  $D891
 9126  A1 00     LDA  ($00, X)
 9128  A8        TAY  
 9129  F6 00     INC  $00, X
 912B  D0 02     BNE  $912F
 912D  F6 01     INC  $01, X
 912F  A1 00     LDA  ($00, X)
 9131  95 01     STA  $01, X
 9133  94 00     STY  $00, X
 9135  60        RTS  
 9136  E0 77     CPX  #$77
 9138  30 03     BMI  $913D
 913A  4C 91 D8  JMP  $D891
 913D  B5 01     LDA  $01, X
 913F  48        PHA  
 9140  B5 00     LDA  $00, X
 9142  48        PHA  
 9143  20 62 8A  JSR  $8A62
 9146  20 82 91  JSR  $9182
 9149  B5 00     LDA  $00, X
 914B  15 01     ORA  $01, X
 914D  D0 0B     BNE  $915A
 914F  20 18 91  JSR  $9118
 9152  68        PLA  
 9153  95 02     STA  $02, X
 9155  68        PLA  
 9156  95 03     STA  $03, X
 9158  80 27     BRA  $9181
 915A  68        PLA  
 915B  68        PLA  
 915C  20 C8 8E  JSR  $8EC8
 915F  20 FE 96  JSR  $96FE
 9162  20 E7 A2  JSR  $A2E7
 9165  A0 00     LDY  #$00
 9167  F6 00     INC  $00, X
 9169  D0 02     BNE  $916D
 916B  F6 01     INC  $01, X
 916D  A1 00     LDA  ($00, X)
 916F  29 04     AND  #$04
 9171  D0 08     BNE  $917B
 9173  A9 FF     LDA  #$FF
 9175  95 00     STA  $00, X
 9177  95 01     STA  $01, X
 9179  80 06     BRA  $9181
 917B  A9 01     LDA  #$01
 917D  95 00     STA  $00, X
 917F  74 01     STZ  $01, X
 9181  60        RTS  
 9182  E0 75     CPX  #$75
 9184  30 03     BMI  $9189
 9186  4C 91 D8  JMP  $D891
 9189  B5 00     LDA  $00, X
 918B  15 01     ORA  $01, X
 918D  D0 03     BNE  $9192
 918F  4C 2B 92  JMP  $922B
 9192  64 24     STZ  $24
 9194  A0 1E     LDY  #$1E
 9196  A5 24     LDA  $24
 9198  D1 3C     CMP  ($3C), Y
 919A  D0 03     BNE  $919F
 919C  4C 2B 92  JMP  $922B
 919F  18        CLC  
 91A0  69 1F     ADC  #$1F
 91A2  A8        TAY  
 91A3  B1 3C     LDA  ($3C), Y
 91A5  0A        ASL  
 91A6  18        CLC  
 91A7  69 06     ADC  #$06
 91A9  A8        TAY  
 91AA  B1 3C     LDA  ($3C), Y
 91AC  85 20     STA  $20
 91AE  C8        INY  
 91AF  B1 3C     LDA  ($3C), Y
 91B1  85 21     STA  $21
 91B3  B5 02     LDA  $02, X
 91B5  85 22     STA  $22
 91B7  B5 03     LDA  $03, X
 91B9  85 23     STA  $23
 91BB  B2 20     LDA  ($20)
 91BD  D5 00     CMP  $00, X
 91BF  D0 54     BNE  $9215
 91C1  B2 22     LDA  ($22)
 91C3  C9 5B     CMP  #$5B
 91C5  B0 07     BCS  $91CE
 91C7  C9 41     CMP  #$41
 91C9  90 03     BCC  $91CE
 91CB  18        CLC  
 91CC  69 20     ADC  #$20
 91CE  A0 08     LDY  #$08
 91D0  D1 20     CMP  ($20), Y
 91D2  D0 41     BNE  $9215
 91D4  B5 00     LDA  $00, X
 91D6  3A        DEC  
 91D7  F0 2C     BEQ  $9205
 91D9  A5 20     LDA  $20
 91DB  48        PHA  
 91DC  18        CLC  
 91DD  69 08     ADC  #$08
 91DF  85 20     STA  $20
 91E1  A5 21     LDA  $21
 91E3  48        PHA  
 91E4  69 00     ADC  #$00
 91E6  85 21     STA  $21
 91E8  B4 00     LDY  $00, X
 91EA  88        DEY  
 91EB  B1 22     LDA  ($22), Y
 91ED  C9 5B     CMP  #$5B
 91EF  B0 07     BCS  $91F8
 91F1  C9 41     CMP  #$41
 91F3  90 03     BCC  $91F8
 91F5  18        CLC  
 91F6  69 20     ADC  #$20
 91F8  D1 20     CMP  ($20), Y
 91FA  D0 13     BNE  $920F
 91FC  88        DEY  
 91FD  D0 EC     BNE  $91EB
 91FF  68        PLA  
 9200  85 21     STA  $21
 9202  68        PLA  
 9203  85 20     STA  $20
 9205  A5 20     LDA  $20
 9207  95 02     STA  $02, X
 9209  A5 21     LDA  $21
 920B  95 03     STA  $03, X
 920D  80 20     BRA  $922F
 920F  68        PLA  
 9210  85 21     STA  $21
 9212  68        PLA  
 9213  85 20     STA  $20
 9215  A0 02     LDY  #$02
 9217  B1 20     LDA  ($20), Y
 9219  48        PHA  
 921A  C8        INY  
 921B  B1 20     LDA  ($20), Y
 921D  85 21     STA  $21
 921F  68        PLA  
 9220  85 20     STA  $20
 9222  05 21     ORA  $21
 9224  D0 95     BNE  $91BB
 9226  E6 24     INC  $24
 9228  4C 94 91  JMP  $9194
 922B  74 02     STZ  $02, X
 922D  74 03     STZ  $03, X
 922F  E8        INX  
 9230  E8        INX  
 9231  60        RTS  
 9232  E0 73     CPX  #$73
 9234  30 03     BMI  $9239
 9236  4C 91 D8  JMP  $D891
 9239  64 22     STZ  $22
 923B  B5 01     LDA  $01, X
 923D  10 0E     BPL  $924D
 923F  E6 22     INC  $22
 9241  20 48 97  JSR  $9748
 9244  20 BD A4  JSR  $A4BD
 9247  20 3E 8C  JSR  $8C3E
 924A  20 4A 9B  JSR  $9B4A
 924D  B5 03     LDA  $03, X
 924F  10 0D     BPL  $925E
 9251  18        CLC  
 9252  B5 00     LDA  $00, X
 9254  75 02     ADC  $02, X
 9256  95 02     STA  $02, X
 9258  B5 01     LDA  $01, X
 925A  75 03     ADC  $03, X
 925C  95 03     STA  $03, X
 925E  20 62 A7  JSR  $A762
 9261  A5 22     LDA  $22
 9263  F0 07     BEQ  $926C
 9265  E8        INX  
 9266  E8        INX  
 9267  20 48 97  JSR  $9748
 926A  CA        DEX  
 926B  CA        DEX  
 926C  60        RTS  
 926D  CA        DEX  
 926E  CA        DEX  
 926F  A0 04     LDY  #$04
 9271  B1 3C     LDA  ($3C), Y
 9273  95 00     STA  $00, X
 9275  74 01     STZ  $01, X
 9277  60        RTS  
 9278  A0 1E     LDY  #$1E
 927A  B1 3C     LDA  ($3C), Y
 927C  85 20     STA  $20
 927E  F0 16     BEQ  $9296
 9280  C6 20     DEC  $20
 9282  A9 1F     LDA  #$1F
 9284  18        CLC  
 9285  65 20     ADC  $20
 9287  A8        TAY  
 9288  CA        DEX  
 9289  CA        DEX  
 928A  B1 3C     LDA  ($3C), Y
 928C  95 00     STA  $00, X
 928E  74 01     STZ  $01, X
 9290  A9 00     LDA  #$00
 9292  C5 20     CMP  $20
 9294  D0 EA     BNE  $9280
 9296  CA        DEX  
 9297  CA        DEX  
 9298  A0 1E     LDY  #$1E
 929A  B1 3C     LDA  ($3C), Y
 929C  95 00     STA  $00, X
 929E  74 01     STZ  $01, X
 92A0  60        RTS  
 92A1  E0 75     CPX  #$75
 92A3  30 03     BMI  $92A8
 92A5  4C 91 D8  JMP  $D891
 92A8  A0 00     LDY  #$00
 92AA  20 DE D7  JSR  $D7DE
 92AD  F0 03     BEQ  $92B2
 92AF  10 01     BPL  $92B2
 92B1  88        DEY  
 92B2  98        TYA  
 92B3  E8        INX  
 92B4  E8        INX  
 92B5  95 00     STA  $00, X
 92B7  95 01     STA  $01, X
 92B9  60        RTS  
 92BA  CA        DEX  
 92BB  CA        DEX  
 92BC  A5 00     LDA  $00
 92BE  95 00     STA  $00, X
 92C0  A5 01     LDA  $01
 92C2  95 01     STA  $01, X
 92C4  60        RTS  
 92C5  A9 10     LDA  #$10
 92C7  85 18     STA  $18
 92C9  64 19     STZ  $19
 92CB  60        RTS  
 92CC  E0 73     CPX  #$73
 92CE  30 03     BMI  $92D3
 92D0  4C 91 D8  JMP  $D891
 92D3  20 C8 8E  JSR  $8EC8
 92D6  20 17 A6  JSR  $A617
 92D9  B5 00     LDA  $00, X
 92DB  15 01     ORA  $01, X
 92DD  F0 39     BEQ  $9318
 92DF  20 04 84  JSR  $8404
 92E2  20 F1 86  JSR  $86F1
 92E5  20 17 A6  JSR  $A617
 92E8  20 5F A9  JSR  $A95F
 92EB  20 5F A9  JSR  $A95F
 92EE  20 8D A5  JSR  $A58D
 92F1  20 06 A4  JSR  $A406
 92F4  B5 00     LDA  $00, X
 92F6  15 01     ORA  $01, X
 92F8  D0 17     BNE  $9311
 92FA  20 05 A5  JSR  $A505
 92FD  20 6D 8B  JSR  $8B6D
 9300  20 35 9B  JSR  $9B35
 9303  20 AA 86  JSR  $86AA
 9306  20 4A 9B  JSR  $9B4A
 9309  20 FC 98  JSR  $98FC
 930C  20 BD A4  JSR  $A4BD
 930F  80 C8     BRA  $92D9
 9311  8A        TXA  
 9312  18        CLC  
 9313  69 08     ADC  #$08
 9315  AA        TAX  
 9316  80 C1     BRA  $92D9
 9318  E8        INX  
 9319  E8        INX  
 931A  E8        INX  
 931B  E8        INX  
 931C  20 8D A5  JSR  $A58D
 931F  20 E7 A2  JSR  $A2E7
 9322  20 7A 96  JSR  $967A
 9325  60        RTS  
 9326  E0 77     CPX  #$77
 9328  30 03     BMI  $932D
 932A  4C 91 D8  JMP  $D891
 932D  A5 30     LDA  $30
 932F  D0 02     BNE  $9333
 9331  C6 31     DEC  $31
 9333  C6 30     DEC  $30
 9335  B5 00     LDA  $00, X
 9337  92 30     STA  ($30)
 9339  E8        INX  
 933A  E8        INX  
 933B  60        RTS  
 933C  CA        DEX  
 933D  CA        DEX  
 933E  86 26     STX  $26
 9340  BA        TSX  
 9341  38        SEC  
 9342  BD 01 01  LDA  $0101, X
 9345  FD 03 01  SBC  $0103, X
 9348  A8        TAY  
 9349  BD 02 01  LDA  $0102, X
 934C  FD 04 01  SBC  $0104, X
 934F  A6 26     LDX  $26
 9351  95 01     STA  $01, X
 9353  94 00     STY  $00, X
 9355  60        RTS  
 9356  20 66 A9  JSR  $A966
 9359  20 BA 92  JSR  $92BA
 935C  20 5F A9  JSR  $A95F
 935F  20 71 88  JSR  $8871
 9362  60        RTS  
 9363  20 DC D8  JSR  $D8DC
 9366  A0 01     LDY  #$01
 9368  B1 02     LDA  ($02), Y
 936A  09 04     ORA  #$04
 936C  91 02     STA  ($02), Y
 936E  60        RTS  
 936F  CA        DEX  
 9370  CA        DEX  
 9371  A9 12     LDA  #$12
 9373  95 00     STA  $00, X
 9375  A9 00     LDA  #$00
 9377  95 01     STA  $01, X
 9379  60        RTS  
 937A  E0 77     CPX  #$77
 937C  30 03     BMI  $9381
 937E  4C 91 D8  JMP  $D891
 9381  CA        DEX  
 9382  CA        DEX  
 9383  74 00     STZ  $00, X
 9385  74 01     STZ  $01, X
 9387  B5 00     LDA  $00, X
 9389  0A        ASL  
 938A  18        CLC  
 938B  69 06     ADC  #$06
 938D  A8        TAY  
 938E  B1 3C     LDA  ($3C), Y
 9390  85 22     STA  $22
 9392  C8        INY  
 9393  B1 3C     LDA  ($3C), Y
 9395  85 23     STA  $23
 9397  A5 22     LDA  $22
 9399  05 23     ORA  $23
 939B  F0 38     BEQ  $93D5
 939D  B5 02     LDA  $02, X
 939F  85 24     STA  $24
 93A1  B5 03     LDA  $03, X
 93A3  85 25     STA  $25
 93A5  A0 04     LDY  #$04
 93A7  B1 22     LDA  ($22), Y
 93A9  C5 24     CMP  $24
 93AB  D0 07     BNE  $93B4
 93AD  C8        INY  
 93AE  B1 22     LDA  ($22), Y
 93B0  C5 25     CMP  $25
 93B2  F0 32     BEQ  $93E6
 93B4  18        CLC  
 93B5  A5 22     LDA  $22
 93B7  69 02     ADC  #$02
 93B9  85 22     STA  $22
 93BB  A5 23     LDA  $23
 93BD  69 00     ADC  #$00
 93BF  85 23     STA  $23
 93C1  A0 00     LDY  #$00
 93C3  B1 22     LDA  ($22), Y
 93C5  48        PHA  
 93C6  C8        INY  
 93C7  11 22     ORA  ($22), Y
 93C9  F0 09     BEQ  $93D4
 93CB  B1 22     LDA  ($22), Y
 93CD  85 23     STA  $23
 93CF  68        PLA  
 93D0  85 22     STA  $22
 93D2  80 D1     BRA  $93A5
 93D4  68        PLA  
 93D5  B5 00     LDA  $00, X
 93D7  1A        INC  
 93D8  95 00     STA  $00, X
 93DA  C9 0C     CMP  #$0C
 93DC  D0 A9     BNE  $9387
 93DE  E8        INX  
 93DF  E8        INX  
 93E0  74 00     STZ  $00, X
 93E2  74 01     STZ  $01, X
 93E4  80 0A     BRA  $93F0
 93E6  E8        INX  
 93E7  E8        INX  
 93E8  A5 22     LDA  $22
 93EA  95 00     STA  $00, X
 93EC  A5 23     LDA  $23
 93EE  95 01     STA  $01, X
 93F0  60        RTS  
 93F1  E0 77     CPX  #$77
 93F3  30 03     BMI  $93F8
 93F5  4C 91 D8  JMP  $D891
 93F8  A9 FF     LDA  #$FF
 93FA  55 00     EOR  $00, X
 93FC  95 00     STA  $00, X
 93FE  A9 FF     LDA  #$FF
 9400  55 01     EOR  $01, X
 9402  95 01     STA  $01, X
 9404  60        RTS  
 9405  A5 16     LDA  $16
 9407  05 17     ORA  $17
 9409  F0 0C     BEQ  $9417
 940B  20 10 86  JSR  $8610
 940E  A0 8B     LDY  #$8B
 9410  A9 DB     LDA  #$DB
 9412  20 59 D7  JSR  $D759
 9415  80 06     BRA  $941D
 9417  20 52 A3  JSR  $A352
 941A  20 DB 8B  JSR  $8BDB
 941D  60        RTS  
 941E  CA        DEX  
 941F  CA        DEX  
 9420  86 26     STX  $26
 9422  BA        TSX  
 9423  38        SEC  
 9424  BD 07 01  LDA  $0107, X
 9427  FD 09 01  SBC  $0109, X
 942A  A8        TAY  
 942B  BD 08 01  LDA  $0108, X
 942E  FD 0A 01  SBC  $010A, X
 9431  A6 26     LDX  $26
 9433  95 01     STA  $01, X
 9435  94 00     STY  $00, X
 9437  60        RTS  
 9438  20 42 94  JSR  $9442
 943B  CA        DEX  
 943C  CA        DEX  
 943D  95 00     STA  $00, X
 943F  74 01     STZ  $01, X
 9441  60        RTS  
 9442  6C 12 00  JMP  ($0012)
 9445  CA        DEX  
 9446  CA        DEX  
 9447  20 DC D8  JSR  $D8DC
 944A  A5 02     LDA  $02
 944C  95 00     STA  $00, X
 944E  A5 03     LDA  $03
 9450  95 01     STA  $01, X
 9452  60        RTS  
 9453  20 45 94  JSR  $9445
 9456  20 FE 96  JSR  $96FE
 9459  60        RTS  
 945A  68        PLA  
 945B  68        PLA  
 945C  68        PLA  
 945D  68        PLA  
 945E  60        RTS  
 945F  64 16     STZ  $16
 9461  64 17     STZ  $17
 9463  60        RTS  
 9464  20 49 99  JSR  $9949
 9467  B5 00     LDA  $00, X
 9469  85 30     STA  $30
 946B  B5 01     LDA  $01, X
 946D  85 31     STA  $31
 946F  E8        INX  
 9470  E8        INX  
 9471  60        RTS  
 9472  E0 75     CPX  #$75
 9474  30 03     BMI  $9479
 9476  4C 91 D8  JMP  $D891
 9479  A0 00     LDY  #$00
 947B  20 DE D7  JSR  $D7DE
 947E  F0 03     BEQ  $9483
 9480  30 01     BMI  $9483
 9482  88        DEY  
 9483  98        TYA  
 9484  E8        INX  
 9485  E8        INX  
 9486  95 00     STA  $00, X
 9488  95 01     STA  $01, X
 948A  60        RTS  
 948B  E0 77     CPX  #$77
 948D  30 03     BMI  $9492
 948F  4C 91 D8  JMP  $D891
 9492  20 DB 9F  JSR  $9FDB
 9495  20 CD A2  JSR  $A2CD
 9498  20 4C AA  JSR  $AA4C
 949B  60        RTS  
 949C  E0 77     CPX  #$77
 949E  30 03     BMI  $94A3
 94A0  4C 91 D8  JMP  $D891
 94A3  A0 94     LDY  #$94
 94A5  A9 AE     LDA  #$AE
 94A7  20 59 D7  JSR  $D759
 94AA  20 71 88  JSR  $8871
 94AD  60        RTS  
 94AE  CA        DEX  
 94AF  CA        DEX  
 94B0  68        PLA  
 94B1  85 20     STA  $20
 94B3  68        PLA  
 94B4  85 21     STA  $21
 94B6  A0 01     LDY  #$01
 94B8  B1 20     LDA  ($20), Y
 94BA  95 00     STA  $00, X
 94BC  C8        INY  
 94BD  B1 20     LDA  ($20), Y
 94BF  95 01     STA  $01, X
 94C1  98        TYA  
 94C2  18        CLC  
 94C3  65 20     ADC  $20
 94C5  A8        TAY  
 94C6  A5 21     LDA  $21
 94C8  69 00     ADC  #$00
 94CA  48        PHA  
 94CB  5A        PHY  
 94CC  60        RTS  
 94CD  E0 77     CPX  #$77
 94CF  30 03     BMI  $94D4
 94D1  4C 91 D8  JMP  $D891
 94D4  A0 01     LDY  #$01
 94D6  B1 3C     LDA  ($3C), Y
 94D8  48        PHA  
 94D9  88        DEY  
 94DA  B1 3C     LDA  ($3C), Y
 94DC  48        PHA  
 94DD  B5 00     LDA  $00, X
 94DF  91 3C     STA  ($3C), Y
 94E1  C8        INY  
 94E2  B5 01     LDA  $01, X
 94E4  91 3C     STA  ($3C), Y
 94E6  20 2B 84  JSR  $842B
 94E9  CA        DEX  
 94EA  CA        DEX  
 94EB  A9 04     LDA  #$04
 94ED  95 01     STA  $01, X
 94EF  74 00     STZ  $00, X
 94F1  20 77 90  JSR  $9077
 94F4  A0 00     LDY  #$00
 94F6  68        PLA  
 94F7  91 3C     STA  ($3C), Y
 94F9  C8        INY  
 94FA  68        PLA  
 94FB  91 3C     STA  ($3C), Y
 94FD  88        DEY  
 94FE  11 3C     ORA  ($3C), Y
 9500  F0 12     BEQ  $9514
 9502  CA        DEX  
 9503  CA        DEX  
 9504  A0 00     LDY  #$00
 9506  B1 3C     LDA  ($3C), Y
 9508  95 00     STA  $00, X
 950A  C8        INY  
 950B  B1 3C     LDA  ($3C), Y
 950D  95 01     STA  $01, X
 950F  20 2B 84  JSR  $842B
 9512  E8        INX  
 9513  E8        INX  
 9514  60        RTS  
 9515  A0 98     LDY  #$98
 9517  A9 E3     LDA  #$E3
 9519  20 59 D7  JSR  $D759
 951C  A0 11     LDY  #$11
 951E  5A        PHY  
 951F  B9 83 95  LDA  $9583, Y
 9522  91 00     STA  ($00), Y
 9524  88        DEY  
 9525  10 F8     BPL  $951F
 9527  68        PLA  
 9528  18        CLC  
 9529  65 00     ADC  $00
 952B  85 00     STA  $00
 952D  A5 01     LDA  $01
 952F  69 00     ADC  #$00
 9531  85 01     STA  $01
 9533  20 71 88  JSR  $8871
 9536  A9 68     LDA  #$68
 9538  A0 06     LDY  #$06
 953A  91 00     STA  ($00), Y
 953C  88        DEY  
 953D  10 FB     BPL  $953A
 953F  A9 06     LDA  #$06
 9541  18        CLC  
 9542  65 00     ADC  $00
 9544  85 00     STA  $00
 9546  A5 01     LDA  $01
 9548  69 00     ADC  #$00
 954A  85 01     STA  $01
 954C  B5 00     LDA  $00, X
 954E  85 20     STA  $20
 9550  B5 01     LDA  $01, X
 9552  85 21     STA  $21
 9554  E8        INX  
 9555  E8        INX  
 9556  A5 00     LDA  $00
 9558  38        SEC  
 9559  E9 01     SBC  #$01
 955B  85 22     STA  $22
 955D  A5 01     LDA  $01
 955F  E9 00     SBC  #$00
 9561  85 23     STA  $23
 9563  A0 00     LDY  #$00
 9565  A9 A9     LDA  #$A9
 9567  91 20     STA  ($20), Y
 9569  C8        INY  
 956A  A5 23     LDA  $23
 956C  91 20     STA  ($20), Y
 956E  C8        INY  
 956F  A9 48     LDA  #$48
 9571  91 20     STA  ($20), Y
 9573  C8        INY  
 9574  A9 A9     LDA  #$A9
 9576  91 20     STA  ($20), Y
 9578  C8        INY  
 9579  A5 22     LDA  $22
 957B  91 20     STA  ($20), Y
 957D  C8        INY  
 957E  A9 48     LDA  #$48
 9580  91 20     STA  ($20), Y
 9582  60        RTS  
 9583  18        CLC  
 9584  68        PLA  
 9585  75 00     ADC  $00, X
 9587  A8        TAY  
 9588  B8        CLV  
 9589  68        PLA  
 958A  75 01     ADC  $01, X
 958C  48        PHA  
 958D  98        TYA  
 958E  48        PHA  
 958F  E8        INX  
 9590  E8        INX  
 9591  70 03     BVS  $9596
 9593  4C                                               |L               |
 9594  E0 75     CPX  #$75
 9596  30 03     BMI  $959B
 9598  4C 91 D8  JMP  $D891
 959B  B5 00     LDA  $00, X
 959D  29 0F     AND  #$0F
 959F  F0 08     BEQ  $95A9
 95A1  A8        TAY  
 95A2  16 02     ASL  $02, X
 95A4  36 03     ROL  $03, X
 95A6  88        DEY  
 95A7  D0 F9     BNE  $95A2
 95A9  E8        INX  
 95AA  E8        INX  
 95AB  60        RTS  
 95AC  E0 75     CPX  #$75
 95AE  30 03     BMI  $95B3
 95B0  4C 91 D8  JMP  $D891
 95B3  B5 01     LDA  $01, X
 95B5  55 03     EOR  $03, X
 95B7  48        PHA  
 95B8  20 74 81  JSR  $8174
 95BB  20 E7 A2  JSR  $A2E7
 95BE  20 74 81  JSR  $8174
 95C1  20 A8 A7  JSR  $A7A8
 95C4  68        PLA  
 95C5  10 03     BPL  $95CA
 95C7  20 3E 8C  JSR  $8C3E
 95CA  60        RTS  
 95CB  20 DC D8  JSR  $D8DC
 95CE  A5 02     LDA  $02
 95D0  48        PHA  
 95D1  A5 03     LDA  $03
 95D3  48        PHA  
 95D4  A5 00     LDA  $00
 95D6  48        PHA  
 95D7  A5 01     LDA  $01
 95D9  48        PHA  
 95DA  20 80 8A  JSR  $8A80
 95DD  A5 00     LDA  $00
 95DF  38        SEC  
 95E0  E9 02     SBC  #$02
 95E2  85 00     STA  $00
 95E4  A5 01     LDA  $01
 95E6  E9 00     SBC  #$00
 95E8  85 01     STA  $01
 95EA  A0 96     LDY  #$96
 95EC  A9 09     LDA  #$09
 95EE  20 65 D7  JSR  $D765
 95F1  7A        PLY  
 95F2  68        PLA  
 95F3  20 65 D7  JSR  $D765
 95F6  7A        PLY  
 95F7  68        PLA  
 95F8  20 65 D7  JSR  $D765
 95FB  A0 04     LDY  #$04
 95FD  B1 3C     LDA  ($3C), Y
 95FF  20 69 D7  JSR  $D769
 9602  C8        INY  
 9603  98        TYA  
 9604  C9 28     CMP  #$28
 9606  D0 F5     BNE  $95FD
 9608  60        RTS  
 9609  68        PLA  
 960A  85 20     STA  $20
 960C  68        PLA  
 960D  85 21     STA  $21
 960F  E6 20     INC  $20
 9611  D0 02     BNE  $9615
 9613  E6 21     INC  $21
 9615  A0 00     LDY  #$00
 9617  B1 20     LDA  ($20), Y
 9619  85 00     STA  $00
 961B  C8        INY  
 961C  B1 20     LDA  ($20), Y
 961E  85 01     STA  $01
 9620  C8        INY  
 9621  B1 20     LDA  ($20), Y
 9623  85 02     STA  $02
 9625  C8        INY  
 9626  B1 20     LDA  ($20), Y
 9628  85 03     STA  $03
 962A  A0 04     LDY  #$04
 962C  B1 20     LDA  ($20), Y
 962E  91 3C     STA  ($3C), Y
 9630  C8        INY  
 9631  98        TYA  
 9632  C9 28     CMP  #$28
 9634  D0 F6     BNE  $962C
 9636  20 EF D8  JSR  $D8EF
 9639  60        RTS  
 963A  E0 75     CPX  #$75
 963C  30 03     BMI  $9641
 963E  4C 91 D8  JMP  $D891
 9641  B5 00     LDA  $00, X
 9643  D5 02     CMP  $02, X
 9645  B5 01     LDA  $01, X
 9647  F5 03     SBC  $03, X
 9649  50 02     BVC  $964D
 964B  49 80     EOR  #$80
 964D  30 08     BMI  $9657
 964F  B5 00     LDA  $00, X
 9651  95 02     STA  $02, X
 9653  B5 01     LDA  $01, X
 9655  95 03     STA  $03, X
 9657  E8        INX  
 9658  E8        INX  
 9659  60        RTS  
 965A  E0 75     CPX  #$75
 965C  30 03     BMI  $9661
 965E  4C 91 D8  JMP  $D891
 9661  B5 00     LDA  $00, X
 9663  D5 02     CMP  $02, X
 9665  B5 01     LDA  $01, X
 9667  F5 03     SBC  $03, X
 9669  50 02     BVC  $966D
 966B  49 80     EOR  #$80
 966D  10 08     BPL  $9677
 966F  B5 00     LDA  $00, X
 9671  95 02     STA  $02, X
 9673  B5 01     LDA  $01, X
 9675  95 03     STA  $03, X
 9677  E8        INX  
 9678  E8        INX  
 9679  60        RTS  
 967A  E0 75     CPX  #$75
 967C  30 03     BMI  $9681
 967E  4C 91 D8  JMP  $D891
 9681  38        SEC  
 9682  B5 02     LDA  $02, X
 9684  F5 00     SBC  $00, X
 9686  95 02     STA  $02, X
 9688  B5 03     LDA  $03, X
 968A  F5 01     SBC  $01, X
 968C  95 03     STA  $03, X
 968E  E8        INX  
 968F  E8        INX  
 9690  60        RTS  
 9691  E0 75     CPX  #$75
 9693  30 03     BMI  $9698
 9695  4C 91 D8  JMP  $D891
 9698  B5 00     LDA  $00, X
 969A  15 01     ORA  $01, X
 969C  F0 33     BEQ  $96D1
 969E  18        CLC  
 969F  B5 02     LDA  $02, X
 96A1  75 00     ADC  $00, X
 96A3  85 20     STA  $20
 96A5  B5 03     LDA  $03, X
 96A7  75 01     ADC  $01, X
 96A9  85 21     STA  $21
 96AB  A5 20     LDA  $20
 96AD  D0 02     BNE  $96B1
 96AF  C6 21     DEC  $21
 96B1  C6 20     DEC  $20
 96B3  B2 20     LDA  ($20)
 96B5  C9 20     CMP  #$20
 96B7  D0 18     BNE  $96D1
 96B9  A5 20     LDA  $20
 96BB  D0 02     BNE  $96BF
 96BD  C6 21     DEC  $21
 96BF  C6 20     DEC  $20
 96C1  B5 00     LDA  $00, X
 96C3  D0 02     BNE  $96C7
 96C5  D6 01     DEC  $01, X
 96C7  D6 00     DEC  $00, X
 96C9  B5 00     LDA  $00, X
 96CB  15 01     ORA  $01, X
 96CD  F0 02     BEQ  $96D1
 96CF  80 E2     BRA  $96B3
 96D1  60        RTS  
 96D2  E0 77     CPX  #$77
 96D4  30 03     BMI  $96D9
 96D6  4C 91 D8  JMP  $D891
 96D9  20 33 A1  JSR  $A133
 96DC  E8        INX  
 96DD  E8        INX  
 96DE  60        RTS  
 96DF  B5 03     LDA  $03, X
 96E1  D5 05     CMP  $05, X
 96E3  F0 05     BEQ  $96EA
 96E5  B0 0E     BCS  $96F5
 96E7  4C 94 87  JMP  $8794
 96EA  B5 02     LDA  $02, X
 96EC  D5 04     CMP  $04, X
 96EE  F0 08     BEQ  $96F8
 96F0  B0 03     BCS  $96F5
 96F2  4C 94 87  JMP  $8794
 96F5  4C D3 87  JMP  $87D3
 96F8  8A        TXA  
 96F9  18        CLC  
 96FA  69 06     ADC  #$06
 96FC  AA        TAX  
 96FD  60        RTS  
 96FE  E0 77     CPX  #$77
 9700  30 03     BMI  $9705
 9702  4C 91 D8  JMP  $D891
 9705  B5 00     LDA  $00, X
 9707  18        CLC  
 9708  69 04     ADC  #$04
 970A  85 24     STA  $24
 970C  B5 01     LDA  $01, X
 970E  90 01     BCC  $9711
 9710  1A        INC  
 9711  85 25     STA  $25
 9713  A0 00     LDY  #$00
 9715  B1 24     LDA  ($24), Y
 9717  95 00     STA  $00, X
 9719  C8        INY  
 971A  B1 24     LDA  ($24), Y
 971C  95 01     STA  $01, X
 971E  60        RTS  
 971F  E0 77     CPX  #$77
 9721  30 03     BMI  $9726
 9723  4C 91 D8  JMP  $D891
 9726  CA        DEX  
 9727  CA        DEX  
 9728  A1 02     LDA  ($02, X)
 972A  95 00     STA  $00, X
 972C  74 01     STZ  $01, X
 972E  B5 02     LDA  $02, X
 9730  18        CLC  
 9731  69 08     ADC  #$08
 9733  A8        TAY  
 9734  B5 03     LDA  $03, X
 9736  69 00     ADC  #$00
 9738  95 03     STA  $03, X
 973A  94 02     STY  $02, X
 973C  60        RTS  
 973D  CA        DEX  
 973E  CA        DEX  
 973F  A9 1A     LDA  #$1A
 9741  95 00     STA  $00, X
 9743  A9 00     LDA  #$00
 9745  95 01     STA  $01, X
 9747  60        RTS  
 9748  E0 77     CPX  #$77
 974A  30 03     BMI  $974F
 974C  4C 91 D8  JMP  $D891
 974F  A9 00     LDA  #$00
 9751  38        SEC  
 9752  F5 00     SBC  $00, X
 9754  95 00     STA  $00, X
 9756  A9 00     LDA  #$00
 9758  F5 01     SBC  $01, X
 975A  95 01     STA  $01, X
 975C  60        RTS  
 975D  20 DC D8  JSR  $D8DC
 9760  A0 01     LDY  #$01
 9762  B1 02     LDA  ($02), Y
 9764  09 08     ORA  #$08
 9766  29 FD     AND  #$FD
 9768  91 02     STA  ($02), Y
 976A  60        RTS  
 976B  E0 75     CPX  #$75
 976D  30 03     BMI  $9772
 976F  4C 91 D8  JMP  $D891
 9772  B5 00     LDA  $00, X
 9774  95 02     STA  $02, X
 9776  B5 01     LDA  $01, X
 9778  95 03     STA  $03, X
 977A  E8        INX  
 977B  E8        INX  
 977C  60        RTS  
 977D  E0 75     CPX  #$75
 977F  30 03     BMI  $9784
 9781  4C 91 D8  JMP  $D891
 9784  A0 00     LDY  #$00
 9786  B5 00     LDA  $00, X
 9788  D5 02     CMP  $02, X
 978A  D0 0A     BNE  $9796
 978C  B5 01     LDA  $01, X
 978E  D5 03     CMP  $03, X
 9790  D0 04     BNE  $9796
 9792  A9 FF     LDA  #$FF
 9794  80 01     BRA  $9797
 9796  88        DEY  
 9797  98        TYA  
 9798  E8        INX  
 9799  E8        INX  
 979A  95 00     STA  $00, X
 979C  95 01     STA  $01, X
 979E  60        RTS  
 979F  E0 73     CPX  #$73
 97A1  30 03     BMI  $97A6
 97A3  4C 91 D8  JMP  $D891
 97A6  B4 01     LDY  $01, X
 97A8  B5 03     LDA  $03, X
 97AA  95 01     STA  $01, X
 97AC  B5 05     LDA  $05, X
 97AE  95 03     STA  $03, X
 97B0  94 05     STY  $05, X
 97B2  B4 00     LDY  $00, X
 97B4  B5 02     LDA  $02, X
 97B6  95 00     STA  $00, X
 97B8  B5 04     LDA  $04, X
 97BA  95 02     STA  $02, X
 97BC  94 04     STY  $04, X
 97BE  60        RTS  
 97BF  E0 75     CPX  #$75
 97C1  30 03     BMI  $97C6
 97C3  4C 91 D8  JMP  $D891
 97C6  64 26     STZ  $26
 97C8  64 27     STZ  $27
 97CA  A1 02     LDA  ($02, X)
 97CC  C9 2D     CMP  #$2D
 97CE  D0 0A     BNE  $97DA
 97D0  C6 27     DEC  $27
 97D2  F6 02     INC  $02, X
 97D4  D0 02     BNE  $97D8
 97D6  F6 03     INC  $03, X
 97D8  D6 00     DEC  $00, X
 97DA  B5 02     LDA  $02, X
 97DC  18        CLC  
 97DD  75 00     ADC  $00, X
 97DF  85 28     STA  $28
 97E1  B5 03     LDA  $03, X
 97E3  69 00     ADC  #$00
 97E5  85 29     STA  $29
 97E7  A5 28     LDA  $28
 97E9  D0 02     BNE  $97ED
 97EB  C6 29     DEC  $29
 97ED  C6 28     DEC  $28
 97EF  B2 28     LDA  ($28)
 97F1  C9 2E     CMP  #$2E
 97F3  D0 04     BNE  $97F9
 97F5  C6 26     DEC  $26
 97F7  D6 00     DEC  $00, X
 97F9  CA        DEX  
 97FA  CA        DEX  
 97FB  CA        DEX  
 97FC  CA        DEX  
 97FD  B5 04     LDA  $04, X
 97FF  95 00     STA  $00, X
 9801  74 01     STZ  $01, X
 9803  B5 06     LDA  $06, X
 9805  95 02     STA  $02, X
 9807  B5 07     LDA  $07, X
 9809  95 03     STA  $03, X
 980B  74 04     STZ  $04, X
 980D  74 05     STZ  $05, X
 980F  74 06     STZ  $06, X
 9811  74 07     STZ  $07, X
 9813  20 06 A4  JSR  $A406
 9816  B5 00     LDA  $00, X
 9818  F0 15     BEQ  $982F
 981A  A9 3E     LDA  #$3E
 981C  20 08 8F  JSR  $8F08
 981F  20 84 A6  JSR  $A684
 9822  A9 3C     LDA  #$3C
 9824  20 08 8F  JSR  $8F08
 9827  20 5C A2  JSR  $A25C
 982A  A9 08     LDA  #$08
 982C  4C 93 D8  JMP  $D893
 982F  E8        INX  
 9830  E8        INX  
 9831  E8        INX  
 9832  E8        INX  
 9833  A5 26     LDA  $26
 9835  F0 0F     BEQ  $9846
 9837  A5 3A     LDA  $3A
 9839  09 20     ORA  #$20
 983B  85 3A     STA  $3A
 983D  A5 27     LDA  $27
 983F  F0 14     BEQ  $9855
 9841  20 3E 8C  JSR  $8C3E
 9844  80 0F     BRA  $9855
 9846  E8        INX  
 9847  E8        INX  
 9848  A5 3A     LDA  $3A
 984A  29 DF     AND  #$DF
 984C  85 3A     STA  $3A
 984E  A5 27     LDA  $27
 9850  F0 03     BEQ  $9855
 9852  20 48 97  JSR  $9748
 9855  60        RTS  
 9856  E0 75     CPX  #$75
 9858  30 03     BMI  $985D
 985A  4C 91 D8  JMP  $D891
 985D  20 EF 83  JSR  $83EF
 9860  20 1F 91  JSR  $911F
 9863  20 BD A4  JSR  $A4BD
 9866  20 5F A9  JSR  $A95F
 9869  20 35 9B  JSR  $9B35
 986C  20 62 A7  JSR  $A762
 986F  20 F7 9B  JSR  $9BF7
 9872  20 F7 9B  JSR  $9BF7
 9875  20 4A 9B  JSR  $9B4A
 9878  20 62 A7  JSR  $A762
 987B  20 F7 9B  JSR  $9BF7
 987E  20 F7 9B  JSR  $9BF7
 9881  B5 00     LDA  $00, X
 9883  A8        TAY  
 9884  B9 24 D5  LDA  $D524, Y
 9887  95 00     STA  $00, X
 9889  74 01     STZ  $01, X
 988B  20 26 93  JSR  $9326
 988E  60        RTS  
 988F  E0 75     CPX  #$75
 9891  30 03     BMI  $9896
 9893  4C 91 D8  JMP  $D891
 9896  A5 30     LDA  $30
 9898  95 00     STA  $00, X
 989A  95 02     STA  $02, X
 989C  A5 31     LDA  $31
 989E  95 01     STA  $01, X
 98A0  95 03     STA  $03, X
 98A2  20 49 99  JSR  $9949
 98A5  38        SEC  
 98A6  B5 00     LDA  $00, X
 98A8  F5 02     SBC  $02, X
 98AA  95 02     STA  $02, X
 98AC  B5 01     LDA  $01, X
 98AE  F5 03     SBC  $03, X
 98B0  95 03     STA  $03, X
 98B2  E8        INX  
 98B3  E8        INX  
 98B4  60        RTS  
 98B5  E0 75     CPX  #$75
 98B7  30 03     BMI  $98BC
 98B9  4C 91 D8  JMP  $D891
 98BC  20 56 98  JSR  $9856
 98BF  B5 00     LDA  $00, X
 98C1  15 01     ORA  $01, X
 98C3  15 02     ORA  $02, X
 98C5  15 03     ORA  $03, X
 98C7  D0 F3     BNE  $98BC
 98C9  60        RTS  
 98CA  A0 99     LDY  #$99
 98CC  A9 37     LDA  #$37
 98CE  20 59 D7  JSR  $D759
 98D1  A0 8F     LDY  #$8F
 98D3  A9 E8     LDA  #$E8
 98D5  20 59 D7  JSR  $D759
 98D8  20 56 93  JSR  $9356
 98DB  A0 8E     LDY  #$8E
 98DD  A9 3F     LDA  #$3F
 98DF  20 59 D7  JSR  $D759
 98E2  60        RTS  
 98E3  CA        DEX  
 98E4  CA        DEX  
 98E5  A9 01     LDA  #$01
 98E7  95 00     STA  $00, X
 98E9  74 01     STZ  $01, X
 98EB  60        RTS  
 98EC  E0 77     CPX  #$77
 98EE  30 03     BMI  $98F3
 98F0  4C 91 D8  JMP  $D891
 98F3  B5 00     LDA  $00, X
 98F5  D0 02     BNE  $98F9
 98F7  D6 01     DEC  $01, X
 98F9  D6 00     DEC  $00, X
 98FB  60        RTS  
 98FC  E0 77     CPX  #$77
 98FE  30 03     BMI  $9903
 9900  4C 91 D8  JMP  $D891
 9903  F6 00     INC  $00, X
 9905  D0 02     BNE  $9909
 9907  F6 01     INC  $01, X
 9909  60        RTS  
 990A  CA        DEX  
 990B  CA        DEX  
 990C  A9 FF     LDA  #$FF
 990E  95 00     STA  $00, X
 9910  95 01     STA  $01, X
 9912  20 19 9E  JSR  $9E19
 9915  60        RTS  
 9916  E0 75     CPX  #$75
 9918  30 03     BMI  $991D
 991A  4C 91 D8  JMP  $D891
 991D  B5 00     LDA  $00, X
 991F  15 02     ORA  $02, X
 9921  95 02     STA  $02, X
 9923  B5 01     LDA  $01, X
 9925  15 03     ORA  $03, X
 9927  95 03     STA  $03, X
 9929  E8        INX  
 992A  E8        INX  
 992B  60        RTS  
 992C  CA        DEX  
 992D  CA        DEX  
 992E  A9 10     LDA  #$10
 9930  95 00     STA  $00, X
 9932  A9 00     LDA  #$00
 9934  95 01     STA  $01, X
 9936  60        RTS  
 9937  E0 75     CPX  #$75
 9939  30 03     BMI  $993E
 993B  4C 91 D8  JMP  $D891
 993E  CA        DEX  
 993F  CA        DEX  
 9940  B5 04     LDA  $04, X
 9942  95 00     STA  $00, X
 9944  B5 05     LDA  $05, X
 9946  95 01     STA  $01, X
 9948  60        RTS  
 9949  CA        DEX  
 994A  CA        DEX  
 994B  A5 00     LDA  $00
 994D  18        CLC  
 994E  69 FF     ADC  #$FF
 9950  95 00     STA  $00, X
 9952  A5 01     LDA  $01
 9954  69 00     ADC  #$00
 9956  95 01     STA  $01, X
 9958  60        RTS  
 9959  A9 1B     LDA  #$1B
 995B  20 08 8F  JSR  $8F08
 995E  A9 5B     LDA  #$5B
 9960  20 08 8F  JSR  $8F08
 9963  A9 32     LDA  #$32
 9965  20 08 8F  JSR  $8F08
 9968  A9 4A     LDA  #$4A
 996A  20 08 8F  JSR  $8F08
 996D  20 5F A9  JSR  $A95F
 9970  20 5F A9  JSR  $A95F
 9973  20 C4 83  JSR  $83C4
 9976  60        RTS  
 9977  CA        DEX  
 9978  CA        DEX  
 9979  A9 29     LDA  #$29
 997B  95 00     STA  $00, X
 997D  74 01     STZ  $01, X
 997F  20 E2 99  JSR  $99E2
 9982  E8        INX  
 9983  E8        INX  
 9984  E8        INX  
 9985  E8        INX  
 9986  60        RTS  
 9987  A5 0A     LDA  $0A
 9989  38        SEC  
 998A  E5 0C     SBC  $0C
 998C  85 20     STA  $20
 998E  A5 0B     LDA  $0B
 9990  E5 0D     SBC  $0D
 9992  85 21     STA  $21
 9994  A5 20     LDA  $20
 9996  05 21     ORA  $21
 9998  F0 28     BEQ  $99C2
 999A  A5 08     LDA  $08
 999C  18        CLC  
 999D  65 0C     ADC  $0C
 999F  85 22     STA  $22
 99A1  A5 09     LDA  $09
 99A3  65 0D     ADC  $0D
 99A5  85 23     STA  $23
 99A7  B2 22     LDA  ($22)
 99A9  20 84 D8  JSR  $D884
 99AC  90 1F     BCC  $99CD
 99AE  E6 22     INC  $22
 99B0  D0 02     BNE  $99B4
 99B2  E6 23     INC  $23
 99B4  A5 20     LDA  $20
 99B6  D0 02     BNE  $99BA
 99B8  C6 21     DEC  $21
 99BA  C6 20     DEC  $20
 99BC  A5 20     LDA  $20
 99BE  05 21     ORA  $21
 99C0  D0 E5     BNE  $99A7
 99C2  CA        DEX  
 99C3  CA        DEX  
 99C4  CA        DEX  
 99C5  CA        DEX  
 99C6  74 00     STZ  $00, X
 99C8  74 01     STZ  $01, X
 99CA  4C 7D 9A  JMP  $9A7D
 99CD  A5 22     LDA  $22
 99CF  38        SEC  
 99D0  E5 08     SBC  $08
 99D2  85 0C     STA  $0C
 99D4  A5 23     LDA  $23
 99D6  E5 09     SBC  $09
 99D8  85 0D     STA  $0D
 99DA  CA        DEX  
 99DB  CA        DEX  
 99DC  A9 20     LDA  #$20
 99DE  95 00     STA  $00, X
 99E0  74 01     STZ  $01, X
 99E2  E0 77     CPX  #$77
 99E4  30 03     BMI  $99E9
 99E6  4C 91 D8  JMP  $D891
 99E9  A5 0A     LDA  $0A
 99EB  05 0B     ORA  $0B
 99ED  F0 0C     BEQ  $99FB
 99EF  A5 0D     LDA  $0D
 99F1  C5 0B     CMP  $0B
 99F3  90 0E     BCC  $9A03
 99F5  A5 0C     LDA  $0C
 99F7  C5 0A     CMP  $0A
 99F9  90 08     BCC  $9A03
 99FB  CA        DEX  
 99FC  CA        DEX  
 99FD  74 00     STZ  $00, X
 99FF  74 01     STZ  $01, X
 9A01  80 7A     BRA  $9A7D
 9A03  B5 00     LDA  $00, X
 9A05  85 28     STA  $28
 9A07  CA        DEX  
 9A08  CA        DEX  
 9A09  A5 08     LDA  $08
 9A0B  18        CLC  
 9A0C  65 0C     ADC  $0C
 9A0E  85 20     STA  $20
 9A10  85 22     STA  $22
 9A12  95 02     STA  $02, X
 9A14  A5 09     LDA  $09
 9A16  65 0D     ADC  $0D
 9A18  85 21     STA  $21
 9A1A  85 23     STA  $23
 9A1C  95 03     STA  $03, X
 9A1E  A5 08     LDA  $08
 9A20  18        CLC  
 9A21  65 0A     ADC  $0A
 9A23  85 24     STA  $24
 9A25  A5 09     LDA  $09
 9A27  65 0B     ADC  $0B
 9A29  85 25     STA  $25
 9A2B  64 29     STZ  $29
 9A2D  A5 22     LDA  $22
 9A2F  C5 24     CMP  $24
 9A31  D0 06     BNE  $9A39
 9A33  A5 23     LDA  $23
 9A35  C5 25     CMP  $25
 9A37  F0 1D     BEQ  $9A56
 9A39  B2 22     LDA  ($22)
 9A3B  A4 28     LDY  $28
 9A3D  C0 20     CPY  #$20
 9A3F  D0 07     BNE  $9A48
 9A41  20 84 D8  JSR  $D884
 9A44  90 02     BCC  $9A48
 9A46  80 0C     BRA  $9A54
 9A48  C5 28     CMP  $28
 9A4A  F0 08     BEQ  $9A54
 9A4C  E6 22     INC  $22
 9A4E  D0 DD     BNE  $9A2D
 9A50  E6 23     INC  $23
 9A52  80 D9     BRA  $9A2D
 9A54  E6 29     INC  $29
 9A56  A5 22     LDA  $22
 9A58  38        SEC  
 9A59  E5 20     SBC  $20
 9A5B  95 00     STA  $00, X
 9A5D  A5 23     LDA  $23
 9A5F  E5 21     SBC  $21
 9A61  95 01     STA  $01, X
 9A63  A5 22     LDA  $22
 9A65  38        SEC  
 9A66  E5 08     SBC  $08
 9A68  85 0C     STA  $0C
 9A6A  A5 23     LDA  $23
 9A6C  E5 09     SBC  $09
 9A6E  85 0D     STA  $0D
 9A70  A5 0C     LDA  $0C
 9A72  18        CLC  
 9A73  65 29     ADC  $29
 9A75  85 0C     STA  $0C
 9A77  A5 0D     LDA  $0D
 9A79  69 00     ADC  #$00
 9A7B  85 0D     STA  $0D
 9A7D  60        RTS  
 9A7E  16 00     ASL  $00, X
 9A80  8A        TXA  
 9A81  75 00     ADC  $00, X
 9A83  A8        TAY  
 9A84  B9 02 00  LDA  $0002, Y
 9A87  95 00     STA  $00, X
 9A89  B9 03 00  LDA  $0003, Y
 9A8C  95 01     STA  $01, X
 9A8E  60        RTS  
 9A8F  E0 75     CPX  #$75
 9A91  30 03     BMI  $9A96
 9A93  4C 91 D8  JMP  $D891
 9A96  18        CLC  
 9A97  B5 00     LDA  $00, X
 9A99  75 02     ADC  $02, X
 9A9B  95 02     STA  $02, X
 9A9D  B5 01     LDA  $01, X
 9A9F  75 03     ADC  $03, X
 9AA1  95 03     STA  $03, X
 9AA3  E8        INX  
 9AA4  E8        INX  
 9AA5  60        RTS  
 9AA6  E0 75     CPX  #$75
 9AA8  30 03     BMI  $9AAD
 9AAA  4C 91 D8  JMP  $D891
 9AAD  B5 00     LDA  $00, X
 9AAF  85 20     STA  $20
 9AB1  B5 01     LDA  $01, X
 9AB3  85 21     STA  $21
 9AB5  A0 00     LDY  #$00
 9AB7  B1 20     LDA  ($20), Y
 9AB9  18        CLC  
 9ABA  75 02     ADC  $02, X
 9ABC  91 20     STA  ($20), Y
 9ABE  C8        INY  
 9ABF  B1 20     LDA  ($20), Y
 9AC1  75 03     ADC  $03, X
 9AC3  91 20     STA  ($20), Y
 9AC5  E8        INX  
 9AC6  E8        INX  
 9AC7  E8        INX  
 9AC8  E8        INX  
 9AC9  60        RTS  
 9ACA  20 87 99  JSR  $9987
 9ACD  B5 00     LDA  $00, X
 9ACF  15 01     ORA  $01, X
 9AD1  D0 05     BNE  $9AD8
 9AD3  A9 05     LDA  #$05
 9AD5  4C 93 D8  JMP  $D893
 9AD8  20 82 91  JSR  $9182
 9ADB  D0 05     BNE  $9AE2
 9ADD  A9 05     LDA  #$05
 9ADF  4C 93 D8  JMP  $D893
 9AE2  B5 00     LDA  $00, X
 9AE4  85 20     STA  $20
 9AE6  B5 01     LDA  $01, X
 9AE8  85 21     STA  $21
 9AEA  20 FE 96  JSR  $96FE
 9AED  E6 20     INC  $20
 9AEF  D0 02     BNE  $9AF3
 9AF1  E6 21     INC  $21
 9AF3  B2 20     LDA  ($20)
 9AF5  29 04     AND  #$04
 9AF7  F0 05     BEQ  $9AFE
 9AF9  20 F8 88  JSR  $88F8
 9AFC  80 0A     BRA  $9B08
 9AFE  20 9C 94  JSR  $949C
 9B01  A0 88     LDY  #$88
 9B03  A9 F8     LDA  #$F8
 9B05  20 59 D7  JSR  $D759
 9B08  60        RTS  
 9B09  20 78 92  JSR  $9278
 9B0C  20 6B 97  JSR  $976B
 9B0F  20 EC 98  JSR  $98EC
 9B12  20 19 9E  JSR  $9E19
 9B15  60        RTS  
 9B16  20 1F 91  JSR  $911F
 9B19  20 37 8D  JSR  $8D37
 9B1C  60        RTS  
 9B1D  E0 77     CPX  #$77
 9B1F  30 03     BMI  $9B24
 9B21  4C 91 D8  JMP  $D891
 9B24  B5 00     LDA  $00, X
 9B26  15 01     ORA  $01, X
 9B28  F0 0A     BEQ  $9B34
 9B2A  CA        DEX  
 9B2B  CA        DEX  
 9B2C  B5 02     LDA  $02, X
 9B2E  95 00     STA  $00, X
 9B30  B5 03     LDA  $03, X
 9B32  95 01     STA  $01, X
 9B34  60        RTS  
 9B35  7A        PLY  
 9B36  84 20     STY  $20
 9B38  7A        PLY  
 9B39  CA        DEX  
 9B3A  CA        DEX  
 9B3B  68        PLA  
 9B3C  95 00     STA  $00, X
 9B3E  68        PLA  
 9B3F  95 01     STA  $01, X
 9B41  48        PHA  
 9B42  B5 00     LDA  $00, X
 9B44  48        PHA  
 9B45  5A        PHY  
 9B46  A4 20     LDY  $20
 9B48  5A        PHY  
 9B49  60        RTS  
 9B4A  68        PLA  
 9B4B  85 28     STA  $28
 9B4D  7A        PLY  
 9B4E  CA        DEX  
 9B4F  CA        DEX  
 9B50  68        PLA  
 9B51  95 00     STA  $00, X
 9B53  68        PLA  
 9B54  95 01     STA  $01, X
 9B56  5A        PHY  
 9B57  A5 28     LDA  $28
 9B59  48        PHA  
 9B5A  60        RTS  
 9B5B  A0 00     LDY  #$00
 9B5D  A9 20     LDA  #$20
 9B5F  91 00     STA  ($00), Y
 9B61  C8        INY  
 9B62  24 3A     BIT  $3A
 9B64  70 0C     BVS  $9B72
 9B66  A5 04     LDA  $04
 9B68  91 00     STA  ($00), Y
 9B6A  C8        INY  
 9B6B  A5 05     LDA  $05
 9B6D  91 00     STA  ($00), Y
 9B6F  C8        INY  
 9B70  80 1B     BRA  $9B8D
 9B72  A5 04     LDA  $04
 9B74  18        CLC  
 9B75  69 04     ADC  #$04
 9B77  85 20     STA  $20
 9B79  A5 05     LDA  $05
 9B7B  69 00     ADC  #$00
 9B7D  85 21     STA  $21
 9B7F  B2 20     LDA  ($20)
 9B81  91 00     STA  ($00), Y
 9B83  5A        PHY  
 9B84  A0 01     LDY  #$01
 9B86  B1 20     LDA  ($20), Y
 9B88  7A        PLY  
 9B89  C8        INY  
 9B8A  91 00     STA  ($00), Y
 9B8C  C8        INY  
 9B8D  98        TYA  
 9B8E  18        CLC  
 9B8F  65 00     ADC  $00
 9B91  85 00     STA  $00
 9B93  90 02     BCC  $9B97
 9B95  E6 01     INC  $01
 9B97  60        RTS  
 9B98  A5 06     LDA  $06
 9B9A  D0 2D     BNE  $9BC9
 9B9C  CA        DEX  
 9B9D  CA        DEX  
 9B9E  CA        DEX  
 9B9F  CA        DEX  
 9BA0  A5 08     LDA  $08
 9BA2  95 02     STA  $02, X
 9BA4  A5 09     LDA  $09
 9BA6  95 03     STA  $03, X
 9BA8  64 0A     STZ  $0A
 9BAA  64 0B     STZ  $0B
 9BAC  A9 FF     LDA  #$FF
 9BAE  95 00     STA  $00, X
 9BB0  74 01     STZ  $01, X
 9BB2  20 8D 81  JSR  $818D
 9BB5  B5 00     LDA  $00, X
 9BB7  85 0A     STA  $0A
 9BB9  B5 01     LDA  $01, X
 9BBB  85 0B     STA  $0B
 9BBD  64 0C     STZ  $0C
 9BBF  64 0D     STZ  $0D
 9BC1  A9 FF     LDA  #$FF
 9BC3  95 00     STA  $00, X
 9BC5  95 01     STA  $01, X
 9BC7  80 10     BRA  $9BD9
 9BC9  1A        INC  
 9BCA  D0 08     BNE  $9BD4
 9BCC  CA        DEX  
 9BCD  CA        DEX  
 9BCE  74 00     STZ  $00, X
 9BD0  74 01     STZ  $01, X
 9BD2  80 05     BRA  $9BD9
 9BD4  A9 01     LDA  #$01
 9BD6  4C 93 D8  JMP  $D893
 9BD9  60        RTS  
 9BDA  20 E8 82  JSR  $82E8
 9BDD  20 BA 92  JSR  $92BA
 9BE0  20 E7 A2  JSR  $A2E7
 9BE3  20 CD A2  JSR  $A2CD
 9BE6  60        RTS  
 9BE7  A9 FF     LDA  #$FF
 9BE9  85 16     STA  $16
 9BEB  85 17     STA  $17
 9BED  60        RTS  
 9BEE  CA        DEX  
 9BEF  CA        DEX  
 9BF0  A9 03     LDA  #$03
 9BF2  95 00     STA  $00, X
 9BF4  74 01     STZ  $01, X
 9BF6  60        RTS  
 9BF7  E0 73     CPX  #$73
 9BF9  30 03     BMI  $9BFE
 9BFB  4C 91 D8  JMP  $D891
 9BFE  B4 05     LDY  $05, X
 9C00  B5 03     LDA  $03, X
 9C02  95 05     STA  $05, X
 9C04  B5 01     LDA  $01, X
 9C06  95 03     STA  $03, X
 9C08  94 01     STY  $01, X
 9C0A  B4 04     LDY  $04, X
 9C0C  B5 02     LDA  $02, X
 9C0E  95 04     STA  $04, X
 9C10  B5 00     LDA  $00, X
 9C12  95 02     STA  $02, X
 9C14  94 00     STY  $00, X
 9C16  60        RTS  
 9C17  E0 75     CPX  #$75
 9C19  30 03     BMI  $9C1E
 9C1B  4C 91 D8  JMP  $D891
 9C1E  B5 00     LDA  $00, X
 9C20  29 0F     AND  #$0F
 9C22  F0 08     BEQ  $9C2C
 9C24  A8        TAY  
 9C25  56 03     LSR  $03, X
 9C27  76 02     ROR  $02, X
 9C29  88        DEY  
 9C2A  D0 F9     BNE  $9C25
 9C2C  E8        INX  
 9C2D  E8        INX  
 9C2E  60        RTS  
 9C2F  A9 FF     LDA  #$FF
 9C31  85 22     STA  $22
 9C33  64 23     STZ  $23
 9C35  20 51 9E  JSR  $9E51
 9C38  60        RTS  
 9C39  C9 41     CMP  #$41
 9C3B  90 06     BCC  $9C43
 9C3D  29 DF     AND  #$DF
 9C3F  38        SEC  
 9C40  E9 37     SBC  #$37
 9C42  60        RTS  
 9C43  38        SEC  
 9C44  E9 30     SBC  #$30
 9C46  60        RTS  
 9C47  E0 73     CPX  #$73
 9C49  30 03     BMI  $9C4E
 9C4B  4C 91 D8  JMP  $D891
 9C4E  A5 3C     LDA  $3C
 9C50  18        CLC  
 9C51  69 06     ADC  #$06
 9C53  85 22     STA  $22
 9C55  A5 3D     LDA  $3D
 9C57  69 00     ADC  #$00
 9C59  85 23     STA  $23
 9C5B  B5 00     LDA  $00, X
 9C5D  0A        ASL  
 9C5E  65 22     ADC  $22
 9C60  85 22     STA  $22
 9C62  90 02     BCC  $9C66
 9C64  E6 23     INC  $23
 9C66  E8        INX  
 9C67  E8        INX  
 9C68  B5 00     LDA  $00, X
 9C6A  15 01     ORA  $01, X
 9C6C  D0 03     BNE  $9C71
 9C6E  4C 29 9D  JMP  $9D29
 9C71  A5 22     LDA  $22
 9C73  05 23     ORA  $23
 9C75  D0 03     BNE  $9C7A
 9C77  4C 29 9D  JMP  $9D29
 9C7A  B2 22     LDA  ($22)
 9C7C  85 20     STA  $20
 9C7E  E6 22     INC  $22
 9C80  D0 02     BNE  $9C84
 9C82  E6 23     INC  $23
 9C84  B2 22     LDA  ($22)
 9C86  85 21     STA  $21
 9C88  B5 02     LDA  $02, X
 9C8A  85 22     STA  $22
 9C8C  B5 03     LDA  $03, X
 9C8E  85 23     STA  $23
 9C90  B2 20     LDA  ($20)
 9C92  D5 00     CMP  $00, X
 9C94  D0 7B     BNE  $9D11
 9C96  B2 22     LDA  ($22)
 9C98  C9 5B     CMP  #$5B
 9C9A  B0 07     BCS  $9CA3
 9C9C  C9 41     CMP  #$41
 9C9E  90 03     BCC  $9CA3
 9CA0  18        CLC  
 9CA1  69 20     ADC  #$20
 9CA3  A0 08     LDY  #$08
 9CA5  D1 20     CMP  ($20), Y
 9CA7  D0 68     BNE  $9D11
 9CA9  B5 00     LDA  $00, X
 9CAB  3A        DEC  
 9CAC  F0 2C     BEQ  $9CDA
 9CAE  A5 20     LDA  $20
 9CB0  48        PHA  
 9CB1  18        CLC  
 9CB2  69 08     ADC  #$08
 9CB4  85 20     STA  $20
 9CB6  A5 21     LDA  $21
 9CB8  48        PHA  
 9CB9  69 00     ADC  #$00
 9CBB  85 21     STA  $21
 9CBD  B4 00     LDY  $00, X
 9CBF  88        DEY  
 9CC0  B1 22     LDA  ($22), Y
 9CC2  C9 5B     CMP  #$5B
 9CC4  B0 07     BCS  $9CCD
 9CC6  C9 41     CMP  #$41
 9CC8  90 03     BCC  $9CCD
 9CCA  18        CLC  
 9CCB  69 20     ADC  #$20
 9CCD  D1 20     CMP  ($20), Y
 9CCF  D0 3A     BNE  $9D0B
 9CD1  88        DEY  
 9CD2  D0 EC     BNE  $9CC0
 9CD4  68        PLA  
 9CD5  85 21     STA  $21
 9CD7  68        PLA  
 9CD8  85 20     STA  $20
 9CDA  E8        INX  
 9CDB  E8        INX  
 9CDC  A5 20     LDA  $20
 9CDE  95 00     STA  $00, X
 9CE0  A5 21     LDA  $21
 9CE2  95 01     STA  $01, X
 9CE4  20 C8 8E  JSR  $8EC8
 9CE7  20 FE 96  JSR  $96FE
 9CEA  20 E7 A2  JSR  $A2E7
 9CED  A0 00     LDY  #$00
 9CEF  F6 00     INC  $00, X
 9CF1  D0 02     BNE  $9CF5
 9CF3  F6 01     INC  $01, X
 9CF5  A1 00     LDA  ($00, X)
 9CF7  29 04     AND  #$04
 9CF9  D0 08     BNE  $9D03
 9CFB  A9 FF     LDA  #$FF
 9CFD  95 00     STA  $00, X
 9CFF  95 01     STA  $01, X
 9D01  80 28     BRA  $9D2B
 9D03  A9 01     LDA  #$01
 9D05  95 00     STA  $00, X
 9D07  74 01     STZ  $01, X
 9D09  80 20     BRA  $9D2B
 9D0B  68        PLA  
 9D0C  85 21     STA  $21
 9D0E  68        PLA  
 9D0F  85 20     STA  $20
 9D11  A0 02     LDY  #$02
 9D13  B1 20     LDA  ($20), Y
 9D15  48        PHA  
 9D16  C8        INY  
 9D17  B1 20     LDA  ($20), Y
 9D19  85 21     STA  $21
 9D1B  68        PLA  
 9D1C  85 20     STA  $20
 9D1E  05 21     ORA  $21
 9D20  F0 03     BEQ  $9D25
 9D22  4C 90 9C  JMP  $9C90
 9D25  74 02     STZ  $02, X
 9D27  74 03     STZ  $03, X
 9D29  E8        INX  
 9D2A  E8        INX  
 9D2B  60        RTS  
 9D2C  20 87 99  JSR  $9987
 9D2F  20 82 91  JSR  $9182
 9D32  B5 00     LDA  $00, X
 9D34  15 01     ORA  $01, X
 9D36  D0 05     BNE  $9D3D
 9D38  A9 05     LDA  #$05
 9D3A  4C 93 D8  JMP  $D893
 9D3D  20 7A 8A  JSR  $8A7A
 9D40  A5 18     LDA  $18
 9D42  48        PHA  
 9D43  20 C5 92  JSR  $92C5
 9D46  A9 EE     LDA  #$EE
 9D48  85 24     STA  $24
 9D4A  A9 9D     LDA  #$9D
 9D4C  85 25     STA  $25
 9D4E  20 BC D8  JSR  $D8BC
 9D51  20 C8 8E  JSR  $8EC8
 9D54  20 B3 A6  JSR  $A6B3
 9D57  20 5C A2  JSR  $A25C
 9D5A  20 C8 8E  JSR  $8EC8
 9D5D  20 FE 96  JSR  $96FE
 9D60  A9 F3     LDA  #$F3
 9D62  85 24     STA  $24
 9D64  A9 9D     LDA  #$9D
 9D66  85 25     STA  $25
 9D68  20 BC D8  JSR  $D8BC
 9D6B  20 C8 8E  JSR  $8EC8
 9D6E  20 B3 A6  JSR  $A6B3
 9D71  20 7A 8A  JSR  $8A7A
 9D74  A9 D2     LDA  #$D2
 9D76  85 24     STA  $24
 9D78  A9 9D     LDA  #$9D
 9D7A  85 25     STA  $25
 9D7C  20 BC D8  JSR  $D8BC
 9D7F  20 37 99  JSR  $9937
 9D82  20 FC 98  JSR  $98FC
 9D85  20 1F 91  JSR  $911F
 9D88  B5 00     LDA  $00, X
 9D8A  A0 06     LDY  #$06
 9D8C  48        PHA  
 9D8D  29 01     AND  #$01
 9D8F  18        CLC  
 9D90  69 30     ADC  #$30
 9D92  20 08 8F  JSR  $8F08
 9D95  20 5C A2  JSR  $A25C
 9D98  68        PLA  
 9D99  6A        ROR  
 9D9A  88        DEY  
 9D9B  D0 EF     BNE  $9D8C
 9D9D  20 7A 8A  JSR  $8A7A
 9DA0  E8        INX  
 9DA1  E8        INX  
 9DA2  A9 F8     LDA  #$F8
 9DA4  85 24     STA  $24
 9DA6  A9 9D     LDA  #$9D
 9DA8  85 25     STA  $25
 9DAA  20 BC D8  JSR  $D8BC
 9DAD  20 E7 A2  JSR  $A2E7
 9DB0  20 24 A9  JSR  $A924
 9DB3  20 C8 8E  JSR  $8EC8
 9DB6  20 9A 8B  JSR  $8B9A
 9DB9  20 B3 A6  JSR  $A6B3
 9DBC  20 C5 92  JSR  $92C5
 9DBF  20 7A 8A  JSR  $8A7A
 9DC2  20 11 A5  JSR  $A511
 9DC5  20 49 8E  JSR  $8E49
 9DC8  20 7A 8A  JSR  $8A7A
 9DCB  20 33 8C  JSR  $8C33
 9DCE  68        PLA  
 9DCF  85 18     STA  $18
 9DD1  60        RTS  
 9DD2  66 6C 61 67 73 20 28 43 4F 20 41 4E 20 49 4D 20  |flags (CO AN IM |
 9DE2  4E 4E 20 55 46 20 48 43 29 3A 20 00 6E 74 3A 20  |NN UF HC): .nt: |
 9DF2  00 78 74 3A 20 00 73 69 7A 65 20 28 64 65 63 69  |.xt: .size (deci|
 9E02  6D 61 6C 29 3A 20 00                             |mal): .         |
 9E09  E0 77     CPX  #$77
 9E0B  30 03     BMI  $9E10
 9E0D  4C 91 D8  JMP  $D891
 9E10  A0 04     LDY  #$04
 9E12  B5 00     LDA  $00, X
 9E14  91 3C     STA  ($3C), Y
 9E16  E8        INX  
 9E17  E8        INX  
 9E18  60        RTS  
 9E19  A9 FF     LDA  #$FF
 9E1B  D5 01     CMP  $01, X
 9E1D  D0 12     BNE  $9E31
 9E1F  D5 00     CMP  $00, X
 9E21  D0 0E     BNE  $9E31
 9E23  CA        DEX  
 9E24  CA        DEX  
 9E25  74 03     STZ  $03, X
 9E27  A9 03     LDA  #$03
 9E29  95 02     STA  $02, X
 9E2B  74 01     STZ  $01, X
 9E2D  A9 01     LDA  #$01
 9E2F  95 00     STA  $00, X
 9E31  A0 1E     LDY  #$1E
 9E33  B5 00     LDA  $00, X
 9E35  91 3C     STA  ($3C), Y
 9E37  85 20     STA  $20
 9E39  E8        INX  
 9E3A  E8        INX  
 9E3B  A5 20     LDA  $20
 9E3D  F0 0D     BEQ  $9E4C
 9E3F  A0 1F     LDY  #$1F
 9E41  B5 00     LDA  $00, X
 9E43  91 3C     STA  ($3C), Y
 9E45  C8        INY  
 9E46  E8        INX  
 9E47  E8        INX  
 9E48  C6 20     DEC  $20
 9E4A  D0 F5     BNE  $9E41
 9E4C  60        RTS  
 9E4D  64 22     STZ  $22
 9E4F  64 23     STZ  $23
 9E51  CA        DEX  
 9E52  CA        DEX  
 9E53  CA        DEX  
 9E54  CA        DEX  
 9E55  A9 4C     LDA  #$4C
 9E57  20 69 D7  JSR  $D769
 9E5A  20 69 D7  JSR  $D769
 9E5D  20 69 D7  JSR  $D769
 9E60  A5 00     LDA  $00
 9E62  95 02     STA  $02, X
 9E64  A5 01     LDA  $01
 9E66  95 03     STA  $03, X
 9E68  A5 0D     LDA  $0D
 9E6A  C5 0B     CMP  $0B
 9E6C  90 2A     BCC  $9E98
 9E6E  A5 0C     LDA  $0C
 9E70  C5 0A     CMP  $0A
 9E72  90 24     BCC  $9E98
 9E74  A5 22     LDA  $22
 9E76  48        PHA  
 9E77  A5 23     LDA  $23
 9E79  48        PHA  
 9E7A  A5 24     LDA  $24
 9E7C  48        PHA  
 9E7D  20 98 9B  JSR  $9B98
 9E80  68        PLA  
 9E81  85 24     STA  $24
 9E83  68        PLA  
 9E84  85 23     STA  $23
 9E86  68        PLA  
 9E87  85 22     STA  $22
 9E89  B5 00     LDA  $00, X
 9E8B  15 01     ORA  $01, X
 9E8D  D0 05     BNE  $9E94
 9E8F  A9 06     LDA  #$06
 9E91  4C 93 D8  JMP  $D893
 9E94  E8        INX  
 9E95  E8        INX  
 9E96  80 D0     BRA  $9E68
 9E98  A5 08     LDA  $08
 9E9A  18        CLC  
 9E9B  65 0C     ADC  $0C
 9E9D  85 20     STA  $20
 9E9F  A5 09     LDA  $09
 9EA1  65 0D     ADC  $0D
 9EA3  85 21     STA  $21
 9EA5  B2 20     LDA  ($20)
 9EA7  24 22     BIT  $22
 9EA9  30 03     BMI  $9EAE
 9EAB  4C 66 9F  JMP  $9F66
 9EAE  24 23     BIT  $23
 9EB0  30 03     BMI  $9EB5
 9EB2  4C 5C 9F  JMP  $9F5C
 9EB5  70 22     BVS  $9ED9
 9EB7  A9 01     LDA  #$01
 9EB9  24 23     BIT  $23
 9EBB  D0 10     BNE  $9ECD
 9EBD  E6 23     INC  $23
 9EBF  B2 20     LDA  ($20)
 9EC1  20 39 9C  JSR  $9C39
 9EC4  0A        ASL  
 9EC5  0A        ASL  
 9EC6  0A        ASL  
 9EC7  0A        ASL  
 9EC8  85 24     STA  $24
 9ECA  4C 6D 9F  JMP  $9F6D
 9ECD  64 23     STZ  $23
 9ECF  B2 20     LDA  ($20)
 9ED1  20 39 9C  JSR  $9C39
 9ED4  05 24     ORA  $24
 9ED6  4C 6A 9F  JMP  $9F6A
 9ED9  64 23     STZ  $23
 9EDB  C9 61     CMP  #$61
 9EDD  D0 05     BNE  $9EE4
 9EDF  A9 07     LDA  #$07
 9EE1  4C 6A 9F  JMP  $9F6A
 9EE4  C9 62     CMP  #$62
 9EE6  D0 05     BNE  $9EED
 9EE8  A9 08     LDA  #$08
 9EEA  4C 6A 9F  JMP  $9F6A
 9EED  C9 65     CMP  #$65
 9EEF  D0 04     BNE  $9EF5
 9EF1  A9 1B     LDA  #$1B
 9EF3  80 75     BRA  $9F6A
 9EF5  C9 66     CMP  #$66
 9EF7  D0 04     BNE  $9EFD
 9EF9  A9 0C     LDA  #$0C
 9EFB  80 6D     BRA  $9F6A
 9EFD  C9 6C     CMP  #$6C
 9EFF  D0 04     BNE  $9F05
 9F01  A9 0A     LDA  #$0A
 9F03  80 65     BRA  $9F6A
 9F05  C9 6D     CMP  #$6D
 9F07  D0 09     BNE  $9F12
 9F09  A9 0D     LDA  #$0D
 9F0B  20 69 D7  JSR  $D769
 9F0E  A9 0A     LDA  #$0A
 9F10  80 58     BRA  $9F6A
 9F12  C9 6E     CMP  #$6E
 9F14  D0 04     BNE  $9F1A
 9F16  A9 0A     LDA  #$0A
 9F18  80 50     BRA  $9F6A
 9F1A  C9 71     CMP  #$71
 9F1C  D0 04     BNE  $9F22
 9F1E  A9 22     LDA  #$22
 9F20  80 48     BRA  $9F6A
 9F22  C9 72     CMP  #$72
 9F24  D0 04     BNE  $9F2A
 9F26  A9 0D     LDA  #$0D
 9F28  80 40     BRA  $9F6A
 9F2A  C9 74     CMP  #$74
 9F2C  D0 04     BNE  $9F32
 9F2E  A9 09     LDA  #$09
 9F30  80 38     BRA  $9F6A
 9F32  C9 76     CMP  #$76
 9F34  D0 04     BNE  $9F3A
 9F36  A9 0B     LDA  #$0B
 9F38  80 30     BRA  $9F6A
 9F3A  C9 7A     CMP  #$7A
 9F3C  D0 04     BNE  $9F42
 9F3E  A9 00     LDA  #$00
 9F40  80 28     BRA  $9F6A
 9F42  C9 22     CMP  #$22
 9F44  D0 04     BNE  $9F4A
 9F46  A9 22     LDA  #$22
 9F48  80 20     BRA  $9F6A
 9F4A  C9 78     CMP  #$78
 9F4C  D0 06     BNE  $9F54
 9F4E  A9 BE     LDA  #$BE
 9F50  85 23     STA  $23
 9F52  80 19     BRA  $9F6D
 9F54  C9 5C     CMP  #$5C
 9F56  D0 04     BNE  $9F5C
 9F58  A9 5C     LDA  #$5C
 9F5A  80 0E     BRA  $9F6A
 9F5C  C9 5C     CMP  #$5C
 9F5E  D0 06     BNE  $9F66
 9F60  A9 FF     LDA  #$FF
 9F62  85 23     STA  $23
 9F64  80 07     BRA  $9F6D
 9F66  C9 22     CMP  #$22
 9F68  F0 0C     BEQ  $9F76
 9F6A  20 69 D7  JSR  $D769
 9F6D  E6 0C     INC  $0C
 9F6F  D0 02     BNE  $9F73
 9F71  E6 0D     INC  $0D
 9F73  4C 68 9E  JMP  $9E68
 9F76  E6 0C     INC  $0C
 9F78  D0 02     BNE  $9F7C
 9F7A  E6 0D     INC  $0D
 9F7C  A5 00     LDA  $00
 9F7E  38        SEC  
 9F7F  F5 02     SBC  $02, X
 9F81  95 00     STA  $00, X
 9F83  A5 01     LDA  $01
 9F85  F5 03     SBC  $03, X
 9F87  95 01     STA  $01, X
 9F89  B5 02     LDA  $02, X
 9F8B  38        SEC  
 9F8C  E9 02     SBC  #$02
 9F8E  85 20     STA  $20
 9F90  B5 03     LDA  $03, X
 9F92  E9 00     SBC  #$00
 9F94  85 21     STA  $21
 9F96  A5 00     LDA  $00
 9F98  92 20     STA  ($20)
 9F9A  A0 01     LDY  #$01
 9F9C  A5 01     LDA  $01
 9F9E  91 20     STA  ($20), Y
 9FA0  A5 16     LDA  $16
 9FA2  05 17     ORA  $17
 9FA4  F0 03     BEQ  $9FA9
 9FA6  20 C9 A1  JSR  $A1C9
 9FA9  60        RTS  
 9FAA  E0 77     CPX  #$77
 9FAC  30 03     BMI  $9FB1
 9FAE  4C 91 D8  JMP  $D891
 9FB1  CA        DEX  
 9FB2  CA        DEX  
 9FB3  74 00     STZ  $00, X
 9FB5  74 01     STZ  $01, X
 9FB7  B5 03     LDA  $03, X
 9FB9  10 04     BPL  $9FBF
 9FBB  D6 00     DEC  $00, X
 9FBD  D6 01     DEC  $01, X
 9FBF  60        RTS  
 9FC0  A0 2C     LDY  #$2C
 9FC2  B1 3C     LDA  ($3C), Y
 9FC4  C9 03     CMP  #$03
 9FC6  D0 12     BNE  $9FDA
 9FC8  20 1D 84  JSR  $841D
 9FCB  20 33 86  JSR  $8633
 9FCE  20 1F 91  JSR  $911F
 9FD1  20 CE 85  JSR  $85CE
 9FD4  A9 01     LDA  #$01
 9FD6  A0 2C     LDY  #$2C
 9FD8  91 3C     STA  ($3C), Y
 9FDA  60        RTS  
 9FDB  CA        DEX  
 9FDC  CA        DEX  
 9FDD  18        CLC  
 9FDE  A5 3C     LDA  $3C
 9FE0  69 02     ADC  #$02
 9FE2  95 00     STA  $00, X
 9FE4  A5 3D     LDA  $3D
 9FE6  69 00     ADC  #$00
 9FE8  95 01     STA  $01, X
 9FEA  60        RTS  
 9FEB  E0 71     CPX  #$71
 9FED  D0 03     BNE  $9FF2
 9FEF  4C 91 D8  JMP  $D891
 9FF2  B5 00     LDA  $00, X
 9FF4  15 01     ORA  $01, X
 9FF6  D0 0B     BNE  $A003
 9FF8  E8        INX  
 9FF9  E8        INX  
 9FFA  A9 FF     LDA  #$FF
 9FFC  95 00     STA  $00, X
 9FFE  95 01     STA  $01, X
 A000  4C 8D A0  JMP  $A08D
 A003  20 5F A9  JSR  $A95F
 A006  18        CLC  
 A007  B5 00     LDA  $00, X
 A009  75 02     ADC  $02, X
 A00B  85 20     STA  $20
 A00D  B5 01     LDA  $01, X
 A00F  75 03     ADC  $03, X
 A011  D5 07     CMP  $07, X
 A013  90 12     BCC  $A027
 A015  D0 06     BNE  $A01D
 A017  B5 06     LDA  $06, X
 A019  C5 20     CMP  $20
 A01B  B0 0A     BCS  $A027
 A01D  E8        INX  
 A01E  E8        INX  
 A01F  E8        INX  
 A020  E8        INX  
 A021  74 00     STZ  $00, X
 A023  74 01     STZ  $01, X
 A025  80 66     BRA  $A08D
 A027  18        CLC  
 A028  B5 08     LDA  $08, X
 A02A  75 00     ADC  $00, X
 A02C  85 20     STA  $20
 A02E  B5 09     LDA  $09, X
 A030  75 01     ADC  $01, X
 A032  85 21     STA  $21
 A034  B5 04     LDA  $04, X
 A036  85 22     STA  $22
 A038  B5 05     LDA  $05, X
 A03A  85 23     STA  $23
 A03C  B5 02     LDA  $02, X
 A03E  85 24     STA  $24
 A040  B5 03     LDA  $03, X
 A042  85 25     STA  $25
 A044  B2 20     LDA  ($20)
 A046  D2 22     CMP  ($22)
 A048  F0 05     BEQ  $A04F
 A04A  20 FC 98  JSR  $98FC
 A04D  80 B7     BRA  $A006
 A04F  E6 20     INC  $20
 A051  D0 02     BNE  $A055
 A053  E6 21     INC  $21
 A055  E6 22     INC  $22
 A057  D0 02     BNE  $A05B
 A059  E6 23     INC  $23
 A05B  A5 24     LDA  $24
 A05D  D0 02     BNE  $A061
 A05F  C6 25     DEC  $25
 A061  C6 24     DEC  $24
 A063  A5 24     LDA  $24
 A065  05 25     ORA  $25
 A067  D0 DB     BNE  $A044
 A069  18        CLC  
 A06A  B5 00     LDA  $00, X
 A06C  75 08     ADC  $08, X
 A06E  95 08     STA  $08, X
 A070  B5 01     LDA  $01, X
 A072  75 09     ADC  $09, X
 A074  95 09     STA  $09, X
 A076  38        SEC  
 A077  B5 06     LDA  $06, X
 A079  F5 00     SBC  $00, X
 A07B  95 06     STA  $06, X
 A07D  B5 07     LDA  $07, X
 A07F  F5 01     SBC  $01, X
 A081  95 07     STA  $07, X
 A083  E8        INX  
 A084  E8        INX  
 A085  E8        INX  
 A086  E8        INX  
 A087  A9 FF     LDA  #$FF
 A089  95 00     STA  $00, X
 A08B  95 01     STA  $01, X
 A08D  60        RTS  
 A08E  24 3A     BIT  $3A
 A090  70 11     BVS  $A0A3
 A092  A9 60     LDA  #$60
 A094  20 69 D7  JSR  $D769
 A097  CA        DEX  
 A098  CA        DEX  
 A099  A5 04     LDA  $04
 A09B  95 00     STA  $00, X
 A09D  A5 05     LDA  $05
 A09F  95 01     STA  $01, X
 A0A1  80 6D     BRA  $A110
 A0A3  A0 06     LDY  #$06
 A0A5  A5 00     LDA  $00
 A0A7  91 04     STA  ($04), Y
 A0A9  C8        INY  
 A0AA  A5 01     LDA  $01
 A0AC  91 04     STA  ($04), Y
 A0AE  A9 60     LDA  #$60
 A0B0  20 69 D7  JSR  $D769
 A0B3  CA        DEX  
 A0B4  CA        DEX  
 A0B5  CA        DEX  
 A0B6  CA        DEX  
 A0B7  B2 04     LDA  ($04)
 A0B9  95 00     STA  $00, X
 A0BB  74 01     STZ  $01, X
 A0BD  A5 04     LDA  $04
 A0BF  18        CLC  
 A0C0  69 08     ADC  #$08
 A0C2  95 02     STA  $02, X
 A0C4  A5 05     LDA  $05
 A0C6  69 00     ADC  #$00
 A0C8  95 03     STA  $03, X
 A0CA  20 82 91  JSR  $9182
 A0CD  B5 00     LDA  $00, X
 A0CF  15 01     ORA  $01, X
 A0D1  F0 30     BEQ  $A103
 A0D3  A9 F5     LDA  #$F5
 A0D5  85 24     STA  $24
 A0D7  A9 D4     LDA  #$D4
 A0D9  85 25     STA  $25
 A0DB  20 BC D8  JSR  $D8BC
 A0DE  CA        DEX  
 A0DF  CA        DEX  
 A0E0  B5 02     LDA  $02, X
 A0E2  95 00     STA  $00, X
 A0E4  B5 03     LDA  $03, X
 A0E6  95 01     STA  $01, X
 A0E8  A1 00     LDA  ($00, X)
 A0EA  95 00     STA  $00, X
 A0EC  74 01     STZ  $01, X
 A0EE  B5 02     LDA  $02, X
 A0F0  18        CLC  
 A0F1  69 08     ADC  #$08
 A0F3  95 02     STA  $02, X
 A0F5  B5 03     LDA  $03, X
 A0F7  69 00     ADC  #$00
 A0F9  95 03     STA  $03, X
 A0FB  20 84 A6  JSR  $A684
 A0FE  20 5C A2  JSR  $A25C
 A101  80 02     BRA  $A105
 A103  E8        INX  
 A104  E8        INX  
 A105  A5 04     LDA  $04
 A107  85 02     STA  $02
 A109  A5 05     LDA  $05
 A10B  85 03     STA  $03
 A10D  20 EF D8  JSR  $D8EF
 A110  64 16     STZ  $16
 A112  64 17     STZ  $17
 A114  60        RTS  
 A115  E0 77     CPX  #$77
 A117  30 03     BMI  $A11C
 A119  4C 91 D8  JMP  $D891
 A11C  B5 01     LDA  $01, X
 A11E  30 04     BMI  $A124
 A120  E8        INX  
 A121  E8        INX  
 A122  80 09     BRA  $A12D
 A124  A9 2D     LDA  #$2D
 A126  95 00     STA  $00, X
 A128  74 01     STZ  $01, X
 A12A  20 26 93  JSR  $9326
 A12D  60        RTS  
 A12E  A9 00     LDA  #$00
 A130  48        PHA  
 A131  80 03     BRA  $A136
 A133  A9 FF     LDA  #$FF
 A135  48        PHA  
 A136  20 BD A4  JSR  $A4BD
 A139  20 AA 9F  JSR  $9FAA
 A13C  20 4A 9B  JSR  $9B4A
 A13F  20 0F A2  JSR  $A20F
 A142  68        PLA  
 A143  D0 05     BNE  $A14A
 A145  20 E7 A2  JSR  $A2E7
 A148  E8        INX  
 A149  E8        INX  
 A14A  60        RTS  
 A14B  E0 73     CPX  #$73
 A14D  30 03     BMI  $A152
 A14F  4C 91 D8  JMP  $D891
 A152  18        CLC  
 A153  B5 00     LDA  $00, X
 A155  75 04     ADC  $04, X
 A157  95 04     STA  $04, X
 A159  B5 01     LDA  $01, X
 A15B  75 05     ADC  $05, X
 A15D  95 05     STA  $05, X
 A15F  38        SEC  
 A160  B5 02     LDA  $02, X
 A162  F5 00     SBC  $00, X
 A164  95 02     STA  $02, X
 A166  B5 03     LDA  $03, X
 A168  F5 01     SBC  $01, X
 A16A  95 03     STA  $03, X
 A16C  E8        INX  
 A16D  E8        INX  
 A16E  60        RTS  
 A16F  E0 75     CPX  #$75
 A171  30 03     BMI  $A176
 A173  4C 91 D8  JMP  $D891
 A176  A9 4C     LDA  #$4C
 A178  20 69 D7  JSR  $D769
 A17B  20 69 D7  JSR  $D769
 A17E  20 69 D7  JSR  $D769
 A181  8A        TXA  
 A182  38        SEC  
 A183  E9 06     SBC  #$06
 A185  AA        TAX  
 A186  B5 08     LDA  $08, X
 A188  95 04     STA  $04, X
 A18A  B5 09     LDA  $09, X
 A18C  95 05     STA  $05, X
 A18E  B5 06     LDA  $06, X
 A190  95 00     STA  $00, X
 A192  B5 07     LDA  $07, X
 A194  95 01     STA  $01, X
 A196  A5 00     LDA  $00
 A198  95 08     STA  $08, X
 A19A  95 02     STA  $02, X
 A19C  A5 01     LDA  $01
 A19E  95 09     STA  $09, X
 A1A0  95 03     STA  $03, X
 A1A2  20 DF 96  JSR  $96DF
 A1A5  18        CLC  
 A1A6  A5 00     LDA  $00
 A1A8  75 00     ADC  $00, X
 A1AA  85 00     STA  $00
 A1AC  A5 01     LDA  $01
 A1AE  75 01     ADC  $01, X
 A1B0  85 01     STA  $01
 A1B2  B5 02     LDA  $02, X
 A1B4  38        SEC  
 A1B5  E9 02     SBC  #$02
 A1B7  85 20     STA  $20
 A1B9  B5 03     LDA  $03, X
 A1BB  E9 00     SBC  #$00
 A1BD  85 21     STA  $21
 A1BF  A5 00     LDA  $00
 A1C1  92 20     STA  ($20)
 A1C3  A0 01     LDY  #$01
 A1C5  A5 01     LDA  $01
 A1C7  91 20     STA  ($20), Y
 A1C9  A0 A1     LDY  #$A1
 A1CB  A9 E3     LDA  #$E3
 A1CD  20 59 D7  JSR  $D759
 A1D0  B4 03     LDY  $03, X
 A1D2  B5 02     LDA  $02, X
 A1D4  20 65 D7  JSR  $D765
 A1D7  B4 01     LDY  $01, X
 A1D9  B5 00     LDA  $00, X
 A1DB  20 65 D7  JSR  $D765
 A1DE  E8        INX  
 A1DF  E8        INX  
 A1E0  E8        INX  
 A1E1  E8        INX  
 A1E2  60        RTS  
 A1E3  CA        DEX  
 A1E4  CA        DEX  
 A1E5  CA        DEX  
 A1E6  CA        DEX  
 A1E7  68        PLA  
 A1E8  85 20     STA  $20
 A1EA  68        PLA  
 A1EB  85 21     STA  $21
 A1ED  A0 01     LDY  #$01
 A1EF  B1 20     LDA  ($20), Y
 A1F1  95 02     STA  $02, X
 A1F3  C8        INY  
 A1F4  B1 20     LDA  ($20), Y
 A1F6  95 03     STA  $03, X
 A1F8  C8        INY  
 A1F9  B1 20     LDA  ($20), Y
 A1FB  95 00     STA  $00, X
 A1FD  C8        INY  
 A1FE  B1 20     LDA  ($20), Y
 A200  95 01     STA  $01, X
 A202  18        CLC  
 A203  A5 20     LDA  $20
 A205  69 04     ADC  #$04
 A207  A8        TAY  
 A208  A5 21     LDA  $21
 A20A  69 00     ADC  #$00
 A20C  48        PHA  
 A20D  5A        PHY  
 A20E  60        RTS  
 A20F  E0 73     CPX  #$73
 A211  30 03     BMI  $A216
 A213  4C 91 D8  JMP  $D891
 A216  B5 03     LDA  $03, X
 A218  48        PHA  
 A219  B5 01     LDA  $01, X
 A21B  55 03     EOR  $03, X
 A21D  48        PHA  
 A21E  20 74 81  JSR  $8174
 A221  E8        INX  
 A222  E8        INX  
 A223  20 77 8B  JSR  $8B77
 A226  CA        DEX  
 A227  CA        DEX  
 A228  20 62 A7  JSR  $A762
 A22B  68        PLA  
 A22C  10 03     BPL  $A231
 A22E  20 48 97  JSR  $9748
 A231  68        PLA  
 A232  10 07     BPL  $A23B
 A234  E8        INX  
 A235  E8        INX  
 A236  20 48 97  JSR  $9748
 A239  CA        DEX  
 A23A  CA        DEX  
 A23B  60        RTS  
 A23C  CA        DEX  
 A23D  CA        DEX  
 A23E  A5 08     LDA  $08
 A240  95 00     STA  $00, X
 A242  A5 09     LDA  $09
 A244  95 01     STA  $01, X
 A246  CA        DEX  
 A247  CA        DEX  
 A248  A5 0A     LDA  $0A
 A24A  95 00     STA  $00, X
 A24C  A5 0B     LDA  $0B
 A24E  95 01     STA  $01, X
 A250  60        RTS  
 A251  CA        DEX  
 A252  CA        DEX  
 A253  A5 06     LDA  $06
 A255  95 00     STA  $00, X
 A257  A5 07     LDA  $07
 A259  95 01     STA  $01, X
 A25B  60        RTS  
 A25C  A9 20     LDA  #$20
 A25E  20 08 8F  JSR  $8F08
 A261  60        RTS  
 A262  E0 77     CPX  #$77
 A264  30 03     BMI  $A269
 A266  4C 91 D8  JMP  $D891
 A269  B5 00     LDA  $00, X
 A26B  15 01     ORA  $01, X
 A26D  F0 26     BEQ  $A295
 A26F  A9 20     LDA  #$20
 A271  B4 01     LDY  $01, X
 A273  D0 0A     BNE  $A27F
 A275  B4 00     LDY  $00, X
 A277  20 08 8F  JSR  $8F08
 A27A  88        DEY  
 A27B  F0 18     BEQ  $A295
 A27D  80 F8     BRA  $A277
 A27F  B4 00     LDY  $00, X
 A281  F0 06     BEQ  $A289
 A283  20 08 8F  JSR  $8F08
 A286  88        DEY  
 A287  80 F8     BRA  $A281
 A289  A0 00     LDY  #$00
 A28B  20 08 8F  JSR  $8F08
 A28E  88        DEY  
 A28F  D0 FA     BNE  $A28B
 A291  D6 01     DEC  $01, X
 A293  D0 F4     BNE  $A289
 A295  E8        INX  
 A296  E8        INX  
 A297  60        RTS  
 A298  E0 75     CPX  #$75
 A29A  30 03     BMI  $A29F
 A29C  4C 91 D8  JMP  $D891
 A29F  20 A8 A7  JSR  $A7A8
 A2A2  E8        INX  
 A2A3  E8        INX  
 A2A4  60        RTS  
 A2A5  20 AE A2  JSR  $A2AE
 A2A8  20 E7 A2  JSR  $A2E7
 A2AB  E8        INX  
 A2AC  E8        INX  
 A2AD  60        RTS  
 A2AE  E0 75     CPX  #$75
 A2B0  30 03     BMI  $A2B5
 A2B2  4C 91 D8  JMP  $D891
 A2B5  20 BD A4  JSR  $A4BD
 A2B8  20 AC 95  JSR  $95AC
 A2BB  20 4A 9B  JSR  $9B4A
 A2BE  20 0F A2  JSR  $A20F
 A2C1  60        RTS  
 A2C2  CA        DEX  
 A2C3  CA        DEX  
 A2C4  A9 16     LDA  #$16
 A2C6  95 00     STA  $00, X
 A2C8  A9 00     LDA  #$00
 A2CA  95 01     STA  $01, X
 A2CC  60        RTS  
 A2CD  E0 75     CPX  #$75
 A2CF  30 03     BMI  $A2D4
 A2D1  4C 91 D8  JMP  $D891
 A2D4  B5 02     LDA  $02, X
 A2D6  81 00     STA  ($00, X)
 A2D8  F6 00     INC  $00, X
 A2DA  D0 02     BNE  $A2DE
 A2DC  F6 01     INC  $01, X
 A2DE  B5 03     LDA  $03, X
 A2E0  81 00     STA  ($00, X)
 A2E2  E8        INX  
 A2E3  E8        INX  
 A2E4  E8        INX  
 A2E5  E8        INX  
 A2E6  60        RTS  
 A2E7  E0 75     CPX  #$75
 A2E9  30 03     BMI  $A2EE
 A2EB  20 91 D8  JSR  $D891
 A2EE  B5 00     LDA  $00, X
 A2F0  B4 02     LDY  $02, X
 A2F2  95 02     STA  $02, X
 A2F4  94 00     STY  $00, X
 A2F6  B5 01     LDA  $01, X
 A2F8  B4 03     LDY  $03, X
 A2FA  95 03     STA  $03, X
 A2FC  94 01     STY  $01, X
 A2FE  60        RTS  
 A2FF  20 BA 92  JSR  $92BA
 A302  20 E7 A2  JSR  $A2E7
 A305  20 CD A2  JSR  $A2CD
 A308  60        RTS  
 A309  E0 75     CPX  #$75
 A30B  30 03     BMI  $A310
 A30D  4C 91 D8  JMP  $D891
 A310  B5 01     LDA  $01, X
 A312  48        PHA  
 A313  B5 00     LDA  $00, X
 A315  48        PHA  
 A316  E8        INX  
 A317  E8        INX  
 A318  B5 01     LDA  $01, X
 A31A  48        PHA  
 A31B  B5 00     LDA  $00, X
 A31D  48        PHA  
 A31E  20 CD 94  JSR  $94CD
 A321  68        PLA  
 A322  85 20     STA  $20
 A324  68        PLA  
 A325  85 21     STA  $21
 A327  68        PLA  
 A328  85 22     STA  $22
 A32A  68        PLA  
 A32B  85 23     STA  $23
 A32D  C5 21     CMP  $21
 A32F  D0 08     BNE  $A339
 A331  A5 22     LDA  $22
 A333  C5 20     CMP  $20
 A335  D0 02     BNE  $A339
 A337  80 18     BRA  $A351
 A339  A5 23     LDA  $23
 A33B  48        PHA  
 A33C  A5 22     LDA  $22
 A33E  48        PHA  
 A33F  E6 20     INC  $20
 A341  D0 02     BNE  $A345
 A343  E6 21     INC  $21
 A345  CA        DEX  
 A346  CA        DEX  
 A347  A5 20     LDA  $20
 A349  95 00     STA  $00, X
 A34B  A5 21     LDA  $21
 A34D  95 01     STA  $01, X
 A34F  80 C7     BRA  $A318
 A351  60        RTS  
 A352  20 87 99  JSR  $9987
 A355  B5 00     LDA  $00, X
 A357  15 01     ORA  $01, X
 A359  D0 05     BNE  $A360
 A35B  A9 05     LDA  #$05
 A35D  4C 93 D8  JMP  $D893
 A360  20 82 91  JSR  $9182
 A363  B5 00     LDA  $00, X
 A365  15 01     ORA  $01, X
 A367  D0 05     BNE  $A36E
 A369  A9 08     LDA  #$08
 A36B  4C 93 D8  JMP  $D893
 A36E  20 FE 96  JSR  $96FE
 A371  60        RTS  
 A372  20 52 A3  JSR  $A352
 A375  B5 00     LDA  $00, X
 A377  18        CLC  
 A378  69 03     ADC  #$03
 A37A  85 20     STA  $20
 A37C  B5 01     LDA  $01, X
 A37E  69 00     ADC  #$00
 A380  85 21     STA  $21
 A382  E8        INX  
 A383  E8        INX  
 A384  A5 16     LDA  $16
 A386  05 17     ORA  $17
 A388  F0 34     BEQ  $A3BE
 A38A  A0 00     LDY  #$00
 A38C  A9 B5     LDA  #$B5
 A38E  20 65 D7  JSR  $D765
 A391  A9 8D     LDA  #$8D
 A393  20 69 D7  JSR  $D769
 A396  A4 21     LDY  $21
 A398  A5 20     LDA  $20
 A39A  20 65 D7  JSR  $D765
 A39D  A0 01     LDY  #$01
 A39F  A9 B5     LDA  #$B5
 A3A1  20 65 D7  JSR  $D765
 A3A4  A9 8D     LDA  #$8D
 A3A6  20 69 D7  JSR  $D769
 A3A9  E6 20     INC  $20
 A3AB  D0 02     BNE  $A3AF
 A3AD  E6 21     INC  $21
 A3AF  A4 21     LDY  $21
 A3B1  A5 20     LDA  $20
 A3B3  20 65 D7  JSR  $D765
 A3B6  A0 E8     LDY  #$E8
 A3B8  98        TYA  
 A3B9  20 65 D7  JSR  $D765
 A3BC  80 13     BRA  $A3D1
 A3BE  E0 77     CPX  #$77
 A3C0  30 03     BMI  $A3C5
 A3C2  4C 91 D8  JMP  $D891
 A3C5  B5 00     LDA  $00, X
 A3C7  92 20     STA  ($20)
 A3C9  A0 01     LDY  #$01
 A3CB  B5 01     LDA  $01, X
 A3CD  91 20     STA  ($20), Y
 A3CF  E8        INX  
 A3D0  E8        INX  
 A3D1  60        RTS  
 A3D2  E0 77     CPX  #$77
 A3D4  30 03     BMI  $A3D9
 A3D6  4C 91 D8  JMP  $D891
 A3D9  20 C8 8E  JSR  $8EC8
 A3DC  20 7A 93  JSR  $937A
 A3DF  F6 00     INC  $00, X
 A3E1  D0 02     BNE  $A3E5
 A3E3  F6 01     INC  $01, X
 A3E5  A1 00     LDA  ($00, X)
 A3E7  29 20     AND  #$20
 A3E9  F0 0D     BEQ  $A3F8
 A3EB  18        CLC  
 A3EC  B5 02     LDA  $02, X
 A3EE  69 03     ADC  #$03
 A3F0  95 02     STA  $02, X
 A3F2  B5 03     LDA  $03, X
 A3F4  69 00     ADC  #$00
 A3F6  95 03     STA  $03, X
 A3F8  E8        INX  
 A3F9  E8        INX  
 A3FA  60        RTS  
 A3FB  CA        DEX  
 A3FC  CA        DEX  
 A3FD  A9 0C     LDA  #$0C
 A3FF  95 00     STA  $00, X
 A401  A9 00     LDA  #$00
 A403  95 01     STA  $01, X
 A405  60        RTS  
 A406  E0 71     CPX  #$71
 A408  30 03     BMI  $A40D
 A40A  4C 91 D8  JMP  $D891
 A40D  B5 06     LDA  $06, X
 A40F  85 32     STA  $32
 A411  B5 07     LDA  $07, X
 A413  85 33     STA  $33
 A415  B5 04     LDA  $04, X
 A417  85 34     STA  $34
 A419  B5 05     LDA  $05, X
 A41B  85 35     STA  $35
 A41D  CA        DEX  
 A41E  CA        DEX  
 A41F  A1 04     LDA  ($04, X)
 A421  95 00     STA  $00, X
 A423  74 01     STZ  $01, X
 A425  20 FA 8B  JSR  $8BFA
 A428  B5 00     LDA  $00, X
 A42A  D0 04     BNE  $A430
 A42C  E8        INX  
 A42D  E8        INX  
 A42E  80 67     BRA  $A497
 A430  B5 02     LDA  $02, X
 A432  85 36     STA  $36
 A434  B5 03     LDA  $03, X
 A436  85 37     STA  $37
 A438  A5 34     LDA  $34
 A43A  95 02     STA  $02, X
 A43C  A5 35     LDA  $35
 A43E  95 03     STA  $03, X
 A440  A5 18     LDA  $18
 A442  95 00     STA  $00, X
 A444  74 01     STZ  $01, X
 A446  20 A8 A7  JSR  $A7A8
 A449  B5 02     LDA  $02, X
 A44B  85 38     STA  $38
 A44D  B5 03     LDA  $03, X
 A44F  85 39     STA  $39
 A451  A5 32     LDA  $32
 A453  95 02     STA  $02, X
 A455  A5 33     LDA  $33
 A457  95 03     STA  $03, X
 A459  A5 18     LDA  $18
 A45B  95 00     STA  $00, X
 A45D  74 01     STZ  $01, X
 A45F  20 A8 A7  JSR  $A7A8
 A462  B5 00     LDA  $00, X
 A464  85 34     STA  $34
 A466  B5 01     LDA  $01, X
 A468  85 35     STA  $35
 A46A  B5 02     LDA  $02, X
 A46C  85 32     STA  $32
 A46E  B5 03     LDA  $03, X
 A470  85 33     STA  $33
 A472  18        CLC  
 A473  A5 32     LDA  $32
 A475  65 36     ADC  $36
 A477  85 32     STA  $32
 A479  A5 33     LDA  $33
 A47B  65 37     ADC  $37
 A47D  85 33     STA  $33
 A47F  A5 34     LDA  $34
 A481  65 38     ADC  $38
 A483  85 34     STA  $34
 A485  A5 35     LDA  $35
 A487  65 39     ADC  $39
 A489  85 35     STA  $35
 A48B  E8        INX  
 A48C  E8        INX  
 A48D  F6 04     INC  $04, X
 A48F  D0 02     BNE  $A493
 A491  F6 05     INC  $05, X
 A493  D6 02     DEC  $02, X
 A495  D0 88     BNE  $A41F
 A497  E8        INX  
 A498  E8        INX  
 A499  A5 32     LDA  $32
 A49B  95 06     STA  $06, X
 A49D  A5 33     LDA  $33
 A49F  95 07     STA  $07, X
 A4A1  A5 34     LDA  $34
 A4A3  95 04     STA  $04, X
 A4A5  A5 35     LDA  $35
 A4A7  95 05     STA  $05, X
 A4A9  60        RTS  
 A4AA  20 BD A4  JSR  $A4BD
 A4AD  20 78 92  JSR  $9278
 A4B0  20 4A 9B  JSR  $9B4A
 A4B3  20 E7 A2  JSR  $A2E7
 A4B6  20 FC 98  JSR  $98FC
 A4B9  20 19 9E  JSR  $9E19
 A4BC  60        RTS  
 A4BD  68        PLA  
 A4BE  85 28     STA  $28
 A4C0  7A        PLY  
 A4C1  E0 77     CPX  #$77
 A4C3  30 03     BMI  $A4C8
 A4C5  4C 91 D8  JMP  $D891
 A4C8  B5 01     LDA  $01, X
 A4CA  48        PHA  
 A4CB  B5 00     LDA  $00, X
 A4CD  48        PHA  
 A4CE  E8        INX  
 A4CF  E8        INX  
 A4D0  5A        PHY  
 A4D1  A5 28     LDA  $28
 A4D3  48        PHA  
 A4D4  60        RTS  
 A4D5  CA        DEX  
 A4D6  CA        DEX  
 A4D7  A9 FF     LDA  #$FF
 A4D9  95 00     STA  $00, X
 A4DB  95 01     STA  $01, X
 A4DD  60        RTS  
 A4DE  E0 75     CPX  #$75
 A4E0  30 03     BMI  $A4E5
 A4E2  4C 91 D8  JMP  $D891
 A4E5  CA        DEX  
 A4E6  CA        DEX  
 A4E7  B4 04     LDY  $04, X
 A4E9  B5 02     LDA  $02, X
 A4EB  95 04     STA  $04, X
 A4ED  94 02     STY  $02, X
 A4EF  95 00     STA  $00, X
 A4F1  B4 05     LDY  $05, X
 A4F3  B5 03     LDA  $03, X
 A4F5  95 05     STA  $05, X
 A4F7  94 03     STY  $03, X
 A4F9  95 01     STA  $01, X
 A4FB  60        RTS  
 A4FC  CA        DEX  
 A4FD  CA        DEX  
 A4FE  A9 02     LDA  #$02
 A500  95 00     STA  $00, X
 A502  74 01     STZ  $01, X
 A504  60        RTS  
 A505  E0 75     CPX  #$75
 A507  30 03     BMI  $A50C
 A509  4C 91 D8  JMP  $D891
 A50C  E8        INX  
 A50D  E8        INX  
 A50E  E8        INX  
 A50F  E8        INX  
 A510  60        RTS  
 A511  E0 75     CPX  #$75
 A513  30 03     BMI  $A518
 A515  4C 91 D8  JMP  $D891
 A518  CA        DEX  
 A519  CA        DEX  
 A51A  CA        DEX  
 A51B  CA        DEX  
 A51C  B5 04     LDA  $04, X
 A51E  95 00     STA  $00, X
 A520  B5 05     LDA  $05, X
 A522  95 01     STA  $01, X
 A524  B5 06     LDA  $06, X
 A526  95 02     STA  $02, X
 A528  B5 07     LDA  $07, X
 A52A  95 03     STA  $03, X
 A52C  60        RTS  
 A52D  E0 77     CPX  #$77
 A52F  30 03     BMI  $A534
 A531  4C 91 D8  JMP  $D891
 A534  B5 00     LDA  $00, X
 A536  85 20     STA  $20
 A538  B4 01     LDY  $01, X
 A53A  84 21     STY  $21
 A53C  CA        DEX  
 A53D  CA        DEX  
 A53E  B2 20     LDA  ($20)
 A540  95 00     STA  $00, X
 A542  A0 01     LDY  #$01
 A544  B1 20     LDA  ($20), Y
 A546  95 01     STA  $01, X
 A548  C8        INY  
 A549  B1 20     LDA  ($20), Y
 A54B  95 02     STA  $02, X
 A54D  C8        INY  
 A54E  B1 20     LDA  ($20), Y
 A550  95 03     STA  $03, X
 A552  60        RTS  
 A553  E0 71     CPX  #$71
 A555  30 03     BMI  $A55A
 A557  4C 91 D8  JMP  $D891
 A55A  CA        DEX  
 A55B  CA        DEX  
 A55C  CA        DEX  
 A55D  CA        DEX  
 A55E  B5 08     LDA  $08, X
 A560  95 00     STA  $00, X
 A562  B5 09     LDA  $09, X
 A564  95 01     STA  $01, X
 A566  B5 0A     LDA  $0A, X
 A568  95 02     STA  $02, X
 A56A  B5 0B     LDA  $0B, X
 A56C  95 03     STA  $03, X
 A56E  60        RTS  
 A56F  CA        DEX  
 A570  CA        DEX  
 A571  CA        DEX  
 A572  CA        DEX  
 A573  8A        TXA  
 A574  BA        TSX  
 A575  DA        PHX  
 A576  7A        PLY  
 A577  AA        TAX  
 A578  B9 03 01  LDA  $0103, Y
 A57B  95 00     STA  $00, X
 A57D  B9 04 01  LDA  $0104, Y
 A580  95 01     STA  $01, X
 A582  B9 05 01  LDA  $0105, Y
 A585  95 02     STA  $02, X
 A587  B9 06 01  LDA  $0106, Y
 A58A  95 03     STA  $03, X
 A58C  60        RTS  
 A58D  68        PLA  
 A58E  85 20     STA  $20
 A590  68        PLA  
 A591  85 21     STA  $21
 A593  CA        DEX  
 A594  CA        DEX  
 A595  CA        DEX  
 A596  CA        DEX  
 A597  68        PLA  
 A598  95 00     STA  $00, X
 A59A  68        PLA  
 A59B  95 01     STA  $01, X
 A59D  68        PLA  
 A59E  95 02     STA  $02, X
 A5A0  68        PLA  
 A5A1  95 03     STA  $03, X
 A5A3  A5 21     LDA  $21
 A5A5  48        PHA  
 A5A6  A5 20     LDA  $20
 A5A8  48        PHA  
 A5A9  60        RTS  
 A5AA  E0 77     CPX  #$77
 A5AC  30 03     BMI  $A5B1
 A5AE  4C 91 D8  JMP  $D891
 A5B1  B5 01     LDA  $01, X
 A5B3  0A        ASL  
 A5B4  76 01     ROR  $01, X
 A5B6  76 00     ROR  $00, X
 A5B8  60        RTS  
 A5B9  E0 77     CPX  #$77
 A5BB  30 03     BMI  $A5C0
 A5BD  4C 91 D8  JMP  $D891
 A5C0  16 00     ASL  $00, X
 A5C2  36 01     ROL  $01, X
 A5C4  60        RTS  
 A5C5  E0 73     CPX  #$73
 A5C7  30 03     BMI  $A5CC
 A5C9  4C 91 D8  JMP  $D891
 A5CC  B5 00     LDA  $00, X
 A5CE  85 20     STA  $20
 A5D0  B4 01     LDY  $01, X
 A5D2  84 21     STY  $21
 A5D4  E8        INX  
 A5D5  E8        INX  
 A5D6  B5 00     LDA  $00, X
 A5D8  92 20     STA  ($20)
 A5DA  B5 01     LDA  $01, X
 A5DC  A0 01     LDY  #$01
 A5DE  91 20     STA  ($20), Y
 A5E0  B5 02     LDA  $02, X
 A5E2  C8        INY  
 A5E3  91 20     STA  ($20), Y
 A5E5  B5 03     LDA  $03, X
 A5E7  C8        INY  
 A5E8  91 20     STA  ($20), Y
 A5EA  E8        INX  
 A5EB  E8        INX  
 A5EC  E8        INX  
 A5ED  E8        INX  
 A5EE  60        RTS  
 A5EF  E0 71     CPX  #$71
 A5F1  30 03     BMI  $A5F6
 A5F3  4C 91 D8  JMP  $D891
 A5F6  B5 00     LDA  $00, X
 A5F8  B4 04     LDY  $04, X
 A5FA  95 04     STA  $04, X
 A5FC  94 00     STY  $00, X
 A5FE  B5 01     LDA  $01, X
 A600  B4 05     LDY  $05, X
 A602  95 05     STA  $05, X
 A604  94 01     STY  $01, X
 A606  B5 02     LDA  $02, X
 A608  B4 06     LDY  $06, X
 A60A  95 06     STA  $06, X
 A60C  94 02     STY  $02, X
 A60E  B5 03     LDA  $03, X
 A610  B4 07     LDY  $07, X
 A612  95 07     STA  $07, X
 A614  94 03     STY  $03, X
 A616  60        RTS  
 A617  68        PLA  
 A618  85 20     STA  $20
 A61A  68        PLA  
 A61B  85 21     STA  $21
 A61D  E0 75     CPX  #$75
 A61F  30 03     BMI  $A624
 A621  4C 91 D8  JMP  $D891
 A624  B5 03     LDA  $03, X
 A626  48        PHA  
 A627  B5 02     LDA  $02, X
 A629  48        PHA  
 A62A  B5 01     LDA  $01, X
 A62C  48        PHA  
 A62D  B5 00     LDA  $00, X
 A62F  48        PHA  
 A630  E8        INX  
 A631  E8        INX  
 A632  E8        INX  
 A633  E8        INX  
 A634  A5 21     LDA  $21
 A636  48        PHA  
 A637  A5 20     LDA  $20
 A639  48        PHA  
 A63A  60        RTS  
 A63B  E0 75     CPX  #$75
 A63D  30 03     BMI  $A642
 A63F  4C 91 D8  JMP  $D891
 A642  20 80 8A  JSR  $8A80
 A645  20 E7 A2  JSR  $A2E7
 A648  20 71 88  JSR  $8871
 A64B  20 71 88  JSR  $8871
 A64E  20 05 8D  JSR  $8D05
 A651  20 9F D7  JSR  $D79F
 A654  20 C8 8E  JSR  $8EC8
 A657  20 1F 91  JSR  $911F
 A65A  20 E7 A2  JSR  $A2E7
 A65D  20 BE 86  JSR  $86BE
 A660  20 1F 91  JSR  $911F
 A663  60        RTS  
 A664  E0 75     CPX  #$75
 A666  30 03     BMI  $A66B
 A668  4C 91 D8  JMP  $D891
 A66B  20 E7 A2  JSR  $A2E7
 A66E  20 9C 94  JSR  $949C
 A671  20 9C 94  JSR  $949C
 A674  60        RTS  
 A675  20 80 8A  JSR  $8A80
 A678  CA        DEX  
 A679  CA        DEX  
 A67A  A9 04     LDA  #$04
 A67C  95 00     STA  $00, X
 A67E  74 01     STZ  $01, X
 A680  20 0E 83  JSR  $830E
 A683  60        RTS  
 A684  E0 75     CPX  #$75
 A686  30 03     BMI  $A68B
 A688  4C 91 D8  JMP  $D891
 A68B  B5 02     LDA  $02, X
 A68D  85 20     STA  $20
 A68F  B5 03     LDA  $03, X
 A691  85 21     STA  $21
 A693  B5 00     LDA  $00, X
 A695  15 01     ORA  $01, X
 A697  F0 15     BEQ  $A6AE
 A699  B2 20     LDA  ($20)
 A69B  20 08 8F  JSR  $8F08
 A69E  E6 20     INC  $20
 A6A0  D0 02     BNE  $A6A4
 A6A2  E6 21     INC  $21
 A6A4  B5 00     LDA  $00, X
 A6A6  D0 02     BNE  $A6AA
 A6A8  D6 01     DEC  $01, X
 A6AA  D6 00     DEC  $00, X
 A6AC  80 E5     BRA  $A693
 A6AE  E8        INX  
 A6AF  E8        INX  
 A6B0  E8        INX  
 A6B1  E8        INX  
 A6B2  60        RTS  
 A6B3  E0 77     CPX  #$77
 A6B5  30 03     BMI  $A6BA
 A6B7  4C 91 D8  JMP  $D891
 A6BA  20 C9 D8  JSR  $D8C9
 A6BD  A9 20     LDA  #$20
 A6BF  20 08 8F  JSR  $8F08
 A6C2  60        RTS  
 A6C3  E0 75     CPX  #$75
 A6C5  30 03     BMI  $A6CA
 A6C7  4C 91 D8  JMP  $D891
 A6CA  20 BD A4  JSR  $A4BD
 A6CD  20 5F A9  JSR  $A95F
 A6D0  20 64 94  JSR  $9464
 A6D3  20 B5 98  JSR  $98B5
 A6D6  20 8F 98  JSR  $988F
 A6D9  20 4A 9B  JSR  $9B4A
 A6DC  20 37 99  JSR  $9937
 A6DF  20 7A 96  JSR  $967A
 A6E2  20 62 A2  JSR  $A262
 A6E5  20 84 A6  JSR  $A684
 A6E8  60        RTS  
 A6E9  E0 75     CPX  #$75
 A6EB  30 03     BMI  $A6F0
 A6ED  4C 91 D8  JMP  $D891
 A6F0  B5 00     LDA  $00, X
 A6F2  D5 02     CMP  $02, X
 A6F4  B5 01     LDA  $01, X
 A6F6  F5 03     SBC  $03, X
 A6F8  E8        INX  
 A6F9  E8        INX  
 A6FA  A9 00     LDA  #$00
 A6FC  69 FF     ADC  #$FF
 A6FE  95 00     STA  $00, X
 A700  95 01     STA  $01, X
 A702  60        RTS  
 A703  E0 75     CPX  #$75
 A705  30 03     BMI  $A70A
 A707  4C 91 D8  JMP  $D891
 A70A  B5 02     LDA  $02, X
 A70C  D5 00     CMP  $00, X
 A70E  B5 03     LDA  $03, X
 A710  F5 01     SBC  $01, X
 A712  E8        INX  
 A713  E8        INX  
 A714  A9 00     LDA  #$00
 A716  69 FF     ADC  #$FF
 A718  95 00     STA  $00, X
 A71A  95 01     STA  $01, X
 A71C  60        RTS  
 A71D  E0 75     CPX  #$75
 A71F  30 03     BMI  $A724
 A721  4C 91 D8  JMP  $D891
 A724  20 64 94  JSR  $9464
 A727  20 B5 98  JSR  $98B5
 A72A  20 8F 98  JSR  $988F
 A72D  20 84 A6  JSR  $A684
 A730  20 5C A2  JSR  $A25C
 A733  60        RTS  
 A734  E0 73     CPX  #$73
 A736  30 03     BMI  $A73B
 A738  4C 91 D8  JMP  $D891
 A73B  20 BD A4  JSR  $A4BD
 A73E  20 64 94  JSR  $9464
 A741  20 B5 98  JSR  $98B5
 A744  20 8F 98  JSR  $988F
 A747  20 4A 9B  JSR  $9B4A
 A74A  20 37 99  JSR  $9937
 A74D  20 7A 96  JSR  $967A
 A750  20 62 A2  JSR  $A262
 A753  20 84 A6  JSR  $A684
 A756  60        RTS  
 A757  CA        DEX  
 A758  CA        DEX  
 A759  A9 1C     LDA  #$1C
 A75B  95 00     STA  $00, X
 A75D  A9 00     LDA  #$00
 A75F  95 01     STA  $01, X
 A761  60        RTS  
 A762  E0 73     CPX  #$73
 A764  30 03     BMI  $A769
 A766  4C 91 D8  JMP  $D891
 A769  B5 00     LDA  $00, X
 A76B  15 01     ORA  $01, X
 A76D  D0 05     BNE  $A774
 A76F  A9 04     LDA  #$04
 A771  4C 93 D8  JMP  $D893
 A774  A9 11     LDA  #$11
 A776  85 28     STA  $28
 A778  36 04     ROL  $04, X
 A77A  36 05     ROL  $05, X
 A77C  C6 28     DEC  $28
 A77E  F0 22     BEQ  $A7A2
 A780  36 02     ROL  $02, X
 A782  36 03     ROL  $03, X
 A784  64 20     STZ  $20
 A786  26 20     ROL  $20
 A788  38        SEC  
 A789  B5 02     LDA  $02, X
 A78B  F5 00     SBC  $00, X
 A78D  85 21     STA  $21
 A78F  B5 03     LDA  $03, X
 A791  F5 01     SBC  $01, X
 A793  A8        TAY  
 A794  A5 20     LDA  $20
 A796  E9 00     SBC  #$00
 A798  90 DE     BCC  $A778
 A79A  A5 21     LDA  $21
 A79C  95 02     STA  $02, X
 A79E  94 03     STY  $03, X
 A7A0  80 D6     BRA  $A778
 A7A2  E8        INX  
 A7A3  E8        INX  
 A7A4  20 E7 A2  JSR  $A2E7
 A7A7  60        RTS  
 A7A8  E0 75     CPX  #$75
 A7AA  30 03     BMI  $A7AF
 A7AC  4C 91 D8  JMP  $D891
 A7AF  18        CLC  
 A7B0  B5 00     LDA  $00, X
 A7B2  E9 00     SBC  #$00
 A7B4  85 22     STA  $22
 A7B6  B5 01     LDA  $01, X
 A7B8  E9 00     SBC  #$00
 A7BA  90 31     BCC  $A7ED
 A7BC  85 23     STA  $23
 A7BE  A9 00     LDA  #$00
 A7C0  85 20     STA  $20
 A7C2  86 24     STX  $24
 A7C4  CA        DEX  
 A7C5  CA        DEX  
 A7C6  A0 08     LDY  #$08
 A7C8  56 04     LSR  $04, X
 A7CA  90 0C     BCC  $A7D8
 A7CC  85 21     STA  $21
 A7CE  A5 20     LDA  $20
 A7D0  65 22     ADC  $22
 A7D2  85 20     STA  $20
 A7D4  A5 21     LDA  $21
 A7D6  65 23     ADC  $23
 A7D8  6A        ROR  
 A7D9  66 20     ROR  $20
 A7DB  76 04     ROR  $04, X
 A7DD  88        DEY  
 A7DE  D0 EA     BNE  $A7CA
 A7E0  E8        INX  
 A7E1  E4 24     CPX  $24
 A7E3  D0 E1     BNE  $A7C6
 A7E5  95 01     STA  $01, X
 A7E7  A5 20     LDA  $20
 A7E9  95 00     STA  $00, X
 A7EB  80 04     BRA  $A7F1
 A7ED  74 02     STZ  $02, X
 A7EF  74 03     STZ  $03, X
 A7F1  60        RTS  
 A7F2  68        PLA  
 A7F3  68        PLA  
 A7F4  68        PLA  
 A7F5  68        PLA  
 A7F6  68        PLA  
 A7F7  68        PLA  
 A7F8  60        RTS  
 A7F9  20 66 A9  JSR  $A966
 A7FC  20 71 88  JSR  $8871
 A7FF  60        RTS  
 A800  CA        DEX  
 A801  CA        DEX  
 A802  A9 00     LDA  #$00
 A804  38        SEC  
 A805  E5 00     SBC  $00
 A807  95 00     STA  $00, X
 A809  A9 7C     LDA  #$7C
 A80B  E5 01     SBC  $01
 A80D  95 01     STA  $01, X
 A80F  60        RTS  
 A810  A0 2C     LDY  #$2C
 A812  B1 3C     LDA  ($3C), Y
 A814  09 02     ORA  #$02
 A816  91 3C     STA  ($3C), Y
 A818  60        RTS  
 A819  CA        DEX  
 A81A  CA        DEX  
 A81B  A9 3C     LDA  #$3C
 A81D  95 00     STA  $00, X
 A81F  A9 00     LDA  #$00
 A821  95 01     STA  $01, X
 A823  60        RTS  
 A824  20 80 8A  JSR  $8A80
 A827  A9 00     LDA  #$00
 A829  92 00     STA  ($00)
 A82B  E6 00     INC  $00
 A82D  D0 02     BNE  $A831
 A82F  E6 01     INC  $01
 A831  92 00     STA  ($00)
 A833  E6 00     INC  $00
 A835  D0 02     BNE  $A839
 A837  E6 01     INC  $01
 A839  20 44 8A  JSR  $8A44
 A83C  60        RTS  
 A83D  20 66 A9  JSR  $A966
 A840  20 BA 92  JSR  $92BA
 A843  20 5F A9  JSR  $A95F
 A846  20 71 88  JSR  $8871
 A849  20 E7 A2  JSR  $A2E7
 A84C  60        RTS  
 A84D  E0 73     CPX  #$73
 A84F  30 03     BMI  $A854
 A851  4C 91 D8  JMP  $D891
 A854  20 37 99  JSR  $9937
 A857  20 7A 96  JSR  $967A
 A85A  20 BD A4  JSR  $A4BD
 A85D  20 7A 96  JSR  $967A
 A860  20 4A 9B  JSR  $9B4A
 A863  20 03 A7  JSR  $A703
 A866  60        RTS  
 A867  E0 77     CPX  #$77
 A869  30 03     BMI  $A86E
 A86B  4C 91 D8  JMP  $D891
 A86E  A4 0C     LDY  $0C
 A870  C4 0A     CPY  $0A
 A872  F0 09     BEQ  $A87D
 A874  B1 08     LDA  ($08), Y
 A876  D5 00     CMP  $00, X
 A878  D0 03     BNE  $A87D
 A87A  C8        INY  
 A87B  80 F3     BRA  $A870
 A87D  84 0C     STY  $0C
 A87F  20 E2 99  JSR  $99E2
 A882  B5 00     LDA  $00, X
 A884  92 00     STA  ($00)
 A886  48        PHA  
 A887  20 C8 8E  JSR  $8EC8
 A88A  A5 00     LDA  $00
 A88C  18        CLC  
 A88D  69 01     ADC  #$01
 A88F  95 02     STA  $02, X
 A891  A5 01     LDA  $01
 A893  69 00     ADC  #$00
 A895  95 03     STA  $03, X
 A897  20 DF 96  JSR  $96DF
 A89A  CA        DEX  
 A89B  CA        DEX  
 A89C  A5 00     LDA  $00
 A89E  95 00     STA  $00, X
 A8A0  A5 01     LDA  $01
 A8A2  95 01     STA  $01, X
 A8A4  68        PLA  
 A8A5  18        CLC  
 A8A6  65 00     ADC  $00
 A8A8  85 00     STA  $00
 A8AA  A5 01     LDA  $01
 A8AC  69 00     ADC  #$00
 A8AE  85 01     STA  $01
 A8B0  60        RTS  
 A8B1  A0 05     LDY  #$05
 A8B3  B1 3C     LDA  ($3C), Y
 A8B5  C9 0C     CMP  #$0C
 A8B7  D0 05     BNE  $A8BE
 A8B9  A9 0B     LDA  #$0B
 A8BB  4C 93 D8  JMP  $D893
 A8BE  1A        INC  
 A8BF  91 3C     STA  ($3C), Y
 A8C1  CA        DEX  
 A8C2  CA        DEX  
 A8C3  95 00     STA  $00, X
 A8C5  74 01     STZ  $01, X
 A8C7  60        RTS  
 A8C8  20 7A 8A  JSR  $8A7A
 A8CB  A9 00     LDA  #$00
 A8CD  48        PHA  
 A8CE  CA        DEX  
 A8CF  CA        DEX  
 A8D0  64 24     STZ  $24
 A8D2  A0 1E     LDY  #$1E
 A8D4  A5 24     LDA  $24
 A8D6  D1 3C     CMP  ($3C), Y
 A8D8  D0 02     BNE  $A8DC
 A8DA  80 44     BRA  $A920
 A8DC  18        CLC  
 A8DD  69 1F     ADC  #$1F
 A8DF  A8        TAY  
 A8E0  B1 3C     LDA  ($3C), Y
 A8E2  0A        ASL  
 A8E3  18        CLC  
 A8E4  69 06     ADC  #$06
 A8E6  A8        TAY  
 A8E7  B1 3C     LDA  ($3C), Y
 A8E9  95 00     STA  $00, X
 A8EB  C8        INY  
 A8EC  B1 3C     LDA  ($3C), Y
 A8EE  95 01     STA  $01, X
 A8F0  20 C8 8E  JSR  $8EC8
 A8F3  20 1F 97  JSR  $971F
 A8F6  68        PLA  
 A8F7  18        CLC  
 A8F8  75 00     ADC  $00, X
 A8FA  1A        INC  
 A8FB  C9 4F     CMP  #$4F
 A8FD  90 05     BCC  $A904
 A8FF  20 7A 8A  JSR  $8A7A
 A902  A9 00     LDA  #$00
 A904  48        PHA  
 A905  20 84 A6  JSR  $A684
 A908  A9 20     LDA  #$20
 A90A  20 08 8F  JSR  $8F08
 A90D  20 FC 98  JSR  $98FC
 A910  20 FC 98  JSR  $98FC
 A913  20 1F 91  JSR  $911F
 A916  B5 00     LDA  $00, X
 A918  15 01     ORA  $01, X
 A91A  D0 D4     BNE  $A8F0
 A91C  E6 24     INC  $24
 A91E  80 B2     BRA  $A8D2
 A920  68        PLA  
 A921  E8        INX  
 A922  E8        INX  
 A923  60        RTS  
 A924  E0 77     CPX  #$77
 A926  30 03     BMI  $A92B
 A928  4C 91 D8  JMP  $D891
 A92B  B5 00     LDA  $00, X
 A92D  85 20     STA  $20
 A92F  B5 01     LDA  $01, X
 A931  85 21     STA  $21
 A933  A0 06     LDY  #$06
 A935  B1 20     LDA  ($20), Y
 A937  88        DEY  
 A938  88        DEY  
 A939  38        SEC  
 A93A  F1 20     SBC  ($20), Y
 A93C  95 00     STA  $00, X
 A93E  A0 07     LDY  #$07
 A940  B1 20     LDA  ($20), Y
 A942  88        DEY  
 A943  88        DEY  
 A944  F1 20     SBC  ($20), Y
 A946  95 01     STA  $01, X
 A948  60        RTS  
 A949  E0 75     CPX  #$75
 A94B  30 03     BMI  $A950
 A94D  4C 91 D8  JMP  $D891
 A950  B5 00     LDA  $00, X
 A952  55 02     EOR  $02, X
 A954  95 02     STA  $02, X
 A956  B5 01     LDA  $01, X
 A958  55 03     EOR  $03, X
 A95A  95 03     STA  $03, X
 A95C  E8        INX  
 A95D  E8        INX  
 A95E  60        RTS  
 A95F  CA        DEX  
 A960  CA        DEX  
 A961  74 00     STZ  $00, X
 A963  74 01     STZ  $01, X
 A965  60        RTS  
 A966  A0 A9     LDY  #$A9
 A968  A9 6E     LDA  #$6E
 A96A  20 59 D7  JSR  $D759
 A96D  60        RTS  
 A96E  68        PLA  
 A96F  85 1E     STA  $1E
 A971  68        PLA  
 A972  85 1F     STA  $1F
 A974  B5 00     LDA  $00, X
 A976  15 01     ORA  $01, X
 A978  F0 0F     BEQ  $A989
 A97A  A5 1E     LDA  $1E
 A97C  18        CLC  
 A97D  69 02     ADC  #$02
 A97F  85 20     STA  $20
 A981  A5 1F     LDA  $1F
 A983  69 00     ADC  #$00
 A985  85 21     STA  $21
 A987  80 13     BRA  $A99C
 A989  A0 01     LDY  #$01
 A98B  B1 1E     LDA  ($1E), Y
 A98D  85 20     STA  $20
 A98F  C8        INY  
 A990  B1 1E     LDA  ($1E), Y
 A992  85 21     STA  $21
 A994  A5 20     LDA  $20
 A996  D0 02     BNE  $A99A
 A998  C6 21     DEC  $21
 A99A  C6 20     DEC  $20
 A99C  A5 21     LDA  $21
 A99E  48        PHA  
 A99F  A5 20     LDA  $20
 A9A1  48        PHA  
 A9A2  E8        INX  
 A9A3  E8        INX  
 A9A4  60        RTS  
 A9A5  E0 77     CPX  #$77
 A9A7  30 03     BMI  $A9AC
 A9A9  4C 91 D8  JMP  $D891
 A9AC  B5 00     LDA  $00, X
 A9AE  15 01     ORA  $01, X
 A9B0  F0 04     BEQ  $A9B6
 A9B2  A9 00     LDA  #$00
 A9B4  80 02     BRA  $A9B8
 A9B6  A9 FF     LDA  #$FF
 A9B8  95 00     STA  $00, X
 A9BA  95 01     STA  $01, X
 A9BC  60        RTS  
 A9BD  E0 77     CPX  #$77
 A9BF  30 03     BMI  $A9C4
 A9C1  4C 91 D8  JMP  $D891
 A9C4  A0 00     LDY  #$00
 A9C6  B5 01     LDA  $01, X
 A9C8  30 05     BMI  $A9CF
 A9CA  15 00     ORA  $00, X
 A9CC  F0 01     BEQ  $A9CF
 A9CE  88        DEY  
 A9CF  98        TYA  
 A9D0  95 00     STA  $00, X
 A9D2  95 01     STA  $01, X
 A9D4  60        RTS  
 A9D5  E0 77     CPX  #$77
 A9D7  30 03     BMI  $A9DC
 A9D9  4C 91 D8  JMP  $D891
 A9DC  A0 00     LDY  #$00
 A9DE  B5 01     LDA  $01, X
 A9E0  10 01     BPL  $A9E3
 A9E2  88        DEY  
 A9E3  98        TYA  
 A9E4  95 00     STA  $00, X
 A9E6  95 01     STA  $01, X
 A9E8  60        RTS  
 A9E9  E0 77     CPX  #$77
 A9EB  30 03     BMI  $A9F0
 A9ED  4C 91 D8  JMP  $D891
 A9F0  A0 00     LDY  #$00
 A9F2  B5 00     LDA  $00, X
 A9F4  15 01     ORA  $01, X
 A9F6  F0 01     BEQ  $A9F9
 A9F8  88        DEY  
 A9F9  98        TYA  
 A9FA  95 00     STA  $00, X
 A9FC  95 01     STA  $01, X
 A9FE  60        RTS  
 A9FF  20 C8 8E  JSR  $8EC8
 AA02  20 DB 9F  JSR  $9FDB
 AA05  20 CD A2  JSR  $A2CD
 AA08  20 43 86  JSR  $8643
 AA0B  60        RTS  
 AA0C  20 FF A9  JSR  $A9FF
 AA0F  20 3F 8E  JSR  $8E3F
 AA12  64 2A     STZ  $2A
 AA14  CA        DEX  
 AA15  CA        DEX  
 AA16  A5 2A     LDA  $2A
 AA18  95 00     STA  $00, X
 AA1A  74 01     STZ  $01, X
 AA1C  20 DE AA  JSR  $AADE
 AA1F  E6 2A     INC  $2A
 AA21  A9 10     LDA  #$10
 AA23  C5 2A     CMP  $2A
 AA25  D0 ED     BNE  $AA14
 AA27  60        RTS  
 AA28  20 FF A9  JSR  $A9FF
 AA2B  CA        DEX  
 AA2C  CA        DEX  
 AA2D  74 00     STZ  $00, X
 AA2F  A9 04     LDA  #$04
 AA31  95 01     STA  $01, X
 AA33  20 08 90  JSR  $9008
 AA36  20 10 A8  JSR  $A810
 AA39  60        RTS  
 AA3A  20 C8 AA  JSR  $AAC8
 AA3D  CA        DEX  
 AA3E  CA        DEX  
 AA3F  A9 40     LDA  #$40
 AA41  95 00     STA  $00, X
 AA43  74 01     STZ  $01, X
 AA45  20 08 90  JSR  $9008
 AA48  20 10 A8  JSR  $A810
 AA4B  60        RTS  
 AA4C  CA        DEX  
 AA4D  CA        DEX  
 AA4E  A0 02     LDY  #$02
 AA50  B1 3C     LDA  ($3C), Y
 AA52  95 00     STA  $00, X
 AA54  C8        INY  
 AA55  B1 3C     LDA  ($3C), Y
 AA57  95 01     STA  $01, X
 AA59  20 2B 84  JSR  $842B
 AA5C  20 7A 8A  JSR  $8A7A
 AA5F  80 08     BRA  $AA69
 AA61  53 63 72 65 65 6E 20 23                          |Screen #        |
 AA69  20 E3 A1  JSR  $A1E3
 AA6C  61 AA 08 00                                      |a...            |
 AA70  20 84 A6  JSR  $A684
 AA73  20 DB 9F  JSR  $9FDB
 AA76  20 1F 91  JSR  $911F
 AA79  CA        DEX  
 AA7A  CA        DEX  
 AA7B  A9 04     LDA  #$04
 AA7D  95 00     STA  $00, X
 AA7F  74 01     STZ  $01, X
 AA81  20 C3 A6  JSR  $A6C3
 AA84  64 24     STZ  $24
 AA86  20 7A 8A  JSR  $8A7A
 AA89  CA        DEX  
 AA8A  CA        DEX  
 AA8B  CA        DEX  
 AA8C  CA        DEX  
 AA8D  74 03     STZ  $03, X
 AA8F  A5 24     LDA  $24
 AA91  95 02     STA  $02, X
 AA93  74 01     STZ  $01, X
 AA95  A9 02     LDA  #$02
 AA97  95 00     STA  $00, X
 AA99  20 C3 A6  JSR  $A6C3
 AA9C  20 5C A2  JSR  $A25C
 AA9F  20 C8 8E  JSR  $8EC8
 AAA2  CA        DEX  
 AAA3  CA        DEX  
 AAA4  A9 40     LDA  #$40
 AAA6  95 00     STA  $00, X
 AAA8  74 01     STZ  $01, X
 AAAA  20 84 A6  JSR  $A684
 AAAD  18        CLC  
 AAAE  A9 40     LDA  #$40
 AAB0  75 00     ADC  $00, X
 AAB2  95 00     STA  $00, X
 AAB4  B5 01     LDA  $01, X
 AAB6  69 00     ADC  #$00
 AAB8  95 01     STA  $01, X
 AABA  E6 24     INC  $24
 AABC  A5 24     LDA  $24
 AABE  C9 10     CMP  #$10
 AAC0  D0 C4     BNE  $AA86
 AAC2  20 7A 8A  JSR  $8A7A
 AAC5  E8        INX  
 AAC6  E8        INX  
 AAC7  60        RTS  
 AAC8  A0 06     LDY  #$06
 AACA  16 00     ASL  $00, X
 AACC  36 01     ROL  $01, X
 AACE  88        DEY  
 AACF  D0 F9     BNE  $AACA
 AAD1  20 DB 9F  JSR  $9FDB
 AAD4  20 1F 91  JSR  $911F
 AAD7  20 2B 84  JSR  $842B
 AADA  20 8F 9A  JSR  $9A8F
 AADD  60        RTS  
 AADE  20 C8 8E  JSR  $8EC8
 AAE1  20 3A AA  JSR  $AA3A
 AAE4  20 7A 8A  JSR  $8A7A
 AAE7  20 C8 8E  JSR  $8EC8
 AAEA  20 FC A4  JSR  $A4FC
 AAED  20 C3 A6  JSR  $A6C3
 AAF0  20 5C A2  JSR  $A25C
 AAF3  A9 2A     LDA  #$2A
 AAF5  20 08 8F  JSR  $8F08
 AAF8  20 5C A2  JSR  $A25C
 AAFB  20 C8 AA  JSR  $AAC8
 AAFE  CA        DEX  
 AAFF  CA        DEX  
 AB00  A9 40     LDA  #$40
 AB02  95 00     STA  $00, X
 AB04  74 01     STZ  $01, X
 AB06  20 8D 81  JSR  $818D
 AB09  E8        INX  
 AB0A  E8        INX  
 AB0B  20 10 A8  JSR  $A810
 AB0E  60        RTS  
 AB0F  A9 69     LDA  #$69
 AB11  4C 6A AE  JMP  $AE6A
 AB14  A9 7D     LDA  #$7D
 AB16  4C 6A AE  JMP  $AE6A
 AB19  A9 79     LDA  #$79
 AB1B  4C 6A AE  JMP  $AE6A
 AB1E  A9 65     LDA  #$65
 AB20  4C 6A AE  JMP  $AE6A
 AB23  A9 72     LDA  #$72
 AB25  4C 6A AE  JMP  $AE6A
 AB28  A9 71     LDA  #$71
 AB2A  4C 6A AE  JMP  $AE6A
 AB2D  A9 75     LDA  #$75
 AB2F  4C 6A AE  JMP  $AE6A
 AB32  A9 61     LDA  #$61
 AB34  4C 6A AE  JMP  $AE6A
 AB37  A9 2D     LDA  #$2D
 AB39  4C 6A AE  JMP  $AE6A
 AB3C  A9 29     LDA  #$29
 AB3E  4C 6A AE  JMP  $AE6A
 AB41  A9 3D     LDA  #$3D
 AB43  4C 6A AE  JMP  $AE6A
 AB46  A9 39     LDA  #$39
 AB48  4C 6A AE  JMP  $AE6A
 AB4B  A9 25     LDA  #$25
 AB4D  4C 6A AE  JMP  $AE6A
 AB50  A9 32     LDA  #$32
 AB52  4C 6A AE  JMP  $AE6A
 AB55  A9 31     LDA  #$31
 AB57  4C 6A AE  JMP  $AE6A
 AB5A  A9 35     LDA  #$35
 AB5C  4C 6A AE  JMP  $AE6A
 AB5F  A9 21     LDA  #$21
 AB61  4C 6A AE  JMP  $AE6A
 AB64  A9 0E     LDA  #$0E
 AB66  4C 6A AE  JMP  $AE6A
 AB69  A9 0A     LDA  #$0A
 AB6B  4C 6A AE  JMP  $AE6A
 AB6E  A9 1E     LDA  #$1E
 AB70  4C 6A AE  JMP  $AE6A
 AB73  A9 06     LDA  #$06
 AB75  4C 6A AE  JMP  $AE6A
 AB78  A9 16     LDA  #$16
 AB7A  4C 6A AE  JMP  $AE6A
 AB7D  A9 90     LDA  #$90
 AB7F  4C 6A AE  JMP  $AE6A
 AB82  A9 B0     LDA  #$B0
 AB84  A0 02     LDY  #$02
 AB86  4C 6A AE  JMP  $AE6A
 AB89  A9 F0     LDA  #$F0
 AB8B  4C 6A AE  JMP  $AE6A
 AB8E  A9 2C     LDA  #$2C
 AB90  4C 6A AE  JMP  $AE6A
 AB93  A9 89     LDA  #$89
 AB95  4C 6A AE  JMP  $AE6A
 AB98  A9 3C     LDA  #$3C
 AB9A  4C 6A AE  JMP  $AE6A
 AB9D  A9 24     LDA  #$24
 AB9F  4C 6A AE  JMP  $AE6A
 ABA2  A9 34     LDA  #$34
 ABA4  4C 6A AE  JMP  $AE6A
 ABA7  A9 30     LDA  #$30
 ABA9  4C 6A AE  JMP  $AE6A
 ABAC  A9 D0     LDA  #$D0
 ABAE  4C 6A AE  JMP  $AE6A
 ABB1  A9 10     LDA  #$10
 ABB3  4C 6A AE  JMP  $AE6A
 ABB6  A9 80     LDA  #$80
 ABB8  4C 6A AE  JMP  $AE6A
 ABBB  A9 00     LDA  #$00
 ABBD  4C 6A AE  JMP  $AE6A
 ABC0  A9 50     LDA  #$50
 ABC2  4C 6A AE  JMP  $AE6A
 ABC5  A9 70     LDA  #$70
 ABC7  4C 6A AE  JMP  $AE6A
 ABCA  A9 18     LDA  #$18
 ABCC  4C 6A AE  JMP  $AE6A
 ABCF  A9 D8     LDA  #$D8
 ABD1  4C 6A AE  JMP  $AE6A
 ABD4  A9 58     LDA  #$58
 ABD6  4C 6A AE  JMP  $AE6A
 ABD9  A9 B8     LDA  #$B8
 ABDB  4C 6A AE  JMP  $AE6A
 ABDE  A9 CD     LDA  #$CD
 ABE0  4C 6A AE  JMP  $AE6A
 ABE3  A9 C9     LDA  #$C9
 ABE5  4C 6A AE  JMP  $AE6A
 ABE8  A9 DD     LDA  #$DD
 ABEA  4C 6A AE  JMP  $AE6A
 ABED  A9 D9     LDA  #$D9
 ABEF  4C 6A AE  JMP  $AE6A
 ABF2  A9 C5     LDA  #$C5
 ABF4  4C 6A AE  JMP  $AE6A
 ABF7  A9 D2     LDA  #$D2
 ABF9  4C 6A AE  JMP  $AE6A
 ABFC  A9 D1     LDA  #$D1
 ABFE  4C 6A AE  JMP  $AE6A
 AC01  A9 D5     LDA  #$D5
 AC03  4C 6A AE  JMP  $AE6A
 AC06  A9 C1     LDA  #$C1
 AC08  4C 6A AE  JMP  $AE6A
 AC0B  A9 EC     LDA  #$EC
 AC0D  4C 6A AE  JMP  $AE6A
 AC10  A9 E0     LDA  #$E0
 AC12  4C 6A AE  JMP  $AE6A
 AC15  A9 E4     LDA  #$E4
 AC17  4C 6A AE  JMP  $AE6A
 AC1A  A9 CC     LDA  #$CC
 AC1C  A0 03     LDY  #$03
 AC1E  4C 6A AE  JMP  $AE6A
 AC21  A9 C0     LDA  #$C0
 AC23  4C 6A AE  JMP  $AE6A
 AC26  A9 C4     LDA  #$C4
 AC28  4C 6A AE  JMP  $AE6A
 AC2B  A9 CE     LDA  #$CE
 AC2D  4C 6A AE  JMP  $AE6A
 AC30  A9 3A     LDA  #$3A
 AC32  4C 6A AE  JMP  $AE6A
 AC35  A9 DE     LDA  #$DE
 AC37  4C 6A AE  JMP  $AE6A
 AC3A  A9 C6     LDA  #$C6
 AC3C  4C 6A AE  JMP  $AE6A
 AC3F  A9 D6     LDA  #$D6
 AC41  4C 6A AE  JMP  $AE6A
 AC44  A9 CA     LDA  #$CA
 AC46  4C 6A AE  JMP  $AE6A
 AC49  A9 88     LDA  #$88
 AC4B  4C 6A AE  JMP  $AE6A
 AC4E  A9 4D     LDA  #$4D
 AC50  4C 6A AE  JMP  $AE6A
 AC53  A9 49     LDA  #$49
 AC55  4C 6A AE  JMP  $AE6A
 AC58  A9 5D     LDA  #$5D
 AC5A  4C 6A AE  JMP  $AE6A
 AC5D  A9 59     LDA  #$59
 AC5F  4C 6A AE  JMP  $AE6A
 AC62  A9 45     LDA  #$45
 AC64  4C 6A AE  JMP  $AE6A
 AC67  A9 52     LDA  #$52
 AC69  4C 6A AE  JMP  $AE6A
 AC6C  A9 51     LDA  #$51
 AC6E  4C 6A AE  JMP  $AE6A
 AC71  A9 55     LDA  #$55
 AC73  4C 6A AE  JMP  $AE6A
 AC76  A9 41     LDA  #$41
 AC78  4C 6A AE  JMP  $AE6A
 AC7B  A9 EE     LDA  #$EE
 AC7D  4C 6A AE  JMP  $AE6A
 AC80  A9 1A     LDA  #$1A
 AC82  4C 6A AE  JMP  $AE6A
 AC85  A9 FE     LDA  #$FE
 AC87  4C 6A AE  JMP  $AE6A
 AC8A  A9 E6     LDA  #$E6
 AC8C  4C 6A AE  JMP  $AE6A
 AC8F  A9 F6     LDA  #$F6
 AC91  4C 6A AE  JMP  $AE6A
 AC94  A9 E8     LDA  #$E8
 AC96  4C 6A AE  JMP  $AE6A
 AC99  A9 C8     LDA  #$C8
 AC9B  4C 6A AE  JMP  $AE6A
 AC9E  A9 4C     LDA  #$4C
 ACA0  4C 6A AE  JMP  $AE6A
 ACA3  A9 6C     LDA  #$6C
 ACA5  4C 6A AE  JMP  $AE6A
 ACA8  A9 7C     LDA  #$7C
 ACAA  4C 6A AE  JMP  $AE6A
 ACAD  A9 20     LDA  #$20
 ACAF  4C 6A AE  JMP  $AE6A
 ACB2  A9 AD     LDA  #$AD
 ACB4  4C 6A AE  JMP  $AE6A
 ACB7  A9 A9     LDA  #$A9
 ACB9  4C 6A AE  JMP  $AE6A
 ACBC  A9 BD     LDA  #$BD
 ACBE  4C 6A AE  JMP  $AE6A
 ACC1  A9 B9     LDA  #$B9
 ACC3  4C 6A AE  JMP  $AE6A
 ACC6  A9 A5     LDA  #$A5
 ACC8  4C 6A AE  JMP  $AE6A
 ACCB  A9 B2     LDA  #$B2
 ACCD  4C 6A AE  JMP  $AE6A
 ACD0  A9 B1     LDA  #$B1
 ACD2  4C 6A AE  JMP  $AE6A
 ACD5  A9 B5     LDA  #$B5
 ACD7  4C 6A AE  JMP  $AE6A
 ACDA  A9 A1     LDA  #$A1
 ACDC  4C 6A AE  JMP  $AE6A
 ACDF  A9 AE     LDA  #$AE
 ACE1  4C 6A AE  JMP  $AE6A
 ACE4  A9 A2     LDA  #$A2
 ACE6  4C 6A AE  JMP  $AE6A
 ACE9  A9 BE     LDA  #$BE
 ACEB  4C 6A AE  JMP  $AE6A
 ACEE  A9 A6     LDA  #$A6
 ACF0  4C 6A AE  JMP  $AE6A
 ACF3  A9 B6     LDA  #$B6
 ACF5  4C 6A AE  JMP  $AE6A
 ACF8  A9 AC     LDA  #$AC
 ACFA  4C 6A AE  JMP  $AE6A
 ACFD  A9 A0     LDA  #$A0
 ACFF  4C 6A AE  JMP  $AE6A
 AD02  A9 BC     LDA  #$BC
 AD04  4C 6A AE  JMP  $AE6A
 AD07  A9 A4     LDA  #$A4
 AD09  4C 6A AE  JMP  $AE6A
 AD0C  A9 B4     LDA  #$B4
 AD0E  4C 6A AE  JMP  $AE6A
 AD11  A9 4E     LDA  #$4E
 AD13  4C 6A AE  JMP  $AE6A
 AD16  A9 4A     LDA  #$4A
 AD18  4C 6A AE  JMP  $AE6A
 AD1B  A9 5E     LDA  #$5E
 AD1D  4C 6A AE  JMP  $AE6A
 AD20  A9 46     LDA  #$46
 AD22  4C 6A AE  JMP  $AE6A
 AD25  A9 56     LDA  #$56
 AD27  4C 6A AE  JMP  $AE6A
 AD2A  A9 EA     LDA  #$EA
 AD2C  4C 6A AE  JMP  $AE6A
 AD2F  A9 0D     LDA  #$0D
 AD31  4C 6A AE  JMP  $AE6A
 AD34  A9 09     LDA  #$09
 AD36  4C 6A AE  JMP  $AE6A
 AD39  A9 1D     LDA  #$1D
 AD3B  4C 6A AE  JMP  $AE6A
 AD3E  A9 19     LDA  #$19
 AD40  4C 6A AE  JMP  $AE6A
 AD43  A9 05     LDA  #$05
 AD45  4C 6A AE  JMP  $AE6A
 AD48  A9 12     LDA  #$12
 AD4A  A0 02     LDY  #$02
 AD4C  4C 6A AE  JMP  $AE6A
 AD4F  A9 11     LDA  #$11
 AD51  4C 6A AE  JMP  $AE6A
 AD54  A9 15     LDA  #$15
 AD56  4C 6A AE  JMP  $AE6A
 AD59  A9 01     LDA  #$01
 AD5B  4C 6A AE  JMP  $AE6A
 AD5E  A9 48     LDA  #$48
 AD60  4C 6A AE  JMP  $AE6A
 AD63  A9 08     LDA  #$08
 AD65  4C 6A AE  JMP  $AE6A
 AD68  A9 DA     LDA  #$DA
 AD6A  4C 6A AE  JMP  $AE6A
 AD6D  A9 5A     LDA  #$5A
 AD6F  4C 6A AE  JMP  $AE6A
 AD72  A9 68     LDA  #$68
 AD74  4C 6A AE  JMP  $AE6A
 AD77  A9 28     LDA  #$28
 AD79  4C 6A AE  JMP  $AE6A
 AD7C  A9 FA     LDA  #$FA
 AD7E  4C 6A AE  JMP  $AE6A
 AD81  A9 7A     LDA  #$7A
 AD83  4C 6A AE  JMP  $AE6A
 AD86  A9 2E     LDA  #$2E
 AD88  4C 6A AE  JMP  $AE6A
 AD8B  A9 2A     LDA  #$2A
 AD8D  4C 6A AE  JMP  $AE6A
 AD90  A9 3E     LDA  #$3E
 AD92  4C 6A AE  JMP  $AE6A
 AD95  A9 26     LDA  #$26
 AD97  4C 6A AE  JMP  $AE6A
 AD9A  A9 36     LDA  #$36
 AD9C  4C 6A AE  JMP  $AE6A
 AD9F  A9 6E     LDA  #$6E
 ADA1  4C 6A AE  JMP  $AE6A
 ADA4  A9 6A     LDA  #$6A
 ADA6  4C 6A AE  JMP  $AE6A
 ADA9  A9 7E     LDA  #$7E
 ADAB  4C 6A AE  JMP  $AE6A
 ADAE  A9 66     LDA  #$66
 ADB0  4C 6A AE  JMP  $AE6A
 ADB3  A9 76     LDA  #$76
 ADB5  4C 6A AE  JMP  $AE6A
 ADB8  A9 40     LDA  #$40
 ADBA  4C 6A AE  JMP  $AE6A
 ADBD  A9 60     LDA  #$60
 ADBF  4C 6A AE  JMP  $AE6A
 ADC2  A9 ED     LDA  #$ED
 ADC4  4C 6A AE  JMP  $AE6A
 ADC7  A9 E9     LDA  #$E9
 ADC9  4C 6A AE  JMP  $AE6A
 ADCC  A9 FD     LDA  #$FD
 ADCE  4C 6A AE  JMP  $AE6A
 ADD1  A9 F9     LDA  #$F9
 ADD3  4C 6A AE  JMP  $AE6A
 ADD6  A9 E5     LDA  #$E5
 ADD8  4C 6A AE  JMP  $AE6A
 ADDB  A9 F2     LDA  #$F2
 ADDD  4C 6A AE  JMP  $AE6A
 ADE0  A9 F1     LDA  #$F1
 ADE2  4C 6A AE  JMP  $AE6A
 ADE5  A9 F5     LDA  #$F5
 ADE7  4C 6A AE  JMP  $AE6A
 ADEA  A9 E1     LDA  #$E1
 ADEC  80 7C     BRA  $AE6A
 ADEE  A9 38     LDA  #$38
 ADF0  80 78     BRA  $AE6A
 ADF2  A9 F8     LDA  #$F8
 ADF4  80 74     BRA  $AE6A
 ADF6  A9 78     LDA  #$78
 ADF8  80 70     BRA  $AE6A
 ADFA  A9 8D     LDA  #$8D
 ADFC  80 6C     BRA  $AE6A
 ADFE  A9 9D     LDA  #$9D
 AE00  80 68     BRA  $AE6A
 AE02  A9 99     LDA  #$99
 AE04  80 64     BRA  $AE6A
 AE06  A9 85     LDA  #$85
 AE08  80 60     BRA  $AE6A
 AE0A  A9 92     LDA  #$92
 AE0C  80 5C     BRA  $AE6A
 AE0E  A9 91     LDA  #$91
 AE10  80 58     BRA  $AE6A
 AE12  A9 95     LDA  #$95
 AE14  80 54     BRA  $AE6A
 AE16  A9 81     LDA  #$81
 AE18  80 50     BRA  $AE6A
 AE1A  A9 8E     LDA  #$8E
 AE1C  80 4C     BRA  $AE6A
 AE1E  A9 86     LDA  #$86
 AE20  80 48     BRA  $AE6A
 AE22  A9 96     LDA  #$96
 AE24  80 44     BRA  $AE6A
 AE26  A9 8C     LDA  #$8C
 AE28  80 40     BRA  $AE6A
 AE2A  A9 84     LDA  #$84
 AE2C  80 3C     BRA  $AE6A
 AE2E  A9 94     LDA  #$94
 AE30  80 38     BRA  $AE6A
 AE32  A9 9C     LDA  #$9C
 AE34  80 34     BRA  $AE6A
 AE36  A9 9E     LDA  #$9E
 AE38  80 30     BRA  $AE6A
 AE3A  A9 64     LDA  #$64
 AE3C  80 2C     BRA  $AE6A
 AE3E  A9 74     LDA  #$74
 AE40  80 28     BRA  $AE6A
 AE42  A9 AA     LDA  #$AA
 AE44  80 24     BRA  $AE6A
 AE46  A9 A8     LDA  #$A8
 AE48  80 20     BRA  $AE6A
 AE4A  A9 1C     LDA  #$1C
 AE4C  80 1C     BRA  $AE6A
 AE4E  A9 14     LDA  #$14
 AE50  80 18     BRA  $AE6A
 AE52  A9 0C     LDA  #$0C
 AE54  80 14     BRA  $AE6A
 AE56  A9 04     LDA  #$04
 AE58  80 10     BRA  $AE6A
 AE5A  A9 BA     LDA  #$BA
 AE5C  80 0C     BRA  $AE6A
 AE5E  A9 8A     LDA  #$8A
 AE60  80 08     BRA  $AE6A
 AE62  A9 9A     LDA  #$9A
 AE64  80 04     BRA  $AE6A
 AE66  A9 98     LDA  #$98
 AE68  80 00     BRA  $AE6A
 AE6A  A8        TAY  
 AE6B  20 69 D7  JSR  $D769
 AE6E  A9 65     LDA  #$65
 AE70  85 22     STA  $22
 AE72  A9 AF     LDA  #$AF
 AE74  85 23     STA  $23
 AE76  98        TYA  
 AE77  0A        ASL  
 AE78  90 02     BCC  $AE7C
 AE7A  E6 23     INC  $23
 AE7C  A8        TAY  
 AE7D  B1 22     LDA  ($22), Y
 AE7F  85 24     STA  $24
 AE81  C8        INY  
 AE82  B1 22     LDA  ($22), Y
 AE84  85 25     STA  $25
 AE86  B2 24     LDA  ($24)
 AE88  2A        ROL  
 AE89  2A        ROL  
 AE8A  2A        ROL  
 AE8B  29 03     AND  #$03
 AE8D  A8        TAY  
 AE8E  C0 01     CPY  #$01
 AE90  F0 17     BEQ  $AEA9
 AE92  E0 77     CPX  #$77
 AE94  30 03     BMI  $AE99
 AE96  4C 91 D8  JMP  $D891
 AE99  B5 00     LDA  $00, X
 AE9B  20 69 D7  JSR  $D769
 AE9E  C0 02     CPY  #$02
 AEA0  F0 05     BEQ  $AEA7
 AEA2  B5 01     LDA  $01, X
 AEA4  20 69 D7  JSR  $D769
 AEA7  E8        INX  
 AEA8  E8        INX  
 AEA9  60        RTS  
 AEAA  A0 00     LDY  #$00
 AEAC  B9 BA AE  LDA  $AEBA, Y
 AEAF  C9 FF     CMP  #$FF
 AEB1  F0 06     BEQ  $AEB9
 AEB3  20 69 D7  JSR  $D769
 AEB6  C8        INY  
 AEB7  80 F3     BRA  $AEAC
 AEB9  60        RTS  
 AEBA  CA CA 95 00 74 01 FF                             |....t..         |
 AEC1  20 7A 8A  JSR  $8A7A
 AEC4  20 37 99  JSR  $9937
 AEC7  20 B3 A6  JSR  $A6B3
 AECA  20 5C A2  JSR  $A25C
 AECD  A9 65     LDA  #$65
 AECF  85 22     STA  $22
 AED1  A9 AF     LDA  #$AF
 AED3  85 23     STA  $23
 AED5  A1 02     LDA  ($02, X)
 AED7  0A        ASL  
 AED8  90 02     BCC  $AEDC
 AEDA  E6 23     INC  $23
 AEDC  A8        TAY  
 AEDD  B1 22     LDA  ($22), Y
 AEDF  85 24     STA  $24
 AEE1  48        PHA  
 AEE2  C8        INY  
 AEE3  B1 22     LDA  ($22), Y
 AEE5  85 25     STA  $25
 AEE7  48        PHA  
 AEE8  B2 24     LDA  ($24)
 AEEA  A8        TAY  
 AEEB  10 38     BPL  $AF25
 AEED  20 5F A9  JSR  $A95F
 AEF0  F6 04     INC  $04, X
 AEF2  D0 02     BNE  $AEF6
 AEF4  F6 05     INC  $05, X
 AEF6  B5 02     LDA  $02, X
 AEF8  D0 02     BNE  $AEFC
 AEFA  D6 03     DEC  $03, X
 AEFC  D6 02     DEC  $02, X
 AEFE  A1 04     LDA  ($04, X)
 AF00  95 00     STA  $00, X
 AF02  98        TYA  
 AF03  2A        ROL  
 AF04  10 12     BPL  $AF18
 AF06  F6 04     INC  $04, X
 AF08  D0 02     BNE  $AF0C
 AF0A  F6 05     INC  $05, X
 AF0C  B5 02     LDA  $02, X
 AF0E  D0 02     BNE  $AF12
 AF10  D6 03     DEC  $03, X
 AF12  D6 02     DEC  $02, X
 AF14  A1 04     LDA  ($04, X)
 AF16  95 01     STA  $01, X
 AF18  CA        DEX  
 AF19  CA        DEX  
 AF1A  A9 05     LDA  #$05
 AF1C  95 00     STA  $00, X
 AF1E  74 01     STZ  $01, X
 AF20  20 C3 A6  JSR  $A6C3
 AF23  80 0B     BRA  $AF30
 AF25  CA        DEX  
 AF26  CA        DEX  
 AF27  A9 05     LDA  #$05
 AF29  95 00     STA  $00, X
 AF2B  74 01     STZ  $01, X
 AF2D  20 62 A2  JSR  $A262
 AF30  20 5C A2  JSR  $A25C
 AF33  CA        DEX  
 AF34  CA        DEX  
 AF35  68        PLA  
 AF36  95 01     STA  $01, X
 AF38  68        PLA  
 AF39  95 00     STA  $00, X
 AF3B  20 62 8A  JSR  $8A62
 AF3E  74 01     STZ  $01, X
 AF40  B5 00     LDA  $00, X
 AF42  29 07     AND  #$07
 AF44  95 00     STA  $00, X
 AF46  20 84 A6  JSR  $A684
 AF49  20 7A 8A  JSR  $8A7A
 AF4C  F6 02     INC  $02, X
 AF4E  D0 02     BNE  $AF52
 AF50  F6 03     INC  $03, X
 AF52  20 EC 98  JSR  $98EC
 AF55  B5 00     LDA  $00, X
 AF57  15 01     ORA  $01, X
 AF59  F0 07     BEQ  $AF62
 AF5B  B5 01     LDA  $01, X
 AF5D  30 03     BMI  $AF62
 AF5F  4C C4 AE  JMP  $AEC4
 AF62  4C 05 A5  JMP  $A505
 AF65  65 B1 69 B1 FD B5 FD B5 71 B1 77 B1 7D B1 FD B5  |e.i.....q.w.}...|
 AF75  83 B1 87 B1 8D B1 FD B5 93 B1 97 B1 9B B1 9F B1  |................|
 AF85  A4 B1 A8 B1 B0 B1 FD B5 B7 B1 BD B1 C4 B1 CB B1  |................|
 AF95  D2 B1 D6 B1 DC B1 FD B5 E2 B1 E6 B1 FD B5 EC B1  |................|
 AFA5  F2 B1 F6 B1 FD B5 FD B5 FE B1 04 B2 0A B2 10 B2  |................|
 AFB5  17 B2 1B B2 21 B2 FD B5 27 B2 2B B2 30 B2 34 B2  |....!...'.+.0.4.|
 AFC5  39 B2 3D B2 45 B2 FD B5 4C B2 54 B2 5B B2 62 B2  |9.=.E...L.T.[.b.|
 AFD5  69 B2 6D B2 73 B2 FD B5 79 B2 7F B2 85 B2 9F B1  |i.m.s...y.......|
 AFE5  90 B2 94 B2 FD B5 FD B5 FD B5 9C B2 A2 B2 A8 B2  |................|
 AFF5  AF B2 B3 B2 B9 B2 FD B5 BF B2 C3 B2 C7 B2 CB B2  |................|
 B005  D0 B2 D4 B2 DC B2 FD B5 FD B5 E3 B2 EA B2 F1 B2  |................|
 B015  F8 B2 FC B2 02 B3 FD B5 FD B5 FD B5 0C B3 12 B3  |................|
 B025  17 B3 1B B3 FD B5 FD B5 23 B3 29 B3 2F B3 35 B3  |........#.)./.5.|
 B035  3C B3 40 B3 46 B3 FD B5 4C B3 52 B3 56 B3 5A B3  |<.@.F...L.R.V.Z.|
 B045  5F B3 63 B3 6B B3 FD B5 72 B3 79 B3 80 B3 87 B3  |_.c.k...r.y.....|
 B055  8E B3 92 B3 98 B3 FD B5 9C B3 A3 B3 A9 B3 AF B3  |................|
 B065  B4 B3 B8 B3 FD B5 FD B5 C0 B3 C6 B3 CC B3 FD B5  |................|
 B075  D2 B3 D6 B3 DC B3 FD B5 E0 B3 E4 B3 E8 B3 EC B3  |................|
 B085  F1 B3 F5 B3 FD B3 FD B5 04 B4 0B B4 12 B4 19 B4  |................|
 B095  20 B4 24 B4 2A B4 FD B5 2E B4 32 B4 38 B4 3E B4  | .$.*.....2.8.>.|
 B0A5  43 B4 49 B4 51 B4 FD B5 57 B4 5D B4 63 B4 69 B4  |C.I.Q...W.].c.i.|
 B0B5  70 B4 74 B4 7A B4 FD B5 7E B4 82 B4 86 B4 8A B4  |p.t.z...~.......|
 B0C5  8F B4 93 B4 9B B4 FD B5 A2 B4 A9 B4 B0 B4 B7 B4  |................|
 B0D5  BE B4 C2 B4 C8 B4 FD B5 CC B4 D2 B4 D8 B4 DE B4  |................|
 B0E5  E3 B4 E9 B4 FD B5 FD B5 F1 B4 F7 B4 FD B4 03 B5  |................|
 B0F5  0A B5 0E B5 14 B5 FD B5 18 B5 1C B5 20 B5 24 B5  |............ .$.|
 B105  29 B5 2D B5 35 B5 FD B5 FD B5 3C B5 43 B5 4A B5  |).-.5.....<.C.J.|
 B115  51 B5 55 B5 5B B5 FD B5 FD B5 5F B5 65 B5 6B B5  |Q.U.[....._.e.k.|
 B125  70 B5 76 B5 FD B5 FD B5 7E B5 84 B5 8A B5 90 B5  |p.v.....~.......|
 B135  97 B5 9B B5 A1 B5 FD B5 A5 B5 A9 B5 AD B5 B1 B5  |................|
 B145  B6 B5 BA B5 C2 B5 FD B5 FD B5 C9 B5 D0 B5 D7 B5  |................|
 B155  DE B5 E2 B5 E8 B5 FD B5 FD B5 EC B5 F2 B5 F8 B5  |................|
 B165  83 62 72 6B 87 6F 72 61 2E 7A 78 69 85 74 73 62  |.brk.ora.zxi.tsb|
 B175  2E 7A 85 6F 72 64 2E 7A 85 61 73 6C 2E 7A 43 70  |.z.ord.z.asl.zCp|
 B185  68 70 85 6F 72 61 2E 23 45 61 73 6C 2E 61 C3 74  |hp.ora.#Easl.a.t|
 B195  73 62 C3 6F 72 61 C3 61 73 6C C4 62 62 72 30 83  |sb.ora.asl.bbr0.|
 B1A5  62 70 6C 87 6F 72 61 2E 7A 69 79 86 6F 72 61 2E  |bpl.ora.ziy.ora.|
 B1B5  7A 69 85 74 72 62 2E 7A 86 6F 72 61 2E 7A 78 86  |zi.trb.z.ora.zx.|
 B1C5  61 73 6C 2E 7A 78 86 72 6D 62 31 2E 7A 43 63 6C  |asl.zx.rmb1.zCcl|
 B1D5  63 C5 6F 72 61 2E 79 45 69 6E 63 2E 61 C3 74 72  |c.ora.yEinc.a.tr|
 B1E5  62 C5 6F 72 61 2E 78 C5 61 73 6C 2E 78 C3 6A 73  |b.ora.x.asl.x.js|
 B1F5  72 87 61 6E 64 2E 7A 78 69 85 62 69 74 2E 7A 85  |r.and.zxi.bit.z.|
 B205  61 6E 64 2E 7A 85 72 6F 6C 2E 7A 86 72 6D 62 32  |and.z.rol.z.rmb2|
 B215  2E 7A 43 70 6C 70 85 61 6E 64 2E 23 45 72 6F 6C  |.zCplp.and.#Erol|
 B225  2E 61 C3 62 69 74 C4 61 6E 64 2E C3 72 6F 6C C4  |.a.bit.and..rol.|
 B235  62 62 72 32 83 62 6D 69 87 61 6E 64 2E 7A 69 79  |bbr2.bmi.and.ziy|
 B245  86 61 6E 64 2E 7A 69 87 62 69 74 2E 7A 78 69 86  |.and.zi.bit.zxi.|
 B255  61 6E 64 2E 7A 78 86 72 6F 6C 2E 7A 78 86 72 6D  |and.zx.rol.zx.rm|
 B265  62 33 2E 7A 43 73 65 63 C5 61 6E 64 2E 79 45 64  |b3.zCsec.and.yEd|
 B275  65 63 2E 61 C5 62 69 74 2E 78 C5 61 6E 64 2E 78  |ec.a.bit.x.and.x|
 B285  C5 72 6F 6C 2E 78 C4 62 62 72 33 43 72 74 69 87  |.rol.x.bbr3Crti.|
 B295  65 6F 72 2E 7A 78 69 85 65 6F 72 2E 7A 85 6C 73  |eor.zxi.eor.z.ls|
 B2A5  72 2E 7A 86 72 62 6D 34 2E 7A 43 70 68 61 85 65  |r.z.rbm4.zCpha.e|
 B2B5  6F 72 2E 23 45 6C 73 72 2E 61 C3 6A 6D 70 C3 65  |or.#Elsr.a.jmp.e|
 B2C5  6F 72 C3 6C 73 72 C4 62 62 72 34 83 62 76 63 87  |or.lsr.bbr4.bvc.|
 B2D5  65 6F 72 2E 7A 69 79 86 65 6F 72 2E 7A 69 86 65  |eor.ziy.eor.zi.e|
 B2E5  6F 72 2E 7A 78 86 6C 73 72 2E 7A 78 86 72 62 6D  |or.zx.lsr.zx.rbm|
 B2F5  35 2E 7A 43 63 6C 69 C5 65 6F 72 2E 79 43 70 68  |5.zCcli.eor.yCph|
 B305  79 C5 65 6F 72 2E 78 C5 6C 73 72 2E 78 C4 62 62  |y.eor.x.lsr.x.bb|
 B315  72 35 43 72 74 73 87 61 64 63 2E 7A 78 69 85 73  |r5Crts.adc.zxi.s|
 B325  74 7A 2E 7A 85 61 64 63 2E 7A 85 72 6F 72 2E 7A  |tz.z.adc.z.ror.z|
 B335  86 72 6D 62 36 2E 7A 43 70 6C 61 85 61 64 63 2E  |.rmb6.zCpla.adc.|
 B345  23 45 72 6F 72 2E 61 C5 6A 6D 70 2E 69 C3 61 64  |#Eror.a.jmp.i.ad|
 B355  63 C3 72 6F 72 C4 62 62 72 36 83 62 76 73 87 61  |c.ror.bbr6.bvs.a|
 B365  64 63 2E 7A 69 79 86 61 64 63 2E 7A 69 86 73 74  |dc.ziy.adc.zi.st|
 B375  7A 2E 7A 78 86 61 64 63 2E 7A 78 86 72 6F 72 2E  |z.zx.adc.zx.ror.|
 B385  7A 78 86 72 6D 62 37 2E 7A 43 73 65 69 C5 61 64  |zx.rmb7.zCsei.ad|
 B395  63 2E 79 43 70 6C 79 C6 6A 6D 70 2E 78 69 C5 61  |c.yCply.jmp.xi.a|
 B3A5  64 63 2E 78 C5 72 6F 72 2E 78 C4 62 62 72 37 83  |dc.x.ror.x.bbr7.|
 B3B5  62 72 61 87 73 74 61 2E 7A 78 69 85 73 74 79 2E  |bra.sta.zxi.sty.|
 B3C5  7A 85 73 74 61 2E 7A 85 73 74 78 2E 7A 43 64 65  |z.sta.z.stx.zCde|
 B3D5  79 85 62 69 74 2E 23 43 74 78 61 C3 73 74 79 C3  |y.bit.#Ctxa.sty.|
 B3E5  73 74 61 C3 73 74 78 C4 62 62 73 30 83 62 63 63  |sta.stx.bbs0.bcc|
 B3F5  87 73 74 61 2E 7A 69 79 86 73 74 61 2E 7A 69 86  |.sta.ziy.sta.zi.|
 B405  73 74 79 2E 7A 78 86 73 74 61 2E 7A 78 86 73 74  |sty.zx.sta.zx.st|
 B415  78 2E 7A 79 86 73 6D 62 31 2E 7A 43 74 79 61 C5  |x.zy.smb1.zCtya.|
 B425  73 74 61 2E 79 43 74 78 73 C3 73 74 7A C5 73 74  |sta.yCtxs.stz.st|
 B435  61 2E 78 C5 73 74 7A 2E 78 C4 62 62 73 31 85 6C  |a.x.stz.x.bbs1.l|
 B445  64 79 2E 23 87 6C 64 61 2E 7A 78 69 85 6C 64 78  |dy.#.lda.zxi.ldx|
 B455  2E 23 85 6C 64 79 2E 7A 85 6C 64 61 2E 7A 85 6C  |.#.ldy.z.lda.z.l|
 B465  64 78 2E 7A 86 73 6D 62 32 2E 7A 43 74 61 79 85  |dx.z.smb2.zCtay.|
 B475  6C 64 61 2E 23 43 74 61 78 C3 6C 64 79 C3 6C 64  |lda.#Ctax.ldy.ld|
 B485  61 C3 6C 64 78 C4 62 62 73 32 83 62 63 73 87 6C  |a.ldx.bbs2.bcs.l|
 B495  64 61 2E 7A 69 79 86 6C 64 61 2E 7A 69 86 6C 64  |da.ziy.lda.zi.ld|
 B4A5  79 2E 7A 78 86 6C 64 61 2E 7A 78 86 6C 64 78 2E  |y.zx.lda.zx.ldx.|
 B4B5  7A 79 86 73 6D 62 33 2E 7A 43 63 6C 76 C5 6C 64  |zy.smb3.zCclv.ld|
 B4C5  61 2E 79 43 74 73 78 C5 6C 64 79 2E 78 C5 6C 64  |a.yCtsx.ldy.x.ld|
 B4D5  61 2E 78 C5 6C 64 78 2E 79 C4 62 62 73 34 85 63  |a.x.ldx.y.bbs4.c|
 B4E5  70 79 2E 23 87 63 6D 70 2E 7A 78 69 85 63 70 79  |py.#.cmp.zxi.cpy|
 B4F5  2E 7A 85 63 6D 70 2E 7A 85 64 65 63 2E 7A 86 73  |.z.cmp.z.dec.z.s|
 B505  6D 62 34 2E 7A 43 69 6E 79 85 63 6D 70 2E 23 43  |mb4.zCiny.cmp.#C|
 B515  64 65 78 C3 63 70 79 C3 63 6D 70 C3 64 65 63 C4  |dex.cpy.cmp.dec.|
 B525  62 62 73 34 83 62 6E 65 87 63 6D 70 2E 7A 69 79  |bbs4.bne.cmp.ziy|
 B535  86 63 6D 70 2E 7A 69 86 63 6D 70 2E 7A 78 86 64  |.cmp.zi.cmp.zx.d|
 B545  65 63 2E 7A 78 86 73 6D 62 35 2E 7A 43 63 6C 64  |ec.zx.smb5.zCcld|
 B555  C5 63 6D 70 2E 79 43 70 68 78 C5 63 6D 70 2E 78  |.cmp.yCphx.cmp.x|
 B565  C5 64 65 63 2E 78 C4 62 62 73 35 85 63 70 78 2E  |.dec.x.bbs5.cpx.|
 B575  23 87 73 62 63 2E 7A 78 69 85 63 70 78 2E 7A 85  |#.sbc.zxi.cpx.z.|
 B585  73 62 63 2E 7A 85 69 6E 63 2E 7A 86 73 6D 62 36  |sbc.z.inc.z.smb6|
 B595  2E 7A 43 69 6E 78 85 73 62 63 2E 23 43 6E 6F 70  |.zCinx.sbc.#Cnop|
 B5A5  C3 63 70 78 C3 73 62 63 C3 69 6E 63 C4 62 62 73  |.cpx.sbc.inc.bbs|
 B5B5  36 83 62 65 71 87 73 62 63 2E 7A 69 79 86 73 62  |6.beq.sbc.ziy.sb|
 B5C5  63 2E 7A 69 86 73 62 63 2E 7A 78 86 69 6E 63 2E  |c.zi.sbc.zx.inc.|
 B5D5  7A 78 86 73 6D 62 37 2E 7A 43 73 65 64 C5 73 62  |zx.smb7.zCsed.sb|
 B5E5  63 2E 79 43 70 6C 78 C5 73 62 63 2E 78 C5 69 6E  |c.yCplx.sbc.x.in|
 B5F5  63 2E 78 C4 62 62 73 37 01 3F                    |c.x.bbs7.?      |
 B5FF  64 2A     STZ  $2A
 B601  64 2B     STZ  $2B
 B603  64 2C     STZ  $2C
 B605  64 2D     STZ  $2D
 B607  64 2E     STZ  $2E
 B609  20 5F A9  JSR  $A95F
 B60C  20 5F A9  JSR  $A95F
 B60F  20 7A 8A  JSR  $8A7A
 B612  A9 81     LDA  #$81
 B614  14 2E     TRB  $2E
 B616  20 10 BB  JSR  $BB10
 B619  A5 0A     LDA  $0A
 B61B  D0 1F     BNE  $B63C
 B61D  CA        DEX  
 B61E  CA        DEX  
 B61F  A5 2C     LDA  $2C
 B621  95 00     STA  $00, X
 B623  A5 2D     LDA  $2D
 B625  95 01     STA  $01, X
 B627  A9 80     LDA  #$80
 B629  04 2E     TSB  $2E
 B62B  20 FC 98  JSR  $98FC
 B62E  20 2C BB  JSR  $BB2C
 B631  B0 03     BCS  $B636
 B633  4C 00 BB  JMP  $BB00
 B636  20 5F A9  JSR  $A95F
 B639  4C 07 B7  JMP  $B707
 B63C  20 5F A9  JSR  $A95F
 B63F  20 5F A9  JSR  $A95F
 B642  B2 08     LDA  ($08)
 B644  C9 2E     CMP  #$2E
 B646  D0 3A     BNE  $B682
 B648  20 21 BB  JSR  $BB21
 B64B  A5 2C     LDA  $2C
 B64D  95 02     STA  $02, X
 B64F  A5 2D     LDA  $2D
 B651  95 03     STA  $03, X
 B653  A9 80     LDA  #$80
 B655  04 2E     TSB  $2E
 B657  A5 0A     LDA  $0A
 B659  3A        DEC  
 B65A  D0 03     BNE  $B65F
 B65C  4C 07 B7  JMP  $B707
 B65F  CA        DEX  
 B660  CA        DEX  
 B661  CA        DEX  
 B662  CA        DEX  
 B663  A5 08     LDA  $08
 B665  95 02     STA  $02, X
 B667  A5 09     LDA  $09
 B669  95 03     STA  $03, X
 B66B  A5 0A     LDA  $0A
 B66D  95 00     STA  $00, X
 B66F  A5 0B     LDA  $0B
 B671  95 01     STA  $01, X
 B673  20 EC 98  JSR  $98EC
 B676  20 E7 A2  JSR  $A2E7
 B679  20 FC 98  JSR  $98FC
 B67C  20 E7 A2  JSR  $A2E7
 B67F  4C 5F B7  JMP  $B75F
 B682  B2 08     LDA  ($08)
 B684  C9 24     CMP  #$24
 B686  D0 1C     BNE  $B6A4
 B688  20 21 BB  JSR  $BB21
 B68B  E8        INX  
 B68C  E8        INX  
 B68D  20 4E BB  JSR  $BB4E
 B690  20 E7 A2  JSR  $A2E7
 B693  A9 80     LDA  #$80
 B695  04 2E     TSB  $2E
 B697  A5 0A     LDA  $0A
 B699  3A        DEC  
 B69A  D0 03     BNE  $B69F
 B69C  4C 07 B7  JMP  $B707
 B69F  A0 01     LDY  #$01
 B6A1  4C DB B7  JMP  $B7DB
 B6A4  B2 08     LDA  ($08)
 B6A6  C9 25     CMP  #$25
 B6A8  F0 04     BEQ  $B6AE
 B6AA  C9 2C     CMP  #$2C
 B6AC  D0 17     BNE  $B6C5
 B6AE  20 21 BB  JSR  $BB21
 B6B1  A9 01     LDA  #$01
 B6B3  95 02     STA  $02, X
 B6B5  74 03     STZ  $03, X
 B6B7  E8        INX  
 B6B8  E8        INX  
 B6B9  20 4E BB  JSR  $BB4E
 B6BC  A9 80     LDA  #$80
 B6BE  04 2E     TSB  $2E
 B6C0  A0 01     LDY  #$01
 B6C2  4C DB B7  JMP  $B7DB
 B6C5  B2 08     LDA  ($08)
 B6C7  C9 3B     CMP  #$3B
 B6C9  D0 0D     BNE  $B6D8
 B6CB  20 21 BB  JSR  $BB21
 B6CE  A5 2C     LDA  $2C
 B6D0  95 02     STA  $02, X
 B6D2  A5 2D     LDA  $2D
 B6D4  95 03     STA  $03, X
 B6D6  80 DF     BRA  $B6B7
 B6D8  20 5F A9  JSR  $A95F
 B6DB  20 5F A9  JSR  $A95F
 B6DE  CA        DEX  
 B6DF  CA        DEX  
 B6E0  CA        DEX  
 B6E1  CA        DEX  
 B6E2  A5 08     LDA  $08
 B6E4  95 02     STA  $02, X
 B6E6  A5 09     LDA  $09
 B6E8  95 03     STA  $03, X
 B6EA  A5 0A     LDA  $0A
 B6EC  95 00     STA  $00, X
 B6EE  A5 0B     LDA  $0B
 B6F0  95 01     STA  $01, X
 B6F2  20 06 A4  JSR  $A406
 B6F5  B5 00     LDA  $00, X
 B6F7  15 01     ORA  $01, X
 B6F9  D0 24     BNE  $B71F
 B6FB  E8        INX  
 B6FC  E8        INX  
 B6FD  E8        INX  
 B6FE  E8        INX  
 B6FF  20 6D 8B  JSR  $8B6D
 B702  20 9F 97  JSR  $979F
 B705  E8        INX  
 B706  E8        INX  
 B707  20 E7 A2  JSR  $A2E7
 B70A  20 2C BB  JSR  $BB2C
 B70D  B0 03     BCS  $B712
 B70F  4C FE BA  JMP  $BAFE
 B712  20 E7 A2  JSR  $A2E7
 B715  20 BB BB  JSR  $BBBB
 B718  A9 80     LDA  #$80
 B71A  04 2E     TSB  $2E
 B71C  4C E9 B9  JMP  $B9E9
 B71F  20 C8 8E  JSR  $8EC8
 B722  CA        DEX  
 B723  CA        DEX  
 B724  A5 0A     LDA  $0A
 B726  95 00     STA  $00, X
 B728  A5 0B     LDA  $0B
 B72A  95 01     STA  $01, X
 B72C  20 E8 8F  JSR  $8FE8
 B72F  B5 00     LDA  $00, X
 B731  15 01     ORA  $01, X
 B733  F0 0E     BEQ  $B743
 B735  8A        TXA  
 B736  18        CLC  
 B737  69 0A     ADC  #$0A
 B739  AA        TAX  
 B73A  A9 80     LDA  #$80
 B73C  14 2E     TRB  $2E
 B73E  A0 00     LDY  #$00
 B740  4C DB B7  JMP  $B7DB
 B743  E8        INX  
 B744  E8        INX  
 B745  20 BD A4  JSR  $A4BD
 B748  20 9F 97  JSR  $979F
 B74B  20 6D 8B  JSR  $8B6D
 B74E  B5 00     LDA  $00, X
 B750  95 06     STA  $06, X
 B752  B5 01     LDA  $01, X
 B754  95 07     STA  $07, X
 B756  E8        INX  
 B757  E8        INX  
 B758  20 4A 9B  JSR  $9B4A
 B75B  A9 80     LDA  #$80
 B75D  04 2E     TSB  $2E
 B75F  A1 02     LDA  ($02, X)
 B761  C9 2C     CMP  #$2C
 B763  F0 0D     BEQ  $B772
 B765  38        SEC  
 B766  A5 0A     LDA  $0A
 B768  F5 00     SBC  $00, X
 B76A  A8        TAY  
 B76B  E8        INX  
 B76C  E8        INX  
 B76D  E8        INX  
 B76E  E8        INX  
 B76F  4C DB B7  JMP  $B7DB
 B772  F6 02     INC  $02, X
 B774  D0 02     BNE  $B778
 B776  F6 03     INC  $03, X
 B778  B5 01     LDA  $01, X
 B77A  F0 02     BEQ  $B77E
 B77C  D6 01     DEC  $01, X
 B77E  D6 00     DEC  $00, X
 B780  A1 02     LDA  ($02, X)
 B782  C9 24     CMP  #$24
 B784  D0 14     BNE  $B79A
 B786  38        SEC  
 B787  A5 0A     LDA  $0A
 B789  F5 02     SBC  $02, X
 B78B  A8        TAY  
 B78C  C8        INY  
 B78D  5A        PHY  
 B78E  8A        TXA  
 B78F  18        CLC  
 B790  69 06     ADC  #$06
 B792  AA        TAX  
 B793  20 4E BB  JSR  $BB4E
 B796  7A        PLY  
 B797  4C DB B7  JMP  $B7DB
 B79A  20 BD A4  JSR  $A4BD
 B79D  20 5F A9  JSR  $A95F
 B7A0  20 5F A9  JSR  $A95F
 B7A3  20 F7 9B  JSR  $9BF7
 B7A6  20 4A 9B  JSR  $9B4A
 B7A9  20 C8 8E  JSR  $8EC8
 B7AC  20 BD A4  JSR  $A4BD
 B7AF  20 06 A4  JSR  $A406
 B7B2  20 C8 8E  JSR  $8EC8
 B7B5  20 4A 9B  JSR  $9B4A
 B7B8  20 E8 8F  JSR  $8FE8
 B7BB  B5 00     LDA  $00, X
 B7BD  15 01     ORA  $01, X
 B7BF  F0 08     BEQ  $B7C9
 B7C1  8A        TXA  
 B7C2  18        CLC  
 B7C3  69 0C     ADC  #$0C
 B7C5  AA        TAX  
 B7C6  4C 02 BB  JMP  $BB02
 B7C9  E8        INX  
 B7CA  E8        INX  
 B7CB  38        SEC  
 B7CC  A5 0A     LDA  $0A
 B7CE  F5 00     SBC  $00, X
 B7D0  48        PHA  
 B7D1  20 05 A5  JSR  $A505
 B7D4  20 6D 8B  JSR  $8B6D
 B7D7  20 6B 97  JSR  $976B
 B7DA  7A        PLY  
 B7DB  80 35     BRA  $B812
 B7DD  5A        PHY  
 B7DE  A9 28     LDA  #$28
 B7E0  20 08 8F  JSR  $8F08
 B7E3  20 E7 A2  JSR  $A2E7
 B7E6  20 C8 8E  JSR  $8EC8
 B7E9  20 B3 A6  JSR  $A6B3
 B7EC  20 E7 A2  JSR  $A2E7
 B7EF  20 C8 8E  JSR  $8EC8
 B7F2  20 B3 A6  JSR  $A6B3
 B7F5  A9 79     LDA  #$79
 B7F7  20 08 8F  JSR  $8F08
 B7FA  68        PLA  
 B7FB  48        PHA  
 B7FC  20 C7 D7  JSR  $D7C7
 B7FF  20 5C A2  JSR  $A25C
 B802  A9 63     LDA  #$63
 B804  20 08 8F  JSR  $8F08
 B807  A5 2C     LDA  $2C
 B809  20 C7 D7  JSR  $D7C7
 B80C  A9 29     LDA  #$29
 B80E  20 08 8F  JSR  $8F08
 B811  7A        PLY  
 B812  B1 08     LDA  ($08), Y
 B814  85 20     STA  $20
 B816  DA        PHX  
 B817  A2 00     LDX  #$00
 B819  BD E6 BB  LDA  $BBE6, X
 B81C  F0 07     BEQ  $B825
 B81E  C5 20     CMP  $20
 B820  F0 07     BEQ  $B829
 B822  E8        INX  
 B823  80 F4     BRA  $B819
 B825  FA        PLX  
 B826  4C FE BA  JMP  $BAFE
 B829  8A        TXA  
 B82A  0A        ASL  
 B82B  AA        TAX  
 B82C  7C F2 BB  JMP  ($BBF2, X)
 B82F  E8        INX  
 B830  E8        INX  
 B831  E8        INX  
 B832  E8        INX  
 B833  4C 12 B6  JMP  $B612
 B836  64 0A     STZ  $0A
 B838  64 0B     STZ  $0B
 B83A  20 05 A5  JSR  $A505
 B83D  60        RTS  
 B83E  FA        PLX  
 B83F  E8        INX  
 B840  E8        INX  
 B841  24 2E     BIT  $2E
 B843  30 08     BMI  $B84D
 B845  A5 2C     LDA  $2C
 B847  95 00     STA  $00, X
 B849  A5 2D     LDA  $2D
 B84B  95 01     STA  $01, X
 B84D  20 84 BB  JSR  $BB84
 B850  20 7A 8A  JSR  $8A7A
 B853  20 10 BB  JSR  $BB10
 B856  B2 08     LDA  ($08)
 B858  C9 2E     CMP  #$2E
 B85A  D0 16     BNE  $B872
 B85C  A4 0A     LDY  $0A
 B85E  C0 01     CPY  #$01
 B860  D0 10     BNE  $B872
 B862  A4 0B     LDY  $0B
 B864  D0 0C     BNE  $B872
 B866  E8        INX  
 B867  E8        INX  
 B868  A9 40     LDA  #$40
 B86A  04 2E     TSB  $2E
 B86C  20 7A 8A  JSR  $8A7A
 B86F  4C 12 B6  JMP  $B612
 B872  20 C8 8E  JSR  $8EC8
 B875  20 BA 92  JSR  $92BA
 B878  20 E7 A2  JSR  $A2E7
 B87B  20 1F 91  JSR  $911F
 B87E  20 71 88  JSR  $8871
 B881  20 DE A4  JSR  $A4DE
 B884  20 E7 A2  JSR  $A2E7
 B887  20 CD A2  JSR  $A2CD
 B88A  20 BA 92  JSR  $92BA
 B88D  A5 00     LDA  $00
 B88F  18        CLC  
 B890  69 04     ADC  #$04
 B892  85 00     STA  $00
 B894  90 02     BCC  $B898
 B896  E6 01     INC  $01
 B898  E6 2C     INC  $2C
 B89A  D0 02     BNE  $B89E
 B89C  E6 2D     INC  $2D
 B89E  20 BA 92  JSR  $92BA
 B8A1  20 C8 8E  JSR  $8EC8
 B8A4  CA        DEX  
 B8A5  CA        DEX  
 B8A6  A5 08     LDA  $08
 B8A8  95 00     STA  $00, X
 B8AA  A5 09     LDA  $09
 B8AC  95 01     STA  $01, X
 B8AE  20 E7 A2  JSR  $A2E7
 B8B1  CA        DEX  
 B8B2  CA        DEX  
 B8B3  A5 0A     LDA  $0A
 B8B5  95 00     STA  $00, X
 B8B7  A5 0B     LDA  $0B
 B8B9  95 01     STA  $01, X
 B8BB  20 DF 96  JSR  $96DF
 B8BE  18        CLC  
 B8BF  A5 00     LDA  $00
 B8C1  65 0A     ADC  $0A
 B8C3  85 00     STA  $00
 B8C5  90 06     BCC  $B8CD
 B8C7  A5 01     LDA  $01
 B8C9  65 0B     ADC  $0B
 B8CB  85 01     STA  $01
 B8CD  20 37 99  JSR  $9937
 B8D0  20 CD A2  JSR  $A2CD
 B8D3  20 FC 98  JSR  $98FC
 B8D6  20 FC 98  JSR  $98FC
 B8D9  20 C8 8E  JSR  $8EC8
 B8DC  A5 0A     LDA  $0A
 B8DE  95 02     STA  $02, X
 B8E0  A5 0B     LDA  $0B
 B8E2  95 03     STA  $03, X
 B8E4  20 CD A2  JSR  $A2CD
 B8E7  20 7A 8A  JSR  $8A7A
 B8EA  4C 53 B8  JMP  $B853
 B8ED  FA        PLX  
 B8EE  20 21 BB  JSR  $BB21
 B8F1  20 76 BB  JSR  $BB76
 B8F4  B5 00     LDA  $00, X
 B8F6  15 01     ORA  $01, X
 B8F8  D0 08     BNE  $B902
 B8FA  20 37 99  JSR  $9937
 B8FD  20 3F B9  JSR  $B93F
 B900  80 33     BRA  $B935
 B902  20 2C BB  JSR  $BB2C
 B905  B0 03     BCS  $B90A
 B907  4C FE BA  JMP  $BAFE
 B90A  20 11 A5  JSR  $A511
 B90D  20 A1 92  JSR  $92A1
 B910  B5 00     LDA  $00, X
 B912  15 01     ORA  $01, X
 B914  D0 0D     BNE  $B923
 B916  E8        INX  
 B917  E8        INX  
 B918  20 C8 8E  JSR  $8EC8
 B91B  20 3F B9  JSR  $B93F
 B91E  20 EC 98  JSR  $98EC
 B921  80 E7     BRA  $B90A
 B923  E8        INX  
 B924  E8        INX  
 B925  B5 02     LDA  $02, X
 B927  D0 02     BNE  $B92B
 B929  D6 03     DEC  $03, X
 B92B  D6 02     DEC  $02, X
 B92D  B5 02     LDA  $02, X
 B92F  85 2C     STA  $2C
 B931  B5 03     LDA  $03, X
 B933  85 2D     STA  $2D
 B935  A9 40     LDA  #$40
 B937  04 2E     TSB  $2E
 B939  20 7A 8A  JSR  $8A7A
 B93C  4C 2F B8  JMP  $B82F
 B93F  20 C8 8E  JSR  $8EC8
 B942  20 84 BB  JSR  $BB84
 B945  20 1F 91  JSR  $911F
 B948  20 E7 A2  JSR  $A2E7
 B94B  20 EC 98  JSR  $98EC
 B94E  20 84 BB  JSR  $BB84
 B951  20 CD A2  JSR  $A2CD
 B954  60        RTS  
 B955  FA        PLX  
 B956  20 76 BB  JSR  $BB76
 B959  A9 65     LDA  #$65
 B95B  20 08 8F  JSR  $8F08
 B95E  A9 40     LDA  #$40
 B960  04 2E     TSB  $2E
 B962  4C 2F B8  JMP  $B82F
 B965  FA        PLX  
 B966  20 21 BB  JSR  $BB21
 B969  20 76 BB  JSR  $BB76
 B96C  24 2E     BIT  $2E
 B96E  30 0C     BMI  $B97C
 B970  CA        DEX  
 B971  CA        DEX  
 B972  A5 2C     LDA  $2C
 B974  95 00     STA  $00, X
 B976  A5 2D     LDA  $2D
 B978  95 01     STA  $01, X
 B97A  80 0E     BRA  $B98A
 B97C  B5 00     LDA  $00, X
 B97E  15 01     ORA  $01, X
 B980  D0 05     BNE  $B987
 B982  20 37 99  JSR  $9937
 B985  80 03     BRA  $B98A
 B987  20 C8 8E  JSR  $8EC8
 B98A  20 B3 A6  JSR  $A6B3
 B98D  20 7A 8A  JSR  $8A7A
 B990  4C 2F B8  JMP  $B82F
 B993  FA        PLX  
 B994  24 2E     BIT  $2E
 B996  30 17     BMI  $B9AF
 B998  20 7A 8A  JSR  $8A7A
 B99B  20 BD A4  JSR  $A4BD
 B99E  20 F7 9B  JSR  $9BF7
 B9A1  20 C8 8E  JSR  $8EC8
 B9A4  20 B3 A6  JSR  $A6B3
 B9A7  20 9F 97  JSR  $979F
 B9AA  20 4A 9B  JSR  $9B4A
 B9AD  80 11     BRA  $B9C0
 B9AF  20 37 99  JSR  $9937
 B9B2  20 7A 8A  JSR  $8A7A
 B9B5  20 B3 A6  JSR  $A6B3
 B9B8  B5 02     LDA  $02, X
 B9BA  95 06     STA  $06, X
 B9BC  B5 03     LDA  $03, X
 B9BE  95 07     STA  $07, X
 B9C0  20 7A 8A  JSR  $8A7A
 B9C3  4C 2F B8  JMP  $B82F
 B9C6  FA        PLX  
 B9C7  20 E7 A2  JSR  $A2E7
 B9CA  20 2C BB  JSR  $BB2C
 B9CD  B0 03     BCS  $B9D2
 B9CF  4C FE BA  JMP  $BAFE
 B9D2  20 EC 98  JSR  $98EC
 B9D5  20 5F A9  JSR  $A95F
 B9D8  20 3A 96  JSR  $963A
 B9DB  20 E7 A2  JSR  $A2E7
 B9DE  4C 3F B8  JMP  $B83F
 B9E1  FA        PLX  
 B9E2  A9 01     LDA  #$01
 B9E4  04 2E     TSB  $2E
 B9E6  80 05     BRA  $B9ED
 B9E8  FA        PLX  
 B9E9  A9 01     LDA  #$01
 B9EB  14 2E     TRB  $2E
 B9ED  20 21 BB  JSR  $BB21
 B9F0  20 76 BB  JSR  $BB76
 B9F3  20 7A 8A  JSR  $8A7A
 B9F6  B5 00     LDA  $00, X
 B9F8  15 01     ORA  $01, X
 B9FA  D0 08     BNE  $BA04
 B9FC  20 37 99  JSR  $9937
 B9FF  20 25 BA  JSR  $BA25
 BA02  80 1E     BRA  $BA22
 BA04  20 11 A5  JSR  $A511
 BA07  20 A1 92  JSR  $92A1
 BA0A  B5 00     LDA  $00, X
 BA0C  15 01     ORA  $01, X
 BA0E  D0 10     BNE  $BA20
 BA10  E8        INX  
 BA11  E8        INX  
 BA12  20 37 99  JSR  $9937
 BA15  20 25 BA  JSR  $BA25
 BA18  F6 02     INC  $02, X
 BA1A  D0 02     BNE  $BA1E
 BA1C  F6 03     INC  $03, X
 BA1E  80 E4     BRA  $BA04
 BA20  E8        INX  
 BA21  E8        INX  
 BA22  4C 2F B8  JMP  $B82F
 BA25  A5 2E     LDA  $2E
 BA27  4A        LSR  
 BA28  90 0B     BCC  $BA35
 BA2A  20 C8 8E  JSR  $8EC8
 BA2D  20 B3 A6  JSR  $A6B3
 BA30  A9 09     LDA  #$09
 BA32  20 08 8F  JSR  $8F08
 BA35  20 84 BB  JSR  $BB84
 BA38  20 C4 BB  JSR  $BBC4
 BA3B  60        RTS  
 BA3C  FA        PLX  
 BA3D  24 2E     BIT  $2E
 BA3F  50 03     BVC  $BA44
 BA41  4C FE BA  JMP  $BAFE
 BA44  4C 36 B8  JMP  $B836
 BA47  FA        PLX  
 BA48  4C 36 B8  JMP  $B836
 BA4B  FA        PLX  
 BA4C  20 21 BB  JSR  $BB21
 BA4F  24 2E     BIT  $2E
 BA51  30 13     BMI  $BA66
 BA53  B5 06     LDA  $06, X
 BA55  15 07     ORA  $07, X
 BA57  D0 03     BNE  $BA5C
 BA59  4C FE BA  JMP  $BAFE
 BA5C  B5 06     LDA  $06, X
 BA5E  95 02     STA  $02, X
 BA60  B5 07     LDA  $07, X
 BA62  95 03     STA  $03, X
 BA64  80 08     BRA  $BA6E
 BA66  B5 02     LDA  $02, X
 BA68  95 06     STA  $06, X
 BA6A  B5 03     LDA  $03, X
 BA6C  95 07     STA  $07, X
 BA6E  A9 2A     LDA  #$2A
 BA70  95 00     STA  $00, X
 BA72  A9 00     LDA  #$00
 BA74  95 01     STA  $01, X
 BA76  20 37 99  JSR  $9937
 BA79  20 BD A4  JSR  $A4BD
 BA7C  20 1F 91  JSR  $911F
 BA7F  B5 00     LDA  $00, X
 BA81  15 01     ORA  $01, X
 BA83  F0 55     BEQ  $BADA
 BA85  20 11 A5  JSR  $A511
 BA88  20 17 A6  JSR  $A617
 BA8B  20 FC 98  JSR  $98FC
 BA8E  20 FC 98  JSR  $98FC
 BA91  20 C8 8E  JSR  $8EC8
 BA94  20 1F 91  JSR  $911F
 BA97  20 E7 A2  JSR  $A2E7
 BA9A  20 FC 98  JSR  $98FC
 BA9D  20 FC 98  JSR  $98FC
 BAA0  20 1F 91  JSR  $911F
 BAA3  20 9F 97  JSR  $979F
 BAA6  20 E7 A2  JSR  $A2E7
 BAA9  20 F7 9B  JSR  $9BF7
 BAAC  20 C8 8E  JSR  $8EC8
 BAAF  20 BD A4  JSR  $A4BD
 BAB2  20 DF 96  JSR  $96DF
 BAB5  20 4A 9B  JSR  $9B4A
 BAB8  20 8D A5  JSR  $A58D
 BABB  20 9F 97  JSR  $979F
 BABE  20 8F 9A  JSR  $9A8F
 BAC1  20 C8 8E  JSR  $8EC8
 BAC4  CA        DEX  
 BAC5  CA        DEX  
 BAC6  A9 0A     LDA  #$0A
 BAC8  95 00     STA  $00, X
 BACA  74 01     STZ  $01, X
 BACC  20 E7 A2  JSR  $A2E7
 BACF  20 CD A2  JSR  $A2CD
 BAD2  20 FC 98  JSR  $98FC
 BAD5  20 E7 A2  JSR  $A2E7
 BAD8  80 A2     BRA  $BA7C
 BADA  20 E7 A2  JSR  $A2E7
 BADD  20 4A 9B  JSR  $9B4A
 BAE0  20 7A 96  JSR  $967A
 BAE3  B5 00     LDA  $00, X
 BAE5  95 04     STA  $04, X
 BAE7  B5 01     LDA  $01, X
 BAE9  95 05     STA  $05, X
 BAEB  20 7A 8A  JSR  $8A7A
 BAEE  20 C8 8E  JSR  $8EC8
 BAF1  20 B3 A6  JSR  $A6B3
 BAF4  20 7A 8A  JSR  $8A7A
 BAF7  A9 40     LDA  #$40
 BAF9  14 2E     TRB  $2E
 BAFB  4C 2F B8  JMP  $B82F
 BAFE  E8        INX  
 BAFF  E8        INX  
 BB00  E8        INX  
 BB01  E8        INX  
 BB02  20 7A 8A  JSR  $8A7A
 BB05  A9 3F     LDA  #$3F
 BB07  20 08 8F  JSR  $8F08
 BB0A  20 7A 8A  JSR  $8A7A
 BB0D  4C 12 B6  JMP  $B612
 BB10  20 98 9B  JSR  $9B98
 BB13  B5 00     LDA  $00, X
 BB15  15 01     ORA  $01, X
 BB17  D0 05     BNE  $BB1E
 BB19  7A        PLY  
 BB1A  7A        PLY  
 BB1B  4C 00 BB  JMP  $BB00
 BB1E  E8        INX  
 BB1F  E8        INX  
 BB20  60        RTS  
 BB21  A5 2A     LDA  $2A
 BB23  05 2B     ORA  $2B
 BB25  D0 04     BNE  $BB2B
 BB27  7A        PLY  
 BB28  7A        PLY  
 BB29  80 D7     BRA  $BB02
 BB2B  60        RTS  
 BB2C  38        SEC  
 BB2D  B5 00     LDA  $00, X
 BB2F  15 01     ORA  $01, X
 BB31  F0 19     BEQ  $BB4C
 BB33  20 C8 8E  JSR  $8EC8
 BB36  20 4E BB  JSR  $BB4E
 BB39  20 E7 A2  JSR  $A2E7
 BB3C  20 72 94  JSR  $9472
 BB3F  B5 00     LDA  $00, X
 BB41  15 01     ORA  $01, X
 BB43  D0 05     BNE  $BB4A
 BB45  E8        INX  
 BB46  E8        INX  
 BB47  38        SEC  
 BB48  80 03     BRA  $BB4D
 BB4A  E8        INX  
 BB4B  E8        INX  
 BB4C  18        CLC  
 BB4D  60        RTS  
 BB4E  64 20     STZ  $20
 BB50  64 21     STZ  $21
 BB52  CA        DEX  
 BB53  CA        DEX  
 BB54  A9 2A     LDA  #$2A
 BB56  95 00     STA  $00, X
 BB58  A9 00     LDA  #$00
 BB5A  95 01     STA  $01, X
 BB5C  20 1F 91  JSR  $911F
 BB5F  B5 00     LDA  $00, X
 BB61  15 01     ORA  $01, X
 BB63  F0 08     BEQ  $BB6D
 BB65  E6 20     INC  $20
 BB67  D0 02     BNE  $BB6B
 BB69  E6 21     INC  $21
 BB6B  80 EF     BRA  $BB5C
 BB6D  A5 20     LDA  $20
 BB6F  95 00     STA  $00, X
 BB71  A5 21     LDA  $21
 BB73  95 01     STA  $01, X
 BB75  60        RTS  
 BB76  B5 02     LDA  $02, X
 BB78  15 03     ORA  $03, X
 BB7A  D0 07     BNE  $BB83
 BB7C  24 2E     BIT  $2E
 BB7E  10 03     BPL  $BB83
 BB80  4C FE BA  JMP  $BAFE
 BB83  60        RTS  
 BB84  CA        DEX  
 BB85  CA        DEX  
 BB86  A9 2A     LDA  #$2A
 BB88  95 00     STA  $00, X
 BB8A  A9 00     LDA  #$00
 BB8C  95 01     STA  $01, X
 BB8E  B5 02     LDA  $02, X
 BB90  15 03     ORA  $03, X
 BB92  D0 05     BNE  $BB99
 BB94  20 6B 97  JSR  $976B
 BB97  80 21     BRA  $BBBA
 BB99  20 1F 91  JSR  $911F
 BB9C  B5 00     LDA  $00, X
 BB9E  15 01     ORA  $01, X
 BBA0  D0 05     BNE  $BBA7
 BBA2  20 6B 97  JSR  $976B
 BBA5  80 13     BRA  $BBBA
 BBA7  20 E7 A2  JSR  $A2E7
 BBAA  20 EC 98  JSR  $98EC
 BBAD  B5 00     LDA  $00, X
 BBAF  15 01     ORA  $01, X
 BBB1  F0 05     BEQ  $BBB8
 BBB3  20 E7 A2  JSR  $A2E7
 BBB6  80 E1     BRA  $BB99
 BBB8  E8        INX  
 BBB9  E8        INX  
 BBBA  60        RTS  
 BBBB  B5 02     LDA  $02, X
 BBBD  85 2C     STA  $2C
 BBBF  B5 03     LDA  $03, X
 BBC1  85 2D     STA  $2D
 BBC3  60        RTS  
 BBC4  20 FC 98  JSR  $98FC
 BBC7  20 FC 98  JSR  $98FC
 BBCA  20 C8 8E  JSR  $8EC8
 BBCD  20 FC 98  JSR  $98FC
 BBD0  20 FC 98  JSR  $98FC
 BBD3  20 1F 91  JSR  $911F
 BBD6  20 E7 A2  JSR  $A2E7
 BBD9  20 1F 91  JSR  $911F
 BBDC  20 E7 A2  JSR  $A2E7
 BBDF  20 84 A6  JSR  $A684
 BBE2  20 7A 8A  JSR  $8A7A
 BBE5  60        RTS  
 BBE6  61 65 66 69 64 70 6E 3D 77 71 51 00 3E B8 55 B9  |aefidpn=wqQ.>.U.|
 BBF6  93 B9 C6 B9 ED B8 E8 B9 E1 B9 65 B9 4B BA 3C BA  |..........e.K.<.|
 BC06  47 BA 20 3A 20 2E 77 69 64 20 64 75 70 20 30 3D  |G. : .wid dup 0=|
 BC16  20 69 66 20 2E 22 20 46 4F 52 54 48 20 22 20 64  | if ." FORTH " d|
 BC26  72 6F 70 20 65 6C 73 65 20 64 75 70 20 31 20 3D  |rop else dup 1 =|
 BC36  20 69 66 20 2E 22 20 45 44 49 54 4F 52 20 22 20  | if ." EDITOR " |
 BC46  64 72 6F 70 20 65 6C 73 65 20 64 75 70 20 32 20  |drop else dup 2 |
 BC56  3D 20 69 66 20 2E 22 20 41 53 53 45 4D 42 4C 45  |= if ." ASSEMBLE|
 BC66  52 20 22 20 64 72 6F 70 20 65 6C 73 65 20 64 75  |R " drop else du|
 BC76  70 20 33 20 3D 20 69 66 20 2E 22 20 52 4F 4F 54  |p 3 = if ." ROOT|
 BC86  20 22 20 64 72 6F 70 20 65 6C 73 65 20 2E 20 74  | " drop else . t|
 BC96  68 65 6E 20 74 68 65 6E 20 74 68 65 6E 20 74 68  |hen then then th|
 BCA6  65 6E 20 3B 20 3A 20 4F 52 44 45 52 20 63 72 20  |en ; : ORDER cr |
 BCB6  67 65 74 2D 6F 72 64 65 72 20 30 20 3F 64 6F 20  |get-order 0 ?do |
 BCC6  2E 77 69 64 20 6C 6F 6F 70 20 73 70 61 63 65 20  |.wid loop space |
 BCD6  73 70 61 63 65 20 67 65 74 2D 63 75 72 72 65 6E  |space get-curren|
 BCE6  74 20 2E 77 69 64 20 3B 20 63 72 20 2E 28 20 54  |t .wid ; cr .( T|
 BCF6  61 6C 69 20 46 6F 72 74 68 20 32 20 66 6F 72 20  |ali Forth 2 for |
 BD06  74 68 65 20 36 35 63 30 32 29 20 63 72 20 2E 28  |the 65c02) cr .(|
 BD16  20 56 65 72 73 69 6F 6E 20 42 45 54 41 20 31 39  | Version BETA 19|
 BD26  2E 20 44 65 63 20 32 30 31 38 20 29 20 63 72 20  |. Dec 2018 ) cr |
 BD36  2E 28 20 43 6F 70 79 72 69 67 68 74 20 32 30 31  |.( Copyright 201|
 BD46  34 2D 32 30 31 38 20 53 63 6F 74 20 57 2E 20 53  |4-2018 Scot W. S|
 BD56  74 65 76 65 6E 73 6F 6E 29 20 63 72 20 2E 28 20  |tevenson) cr .( |
 BD66  54 61 6C 69 20 46 6F 72 74 68 20 32 20 63 6F 6D  |Tali Forth 2 com|
 BD76  65 73 20 77 69 74 68 20 61 62 73 6F 6C 75 74 65  |es with absolute|
 BD86  6C 79 20 4E 4F 20 57 41 52 52 41 4E 54 59 29 20  |ly NO WARRANTY) |
 BD96  63 72 20 2E 28 20 54 79 70 65 20 27 62 79 65 27  |cr .( Type 'bye'|
 BDA6  20 74 6F 20 65 78 69 74 29 20 63 72 20 20 20 03  | to exit) cr   .|
 BDB6  00 00 00 8B 86 8C 86 62 79 65 04 00 B5 BD 00 80  |.......bye......|
 BDC6  54 81 63 6F 6C 64 02 08 C0 BD DA 8E DD 8E 65 64  |T.cold........ed|
 BDD6  03 08 CC BD 2C 9D D1 9D 73 65 65 05 00 D6 BD 70  |....,...see....p|
 BDE6  90 76 90 66 6F 72 74 68 06 00 E1 BD AA A4 BC A4  |.v.forth........|
 BDF6  3E 6F 72 64 65 72 08 00 EE BD 09 9B 15 9B 70 72  |>order........pr|
 BE06  65 76 69 6F 75 73 04 00 FC BD 87 83 96 83 61 6C  |evious........al|
 BE16  73 6F 04 00 0C BE 0A 99 15 99 6F 6E 6C 79 0E 00  |so........only..|
 BE26  18 BE 69 90 6F 90 66 6F 72 74 68 2D 77 6F 72 64  |..i.o.forth-word|
 BE36  6C 69 73 74 0F 00 24 BE DE 8E E6 8E 65 64 69 74  |list..$.....edit|
 BE46  6F 72 2D 77 6F 72 64 6C 69 73 74 12 00 3A BE BB  |or-wordlist..:..|
 BE56  83 C3 83 61 73 73 65 6D 62 6C 65 72 2D 77 6F 72  |...assembler-wor|
 BE66  64 6C 69 73 74 0D 00 51 BE EE 9B F6 9B 72 6F 6F  |dlist..Q.....roo|
 BE76  74 2D 77 6F 72 64 6C 69 73 74 09 00 6B BE 78 92  |t-wordlist..k.x.|
 BE86  A0 92 67 65 74 2D 6F 72 64 65 72 09 00 80 BE 19  |..get-order.....|
 BE96  9E 4C 9E 73 65 74 2D 6F 72 64 65 72 0B 00 91 BE  |.L.set-order....|
 BEA6  6D 92 77 92 67 65 74 2D 63 75 72 72 65 6E 74 0B  |m.w.get-current.|
 BEB6  10 A2 BE 09 9E 18 9E 73 65 74 2D 63 75 72 72 65  |.......set-curre|
 BEC6  6E 74 0F 10 B5 BE 47 9C 2B 9D 73 65 61 72 63 68  |nt....G.+.search|
 BED6  2D 77 6F 72 64 6C 69 73 74 08 00 C8 BE B1 A8 C7  |-wordlist.......|
 BEE6  A8 77 6F 72 64 6C 69 73 74 0B 00 DF BE E2 8B EA  |.wordlist.......|
 BEF6  8B 64 65 66 69 6E 69 74 69 6F 6E 73 13 10 EF BE  |.definitions....|
 BF06  7E 84 AA 85 62 6C 6F 63 6B 2D 72 61 6D 64 72 69  |~...block-ramdri|
 BF16  76 65 2D 69 6E 69 74 04 10 02 BF 8B 94 9B 94 6C  |ve-init........l|
 BF26  69 73 74 04 10 1D BF 09 A3 51 A3 74 68 72 75 04  |ist......Q.thru.|
 BF36  10 29 BF CD 94 14 95 6C 6F 61 64 05 00 35 BF 5F  |.).....load..5._|
 BF46  90 68 90 66 6C 75 73 68 0D 00 41 BF 0B 8F 11 8F  |.h.flush..A.....|
 BF56  65 6D 70 74 79 2D 62 75 66 66 65 72 73 06 00 4E  |empty-buffers..N|
 BF66  BF 43 86 73 86 62 75 66 66 65 72 06 00 63 BF 10  |.C.s.buffer..c..|
 BF76  A8 18 A8 75 70 64 61 74 65 05 00 71 BF 2B 84 7D  |...update..q.+.}|
 BF86  84 62 6C 6F 63 6B 0C 00 7F BF C0 9F DA 9F 73 61  |.block........sa|
 BF96  76 65 2D 62 75 66 66 65 72 73 11 28 8C BF B9 85  |ve-buffers.(....|
 BFA6  C8 85 62 6C 6F 63 6B 2D 72 65 61 64 2D 76 65 63  |..block-read-vec|
 BFB6  74 6F 72 0A 28 A0 BF AB 85 B9 85 62 6C 6F 63 6B  |tor.(......block|
 BFC6  2D 72 65 61 64 12 08 B9 BF DC 85 EB 85 62 6C 6F  |-read........blo|
 BFD6  63 6B 2D 77 72 69 74 65 2D 76 65 63 74 6F 72 0B  |ck-write-vector.|
 BFE6  08 CB BF CE 85 DC 85 62 6C 6F 63 6B 2D 77 72 69  |.......block-wri|
 BFF6  74 65 03 00 E5 BF 0D 84 1C 84 62 6C 6B 03 00 F8  |te........blk...|
 C006  BF DB 9F EA 9F 73 63 72 09 00 03 C0 1D 84 2A 84  |.....scr......*.|
 C016  62 6C 6B 62 75 66 66 65 72 0C 00 0E C0 33 86 42  |blkbuffer....3.B|
 C026  86 62 75 66 66 62 6C 6F 63 6B 6E 75 6D 0A 00 1F  |.buffblocknum...|
 C036  C0 7B 86 8A 86 62 75 66 66 73 74 61 74 75 73 07  |.{...buffstatus.|
 C046  00 33 C0 74 86 7A 86 62 75 66 66 65 72 3A 08 00  |.3.t.z.buffer:..|
 C056  45 C0 19 A8 23 A8 75 73 65 72 61 64 64 72 09 04  |E...#.useraddr..|
 C066  54 C0 CF 82 E7 82 61 63 74 69 6F 6E 2D 6F 66 02  |T.....action-of.|
 C076  04 64 C0 05 94 1D 94 69 73 06 00 75 C0 DB 8B E1  |.d.....is..u....|
 C086  8B 64 65 66 65 72 21 06 00 7F C0 D4 8B DA 8B 64  |.defer!........d|
 C096  65 66 65 72 40 07 0D 8D C0 12 8F 26 8F 65 6E 64  |efer@......&.end|
 C0A6  63 61 73 65 05 0D 9B C0 27 8F 2A 8F 65 6E 64 6F  |case....'.*.endo|
 C0B6  66 02 0D AA C0 CA 98 E2 98 6F 66 04 0D B7 C0 BA  |f........of.....|
 C0C6  86 BD 86 63 61 73 65 05 0D C1 C0 3D A8 4C A8 77  |...case....=.L.w|
 C0D6  68 69 6C 65 05 0D CD C0 F9 A7 FF A7 75 6E 74 69  |hile........unti|
 C0E6  6C 06 0D DA C0 DA 9B E6 9B 72 65 70 65 61 74 04  |l........repeat.|
 C0F6  0D E7 C0 E7 8E FC 8E 65 6C 73 65 04 0D F5 C0 FF  |.......else.....|
 C106  A2 08 A3 74 68 65 6E 02 0D 01 C1 56 93 62 93 69  |...then....V.b.i|
 C116  66 02 04 0D C1 5D 8D 6B 8D 2E 28 01 04 17 C1 77  |f....].k..(....w|
 C126  99 86 99 28 04 10 21 C1 67 A8 B0 A8 77 6F 72 64  |...(..!.g...word|
 C136  04 10 2A C1 36 91 81 91 66 69 6E 64 0C 10 36 C1  |..*.6...find..6.|
 C146  2B 8F AB 8F 65 6E 76 69 72 6F 6E 6D 65 6E 74 3F  |+...environment?|
 C156  06 18 42 C1 EB 9F 8D A0 73 65 61 72 63 68 07 10  |..B.....search..|
 C166  56 C1 8F 88 F7 88 63 6F 6D 70 61 72 65 06 10 64  |V.....compare..d|
 C176  C1 33 8C 3D 8C 64 69 73 61 73 6D 02 00 73 C1 A9  |.3.=.disasm..s..|
 C186  8D EC 8D 2E 73 04 10 81 C1 49 8E B3 8E 64 75 6D  |....s....I...dum|
 C196  70 04 00 8B C1 FE 83 03 84 62 65 6C 6C 05 00 97  |p........bell...|
 C1A6  C1 0D 83 0D 83 61 6C 69 67 6E 07 00 A3 C1 0D 83  |.....align......|
 C1B6  0D 83 61 6C 69 67 6E 65 64 08 10 B0 C1 24 A9 48  |..aligned....$.H|
 C1C6  A9 77 6F 72 64 73 69 7A 65 05 00 BF C1 C8 A8 23  |.wordsize......#|
 C1D6  A9 77 6F 72 64 73 06 04 CF C1 CB 95 08 96 6D 61  |.words........ma|
 C1E6  72 6B 65 72 05 10 DC C1 C4 83 E5 83 61 74 2D 78  |rker........at-x|
 C1F6  79 04 00 EA C1 59 99 76 99 70 61 67 65 02 00 F7  |y....Y.v.page...|
 C206  C1 7A 8A 7F 8A 63 72 05 00 03 C2 6F 93 79 93 69  |.z...cr....o.y.i|
 C216  6E 70 75 74 06 00 0D C2 2C 99 36 99 6F 75 74 70  |nput....,.6.outp|
 C226  75 74 04 10 1A C2 15 A1 2D A1 73 69 67 6E 04 10  |ut......-.sign..|
 C236  28 C2 26 93 3B 93 68 6F 6C 64 02 10 34 C2 8F 98  |(.&.;.hold..4...|
 C246  B4 98 23 3E 02 10 40 C2 B5 98 C9 98 23 73 01 10  |..#>..@.....#s..|
 C256  4A C2 56 98 8E 98 23 02 00 54 C2 64 94 71 94 3C  |J.V...#..T.d.q.<|
 C266  23 03 00 5D C2 FB A3 05 A4 3E 69 6E 06 10 67 C2  |#..].....>in..g.|
 C276  4D A8 66 A8 77 69 74 68 69 6E 08 10 72 C2 CC 92  |M.f.within..r...|
 C286  25 93 68 65 78 73 74 6F 72 65 06 10 80 C2 F1 86  |%.hexstore......|
 C296  94 87 63 6C 65 61 76 65 03 00 90 C2 49 99 58 99  |..cleave....I.X.|
 C2A6  70 61 64 05 10 9E C2 94 87 D2 87 63 6D 6F 76 65  |pad........cmove|
 C2B6  06 10 A9 C2 D3 87 11 88 63 6D 6F 76 65 3E 04 18  |........cmove>..|
 C2C6  B6 C2 DF 96 FD 96 6D 6F 76 65 01 04 C4 C2 E6 83  |......move......|
 C2D6  EE 83 5C 02 10 D0 C2 A5 A2 AD A2 2A 2F 05 10 D9  |..\........*/...|
 C2E6  C2 AE A2 C1 A2 2A 2F 6D 6F 64 03 10 E3 C2 D2 96  |.....*/mod......|
 C2F6  DE 96 6D 6F 64 04 10 F0 C2 33 A1 4A A1 2F 6D 6F  |..mod....3.J./mo|
 C306  64 01 10 FB C2 2E A1 4A A1 2F 06 10 07 C3 32 92  |d......J./....2.|
 C316  6C 92 66 6D 2F 6D 6F 64 06 10 10 C3 0F A2 3B A2  |l.fm/mod......;.|
 C326  73 6D 2F 72 65 6D 06 10 1E C3 62 A7 A7 A7 75 6D  |sm/rem....b...um|
 C336  2F 6D 6F 64 01 10 2C C3 98 A2 A4 A2 2A 03 10 3A  |/mod..,.....*..:|
 C346  C3 A8 A7 F1 A7 75 6D 2A 02 10 43 C3 AC 95 CA 95  |.....um*..C.....|
 C356  6D 2A 05 10 4E C3 62 8A 79 8A 63 6F 75 6E 74 07  |m*..N.b.y.count.|
 C366  00 58 C3 9A 8B A0 8B 64 65 63 69 6D 61 6C 03 00  |.X.....decimal..|
 C376  65 C3 C5 92 CB 92 68 65 78 07 10 74 C3 06 A4 A9  |e.....hex..t....|
 C386  A4 3E 6E 75 6D 62 65 72 06 10 7F C3 BF 97 55 98  |.>number......U.|
 C396  6E 75 6D 62 65 72 06 10 8E C3 FA 8B 32 8C 64 69  |number......2.di|
 C3A6  67 69 74 3F 04 00 9C C3 EF 83 F9 83 62 61 73 65  |git?........base|
 C3B6  08 10 AA C3 7D 90 FE 90 65 76 61 6C 75 61 74 65  |....}...evaluate|
 C3C6  05 00 B6 C3 C2 A2 CC A2 73 74 61 74 65 05 17 C6  |........state...|
 C3D6  C3 E8 82 0C 83 61 67 61 69 6E 05 07 D3 C3 FA 83  |.....again......|
 C3E6  FD 83 62 65 67 69 6E 04 00 E0 C3 12 81 54 81 71  |..begin......T.q|
 C3F6  75 69 74 07 0D ED C3 5B 9B 97 9B 72 65 63 75 72  |uit....[...recur|
 C406  73 65 05 03 F9 C3 5A 94 5F 94 6C 65 61 76 65 06  |se....Z._.leave.|
 C416  03 08 C4 F2 A7 F8 A7 75 6E 6C 6F 6F 70 04 03 15  |.......unloop...|
 C426  C4 17 91 18 91 65 78 69 74 05 05 23 C4 1C 95 82  |.....exit..#....|
 C436  95 2B 6C 6F 6F 70 04 05 2F C4 15 95 82 95 6C 6F  |.+loop../.....lo|
 C446  6F 70 01 03 3C C4 1E 94 37 94 6A 01 03 48 C4 3C  |op..<...7.j..H.<|
 C456  93 55 93 69 03 0D 51 C4 5D 8C BD 8C 3F 64 6F 02  |.U.i..Q.]...?do.|
 C466  0D 5A C4 63 8C BD 8C 64 6F 06 0D 65 C4 54 81 5E  |.Z.c...do..e.T.^|
 C476  81 61 62 6F 72 74 22 05 00 6F C4 10 81 54 81 61  |.abort"..o...T.a|
 C486  62 6F 72 74 08 00 7D C4 57 A7 61 A7 75 66 2D 73  |bort..}.W.a.uf-s|
 C496  74 72 69 70 08 00 8A C4 3D 97 47 97 6E 63 2D 6C  |trip....=.G.nc-l|
 C4A6  69 6D 69 74 0C 00 9A C4 7B 83 86 83 61 6C 6C 6F  |imit....{...allo|
 C4B6  77 2D 6E 61 74 69 76 65 0D 00 AA C4 97 83 A4 83  |w-native........|
 C4C6  61 6C 77 61 79 73 2D 6E 61 74 69 76 65 0C 00 BE  |always-native...|
 C4D6  C4 5D 97 6A 97 6E 65 76 65 72 2D 6E 61 74 69 76  |.].j.never-nativ|
 C4E6  65 0C 00 D3 C4 14 8A 1F 8A 63 6F 6D 70 69 6C 65  |e........compile|
 C4F6  2D 6F 6E 6C 79 09 00 E7 C4 63 93 6E 93 69 6D 6D  |-only....c.n.imm|
 C506  65 64 69 61 74 65 08 05 FB C4 CA 9A 08 9B 70 6F  |ediate........po|
 C516  73 74 70 6F 6E 65 03 04 0C C5 2F 9C 38 9C 73 5C  |stpone..../.8.s\|
 C526  22 02 0C 1C C5 4D 9E A9 9F 73 22 02 05 27 C5 6C  |"....M...s"..'.l|
 C536  8D 76 8D 2E 22 08 15 31 C5 6F A1 E2 A1 73 6C 69  |.v.."..1.o...sli|
 C546  74 65 72 61 6C 07 15 3B C5 9C 94 AD 94 6C 69 74  |teral..;.....lit|
 C556  65 72 61 6C 06 0D 4B C5 17 86 1E 86 62 72 61 6E  |eral..K.....bran|
 C566  63 68 07 0D 5A C5 66 A9 6D A9 30 62 72 61 6E 63  |ch..Z.f.m.0branc|
 C576  68 01 04 68 C5 E7 9B ED 9B 5D 01 05 77 C5 5F 94  |h..h.....]..w._.|
 C586  63 94 5B 08 18 80 C5 F8 88 13 8A 63 6F 6D 70 69  |c.[........compi|
 C596  6C 65 2C 07 00 89 C5 53 88 70 88 3A 6E 6F 6E 61  |le,....S.p.:nona|
 C5A6  6D 65 01 05 99 C5 8E A0 14 A1 3B 01 00 A8 C5 12  |me........;.....|
 C5B6  88 52 88 3A 09 00 B1 C5 51 A2 5B A2 73 6F 75 72  |.R.:....Q.[.sour|
 C5C6  63 65 2D 69 64 06 00 BA C5 3C A2 50 A2 73 6F 75  |ce-id....<.P.sou|
 C5D6  72 63 65 05 10 CB C5 E2 99 7D 9A 70 61 72 73 65  |rce......}.parse|
 C5E6  0A 08 D9 C5 87 99 7D 9A 70 61 72 73 65 2D 6E 61  |......}.parse-na|
 C5F6  6D 65 08 00 E6 C5 45 94 52 94 6C 61 74 65 73 74  |me....E.R.latest|
 C606  6E 74 08 00 F8 C5 53 94 59 94 6C 61 74 65 73 74  |nt....S.Y.latest|
 C616  78 74 05 00 08 C6 A1 8B D3 8B 64 65 66 65 72 05  |xt........defer.|
 C626  10 18 C6 D2 A3 FA A3 3E 62 6F 64 79 0B 10 25 C6  |.......>body..%.|
 C636  1F 97 3C 97 6E 61 6D 65 3E 73 74 72 69 6E 67 08  |..<.name>string.|
 C646  10 32 C6 7A 93 F0 93 69 6E 74 3E 6E 61 6D 65 08  |.2.z...int>name.|
 C656  10 45 C6 FE 96 1E 97 6E 61 6D 65 3E 69 6E 74 03  |.E.....name>int.|
 C666  05 55 C6 10 86 16 86 5B 27 5D 01 00 65 C6 52 A3  |.U.....[']..e.R.|
 C676  71 A3 27 09 10 70 C6 82 91 31 92 66 69 6E 64 2D  |q.'..p...1.find-|
 C686  6E 61 6D 65 04 10 79 C6 18 90 5E 90 66 69 6C 6C  |name..y...^.fill|
 C696  05 00 8A C6 08 90 5E 90 62 6C 61 6E 6B 05 00 96  |......^.blank...|
 C6A6  C6 12 90 5E 90 65 72 61 73 65 02 10 A3 C6 48 8B  |...^.erase....H.|
 C6B6  6C 8B 64 2B 02 10 B0 C6 23 8B 47 8B 64 2D 03 10  |l.d+....#.G.d-..|
 C6C6  BA C6 6D 8B 76 8B 64 3E 73 03 10 C4 C6 AA 9F BF  |..m.v.d>s.......|
 C6D6  9F 73 3E 64 02 0C CF C6 72 A3 D1 A3 74 6F 05 10  |.s>d....r...to..|
 C6E6  DA C6 20 8A 61 8A 76 61 6C 75 65 08 10 E4 C6 20  |.. .a.value.... |
 C6F6  8A 61 8A 63 6F 6E 73 74 61 6E 74 08 00 F1 C6 24  |.a.constant....$|
 C706  A8 3C A8 76 61 72 69 61 62 6C 65 05 05 01 C7 F6  |.<.variable.....|
 C716  8C 04 8D 64 6F 65 73 3E 06 00 11 C7 80 8A 22 8B  |...does>......".|
 C726  63 72 65 61 74 65 05 10 1E C7 0E 83 7A 83 61 6C  |create......z.al|
 C736  6C 6F 74 03 00 2C C7 38 94 41 94 6B 65 79 05 00  |lot..,.8.A.key..|
 C746  39 C7 EB 8B F9 8B 64 65 70 74 68 06 00 44 C7 00  |9.....depth..D..|
 C756  A8 0F A8 75 6E 75 73 65 64 06 18 51 C7 8D 81 CE  |...unused..Q....|
 C766  82 61 63 63 65 70 74 06 00 5F C7 98 9B D9 9B 72  |.accept.._.....r|
 C776  65 66 69 6C 6C 07 10 6D C7 4B A1 6E A1 2F 73 74  |efill..m.K.n./st|
 C786  72 69 6E 67 09 10 7B C7 91 96 D1 96 2D 74 72 61  |ring..{.....-tra|
 C796  69 6C 69 6E 67 02 00 8A C7 04 84 0C 84 62 6C 06  |iling........bl.|
 C7A6  10 9B C7 62 A2 97 A2 73 70 61 63 65 73 06 10 A5  |...b...spaces...|
 C7B6  C7 EC 85 08 86 62 6F 75 6E 64 73 02 10 B3 C7 8D  |.....bounds.....|
 C7C6  86 9B 86 63 2C 07 10 C1 C7 3E 8C 5C 8C 64 6E 65  |...c,....>.\.dne|
 C7D6  67 61 74 65 06 10 CB C7 48 97 5C 97 6E 65 67 61  |gate....H.\.nega|
 C7E6  74 65 06 10 DA C7 F1 93 04 94 69 6E 76 65 72 74  |te........invert|
 C7F6  03 11 E8 C7 17 A6 3A A6 32 3E 72 03 01 F6 C7 8D  |......:.2>r.....|
 C806  A5 A9 A5 32 72 3E 03 09 01 C8 6F A5 8C A5 32 72  |...2r>....o...2r|
 C816  40 08 14 0C C8 64 A6 74 A6 32 6C 69 74 65 72 61  |@....d.t.2litera|
 C826  6C 09 10 17 C8 3B A6 63 A6 32 63 6F 6E 73 74 61  |l....;.c.2consta|
 C836  6E 74 09 00 27 C8 75 A6 83 A6 32 76 61 72 69 61  |nt..'.u...2varia|
 C846  62 6C 65 02 10 38 C8 2D A5 52 A5 32 40 02 10 49  |ble..8.-.R.2@..I|
 C856  C8 C5 A5 EE A5 32 21 05 10 53 C8 53 A5 6E A5 32  |.....2!..S.S.n.2|
 C866  6F 76 65 72 05 10 5D C8 EF A5 16 A6 32 73 77 61  |over..].....2swa|
 C876  70 05 10 6A C8 05 A5 10 A5 32 64 72 6F 70 03 10  |p..j.....2drop..|
 C886  77 C8 3A 96 59 96 6D 61 78 03 10 84 C8 5A 96 79  |w.:.Y.max....Z.y|
 C896  96 6D 69 6E 02 10 8F C8 D5 A9 E8 A9 30 3C 02 10  |.min........0<..|
 C8A6  9A C8 BD A9 D4 A9 30 3E 03 10 A4 C8 E9 A9 FE A9  |......0>........|
 C8B6  30 3C 3E 02 10 AE C8 A5 A9 BC A9 30 3D 01 10 B9  |0<>........0=...|
 C8C6  C8 A1 92 B9 92 3E 02 10 C3 C8 E9 A6 02 A7 75 3E  |.....>........u>|
 C8D6  02 10 CC C8 03 A7 1C A7 75 3C 01 10 D6 C8 72 94  |........u<....r.|
 C8E6  8A 94 3C 02 10 E0 C8 7D 97 9E 97 3C 3E 01 10 E9  |..<....}...<>...|
 C8F6  C8 E8 8F 07 90 3D 02 10 F3 C8 AA A5 B8 A5 32 2F  |.....=........2/|
 C906  02 10 FC C8 B9 A5 C4 A5 32 2A 02 10 06 C9 FC 98  |........2*......|
 C916  09 99 31 2B 02 10 10 C9 EC 98 FB 98 31 2D 04 00  |..1+........1-..|
 C926  1A C9 BA 92 C4 92 68 65 72 65 05 10 24 C9 BE 86  |......here..$...|
 C936  D1 86 63 65 6C 6C 2B 05 00 30 C9 B9 A5 C4 A5 63  |..cell+..0.....c|
 C946  65 6C 6C 73 05 12 3D C9 E9 86 F0 86 63 68 61 72  |ells..=.....char|
 C956  73 05 00 4A C9 FC 98 09 99 63 68 61 72 2B 06 05  |s..J.....char+..|
 C966  57 C9 09 86 0F 86 5B 63 68 61 72 5D 04 00 64 C9  |W.....[char]..d.|
 C976  D2 86 E8 86 63 68 61 72 04 00 72 C9 7E 9A 8E 9A  |....char..r.~...|
 C986  70 69 63 6B 06 10 7E C9 94 95 AB 95 6C 73 68 69  |pick..~.....lshi|
 C996  66 74 06 10 8A C9 17 9C 2E 9C 72 73 68 69 66 74  |ft........rshift|
 C9A6  03 10 98 C9 49 A9 5E A9 78 6F 72 02 10 A6 C9 16  |....I.^.xor.....|
 C9B6  99 2B 99 6F 72 03 10 B1 C9 A5 83 BA 83 61 6E 64  |.+.or........and|
 C9C6  04 10 BB C9 77 8B 99 8B 64 61 62 73 03 10 C6 C9  |....w...dabs....|
 C9D6  74 81 8C 81 61 62 73 01 10 D2 C9 7A 96 90 96 2D  |t...abs....z...-|
 C9E6  01 10 DD C9 8F 9A A5 9A 2B 04 10 E6 C9 1D 9B 34  |........+......4|
 C9F6  9B 3F 64 75 70 04 10 EF C9 11 A5 2C A5 32 64 75  |.?dup......,.2du|
 CA06  70 01 00 FB C9 FC A4 04 A5 32 01 00 07 CA E3 98  |p........2......|
 CA16  EB 98 31 01 00 10 CA 5F A9 65 A9 30 05 00 19 CA  |..1...._.e.0....|
 CA26  5C A2 61 A2 73 70 61 63 65 04 00 22 CA D5 A4 DD  |\.a.space.."....|
 CA36  A4 74 72 75 65 05 00 2F CA 18 91 1E 91 66 61 6C  |.true../.....fal|
 CA46  73 65 01 00 3B CA 16 9B 1C 9B 3F 04 10 48 CA 34  |se..;.....?..H.4|
 CA56  A7 56 A7 75 64 2E 72 03 10 51 CA 1D A7 33 A7 75  |.V.ud.r..Q...3.u|
 CA66  64 2E 03 10 5D CA 10 8E 3E 8E 64 2E 72 02 10 68  |d...]...>.d.r..h|
 CA76  CA ED 8D 0F 8E 64 2E 02 10 73 CA 77 8D A8 8D 2E  |.....d...s.w....|
 CA86  72 03 10 7D CA C3 A6 E8 A6 75 2E 72 02 10 87 CA  |r..}.....u.r....|
 CA96  B3 A6 C2 A6 75 2E 01 10 92 CA 37 8D 5C 8D 2E 04  |....u.....7.\...|
 CAA6  10 9C CA 84 A6 B2 A6 74 79 70 65 04 18 A5 CA FD  |.......type.....|
 CAB6  8E 0B 8F 65 6D 69 74 07 10 B1 CA FF 90 09 91 65  |...emit........e|
 CAC6  78 65 63 75 74 65 02 10 BD CA A6 9A C9 9A 2B 21  |xecute........+!|
 CAD6  02 10 CC CA AA 86 B9 86 63 21 02 10 D6 CA 9C 86  |........c!......|
 CAE6  A9 86 63 40 01 10 E0 CA 71 88 8E 88 2C 04 10 EA  |..c@....q...,...|
 CAF6  CA DE A4 FB A4 74 75 63 6B 04 10 F3 CA 9F 97 BE  |.....tuck.......|
 CB06  97 2D 72 6F 74 03 10 FF CA F7 9B 16 9C 72 6F 74  |.-rot........rot|
 CB16  03 10 0B CB 6B 97 7C 97 6E 69 70 02 01 16 CB 35  |....k.|.nip....5|
 CB26  9B 49 9B 72 40 02 01 21 CB 4A 9B 5A 9B 72 3E 02  |.I.r@..!.J.Z.r>.|
 CB36  11 2B CB BD A4 D4 A4 3E 72 04 10 35 CB 37 99 48  |.+.....>r..5.7.H|
 CB46  99 6F 76 65 72 01 10 3F CB 1F 91 35 91 40 01 10  |.over..?...5.@..|
 CB56  4B CB CD A2 E6 A2 21 04 10 54 CB E7 A2 FE A2 73  |K.....!..T.....s|
 CB66  77 61 70 03 10 5D CB C8 8E D9 8E 64 75 70 04 10  |wap..].....dup..|
 CB76  69 CB 3F 8E 48 8E 64 72 6F 70 05 00 00 00 C8 A8  |i.?.H.drop......|
 CB86  23 A9 77 6F 72 64 73 0E 00 80 CB 69 90 6F 90 66  |#.words....i.o.f|
 CB96  6F 72 74 68 2D 77 6F 72 64 6C 69 73 74 05 00 8D  |orth-wordlist...|
 CBA6  CB 70 90 76 90 66 6F 72 74 68 09 00 A3 CB 19 9E  |.p.v.forth......|
 CBB6  4C 9E 73 65 74 2D 6F 72 64 65 72 0C 00 00 00 0C  |L.set-order.....|
 CBC6  AA 27 AA 65 6E 74 65 72 2D 73 63 72 65 65 6E 0C  |.'.enter-screen.|
 CBD6  00 C1 CB 28 AA 39 AA 65 72 61 73 65 2D 73 63 72  |...(.9.erase-scr|
 CBE6  65 65 6E 02 00 D5 CB 3A AA 4B AA 65 6C 01 00 E9  |een....:.K.el...|
 CBF6  CB 4C AA C7 AA 6C 04 00 F3 CB C8 AA DD AA 6C 69  |.L...l........li|
 CC06  6E 65 01 00 FC CB DE AA 0E AB 6F 05 04 00 00 0F  |ne........o.....|
 CC16  AB 14 AB 61 64 63 2E 23 05 04 11 CC 14 AB 19 AB  |...adc.#........|
 CC26  61 64 63 2E 78 05 04 1E CC 19 AB 1E AB 61 64 63  |adc.x........adc|
 CC36  2E 79 05 04 2B CC 1E AB 23 AB 61 64 63 2E 7A 06  |.y..+...#.adc.z.|
 CC46  04 38 CC 23 AB 28 AB 61 64 63 2E 7A 69 07 04 45  |.8.#.(.adc.zi..E|
 CC56  CC 28 AB 2D AB 61 64 63 2E 7A 69 79 06 04 53 CC  |.(.-.adc.ziy..S.|
 CC66  2D AB 32 AB 61 64 63 2E 7A 78 07 04 62 CC 32 AB  |-.2.adc.zx..b.2.|
 CC76  37 AB 61 64 63 2E 7A 78 69 03 04 70 CC 37 AB 3C  |7.adc.zxi..p.7.<|
 CC86  AB 61 6E 64 05 04 7F CC 3C AB 41 AB 61 6E 64 2E  |.and....<.A.and.|
 CC96  23 05 04 8A CC 41 AB 46 AB 61 6E 64 2E 78 05 04  |#....A.F.and.x..|
 CCA6  97 CC 46 AB 4B AB 61 6E 64 2E 79 05 04 A4 CC 4B  |..F.K.and.y....K|
 CCB6  AB 50 AB 61 6E 64 2E 7A 06 04 B1 CC 50 AB 55 AB  |.P.and.z....P.U.|
 CCC6  61 6E 64 2E 7A 69 07 04 BE CC 55 AB 5A AB 61 6E  |and.zi....U.Z.an|
 CCD6  64 2E 7A 69 79 06 04 CC CC 5A AB 5F AB 61 6E 64  |d.ziy....Z._.and|
 CCE6  2E 7A 78 07 04 DB CC 5F AB 64 AB 61 6E 64 2E 7A  |.zx...._.d.and.z|
 CCF6  78 69 03 04 E9 CC 64 AB 69 AB 61 73 6C 05 04 F8  |xi....d.i.asl...|
 CD06  CC 69 AB 6E AB 61 73 6C 2E 61 05 04 03 CD 6E AB  |.i.n.asl.a....n.|
 CD16  73 AB 61 73 6C 2E 78 05 04 10 CD 73 AB 78 AB 61  |s.asl.x....s.x.a|
 CD26  73 6C 2E 7A 06 04 1D CD 78 AB 7D AB 61 73 6C 2E  |sl.z....x.}.asl.|
 CD36  7A 78 03 04 2A CD 7D AB 82 AB 62 63 63 03 04 38  |zx..*.}...bcc..8|
 CD46  CD 82 AB 89 AB 62 63 73 03 04 43 CD 89 AB 8E AB  |.....bcs..C.....|
 CD56  62 65 71 03 04 4E CD 8E AB 93 AB 62 69 74 05 04  |beq..N.....bit..|
 CD66  59 CD 93 AB 98 AB 62 69 74 2E 23 05 04 64 CD 98  |Y.....bit.#..d..|
 CD76  AB 9D AB 62 69 74 2E 78 05 04 71 CD 9D AB A2 AB  |...bit.x..q.....|
 CD86  62 69 74 2E 7A 06 04 7E CD A2 AB A7 AB 62 69 74  |bit.z..~.....bit|
 CD96  2E 7A 78 03 04 8B CD A7 AB AC AB 62 6D 69 03 04  |.zx........bmi..|
 CDA6  99 CD AC AB B1 AB 62 6E 65 03 04 A4 CD B1 AB B6  |......bne.......|
 CDB6  AB 62 70 6C 03 04 AF CD B6 AB BB AB 62 72 61 03  |.bpl........bra.|
 CDC6  04 BA CD BB AB C0 AB 62 72 6B 03 04 C5 CD C0 AB  |.......brk......|
 CDD6  C5 AB 62 76 63 03 04 D0 CD C5 AB CA AB 62 76 73  |..bvc........bvs|
 CDE6  03 04 DB CD CA AB CF AB 63 6C 63 03 04 E6 CD CF  |........clc.....|
 CDF6  AB D4 AB 63 6C 64 03 04 F1 CD D4 AB D9 AB 63 6C  |...cld........cl|
 CE06  69 03 04 FC CD D9 AB DE AB 63 6C 76 03 04 07 CE  |i........clv....|
 CE16  DE AB E3 AB 63 6D 70 05 04 12 CE E3 AB E8 AB 63  |....cmp........c|
 CE26  6D 70 2E 23 05 04 1D CE E8 AB ED AB 63 6D 70 2E  |mp.#........cmp.|
 CE36  78 05 04 2A CE ED AB F2 AB 63 6D 70 2E 79 05 04  |x..*.....cmp.y..|
 CE46  37 CE F2 AB F7 AB 63 6D 70 2E 7A 06 04 44 CE F7  |7.....cmp.z..D..|
 CE56  AB FC AB 63 6D 70 2E 7A 69 07 04 51 CE FC AB 01  |...cmp.zi..Q....|
 CE66  AC 63 6D 70 2E 7A 69 79 06 04 5F CE 01 AC 06 AC  |.cmp.ziy.._.....|
 CE76  63 6D 70 2E 7A 78 07 04 6E CE 06 AC 0B AC 63 6D  |cmp.zx..n.....cm|
 CE86  70 2E 7A 78 69 03 04 7C CE 0B AC 10 AC 63 70 78  |p.zxi..|.....cpx|
 CE96  05 04 8B CE 10 AC 15 AC 63 70 78 2E 23 05 04 96  |........cpx.#...|
 CEA6  CE 15 AC 1A AC 63 70 78 2E 7A 03 04 A3 CE 1A AC  |.....cpx.z......|
 CEB6  21 AC 63 70 79 05 04 B0 CE 21 AC 26 AC 63 70 79  |!.cpy....!.&.cpy|
 CEC6  2E 23 05 04 BB CE 26 AC 2B AC 63 70 79 2E 7A 03  |.#....&.+.cpy.z.|
 CED6  04 C8 CE 2B AC 30 AC 64 65 63 05 04 D5 CE 30 AC  |...+.0.dec....0.|
 CEE6  35 AC 64 65 63 2E 61 05 04 E0 CE 35 AC 3A AC 64  |5.dec.a....5.:.d|
 CEF6  65 63 2E 78 05 04 ED CE 3A AC 3F AC 64 65 63 2E  |ec.x....:.?.dec.|
 CF06  7A 06 04 FA CE 3F AC 44 AC 64 65 63 2E 7A 78 03  |z....?.D.dec.zx.|
 CF16  04 07 CF 44 AC 49 AC 64 65 78 03 04 15 CF 49 AC  |...D.I.dex....I.|
 CF26  4E AC 64 65 79 03 04 20 CF 4E AC 53 AC 65 6F 72  |N.dey.. .N.S.eor|
 CF36  05 04 2B CF 53 AC 58 AC 65 6F 72 2E 23 05 04 36  |..+.S.X.eor.#..6|
 CF46  CF 58 AC 5D AC 65 6F 72 2E 78 05 04 43 CF 5D AC  |.X.].eor.x..C.].|
 CF56  62 AC 65 6F 72 2E 79 05 04 50 CF 62 AC 67 AC 65  |b.eor.y..P.b.g.e|
 CF66  6F 72 2E 7A 06 04 5D CF 67 AC 6C AC 65 6F 72 2E  |or.z..].g.l.eor.|
 CF76  7A 69 07 04 6A CF 6C AC 71 AC 65 6F 72 2E 7A 69  |zi..j.l.q.eor.zi|
 CF86  79 06 04 78 CF 71 AC 76 AC 65 6F 72 2E 7A 78 07  |y..x.q.v.eor.zx.|
 CF96  04 87 CF 76 AC 7B AC 65 6F 72 2E 7A 78 69 03 04  |...v.{.eor.zxi..|
 CFA6  95 CF 7B AC 80 AC 69 6E 63 05 04 A4 CF 80 AC 85  |..{...inc.......|
 CFB6  AC 69 6E 63 2E 61 05 04 AF CF 85 AC 8A AC 69 6E  |.inc.a........in|
 CFC6  63 2E 78 05 04 BC CF 8A AC 8F AC 69 6E 63 2E 7A  |c.x........inc.z|
 CFD6  06 04 C9 CF 8F AC 94 AC 69 6E 63 2E 7A 78 03 04  |........inc.zx..|
 CFE6  D6 CF 94 AC 99 AC 69 6E 78 03 04 E4 CF 99 AC 9E  |......inx.......|
 CFF6  AC 69 6E 79 03 04 EF CF 9E AC A3 AC 6A 6D 70 05  |.iny........jmp.|
 D006  04 FA CF A3 AC A8 AC 6A 6D 70 2E 69 06 04 05 D0  |.......jmp.i....|
 D016  A8 AC AD AC 6A 6D 70 2E 78 69 03 04 12 D0 AD AC  |....jmp.xi......|
 D026  B2 AC 6A 73 72 03 04 20 D0 B2 AC B7 AC 6C 64 61  |..jsr.. .....lda|
 D036  05 04 2B D0 B7 AC BC AC 6C 64 61 2E 23 05 04 36  |..+.....lda.#..6|
 D046  D0 BC AC C1 AC 6C 64 61 2E 78 05 04 43 D0 C1 AC  |.....lda.x..C...|
 D056  C6 AC 6C 64 61 2E 79 05 04 50 D0 C6 AC CB AC 6C  |..lda.y..P.....l|
 D066  64 61 2E 7A 06 04 5D D0 CB AC D0 AC 6C 64 61 2E  |da.z..].....lda.|
 D076  7A 69 07 04 6A D0 D0 AC D5 AC 6C 64 61 2E 7A 69  |zi..j.....lda.zi|
 D086  79 06 04 78 D0 D5 AC DA AC 6C 64 61 2E 7A 78 07  |y..x.....lda.zx.|
 D096  04 87 D0 DA AC DF AC 6C 64 61 2E 7A 78 69 03 04  |.......lda.zxi..|
 D0A6  95 D0 DF AC E4 AC 6C 64 78 05 04 A4 D0 E4 AC E9  |......ldx.......|
 D0B6  AC 6C 64 78 2E 23 05 04 AF D0 E9 AC EE AC 6C 64  |.ldx.#........ld|
 D0C6  78 2E 79 05 04 BC D0 EE AC F3 AC 6C 64 78 2E 7A  |x.y........ldx.z|
 D0D6  06 04 C9 D0 F3 AC F8 AC 6C 64 78 2E 7A 79 03 04  |........ldx.zy..|
 D0E6  D6 D0 F8 AC FD AC 6C 64 79 05 04 E4 D0 FD AC 02  |......ldy.......|
 D0F6  AD 6C 64 79 2E 23 05 04 EF D0 02 AD 07 AD 6C 64  |.ldy.#........ld|
 D106  79 2E 78 05 04 FC D0 07 AD 0C AD 6C 64 79 2E 7A  |y.x........ldy.z|
 D116  06 04 09 D1 0C AD 11 AD 6C 64 79 2E 7A 78 03 04  |........ldy.zx..|
 D126  16 D1 11 AD 16 AD 6C 73 72 05 04 24 D1 16 AD 1B  |......lsr..$....|
 D136  AD 6C 73 72 2E 61 05 04 2F D1 1B AD 20 AD 6C 73  |.lsr.a../... .ls|
 D146  72 2E 78 05 04 3C D1 20 AD 25 AD 6C 73 72 2E 7A  |r.x..<. .%.lsr.z|
 D156  06 04 49 D1 25 AD 2A AD 6C 73 72 2E 7A 78 03 04  |..I.%.*.lsr.zx..|
 D166  56 D1 2A AD 2F AD 6E 6F 70 03 04 64 D1 2F AD 34  |V.*./.nop..d./.4|
 D176  AD 6F 72 61 05 04 6F D1 34 AD 39 AD 6F 72 61 2E  |.ora..o.4.9.ora.|
 D186  23 05 04 7A D1 39 AD 3E AD 6F 72 61 2E 78 05 04  |#..z.9.>.ora.x..|
 D196  87 D1 3E AD 43 AD 6F 72 61 2E 79 05 04 94 D1 43  |..>.C.ora.y....C|
 D1A6  AD 48 AD 6F 72 61 2E 7A 06 04 A1 D1 48 AD 4F AD  |.H.ora.z....H.O.|
 D1B6  6F 72 61 2E 7A 69 07 04 AE D1 4F AD 54 AD 6F 72  |ora.zi....O.T.or|
 D1C6  61 2E 7A 69 79 06 04 BC D1 54 AD 59 AD 6F 72 61  |a.ziy....T.Y.ora|
 D1D6  2E 7A 78 07 04 CB D1 59 AD 5E AD 6F 72 61 2E 7A  |.zx....Y.^.ora.z|
 D1E6  78 69 03 04 D9 D1 5E AD 63 AD 70 68 61 03 04 E8  |xi....^.c.pha...|
 D1F6  D1 63 AD 68 AD 70 68 70 03 04 F3 D1 68 AD 6D AD  |.c.h.php....h.m.|
 D206  70 68 78 03 04 FE D1 6D AD 72 AD 70 68 79 03 04  |phx....m.r.phy..|
 D216  09 D2 72 AD 77 AD 70 6C 61 03 04 14 D2 77 AD 7C  |..r.w.pla....w.||
 D226  AD 70 6C 70 03 04 1F D2 7C AD 81 AD 70 6C 78 03  |.plp....|...plx.|
 D236  04 2A D2 81 AD 86 AD 70 6C 79 03 04 35 D2 86 AD  |.*.....ply..5...|
 D246  8B AD 72 6F 6C 05 04 40 D2 8B AD 90 AD 72 6F 6C  |..rol..@.....rol|
 D256  2E 61 05 04 4B D2 90 AD 95 AD 72 6F 6C 2E 78 05  |.a..K.....rol.x.|
 D266  04 58 D2 95 AD 9A AD 72 6F 6C 2E 7A 06 04 65 D2  |.X.....rol.z..e.|
 D276  9A AD 9F AD 72 6F 6C 2E 7A 78 03 04 72 D2 9F AD  |....rol.zx..r...|
 D286  A4 AD 72 6F 72 05 04 80 D2 A4 AD A9 AD 72 6F 72  |..ror........ror|
 D296  2E 61 05 04 8B D2 A9 AD AE AD 72 6F 72 2E 78 05  |.a........ror.x.|
 D2A6  04 98 D2 AE AD B3 AD 72 6F 72 2E 7A 06 04 A5 D2  |.......ror.z....|
 D2B6  B3 AD B8 AD 72 6F 72 2E 7A 78 03 04 B2 D2 B8 AD  |....ror.zx......|
 D2C6  BD AD 72 74 69 03 04 C0 D2 BD AD C2 AD 72 74 73  |..rti........rts|
 D2D6  03 04 CB D2 C2 AD C7 AD 73 62 63 05 04 D6 D2 C7  |........sbc.....|
 D2E6  AD CC AD 73 62 63 2E 23 05 04 E1 D2 CC AD D1 AD  |...sbc.#........|
 D2F6  73 62 63 2E 78 05 04 EE D2 D1 AD D6 AD 73 62 63  |sbc.x........sbc|
 D306  2E 79 05 04 FB D2 D6 AD DB AD 73 62 63 2E 7A 06  |.y........sbc.z.|
 D316  04 08 D3 DB AD E0 AD 73 62 63 2E 7A 69 07 04 15  |.......sbc.zi...|
 D326  D3 E0 AD E5 AD 73 62 63 2E 7A 69 79 06 04 23 D3  |.....sbc.ziy..#.|
 D336  E5 AD EA AD 73 62 63 2E 7A 78 07 04 32 D3 EA AD  |....sbc.zx..2...|
 D346  EE AD 73 62 63 2E 7A 78 69 03 04 40 D3 EE AD F2  |..sbc.zxi..@....|
 D356  AD 73 65 63 03 04 4F D3 F2 AD F6 AD 73 65 64 03  |.sec..O.....sed.|
 D366  04 5A D3 F6 AD FA AD 73 65 69 03 04 65 D3 FA AD  |.Z.....sei..e...|
 D376  FE AD 73 74 61 05 04 70 D3 FE AD 02 AE 73 74 61  |..sta..p.....sta|
 D386  2E 78 05 04 7B D3 02 AE 06 AE 73 74 61 2E 79 05  |.x..{.....sta.y.|
 D396  04 88 D3 06 AE 0A AE 73 74 61 2E 7A 06 04 95 D3  |.......sta.z....|
 D3A6  0A AE 0E AE 73 74 61 2E 7A 69 07 04 A2 D3 0E AE  |....sta.zi......|
 D3B6  12 AE 73 74 61 2E 7A 69 79 06 04 B0 D3 12 AE 16  |..sta.ziy.......|
 D3C6  AE 73 74 61 2E 7A 78 07 04 BF D3 16 AE 1A AE 73  |.sta.zx........s|
 D3D6  74 61 2E 7A 78 69 03 04 CD D3 1A AE 1E AE 73 74  |ta.zxi........st|
 D3E6  78 05 04 DC D3 1E AE 22 AE 73 74 78 2E 7A 06 04  |x......".stx.z..|
 D3F6  E7 D3 22 AE 26 AE 73 74 78 2E 7A 79 03 04 F4 D3  |..".&.stx.zy....|
 D406  26 AE 2A AE 73 74 79 05 04 02 D4 2A AE 2E AE 73  |&.*.sty....*...s|
 D416  74 79 2E 7A 06 04 0D D4 2E AE 32 AE 73 74 79 2E  |ty.z......2.sty.|
 D426  7A 78 03 04 1A D4 32 AE 36 AE 73 74 7A 05 04 28  |zx....2.6.stz..(|
 D436  D4 36 AE 3A AE 73 74 7A 2E 78 05 04 33 D4 3A AE  |.6.:.stz.x..3.:.|
 D446  3E AE 73 74 7A 2E 7A 06 04 40 D4 3E AE 42 AE 73  |>.stz.z..@.>.B.s|
 D456  74 7A 2E 7A 78 03 04 4D D4 42 AE 46 AE 74 61 78  |tz.zx..M.B.F.tax|
 D466  03 04 5B D4 46 AE 4A AE 74 61 79 03 04 66 D4 4A  |..[.F.J.tay..f.J|
 D476  AE 4E AE 74 72 62 05 04 71 D4 4E AE 52 AE 74 72  |.N.trb..q.N.R.tr|
 D486  62 2E 7A 03 04 7C D4 52 AE 56 AE 74 73 62 05 04  |b.z..|.R.V.tsb..|
 D496  89 D4 56 AE 5A AE 74 73 62 2E 7A 03 04 94 D4 5A  |..V.Z.tsb.z....Z|
 D4A6  AE 5E AE 74 73 78 03 04 A1 D4 5E AE 62 AE 74 78  |.^.tsx....^.b.tx|
 D4B6  61 03 04 AC D4 62 AE 66 AE 74 78 73 03 04 B7 D4  |a....b.f.txs....|
 D4C6  66 AE 6A AE 74 79 61 06 04 C2 D4 AA AE B9 AE 70  |f.j.tya........p|
 D4D6  75 73 68 2D 61 E7 D4 EB D4 F5 D4 00 00 00 D5 24  |ush-a..........$|
 D4E6  D5 20 6F 6B 00 20 63 6F 6D 70 69 6C 65 64 00 72  |. ok. compiled.r|
 D4F6  65 64 65 66 69 6E 65 64 20 00 30 31 32 33 34 35  |edefined .012345|
 D506  36 37 38 39 61 62 63 64 65 66 67 68 69 6A 6B 6C  |6789abcdefghijkl|
 D516  6D 6E 6F 70 71 72 73 74 75 76 77 78 79 7A 30 31  |mnopqrstuvwxyz01|
 D526  32 33 34 35 36 37 38 39 41 42 43 44 45 46 47 48  |23456789ABCDEFGH|
 D536  49 4A 4B 4C 4D 4E 4F 50 51 52 53 54 55 56 57 58  |IJKLMNOPQRSTUVWX|
 D546  59 5A 62 D5 83 D5 A3 D5 C4 D5 E1 D5 F2 D5 02 D6  |YZb.............|
 D556  30 D6 48 D6 57 D6 67 D6 83 D6 9A D6 41 4C 4C 4F  |0.H.W.g.....ALLO|
 D566  54 20 75 73 69 6E 67 20 61 6C 6C 20 61 76 61 69  |T using all avai|
 D576  6C 61 62 6C 65 20 6D 65 6D 6F 72 79 00 49 6C 6C  |lable memory.Ill|
 D586  65 67 61 6C 20 53 4F 55 52 43 45 2D 49 44 20 64  |egal SOURCE-ID d|
 D596  75 72 69 6E 67 20 52 45 46 49 4C 4C 00 49 6E 74  |uring REFILL.Int|
 D5A6  65 72 70 72 65 74 69 6E 67 20 61 20 63 6F 6D 70  |erpreting a comp|
 D5B6  69 6C 65 2D 6F 6E 6C 79 20 77 6F 72 64 00 44 45  |ile-only word.DE|
 D5C6  46 45 52 65 64 20 77 6F 72 64 20 6E 6F 74 20 64  |FERed word not d|
 D5D6  65 66 69 6E 65 64 20 79 65 74 00 44 69 76 69 73  |efined yet.Divis|
 D5E6  69 6F 6E 20 62 79 20 7A 65 72 6F 00 50 61 72 73  |ion by zero.Pars|
 D5F6  69 6E 67 20 66 61 69 6C 75 72 65 00 51 55 49 54  |ing failure.QUIT|
 D606  20 63 6F 75 6C 64 20 6E 6F 74 20 67 65 74 20 69  | could not get i|
 D616  6E 70 75 74 20 28 52 45 46 49 4C 4C 20 72 65 74  |nput (REFILL ret|
 D626  75 72 6E 65 64 20 2D 31 29 00 41 6C 72 65 61 64  |urned -1).Alread|
 D636  79 20 69 6E 20 63 6F 6D 70 69 6C 65 20 6D 6F 64  |y in compile mod|
 D646  65 00 55 6E 64 65 66 69 6E 65 64 20 77 6F 72 64  |e.Undefined word|
 D656  00 53 74 61 63 6B 20 75 6E 64 65 72 66 6C 6F 77  |.Stack underflow|
 D666  00 4D 61 78 20 6D 65 6D 6F 72 79 20 66 72 65 65  |.Max memory free|
 D676  64 20 77 69 74 68 20 41 4C 4C 4F 54 00 4E 6F 20  |d with ALLOT.No |
 D686  77 6F 72 64 6C 69 73 74 73 20 61 76 61 69 6C 61  |wordlists availa|
 D696  62 6C 65 00 50 6C 65 61 73 65 20 61 73 73 69 67  |ble.Please assig|
 D6A6  6E 20 76 65 63 74 6F 72 73 20 42 4C 4F 43 4B 2D  |n vectors BLOCK-|
 D6B6  52 45 41 44 2D 56 45 43 54 4F 52 20 61 6E 64 20  |READ-VECTOR and |
 D6C6  42 4C 4F 43 4B 2D 57 52 49 54 45 2D 56 45 43 54  |BLOCK-WRITE-VECT|
 D6D6  4F 52 00 0F 2F 43 4F 55 4E 54 45 44 2D 53 54 52  |OR../COUNTED-STR|
 D6E6  49 4E 47 05 2F 48 4F 4C 44 04 2F 50 41 44 11 41  |ING./HOLD./PAD.A|
 D6F6  44 44 52 45 53 53 2D 55 4E 49 54 2D 42 49 54 53  |DDRESS-UNIT-BITS|
 D706  07 46 4C 4F 4F 52 45 44 08 4D 41 58 2D 43 48 41  |.FLOORED.MAX-CHA|
 D716  52 05 4D 41 58 2D 4E 05 4D 41 58 2D 55 12 52 45  |R.MAX-N.MAX-U.RE|
 D726  54 55 52 4E 2D 53 54 41 43 4B 2D 43 45 4C 4C 53  |TURN-STACK-CELLS|
 D736  0B 53 54 41 43 4B 2D 43 45 4C 4C 53 09 57 4F 52  |.STACK-CELLS.WOR|
 D746  44 4C 49 53 54 53 05 4D 41 58 2D 44 06 4D 41 58  |DLISTS.MAX-D.MAX|
 D756  2D 55 44                                         |-UD             |
 D759  48        PHA  
 D75A  A9 20     LDA  #$20
 D75C  80 03     BRA  $D761
 D75E  48        PHA  
 D75F  A9 4C     LDA  #$4C
 D761  20 69 D7  JSR  $D769
 D764  68        PLA  
 D765  20 69 D7  JSR  $D769
 D768  98        TYA  
 D769  92 00     STA  ($00)
 D76B  E6 00     INC  $00
 D76D  D0 02     BNE  $D771
 D76F  E6 01     INC  $01
 D771  60        RTS  
 D772  CA        DEX  
 D773  CA        DEX  
 D774  68        PLA  
 D775  85 20     STA  $20
 D777  68        PLA  
 D778  85 21     STA  $21
 D77A  A0 01     LDY  #$01
 D77C  B1 20     LDA  ($20), Y
 D77E  95 00     STA  $00, X
 D780  C8        INY  
 D781  B1 20     LDA  ($20), Y
 D783  95 01     STA  $01, X
 D785  60        RTS  
 D786  68        PLA  
 D787  85 20     STA  $20
 D789  68        PLA  
 D78A  85 21     STA  $21
 D78C  A0 01     LDY  #$01
 D78E  B1 20     LDA  ($20), Y
 D790  85 22     STA  $22
 D792  C8        INY  
 D793  B1 20     LDA  ($20), Y
 D795  85 23     STA  $23
 D797  6C 22 00  JMP  ($0022)
 D79A  A9 03     LDA  #$03
 D79C  4C 93 D8  JMP  $D893
 D79F  7A        PLY  
 D7A0  68        PLA  
 D7A1  C8        INY  
 D7A2  D0 01     BNE  $D7A5
 D7A4  1A        INC  
 D7A5  84 22     STY  $22
 D7A7  85 23     STA  $23
 D7A9  CA        DEX  
 D7AA  CA        DEX  
 D7AB  7A        PLY  
 D7AC  68        PLA  
 D7AD  C8        INY  
 D7AE  18        CLC  
 D7AF  D0 01     BNE  $D7B2
 D7B1  1A        INC  
 D7B2  94 00     STY  $00, X
 D7B4  95 01     STA  $01, X
 D7B6  6C 22 00  JMP  ($0022)
 D7B9  7A        PLY  
 D7BA  68        PLA  
 D7BB  C8        INY  
 D7BC  D0 01     BNE  $D7BF
 D7BE  1A        INC  
 D7BF  CA        DEX  
 D7C0  CA        DEX  
 D7C1  95 01     STA  $01, X
 D7C3  98        TYA  
 D7C4  95 00     STA  $00, X
 D7C6  60        RTS  
 D7C7  48        PHA  
 D7C8  4A        LSR  
 D7C9  4A        LSR  
 D7CA  4A        LSR  
 D7CB  4A        LSR  
 D7CC  20 D0 D7  JSR  $D7D0
 D7CF  68        PLA  
 D7D0  29 0F     AND  #$0F
 D7D2  09 30     ORA  #$30
 D7D4  C9 3A     CMP  #$3A
 D7D6  90 02     BCC  $D7DA
 D7D8  69 06     ADC  #$06
 D7DA  4C 08 8F  JMP  $8F08
 D7DD  60        RTS  
 D7DE  B5 00     LDA  $00, X
 D7E0  D5 02     CMP  $02, X
 D7E2  F0 0A     BEQ  $D7EE
 D7E4  B5 01     LDA  $01, X
 D7E6  F5 03     SBC  $03, X
 D7E8  09 01     ORA  #$01
 D7EA  70 08     BVS  $D7F4
 D7EC  80 08     BRA  $D7F6
 D7EE  B5 01     LDA  $01, X
 D7F0  F5 03     SBC  $03, X
 D7F2  50 04     BVC  $D7F8
 D7F4  49 80     EOR  #$80
 D7F6  09 01     ORA  #$01
 D7F8  60        RTS  
 D7F9  20 87 99  JSR  $9987
 D7FC  B5 00     LDA  $00, X
 D7FE  15 01     ORA  $01, X
 D800  F0 70     BEQ  $D872
 D802  20 11 A5  JSR  $A511
 D805  20 82 91  JSR  $9182
 D808  B5 00     LDA  $00, X
 D80A  15 01     ORA  $01, X
 D80C  D0 28     BNE  $D836
 D80E  E8        INX  
 D80F  E8        INX  
 D810  20 BF 97  JSR  $97BF
 D813  A5 16     LDA  $16
 D815  F0 E2     BEQ  $D7F9
 D817  A9 20     LDA  #$20
 D819  24 3A     BIT  $3A
 D81B  F0 0D     BEQ  $D82A
 D81D  20 E7 A2  JSR  $A2E7
 D820  A0 94     LDY  #$94
 D822  A9 AE     LDA  #$AE
 D824  20 59 D7  JSR  $D759
 D827  20 71 88  JSR  $8871
 D82A  A0 94     LDY  #$94
 D82C  A9 AE     LDA  #$AE
 D82E  20 59 D7  JSR  $D759
 D831  20 71 88  JSR  $8871
 D834  80 C3     BRA  $D7F9
 D836  B5 00     LDA  $00, X
 D838  95 04     STA  $04, X
 D83A  B5 01     LDA  $01, X
 D83C  95 05     STA  $05, X
 D83E  E8        INX  
 D83F  E8        INX  
 D840  E8        INX  
 D841  E8        INX  
 D842  B5 00     LDA  $00, X
 D844  85 1E     STA  $1E
 D846  B5 01     LDA  $01, X
 D848  85 1F     STA  $1F
 D84A  20 FE 96  JSR  $96FE
 D84D  A5 16     LDA  $16
 D84F  D0 13     BNE  $D864
 D851  A0 01     LDY  #$01
 D853  B1 1E     LDA  ($1E), Y
 D855  29 01     AND  #$01
 D857  F0 05     BEQ  $D85E
 D859  A9 02     LDA  #$02
 D85B  4C 93 D8  JMP  $D893
 D85E  20 FF 90  JSR  $90FF
 D861  4C F9 D7  JMP  $D7F9
 D864  A0 01     LDY  #$01
 D866  B1 1E     LDA  ($1E), Y
 D868  29 04     AND  #$04
 D86A  D0 F2     BNE  $D85E
 D86C  20 F8 88  JSR  $88F8
 D86F  4C F9 D7  JMP  $D7F9
 D872  E8        INX  
 D873  E8        INX  
 D874  E8        INX  
 D875  E8        INX  
 D876  60        RTS  
 D877  C9 20     CMP  #$20
 D879  90 08     BCC  $D883
 D87B  C9 7F     CMP  #$7F
 D87D  B0 03     BCS  $D882
 D87F  38        SEC  
 D880  80 01     BRA  $D883
 D882  18        CLC  
 D883  60        RTS  
 D884  C9 00     CMP  #$00
 D886  90 08     BCC  $D890
 D888  C9 21     CMP  #$21
 D88A  B0 03     BCS  $D88F
 D88C  38        SEC  
 D88D  80 01     BRA  $D890
 D88F  18        CLC  
 D890  60        RTS  
 D891  A9 09     LDA  #$09
 D893  0A        ASL  
 D894  A8        TAY  
 D895  B9 48 D5  LDA  $D548, Y
 D898  85 24     STA  $24
 D89A  C8        INY  
 D89B  B9 48 D5  LDA  $D548, Y
 D89E  85 25     STA  $25
 D8A0  20 B3 D8  JSR  $D8B3
 D8A3  4C 10 81  JMP  $8110
 D8A6  0A        ASL  
 D8A7  A8        TAY  
 D8A8  B9 DB D4  LDA  $D4DB, Y
 D8AB  85 24     STA  $24
 D8AD  C8        INY  
 D8AE  B9 DB D4  LDA  $D4DB, Y
 D8B1  85 25     STA  $25
 D8B3  20 BC D8  JSR  $D8BC
 D8B6  A9 0A     LDA  #$0A
 D8B8  20 08 8F  JSR  $8F08
 D8BB  60        RTS  
 D8BC  A0 00     LDY  #$00
 D8BE  B1 24     LDA  ($24), Y
 D8C0  F0 06     BEQ  $D8C8
 D8C2  20 08 8F  JSR  $8F08
 D8C5  C8        INY  
 D8C6  80 F6     BRA  $D8BE
 D8C8  60        RTS  
 D8C9  CA        DEX  
 D8CA  CA        DEX  
 D8CB  74 00     STZ  $00, X
 D8CD  74 01     STZ  $01, X
 D8CF  20 64 94  JSR  $9464
 D8D2  20 B5 98  JSR  $98B5
 D8D5  20 8F 98  JSR  $988F
 D8D8  20 84 A6  JSR  $A684
 D8DB  60        RTS  
 D8DC  A0 04     LDY  #$04
 D8DE  B1 3C     LDA  ($3C), Y
 D8E0  0A        ASL  
 D8E1  18        CLC  
 D8E2  69 06     ADC  #$06
 D8E4  A8        TAY  
 D8E5  B1 3C     LDA  ($3C), Y
 D8E7  85 02     STA  $02
 D8E9  C8        INY  
 D8EA  B1 3C     LDA  ($3C), Y
 D8EC  85 03     STA  $03
 D8EE  60        RTS  
 D8EF  A0 04     LDY  #$04
 D8F1  B1 3C     LDA  ($3C), Y
 D8F3  0A        ASL  
 D8F4  18        CLC  
 D8F5  69 06     ADC  #$06
 D8F7  A8        TAY  
 D8F8  A5 02     LDA  $02
 D8FA  91 3C     STA  ($3C), Y
 D8FC  C8        INY  
 D8FD  A5 03     LDA  $03
 D8FF  91 3C     STA  ($3C), Y
 D901  60        RTS  
 D902  00 00 00 00 00 00 00 00 00 00 00 00 00 00 00 00  |................|
 D912  00 00 00 00 00 00 00 00 00 00 00 00 00 00 00 00  |................|
 D922  00 00 00 00 00 00 00 00 00 00 00 00 00 00 00 00  |................|
 D932  00 00 00 00 00 00 00 00 00 00 00 00 00 00 00 00  |................|
 D942  00 00 00 00 00 00 00 00 00 00 00 00 00 00 00 00  |................|
 D952  00 00 00 00 00 00 00 00 00 00 00 00 00 00 00 00  |................|
 D962  00 00 00 00 00 00 00 00 00 00 00 00 00 00 00 00  |................|
 D972  00 00 00 00 00 00 00 00 00 00 00 00 00 00 00 00  |................|
 D982  00 00 00 00 00 00 00 00 00 00 00 00 00 00 00 00  |................|
 D992  00 00 00 00 00 00 00 00 00 00 00 00 00 00 00 00  |................|
 D9A2  00 00 00 00 00 00 00 00 00 00 00 00 00 00 00 00  |................|
 D9B2  00 00 00 00 00 00 00 00 00 00 00 00 00 00 00 00  |................|
 D9C2  00 00 00 00 00 00 00 00 00 00 00 00 00 00 00 00  |................|
 D9D2  00 00 00 00 00 00 00 00 00 00 00 00 00 00 00 00  |................|
 D9E2  00 00 00 00 00 00 00 00 00 00 00 00 00 00 00 00  |................|
 D9F2  00 00 00 00 00 00 00 00 00 00 00 00 00 00 00 00  |................|
 DA02  00 00 00 00 00 00 00 00 00 00 00 00 00 00 00 00  |................|
 DA12  00 00 00 00 00 00 00 00 00 00 00 00 00 00 00 00  |................|
 DA22  00 00 00 00 00 00 00 00 00 00 00 00 00 00 00 00  |................|
 DA32  00 00 00 00 00 00 00 00 00 00 00 00 00 00 00 00  |................|
 DA42  00 00 00 00 00 00 00 00 00 00 00 00 00 00 00 00  |................|
 DA52  00 00 00 00 00 00 00 00 00 00 00 00 00 00 00 00  |................|
 DA62  00 00 00 00 00 00 00 00 00 00 00 00 00 00 00 00  |................|
 DA72  00 00 00 00 00 00 00 00 00 00 00 00 00 00 00 00  |................|
 DA82  00 00 00 00 00 00 00 00 00 00 00 00 00 00 00 00  |................|
 DA92  00 00 00 00 00 00 00 00 00 00 00 00 00 00 00 00  |................|
 DAA2  00 00 00 00 00 00 00 00 00 00 00 00 00 00 00 00  |................|
 DAB2  00 00 00 00 00 00 00 00 00 00 00 00 00 00 00 00  |................|
 DAC2  00 00 00 00 00 00 00 00 00 00 00 00 00 00 00 00  |................|
 DAD2  00 00 00 00 00 00 00 00 00 00 00 00 00 00 00 00  |................|
 DAE2  00 00 00 00 00 00 00 00 00 00 00 00 00 00 00 00  |................|
 DAF2  00 00 00 00 00 00 00 00 00 00 00 00 00 00 00 00  |................|
 DB02  00 00 00 00 00 00 00 00 00 00 00 00 00 00 00 00  |................|
 DB12  00 00 00 00 00 00 00 00 00 00 00 00 00 00 00 00  |................|
 DB22  00 00 00 00 00 00 00 00 00 00 00 00 00 00 00 00  |................|
 DB32  00 00 00 00 00 00 00 00 00 00 00 00 00 00 00 00  |................|
 DB42  00 00 00 00 00 00 00 00 00 00 00 00 00 00 00 00  |................|
 DB52  00 00 00 00 00 00 00 00 00 00 00 00 00 00 00 00  |................|
 DB62  00 00 00 00 00 00 00 00 00 00 00 00 00 00 00 00  |................|
 DB72  00 00 00 00 00 00 00 00 00 00 00 00 00 00 00 00  |................|
 DB82  00 00 00 00 00 00 00 00 00 00 00 00 00 00 00 00  |................|
 DB92  00 00 00 00 00 00 00 00 00 00 00 00 00 00 00 00  |................|
 DBA2  00 00 00 00 00 00 00 00 00 00 00 00 00 00 00 00  |................|
 DBB2  00 00 00 00 00 00 00 00 00 00 00 00 00 00 00 00  |................|
 DBC2  00 00 00 00 00 00 00 00 00 00 00 00 00 00 00 00  |................|
 DBD2  00 00 00 00 00 00 00 00 00 00 00 00 00 00 00 00  |................|
 DBE2  00 00 00 00 00 00 00 00 00 00 00 00 00 00 00 00  |................|
 DBF2  00 00 00 00 00 00 00 00 00 00 00 00 00 00 00 00  |................|
 DC02  00 00 00 00 00 00 00 00 00 00 00 00 00 00 00 00  |................|
 DC12  00 00 00 00 00 00 00 00 00 00 00 00 00 00 00 00  |................|
 DC22  00 00 00 00 00 00 00 00 00 00 00 00 00 00 00 00  |................|
 DC32  00 00 00 00 00 00 00 00 00 00 00 00 00 00 00 00  |................|
 DC42  00 00 00 00 00 00 00 00 00 00 00 00 00 00 00 00  |................|
 DC52  00 00 00 00 00 00 00 00 00 00 00 00 00 00 00 00  |................|
 DC62  00 00 00 00 00 00 00 00 00 00 00 00 00 00 00 00  |................|
 DC72  00 00 00 00 00 00 00 00 00 00 00 00 00 00 00 00  |................|
 DC82  00 00 00 00 00 00 00 00 00 00 00 00 00 00 00 00  |................|
 DC92  00 00 00 00 00 00 00 00 00 00 00 00 00 00 00 00  |................|
 DCA2  00 00 00 00 00 00 00 00 00 00 00 00 00 00 00 00  |................|
 DCB2  00 00 00 00 00 00 00 00 00 00 00 00 00 00 00 00  |................|
 DCC2  00 00 00 00 00 00 00 00 00 00 00 00 00 00 00 00  |................|
 DCD2  00 00 00 00 00 00 00 00 00 00 00 00 00 00 00 00  |................|
 DCE2  00 00 00 00 00 00 00 00 00 00 00 00 00 00 00 00  |................|
 DCF2  00 00 00 00 00 00 00 00 00 00 00 00 00 00 00 00  |................|
 DD02  00 00 00 00 00 00 00 00 00 00 00 00 00 00 00 00  |................|
 DD12  00 00 00 00 00 00 00 00 00 00 00 00 00 00 00 00  |................|
 DD22  00 00 00 00 00 00 00 00 00 00 00 00 00 00 00 00  |................|
 DD32  00 00 00 00 00 00 00 00 00 00 00 00 00 00 00 00  |................|
 DD42  00 00 00 00 00 00 00 00 00 00 00 00 00 00 00 00  |................|
 DD52  00 00 00 00 00 00 00 00 00 00 00 00 00 00 00 00  |................|
 DD62  00 00 00 00 00 00 00 00 00 00 00 00 00 00 00 00  |................|
 DD72  00 00 00 00 00 00 00 00 00 00 00 00 00 00 00 00  |................|
 DD82  00 00 00 00 00 00 00 00 00 00 00 00 00 00 00 00  |................|
 DD92  00 00 00 00 00 00 00 00 00 00 00 00 00 00 00 00  |................|
 DDA2  00 00 00 00 00 00 00 00 00 00 00 00 00 00 00 00  |................|
 DDB2  00 00 00 00 00 00 00 00 00 00 00 00 00 00 00 00  |................|
 DDC2  00 00 00 00 00 00 00 00 00 00 00 00 00 00 00 00  |................|
 DDD2  00 00 00 00 00 00 00 00 00 00 00 00 00 00 00 00  |................|
 DDE2  00 00 00 00 00 00 00 00 00 00 00 00 00 00 00 00  |................|
 DDF2  00 00 00 00 00 00 00 00 00 00 00 00 00 00 00 00  |................|
 DE02  00 00 00 00 00 00 00 00 00 00 00 00 00 00 00 00  |................|
 DE12  00 00 00 00 00 00 00 00 00 00 00 00 00 00 00 00  |................|
 DE22  00 00 00 00 00 00 00 00 00 00 00 00 00 00 00 00  |................|
 DE32  00 00 00 00 00 00 00 00 00 00 00 00 00 00 00 00  |................|
 DE42  00 00 00 00 00 00 00 00 00 00 00 00 00 00 00 00  |................|
 DE52  00 00 00 00 00 00 00 00 00 00 00 00 00 00 00 00  |................|
 DE62  00 00 00 00 00 00 00 00 00 00 00 00 00 00 00 00  |................|
 DE72  00 00 00 00 00 00 00 00 00 00 00 00 00 00 00 00  |................|
 DE82  00 00 00 00 00 00 00 00 00 00 00 00 00 00 00 00  |................|
 DE92  00 00 00 00 00 00 00 00 00 00 00 00 00 00 00 00  |................|
 DEA2  00 00 00 00 00 00 00 00 00 00 00 00 00 00 00 00  |................|
 DEB2  00 00 00 00 00 00 00 00 00 00 00 00 00 00 00 00  |................|
 DEC2  00 00 00 00 00 00 00 00 00 00 00 00 00 00 00 00  |................|
 DED2  00 00 00 00 00 00 00 00 00 00 00 00 00 00 00 00  |................|
 DEE2  00 00 00 00 00 00 00 00 00 00 00 00 00 00 00 00  |................|
 DEF2  00 00 00 00 00 00 00 00 00 00 00 00 00 00 00 00  |................|
 DF02  00 00 00 00 00 00 00 00 00 00 00 00 00 00 00 00  |................|
 DF12  00 00 00 00 00 00 00 00 00 00 00 00 00 00 00 00  |................|
 DF22  00 00 00 00 00 00 00 00 00 00 00 00 00 00 00 00  |................|
 DF32  00 00 00 00 00 00 00 00 00 00 00 00 00 00 00 00  |................|
 DF42  00 00 00 00 00 00 00 00 00 00 00 00 00 00 00 00  |................|
 DF52  00 00 00 00 00 00 00 00 00 00 00 00 00 00 00 00  |................|
 DF62  00 00 00 00 00 00 00 00 00 00 00 00 00 00 00 00  |................|
 DF72  00 00 00 00 00 00 00 00 00 00 00 00 00 00 00 00  |................|
 DF82  00 00 00 00 00 00 00 00 00 00 00 00 00 00 00 00  |................|
 DF92  00 00 00 00 00 00 00 00 00 00 00 00 00 00 00 00  |................|
 DFA2  00 00 00 00 00 00 00 00 00 00 00 00 00 00 00 00  |................|
 DFB2  00 00 00 00 00 00 00 00 00 00 00 00 00 00 00 00  |................|
 DFC2  00 00 00 00 00 00 00 00 00 00 00 00 00 00 00 00  |................|
 DFD2  00 00 00 00 00 00 00 00 00 00 00 00 00 00 00 00  |................|
 DFE2  00 00 00 00 00 00 00 00 00 00 00 00 00 00 00 00  |................|
 DFF2  00 00 00 00 00 00 00 00 00 00 00 00 00 00 00 00  |................|
 E002  00 00 00 00 00 00 00 00 00 00 00 00 00 00 00 00  |................|
 E012  00 00 00 00 00 00 00 00 00 00 00 00 00 00 00 00  |................|
 E022  00 00 00 00 00 00 00 00 00 00 00 00 00 00 00 00  |................|
 E032  00 00 00 00 00 00 00 00 00 00 00 00 00 00 00 00  |................|
 E042  00 00 00 00 00 00 00 00 00 00 00 00 00 00 00 00  |................|
 E052  00 00 00 00 00 00 00 00 00 00 00 00 00 00 00 00  |................|
 E062  00 00 00 00 00 00 00 00 00 00 00 00 00 00 00 00  |................|
 E072  00 00 00 00 00 00 00 00 00 00 00 00 00 00 00 00  |................|
 E082  00 00 00 00 00 00 00 00 00 00 00 00 00 00 00 00  |................|
 E092  00 00 00 00 00 00 00 00 00 00 00 00 00 00 00 00  |................|
 E0A2  00 00 00 00 00 00 00 00 00 00 00 00 00 00 00 00  |................|
 E0B2  00 00 00 00 00 00 00 00 00 00 00 00 00 00 00 00  |................|
 E0C2  00 00 00 00 00 00 00 00 00 00 00 00 00 00 00 00  |................|
 E0D2  00 00 00 00 00 00 00 00 00 00 00 00 00 00 00 00  |................|
 E0E2  00 00 00 00 00 00 00 00 00 00 00 00 00 00 00 00  |................|
 E0F2  00 00 00 00 00 00 00 00 00 00 00 00 00 00 00 00  |................|
 E102  00 00 00 00 00 00 00 00 00 00 00 00 00 00 00 00  |................|
 E112  00 00 00 00 00 00 00 00 00 00 00 00 00 00 00 00  |................|
 E122  00 00 00 00 00 00 00 00 00 00 00 00 00 00 00 00  |................|
 E132  00 00 00 00 00 00 00 00 00 00 00 00 00 00 00 00  |................|
 E142  00 00 00 00 00 00 00 00 00 00 00 00 00 00 00 00  |................|
 E152  00 00 00 00 00 00 00 00 00 00 00 00 00 00 00 00  |................|
 E162  00 00 00 00 00 00 00 00 00 00 00 00 00 00 00 00  |................|
 E172  00 00 00 00 00 00 00 00 00 00 00 00 00 00 00 00  |................|
 E182  00 00 00 00 00 00 00 00 00 00 00 00 00 00 00 00  |................|
 E192  00 00 00 00 00 00 00 00 00 00 00 00 00 00 00 00  |................|
 E1A2  00 00 00 00 00 00 00 00 00 00 00 00 00 00 00 00  |................|
 E1B2  00 00 00 00 00 00 00 00 00 00 00 00 00 00 00 00  |................|
 E1C2  00 00 00 00 00 00 00 00 00 00 00 00 00 00 00 00  |................|
 E1D2  00 00 00 00 00 00 00 00 00 00 00 00 00 00 00 00  |................|
 E1E2  00 00 00 00 00 00 00 00 00 00 00 00 00 00 00 00  |................|
 E1F2  00 00 00 00 00 00 00 00 00 00 00 00 00 00 00 00  |................|
 E202  00 00 00 00 00 00 00 00 00 00 00 00 00 00 00 00  |................|
 E212  00 00 00 00 00 00 00 00 00 00 00 00 00 00 00 00  |................|
 E222  00 00 00 00 00 00 00 00 00 00 00 00 00 00 00 00  |................|
 E232  00 00 00 00 00 00 00 00 00 00 00 00 00 00 00 00  |................|
 E242  00 00 00 00 00 00 00 00 00 00 00 00 00 00 00 00  |................|
 E252  00 00 00 00 00 00 00 00 00 00 00 00 00 00 00 00  |................|
 E262  00 00 00 00 00 00 00 00 00 00 00 00 00 00 00 00  |................|
 E272  00 00 00 00 00 00 00 00 00 00 00 00 00 00 00 00  |................|
 E282  00 00 00 00 00 00 00 00 00 00 00 00 00 00 00 00  |................|
 E292  00 00 00 00 00 00 00 00 00 00 00 00 00 00 00 00  |................|
 E2A2  00 00 00 00 00 00 00 00 00 00 00 00 00 00 00 00  |................|
 E2B2  00 00 00 00 00 00 00 00 00 00 00 00 00 00 00 00  |................|
 E2C2  00 00 00 00 00 00 00 00 00 00 00 00 00 00 00 00  |................|
 E2D2  00 00 00 00 00 00 00 00 00 00 00 00 00 00 00 00  |................|
 E2E2  00 00 00 00 00 00 00 00 00 00 00 00 00 00 00 00  |................|
 E2F2  00 00 00 00 00 00 00 00 00 00 00 00 00 00 00 00  |................|
 E302  00 00 00 00 00 00 00 00 00 00 00 00 00 00 00 00  |................|
 E312  00 00 00 00 00 00 00 00 00 00 00 00 00 00 00 00  |................|
 E322  00 00 00 00 00 00 00 00 00 00 00 00 00 00 00 00  |................|
 E332  00 00 00 00 00 00 00 00 00 00 00 00 00 00 00 00  |................|
 E342  00 00 00 00 00 00 00 00 00 00 00 00 00 00 00 00  |................|
 E352  00 00 00 00 00 00 00 00 00 00 00 00 00 00 00 00  |................|
 E362  00 00 00 00 00 00 00 00 00 00 00 00 00 00 00 00  |................|
 E372  00 00 00 00 00 00 00 00 00 00 00 00 00 00 00 00  |................|
 E382  00 00 00 00 00 00 00 00 00 00 00 00 00 00 00 00  |................|
 E392  00 00 00 00 00 00 00 00 00 00 00 00 00 00 00 00  |................|
 E3A2  00 00 00 00 00 00 00 00 00 00 00 00 00 00 00 00  |................|
 E3B2  00 00 00 00 00 00 00 00 00 00 00 00 00 00 00 00  |................|
 E3C2  00 00 00 00 00 00 00 00 00 00 00 00 00 00 00 00  |................|
 E3D2  00 00 00 00 00 00 00 00 00 00 00 00 00 00 00 00  |................|
 E3E2  00 00 00 00 00 00 00 00 00 00 00 00 00 00 00 00  |................|
 E3F2  00 00 00 00 00 00 00 00 00 00 00 00 00 00 00 00  |................|
 E402  00 00 00 00 00 00 00 00 00 00 00 00 00 00 00 00  |................|
 E412  00 00 00 00 00 00 00 00 00 00 00 00 00 00 00 00  |................|
 E422  00 00 00 00 00 00 00 00 00 00 00 00 00 00 00 00  |................|
 E432  00 00 00 00 00 00 00 00 00 00 00 00 00 00 00 00  |................|
 E442  00 00 00 00 00 00 00 00 00 00 00 00 00 00 00 00  |................|
 E452  00 00 00 00 00 00 00 00 00 00 00 00 00 00 00 00  |................|
 E462  00 00 00 00 00 00 00 00 00 00 00 00 00 00 00 00  |................|
 E472  00 00 00 00 00 00 00 00 00 00 00 00 00 00 00 00  |................|
 E482  00 00 00 00 00 00 00 00 00 00 00 00 00 00 00 00  |................|
 E492  00 00 00 00 00 00 00 00 00 00 00 00 00 00 00 00  |................|
 E4A2  00 00 00 00 00 00 00 00 00 00 00 00 00 00 00 00  |................|
 E4B2  00 00 00 00 00 00 00 00 00 00 00 00 00 00 00 00  |................|
 E4C2  00 00 00 00 00 00 00 00 00 00 00 00 00 00 00 00  |................|
 E4D2  00 00 00 00 00 00 00 00 00 00 00 00 00 00 00 00  |................|
 E4E2  00 00 00 00 00 00 00 00 00 00 00 00 00 00 00 00  |................|
 E4F2  00 00 00 00 00 00 00 00 00 00 00 00 00 00 00 00  |................|
 E502  00 00 00 00 00 00 00 00 00 00 00 00 00 00 00 00  |................|
 E512  00 00 00 00 00 00 00 00 00 00 00 00 00 00 00 00  |................|
 E522  00 00 00 00 00 00 00 00 00 00 00 00 00 00 00 00  |................|
 E532  00 00 00 00 00 00 00 00 00 00 00 00 00 00 00 00  |................|
 E542  00 00 00 00 00 00 00 00 00 00 00 00 00 00 00 00  |................|
 E552  00 00 00 00 00 00 00 00 00 00 00 00 00 00 00 00  |................|
 E562  00 00 00 00 00 00 00 00 00 00 00 00 00 00 00 00  |................|
 E572  00 00 00 00 00 00 00 00 00 00 00 00 00 00 00 00  |................|
 E582  00 00 00 00 00 00 00 00 00 00 00 00 00 00 00 00  |................|
 E592  00 00 00 00 00 00 00 00 00 00 00 00 00 00 00 00  |................|
 E5A2  00 00 00 00 00 00 00 00 00 00 00 00 00 00 00 00  |................|
 E5B2  00 00 00 00 00 00 00 00 00 00 00 00 00 00 00 00  |................|
 E5C2  00 00 00 00 00 00 00 00 00 00 00 00 00 00 00 00  |................|
 E5D2  00 00 00 00 00 00 00 00 00 00 00 00 00 00 00 00  |................|
 E5E2  00 00 00 00 00 00 00 00 00 00 00 00 00 00 00 00  |................|
 E5F2  00 00 00 00 00 00 00 00 00 00 00 00 00 00 00 00  |................|
 E602  00 00 00 00 00 00 00 00 00 00 00 00 00 00 00 00  |................|
 E612  00 00 00 00 00 00 00 00 00 00 00 00 00 00 00 00  |................|
 E622  00 00 00 00 00 00 00 00 00 00 00 00 00 00 00 00  |................|
 E632  00 00 00 00 00 00 00 00 00 00 00 00 00 00 00 00  |................|
 E642  00 00 00 00 00 00 00 00 00 00 00 00 00 00 00 00  |................|
 E652  00 00 00 00 00 00 00 00 00 00 00 00 00 00 00 00  |................|
 E662  00 00 00 00 00 00 00 00 00 00 00 00 00 00 00 00  |................|
 E672  00 00 00 00 00 00 00 00 00 00 00 00 00 00 00 00  |................|
 E682  00 00 00 00 00 00 00 00 00 00 00 00 00 00 00 00  |................|
 E692  00 00 00 00 00 00 00 00 00 00 00 00 00 00 00 00  |................|
 E6A2  00 00 00 00 00 00 00 00 00 00 00 00 00 00 00 00  |................|
 E6B2  00 00 00 00 00 00 00 00 00 00 00 00 00 00 00 00  |................|
 E6C2  00 00 00 00 00 00 00 00 00 00 00 00 00 00 00 00  |................|
 E6D2  00 00 00 00 00 00 00 00 00 00 00 00 00 00 00 00  |................|
 E6E2  00 00 00 00 00 00 00 00 00 00 00 00 00 00 00 00  |................|
 E6F2  00 00 00 00 00 00 00 00 00 00 00 00 00 00 00 00  |................|
 E702  00 00 00 00 00 00 00 00 00 00 00 00 00 00 00 00  |................|
 E712  00 00 00 00 00 00 00 00 00 00 00 00 00 00 00 00  |................|
 E722  00 00 00 00 00 00 00 00 00 00 00 00 00 00 00 00  |................|
 E732  00 00 00 00 00 00 00 00 00 00 00 00 00 00 00 00  |................|
 E742  00 00 00 00 00 00 00 00 00 00 00 00 00 00 00 00  |................|
 E752  00 00 00 00 00 00 00 00 00 00 00 00 00 00 00 00  |................|
 E762  00 00 00 00 00 00 00 00 00 00 00 00 00 00 00 00  |................|
 E772  00 00 00 00 00 00 00 00 00 00 00 00 00 00 00 00  |................|
 E782  00 00 00 00 00 00 00 00 00 00 00 00 00 00 00 00  |................|
 E792  00 00 00 00 00 00 00 00 00 00 00 00 00 00 00 00  |................|
 E7A2  00 00 00 00 00 00 00 00 00 00 00 00 00 00 00 00  |................|
 E7B2  00 00 00 00 00 00 00 00 00 00 00 00 00 00 00 00  |................|
 E7C2  00 00 00 00 00 00 00 00 00 00 00 00 00 00 00 00  |................|
 E7D2  00 00 00 00 00 00 00 00 00 00 00 00 00 00 00 00  |................|
 E7E2  00 00 00 00 00 00 00 00 00 00 00 00 00 00 00 00  |................|
 E7F2  00 00 00 00 00 00 00 00 00 00 00 00 00 00 00 00  |................|
 E802  00 00 00 00 00 00 00 00 00 00 00 00 00 00 00 00  |................|
 E812  00 00 00 00 00 00 00 00 00 00 00 00 00 00 00 00  |................|
 E822  00 00 00 00 00 00 00 00 00 00 00 00 00 00 00 00  |................|
 E832  00 00 00 00 00 00 00 00 00 00 00 00 00 00 00 00  |................|
 E842  00 00 00 00 00 00 00 00 00 00 00 00 00 00 00 00  |................|
 E852  00 00 00 00 00 00 00 00 00 00 00 00 00 00 00 00  |................|
 E862  00 00 00 00 00 00 00 00 00 00 00 00 00 00 00 00  |................|
 E872  00 00 00 00 00 00 00 00 00 00 00 00 00 00 00 00  |................|
 E882  00 00 00 00 00 00 00 00 00 00 00 00 00 00 00 00  |................|
 E892  00 00 00 00 00 00 00 00 00 00 00 00 00 00 00 00  |................|
 E8A2  00 00 00 00 00 00 00 00 00 00 00 00 00 00 00 00  |................|
 E8B2  00 00 00 00 00 00 00 00 00 00 00 00 00 00 00 00  |................|
 E8C2  00 00 00 00 00 00 00 00 00 00 00 00 00 00 00 00  |................|
 E8D2  00 00 00 00 00 00 00 00 00 00 00 00 00 00 00 00  |................|
 E8E2  00 00 00 00 00 00 00 00 00 00 00 00 00 00 00 00  |................|
 E8F2  00 00 00 00 00 00 00 00 00 00 00 00 00 00 00 00  |................|
 E902  00 00 00 00 00 00 00 00 00 00 00 00 00 00 00 00  |................|
 E912  00 00 00 00 00 00 00 00 00 00 00 00 00 00 00 00  |................|
 E922  00 00 00 00 00 00 00 00 00 00 00 00 00 00 00 00  |................|
 E932  00 00 00 00 00 00 00 00 00 00 00 00 00 00 00 00  |................|
 E942  00 00 00 00 00 00 00 00 00 00 00 00 00 00 00 00  |................|
 E952  00 00 00 00 00 00 00 00 00 00 00 00 00 00 00 00  |................|
 E962  00 00 00 00 00 00 00 00 00 00 00 00 00 00 00 00  |................|
 E972  00 00 00 00 00 00 00 00 00 00 00 00 00 00 00 00  |................|
 E982  00 00 00 00 00 00 00 00 00 00 00 00 00 00 00 00  |................|
 E992  00 00 00 00 00 00 00 00 00 00 00 00 00 00 00 00  |................|
 E9A2  00 00 00 00 00 00 00 00 00 00 00 00 00 00 00 00  |................|
 E9B2  00 00 00 00 00 00 00 00 00 00 00 00 00 00 00 00  |................|
 E9C2  00 00 00 00 00 00 00 00 00 00 00 00 00 00 00 00  |................|
 E9D2  00 00 00 00 00 00 00 00 00 00 00 00 00 00 00 00  |................|
 E9E2  00 00 00 00 00 00 00 00 00 00 00 00 00 00 00 00  |................|
 E9F2  00 00 00 00 00 00 00 00 00 00 00 00 00 00 00 00  |................|
 EA02  00 00 00 00 00 00 00 00 00 00 00 00 00 00 00 00  |................|
 EA12  00 00 00 00 00 00 00 00 00 00 00 00 00 00 00 00  |................|
 EA22  00 00 00 00 00 00 00 00 00 00 00 00 00 00 00 00  |................|
 EA32  00 00 00 00 00 00 00 00 00 00 00 00 00 00 00 00  |................|
 EA42  00 00 00 00 00 00 00 00 00 00 00 00 00 00 00 00  |................|
 EA52  00 00 00 00 00 00 00 00 00 00 00 00 00 00 00 00  |................|
 EA62  00 00 00 00 00 00 00 00 00 00 00 00 00 00 00 00  |................|
 EA72  00 00 00 00 00 00 00 00 00 00 00 00 00 00 00 00  |................|
 EA82  00 00 00 00 00 00 00 00 00 00 00 00 00 00 00 00  |................|
 EA92  00 00 00 00 00 00 00 00 00 00 00 00 00 00 00 00  |................|
 EAA2  00 00 00 00 00 00 00 00 00 00 00 00 00 00 00 00  |................|
 EAB2  00 00 00 00 00 00 00 00 00 00 00 00 00 00 00 00  |................|
 EAC2  00 00 00 00 00 00 00 00 00 00 00 00 00 00 00 00  |................|
 EAD2  00 00 00 00 00 00 00 00 00 00 00 00 00 00 00 00  |................|
 EAE2  00 00 00 00 00 00 00 00 00 00 00 00 00 00 00 00  |................|
 EAF2  00 00 00 00 00 00 00 00 00 00 00 00 00 00 00 00  |................|
 EB02  00 00 00 00 00 00 00 00 00 00 00 00 00 00 00 00  |................|
 EB12  00 00 00 00 00 00 00 00 00 00 00 00 00 00 00 00  |................|
 EB22  00 00 00 00 00 00 00 00 00 00 00 00 00 00 00 00  |................|
 EB32  00 00 00 00 00 00 00 00 00 00 00 00 00 00 00 00  |................|
 EB42  00 00 00 00 00 00 00 00 00 00 00 00 00 00 00 00  |................|
 EB52  00 00 00 00 00 00 00 00 00 00 00 00 00 00 00 00  |................|
 EB62  00 00 00 00 00 00 00 00 00 00 00 00 00 00 00 00  |................|
 EB72  00 00 00 00 00 00 00 00 00 00 00 00 00 00 00 00  |................|
 EB82  00 00 00 00 00 00 00 00 00 00 00 00 00 00 00 00  |................|
 EB92  00 00 00 00 00 00 00 00 00 00 00 00 00 00 00 00  |................|
 EBA2  00 00 00 00 00 00 00 00 00 00 00 00 00 00 00 00  |................|
 EBB2  00 00 00 00 00 00 00 00 00 00 00 00 00 00 00 00  |................|
 EBC2  00 00 00 00 00 00 00 00 00 00 00 00 00 00 00 00  |................|
 EBD2  00 00 00 00 00 00 00 00 00 00 00 00 00 00 00 00  |................|
 EBE2  00 00 00 00 00 00 00 00 00 00 00 00 00 00 00 00  |................|
 EBF2  00 00 00 00 00 00 00 00 00 00 00 00 00 00 00 00  |................|
 EC02  00 00 00 00 00 00 00 00 00 00 00 00 00 00 00 00  |................|
 EC12  00 00 00 00 00 00 00 00 00 00 00 00 00 00 00 00  |................|
 EC22  00 00 00 00 00 00 00 00 00 00 00 00 00 00 00 00  |................|
 EC32  00 00 00 00 00 00 00 00 00 00 00 00 00 00 00 00  |................|
 EC42  00 00 00 00 00 00 00 00 00 00 00 00 00 00 00 00  |................|
 EC52  00 00 00 00 00 00 00 00 00 00 00 00 00 00 00 00  |................|
 EC62  00 00 00 00 00 00 00 00 00 00 00 00 00 00 00 00  |................|
 EC72  00 00 00 00 00 00 00 00 00 00 00 00 00 00 00 00  |................|
 EC82  00 00 00 00 00 00 00 00 00 00 00 00 00 00 00 00  |................|
 EC92  00 00 00 00 00 00 00 00 00 00 00 00 00 00 00 00  |................|
 ECA2  00 00 00 00 00 00 00 00 00 00 00 00 00 00 00 00  |................|
 ECB2  00 00 00 00 00 00 00 00 00 00 00 00 00 00 00 00  |................|
 ECC2  00 00 00 00 00 00 00 00 00 00 00 00 00 00 00 00  |................|
 ECD2  00 00 00 00 00 00 00 00 00 00 00 00 00 00 00 00  |................|
 ECE2  00 00 00 00 00 00 00 00 00 00 00 00 00 00 00 00  |................|
 ECF2  00 00 00 00 00 00 00 00 00 00 00 00 00 00 00 00  |................|
 ED02  00 00 00 00 00 00 00 00 00 00 00 00 00 00 00 00  |................|
 ED12  00 00 00 00 00 00 00 00 00 00 00 00 00 00 00 00  |................|
 ED22  00 00 00 00 00 00 00 00 00 00 00 00 00 00 00 00  |................|
 ED32  00 00 00 00 00 00 00 00 00 00 00 00 00 00 00 00  |................|
 ED42  00 00 00 00 00 00 00 00 00 00 00 00 00 00 00 00  |................|
 ED52  00 00 00 00 00 00 00 00 00 00 00 00 00 00 00 00  |................|
 ED62  00 00 00 00 00 00 00 00 00 00 00 00 00 00 00 00  |................|
 ED72  00 00 00 00 00 00 00 00 00 00 00 00 00 00 00 00  |................|
 ED82  00 00 00 00 00 00 00 00 00 00 00 00 00 00 00 00  |................|
 ED92  00 00 00 00 00 00 00 00 00 00 00 00 00 00 00 00  |................|
 EDA2  00 00 00 00 00 00 00 00 00 00 00 00 00 00 00 00  |................|
 EDB2  00 00 00 00 00 00 00 00 00 00 00 00 00 00 00 00  |................|
 EDC2  00 00 00 00 00 00 00 00 00 00 00 00 00 00 00 00  |................|
 EDD2  00 00 00 00 00 00 00 00 00 00 00 00 00 00 00 00  |................|
 EDE2  00 00 00 00 00 00 00 00 00 00 00 00 00 00 00 00  |................|
 EDF2  00 00 00 00 00 00 00 00 00 00 00 00 00 00 00 00  |................|
 EE02  00 00 00 00 00 00 00 00 00 00 00 00 00 00 00 00  |................|
 EE12  00 00 00 00 00 00 00 00 00 00 00 00 00 00 00 00  |................|
 EE22  00 00 00 00 00 00 00 00 00 00 00 00 00 00 00 00  |................|
 EE32  00 00 00 00 00 00 00 00 00 00 00 00 00 00 00 00  |................|
 EE42  00 00 00 00 00 00 00 00 00 00 00 00 00 00 00 00  |................|
 EE52  00 00 00 00 00 00 00 00 00 00 00 00 00 00 00 00  |................|
 EE62  00 00 00 00 00 00 00 00 00 00 00 00 00 00 00 00  |................|
 EE72  00 00 00 00 00 00 00 00 00 00 00 00 00 00 00 00  |................|
 EE82  00 00 00 00 00 00 00 00 00 00 00 00 00 00 00 00  |................|
 EE92  00 00 00 00 00 00 00 00 00 00 00 00 00 00 00 00  |................|
 EEA2  00 00 00 00 00 00 00 00 00 00 00 00 00 00 00 00  |................|
 EEB2  00 00 00 00 00 00 00 00 00 00 00 00 00 00 00 00  |................|
 EEC2  00 00 00 00 00 00 00 00 00 00 00 00 00 00 00 00  |................|
 EED2  00 00 00 00 00 00 00 00 00 00 00 00 00 00 00 00  |................|
 EEE2  00 00 00 00 00 00 00 00 00 00 00 00 00 00 00 00  |................|
 EEF2  00 00 00 00 00 00 00 00 00 00 00 00 00 00 00 00  |................|
 EF02  00 00 00 00 00 00 00 00 00 00 00 00 00 00 00 00  |................|
 EF12  00 00 00 00 00 00 00 00 00 00 00 00 00 00 00 00  |................|
 EF22  00 00 00 00 00 00 00 00 00 00 00 00 00 00 00 00  |................|
 EF32  00 00 00 00 00 00 00 00 00 00 00 00 00 00 00 00  |................|
 EF42  00 00 00 00 00 00 00 00 00 00 00 00 00 00 00 00  |................|
 EF52  00 00 00 00 00 00 00 00 00 00 00 00 00 00 00 00  |................|
 EF62  00 00 00 00 00 00 00 00 00 00 00 00 00 00 00 00  |................|
 EF72  00 00 00 00 00 00 00 00 00 00 00 00 00 00 00 00  |................|
 EF82  00 00 00 00 00 00 00 00 00 00 00 00 00 00 00 00  |................|
 EF92  00 00 00 00 00 00 00 00 00 00 00 00 00 00 00 00  |................|
 EFA2  00 00 00 00 00 00 00 00 00 00 00 00 00 00 00 00  |................|
 EFB2  00 00 00 00 00 00 00 00 00 00 00 00 00 00 00 00  |................|
 EFC2  00 00 00 00 00 00 00 00 00 00 00 00 00 00 00 00  |................|
 EFD2  00 00 00 00 00 00 00 00 00 00 00 00 00 00 00 00  |................|
 EFE2  00 00 00 00 00 00 00 00 00 00 00 00 00 00 00 00  |................|
 EFF2  00 00 00 00 00 00 00 00 00 00 00 00 00 00 00 00  |................|
 F002  00 00 00 00 00 00 00 00 00 00 00 00 00 00        |..............  |
 F010  78        SEI  
 F011  A2 00     LDX  #$00
 F013  BD 2B F0  LDA  $F02B, X
 F016  F0 06     BEQ  $F01E
 F018  20 27 F0  JSR  $F027
 F01B  E8        INX  
 F01C  80 F5     BRA  $F013
 F01E  4C 00 80  JMP  $8000
 F021  AD 04 F0  LDA  $F004
 F024  F0 FB     BEQ  $F021
 F026  60        RTS  
 F027  8D 01 F0  STA  $F001
 F02A  60        RTS  
 F02B  54 61 6C 69 20 46 6F 72 74 68 20 32 20 64 65 66  |Tali Forth 2 def|
 F03B  61 75 6C 74 20 6B 65 72 6E 65 6C 20 66 6F 72 20  |ault kernel for |
 F04B  70 79 36 35 6D 6F 6E 20 28 31 38 2E 20 46 65 62  |py65mon (18. Feb|
 F05B  20 32 30 31 38 29 0A 00 00 00 00 00 00 00 00 00  | 2018)..........|
 F06B  00 00 00 00 00 00 00 00 00 00 00 00 00 00 00 00  |................|
 F07B  00 00 00 00 00 00 00 00 00 00 00 00 00 00 00 00  |................|
 F08B  00 00 00 00 00 00 00 00 00 00 00 00 00 00 00 00  |................|
 F09B  00 00 00 00 00 00 00 00 00 00 00 00 00 00 00 00  |................|
 F0AB  00 00 00 00 00 00 00 00 00 00 00 00 00 00 00 00  |................|
 F0BB  00 00 00 00 00 00 00 00 00 00 00 00 00 00 00 00  |................|
 F0CB  00 00 00 00 00 00 00 00 00 00 00 00 00 00 00 00  |................|
 F0DB  00 00 00 00 00 00 00 00 00 00 00 00 00 00 00 00  |................|
 F0EB  00 00 00 00 00 00 00 00 00 00 00 00 00 00 00 00  |................|
 F0FB  00 00 00 00 00 00 00 00 00 00 00 00 00 00 00 00  |................|
 F10B  00 00 00 00 00 00 00 00 00 00 00 00 00 00 00 00  |................|
 F11B  00 00 00 00 00 00 00 00 00 00 00 00 00 00 00 00  |................|
 F12B  00 00 00 00 00 00 00 00 00 00 00 00 00 00 00 00  |................|
 F13B  00 00 00 00 00 00 00 00 00 00 00 00 00 00 00 00  |................|
 F14B  00 00 00 00 00 00 00 00 00 00 00 00 00 00 00 00  |................|
 F15B  00 00 00 00 00 00 00 00 00 00 00 00 00 00 00 00  |................|
 F16B  00 00 00 00 00 00 00 00 00 00 00 00 00 00 00 00  |................|
 F17B  00 00 00 00 00 00 00 00 00 00 00 00 00 00 00 00  |................|
 F18B  00 00 00 00 00 00 00 00 00 00 00 00 00 00 00 00  |................|
 F19B  00 00 00 00 00 00 00 00 00 00 00 00 00 00 00 00  |................|
 F1AB  00 00 00 00 00 00 00 00 00 00 00 00 00 00 00 00  |................|
 F1BB  00 00 00 00 00 00 00 00 00 00 00 00 00 00 00 00  |................|
 F1CB  00 00 00 00 00 00 00 00 00 00 00 00 00 00 00 00  |................|
 F1DB  00 00 00 00 00 00 00 00 00 00 00 00 00 00 00 00  |................|
 F1EB  00 00 00 00 00 00 00 00 00 00 00 00 00 00 00 00  |................|
 F1FB  00 00 00 00 00 00 00 00 00 00 00 00 00 00 00 00  |................|
 F20B  00 00 00 00 00 00 00 00 00 00 00 00 00 00 00 00  |................|
 F21B  00 00 00 00 00 00 00 00 00 00 00 00 00 00 00 00  |................|
 F22B  00 00 00 00 00 00 00 00 00 00 00 00 00 00 00 00  |................|
 F23B  00 00 00 00 00 00 00 00 00 00 00 00 00 00 00 00  |................|
 F24B  00 00 00 00 00 00 00 00 00 00 00 00 00 00 00 00  |................|
 F25B  00 00 00 00 00 00 00 00 00 00 00 00 00 00 00 00  |................|
 F26B  00 00 00 00 00 00 00 00 00 00 00 00 00 00 00 00  |................|
 F27B  00 00 00 00 00 00 00 00 00 00 00 00 00 00 00 00  |................|
 F28B  00 00 00 00 00 00 00 00 00 00 00 00 00 00 00 00  |................|
 F29B  00 00 00 00 00 00 00 00 00 00 00 00 00 00 00 00  |................|
 F2AB  00 00 00 00 00 00 00 00 00 00 00 00 00 00 00 00  |................|
 F2BB  00 00 00 00 00 00 00 00 00 00 00 00 00 00 00 00  |................|
 F2CB  00 00 00 00 00 00 00 00 00 00 00 00 00 00 00 00  |................|
 F2DB  00 00 00 00 00 00 00 00 00 00 00 00 00 00 00 00  |................|
 F2EB  00 00 00 00 00 00 00 00 00 00 00 00 00 00 00 00  |................|
 F2FB  00 00 00 00 00 00 00 00 00 00 00 00 00 00 00 00  |................|
 F30B  00 00 00 00 00 00 00 00 00 00 00 00 00 00 00 00  |................|
 F31B  00 00 00 00 00 00 00 00 00 00 00 00 00 00 00 00  |................|
 F32B  00 00 00 00 00 00 00 00 00 00 00 00 00 00 00 00  |................|
 F33B  00 00 00 00 00 00 00 00 00 00 00 00 00 00 00 00  |................|
 F34B  00 00 00 00 00 00 00 00 00 00 00 00 00 00 00 00  |................|
 F35B  00 00 00 00 00 00 00 00 00 00 00 00 00 00 00 00  |................|
 F36B  00 00 00 00 00 00 00 00 00 00 00 00 00 00 00 00  |................|
 F37B  00 00 00 00 00 00 00 00 00 00 00 00 00 00 00 00  |................|
 F38B  00 00 00 00 00 00 00 00 00 00 00 00 00 00 00 00  |................|
 F39B  00 00 00 00 00 00 00 00 00 00 00 00 00 00 00 00  |................|
 F3AB  00 00 00 00 00 00 00 00 00 00 00 00 00 00 00 00  |................|
 F3BB  00 00 00 00 00 00 00 00 00 00 00 00 00 00 00 00  |................|
 F3CB  00 00 00 00 00 00 00 00 00 00 00 00 00 00 00 00  |................|
 F3DB  00 00 00 00 00 00 00 00 00 00 00 00 00 00 00 00  |................|
 F3EB  00 00 00 00 00 00 00 00 00 00 00 00 00 00 00 00  |................|
 F3FB  00 00 00 00 00 00 00 00 00 00 00 00 00 00 00 00  |................|
 F40B  00 00 00 00 00 00 00 00 00 00 00 00 00 00 00 00  |................|
 F41B  00 00 00 00 00 00 00 00 00 00 00 00 00 00 00 00  |................|
 F42B  00 00 00 00 00 00 00 00 00 00 00 00 00 00 00 00  |................|
 F43B  00 00 00 00 00 00 00 00 00 00 00 00 00 00 00 00  |................|
 F44B  00 00 00 00 00 00 00 00 00 00 00 00 00 00 00 00  |................|
 F45B  00 00 00 00 00 00 00 00 00 00 00 00 00 00 00 00  |................|
 F46B  00 00 00 00 00 00 00 00 00 00 00 00 00 00 00 00  |................|
 F47B  00 00 00 00 00 00 00 00 00 00 00 00 00 00 00 00  |................|
 F48B  00 00 00 00 00 00 00 00 00 00 00 00 00 00 00 00  |................|
 F49B  00 00 00 00 00 00 00 00 00 00 00 00 00 00 00 00  |................|
 F4AB  00 00 00 00 00 00 00 00 00 00 00 00 00 00 00 00  |................|
 F4BB  00 00 00 00 00 00 00 00 00 00 00 00 00 00 00 00  |................|
 F4CB  00 00 00 00 00 00 00 00 00 00 00 00 00 00 00 00  |................|
 F4DB  00 00 00 00 00 00 00 00 00 00 00 00 00 00 00 00  |................|
 F4EB  00 00 00 00 00 00 00 00 00 00 00 00 00 00 00 00  |................|
 F4FB  00 00 00 00 00 00 00 00 00 00 00 00 00 00 00 00  |................|
 F50B  00 00 00 00 00 00 00 00 00 00 00 00 00 00 00 00  |................|
 F51B  00 00 00 00 00 00 00 00 00 00 00 00 00 00 00 00  |................|
 F52B  00 00 00 00 00 00 00 00 00 00 00 00 00 00 00 00  |................|
 F53B  00 00 00 00 00 00 00 00 00 00 00 00 00 00 00 00  |................|
 F54B  00 00 00 00 00 00 00 00 00 00 00 00 00 00 00 00  |................|
 F55B  00 00 00 00 00 00 00 00 00 00 00 00 00 00 00 00  |................|
 F56B  00 00 00 00 00 00 00 00 00 00 00 00 00 00 00 00  |................|
 F57B  00 00 00 00 00 00 00 00 00 00 00 00 00 00 00 00  |................|
 F58B  00 00 00 00 00 00 00 00 00 00 00 00 00 00 00 00  |................|
 F59B  00 00 00 00 00 00 00 00 00 00 00 00 00 00 00 00  |................|
 F5AB  00 00 00 00 00 00 00 00 00 00 00 00 00 00 00 00  |................|
 F5BB  00 00 00 00 00 00 00 00 00 00 00 00 00 00 00 00  |................|
 F5CB  00 00 00 00 00 00 00 00 00 00 00 00 00 00 00 00  |................|
 F5DB  00 00 00 00 00 00 00 00 00 00 00 00 00 00 00 00  |................|
 F5EB  00 00 00 00 00 00 00 00 00 00 00 00 00 00 00 00  |................|
 F5FB  00 00 00 00 00 00 00 00 00 00 00 00 00 00 00 00  |................|
 F60B  00 00 00 00 00 00 00 00 00 00 00 00 00 00 00 00  |................|
 F61B  00 00 00 00 00 00 00 00 00 00 00 00 00 00 00 00  |................|
 F62B  00 00 00 00 00 00 00 00 00 00 00 00 00 00 00 00  |................|
 F63B  00 00 00 00 00 00 00 00 00 00 00 00 00 00 00 00  |................|
 F64B  00 00 00 00 00 00 00 00 00 00 00 00 00 00 00 00  |................|
 F65B  00 00 00 00 00 00 00 00 00 00 00 00 00 00 00 00  |................|
 F66B  00 00 00 00 00 00 00 00 00 00 00 00 00 00 00 00  |................|
 F67B  00 00 00 00 00 00 00 00 00 00 00 00 00 00 00 00  |................|
 F68B  00 00 00 00 00 00 00 00 00 00 00 00 00 00 00 00  |................|
 F69B  00 00 00 00 00 00 00 00 00 00 00 00 00 00 00 00  |................|
 F6AB  00 00 00 00 00 00 00 00 00 00 00 00 00 00 00 00  |................|
 F6BB  00 00 00 00 00 00 00 00 00 00 00 00 00 00 00 00  |................|
 F6CB  00 00 00 00 00 00 00 00 00 00 00 00 00 00 00 00  |................|
 F6DB  00 00 00 00 00 00 00 00 00 00 00 00 00 00 00 00  |................|
 F6EB  00 00 00 00 00 00 00 00 00 00 00 00 00 00 00 00  |................|
 F6FB  00 00 00 00 00 00 00 00 00 00 00 00 00 00 00 00  |................|
 F70B  00 00 00 00 00 00 00 00 00 00 00 00 00 00 00 00  |................|
 F71B  00 00 00 00 00 00 00 00 00 00 00 00 00 00 00 00  |................|
 F72B  00 00 00 00 00 00 00 00 00 00 00 00 00 00 00 00  |................|
 F73B  00 00 00 00 00 00 00 00 00 00 00 00 00 00 00 00  |................|
 F74B  00 00 00 00 00 00 00 00 00 00 00 00 00 00 00 00  |................|
 F75B  00 00 00 00 00 00 00 00 00 00 00 00 00 00 00 00  |................|
 F76B  00 00 00 00 00 00 00 00 00 00 00 00 00 00 00 00  |................|
 F77B  00 00 00 00 00 00 00 00 00 00 00 00 00 00 00 00  |................|
 F78B  00 00 00 00 00 00 00 00 00 00 00 00 00 00 00 00  |................|
 F79B  00 00 00 00 00 00 00 00 00 00 00 00 00 00 00 00  |................|
 F7AB  00 00 00 00 00 00 00 00 00 00 00 00 00 00 00 00  |................|
 F7BB  00 00 00 00 00 00 00 00 00 00 00 00 00 00 00 00  |................|
 F7CB  00 00 00 00 00 00 00 00 00 00 00 00 00 00 00 00  |................|
 F7DB  00 00 00 00 00 00 00 00 00 00 00 00 00 00 00 00  |................|
 F7EB  00 00 00 00 00 00 00 00 00 00 00 00 00 00 00 00  |................|
 F7FB  00 00 00 00 00 00 00 00 00 00 00 00 00 00 00 00  |................|
 F80B  00 00 00 00 00 00 00 00 00 00 00 00 00 00 00 00  |................|
 F81B  00 00 00 00 00 00 00 00 00 00 00 00 00 00 00 00  |................|
 F82B  00 00 00 00 00 00 00 00 00 00 00 00 00 00 00 00  |................|
 F83B  00 00 00 00 00 00 00 00 00 00 00 00 00 00 00 00  |................|
 F84B  00 00 00 00 00 00 00 00 00 00 00 00 00 00 00 00  |................|
 F85B  00 00 00 00 00 00 00 00 00 00 00 00 00 00 00 00  |................|
 F86B  00 00 00 00 00 00 00 00 00 00 00 00 00 00 00 00  |................|
 F87B  00 00 00 00 00 00 00 00 00 00 00 00 00 00 00 00  |................|
 F88B  00 00 00 00 00 00 00 00 00 00 00 00 00 00 00 00  |................|
 F89B  00 00 00 00 00 00 00 00 00 00 00 00 00 00 00 00  |................|
 F8AB  00 00 00 00 00 00 00 00 00 00 00 00 00 00 00 00  |................|
 F8BB  00 00 00 00 00 00 00 00 00 00 00 00 00 00 00 00  |................|
 F8CB  00 00 00 00 00 00 00 00 00 00 00 00 00 00 00 00  |................|
 F8DB  00 00 00 00 00 00 00 00 00 00 00 00 00 00 00 00  |................|
 F8EB  00 00 00 00 00 00 00 00 00 00 00 00 00 00 00 00  |................|
 F8FB  00 00 00 00 00 00 00 00 00 00 00 00 00 00 00 00  |................|
 F90B  00 00 00 00 00 00 00 00 00 00 00 00 00 00 00 00  |................|
 F91B  00 00 00 00 00 00 00 00 00 00 00 00 00 00 00 00  |................|
 F92B  00 00 00 00 00 00 00 00 00 00 00 00 00 00 00 00  |................|
 F93B  00 00 00 00 00 00 00 00 00 00 00 00 00 00 00 00  |................|
 F94B  00 00 00 00 00 00 00 00 00 00 00 00 00 00 00 00  |................|
 F95B  00 00 00 00 00 00 00 00 00 00 00 00 00 00 00 00  |................|
 F96B  00 00 00 00 00 00 00 00 00 00 00 00 00 00 00 00  |................|
 F97B  00 00 00 00 00 00 00 00 00 00 00 00 00 00 00 00  |................|
 F98B  00 00 00 00 00 00 00 00 00 00 00 00 00 00 00 00  |................|
 F99B  00 00 00 00 00 00 00 00 00 00 00 00 00 00 00 00  |................|
 F9AB  00 00 00 00 00 00 00 00 00 00 00 00 00 00 00 00  |................|
 F9BB  00 00 00 00 00 00 00 00 00 00 00 00 00 00 00 00  |................|
 F9CB  00 00 00 00 00 00 00 00 00 00 00 00 00 00 00 00  |................|
 F9DB  00 00 00 00 00 00 00 00 00 00 00 00 00 00 00 00  |................|
 F9EB  00 00 00 00 00 00 00 00 00 00 00 00 00 00 00 00  |................|
 F9FB  00 00 00 00 00 00 00 00 00 00 00 00 00 00 00 00  |................|
 FA0B  00 00 00 00 00 00 00 00 00 00 00 00 00 00 00 00  |................|
 FA1B  00 00 00 00 00 00 00 00 00 00 00 00 00 00 00 00  |................|
 FA2B  00 00 00 00 00 00 00 00 00 00 00 00 00 00 00 00  |................|
 FA3B  00 00 00 00 00 00 00 00 00 00 00 00 00 00 00 00  |................|
 FA4B  00 00 00 00 00 00 00 00 00 00 00 00 00 00 00 00  |................|
 FA5B  00 00 00 00 00 00 00 00 00 00 00 00 00 00 00 00  |................|
 FA6B  00 00 00 00 00 00 00 00 00 00 00 00 00 00 00 00  |................|
 FA7B  00 00 00 00 00 00 00 00 00 00 00 00 00 00 00 00  |................|
 FA8B  00 00 00 00 00 00 00 00 00 00 00 00 00 00 00 00  |................|
 FA9B  00 00 00 00 00 00 00 00 00 00 00 00 00 00 00 00  |................|
 FAAB  00 00 00 00 00 00 00 00 00 00 00 00 00 00 00 00  |................|
 FABB  00 00 00 00 00 00 00 00 00 00 00 00 00 00 00 00  |................|
 FACB  00 00 00 00 00 00 00 00 00 00 00 00 00 00 00 00  |................|
 FADB  00 00 00 00 00 00 00 00 00 00 00 00 00 00 00 00  |................|
 FAEB  00 00 00 00 00 00 00 00 00 00 00 00 00 00 00 00  |................|
 FAFB  00 00 00 00 00 00 00 00 00 00 00 00 00 00 00 00  |................|
 FB0B  00 00 00 00 00 00 00 00 00 00 00 00 00 00 00 00  |................|
 FB1B  00 00 00 00 00 00 00 00 00 00 00 00 00 00 00 00  |................|
 FB2B  00 00 00 00 00 00 00 00 00 00 00 00 00 00 00 00  |................|
 FB3B  00 00 00 00 00 00 00 00 00 00 00 00 00 00 00 00  |................|
 FB4B  00 00 00 00 00 00 00 00 00 00 00 00 00 00 00 00  |................|
 FB5B  00 00 00 00 00 00 00 00 00 00 00 00 00 00 00 00  |................|
 FB6B  00 00 00 00 00 00 00 00 00 00 00 00 00 00 00 00  |................|
 FB7B  00 00 00 00 00 00 00 00 00 00 00 00 00 00 00 00  |................|
 FB8B  00 00 00 00 00 00 00 00 00 00 00 00 00 00 00 00  |................|
 FB9B  00 00 00 00 00 00 00 00 00 00 00 00 00 00 00 00  |................|
 FBAB  00 00 00 00 00 00 00 00 00 00 00 00 00 00 00 00  |................|
 FBBB  00 00 00 00 00 00 00 00 00 00 00 00 00 00 00 00  |................|
 FBCB  00 00 00 00 00 00 00 00 00 00 00 00 00 00 00 00  |................|
 FBDB  00 00 00 00 00 00 00 00 00 00 00 00 00 00 00 00  |................|
 FBEB  00 00 00 00 00 00 00 00 00 00 00 00 00 00 00 00  |................|
 FBFB  00 00 00 00 00 00 00 00 00 00 00 00 00 00 00 00  |................|
 FC0B  00 00 00 00 00 00 00 00 00 00 00 00 00 00 00 00  |................|
 FC1B  00 00 00 00 00 00 00 00 00 00 00 00 00 00 00 00  |................|
 FC2B  00 00 00 00 00 00 00 00 00 00 00 00 00 00 00 00  |................|
 FC3B  00 00 00 00 00 00 00 00 00 00 00 00 00 00 00 00  |................|
 FC4B  00 00 00 00 00 00 00 00 00 00 00 00 00 00 00 00  |................|
 FC5B  00 00 00 00 00 00 00 00 00 00 00 00 00 00 00 00  |................|
 FC6B  00 00 00 00 00 00 00 00 00 00 00 00 00 00 00 00  |................|
 FC7B  00 00 00 00 00 00 00 00 00 00 00 00 00 00 00 00  |................|
 FC8B  00 00 00 00 00 00 00 00 00 00 00 00 00 00 00 00  |................|
 FC9B  00 00 00 00 00 00 00 00 00 00 00 00 00 00 00 00  |................|
 FCAB  00 00 00 00 00 00 00 00 00 00 00 00 00 00 00 00  |................|
 FCBB  00 00 00 00 00 00 00 00 00 00 00 00 00 00 00 00  |................|
 FCCB  00 00 00 00 00 00 00 00 00 00 00 00 00 00 00 00  |................|
 FCDB  00 00 00 00 00 00 00 00 00 00 00 00 00 00 00 00  |................|
 FCEB  00 00 00 00 00 00 00 00 00 00 00 00 00 00 00 00  |................|
 FCFB  00 00 00 00 00 00 00 00 00 00 00 00 00 00 00 00  |................|
 FD0B  00 00 00 00 00 00 00 00 00 00 00 00 00 00 00 00  |................|
 FD1B  00 00 00 00 00 00 00 00 00 00 00 00 00 00 00 00  |................|
 FD2B  00 00 00 00 00 00 00 00 00 00 00 00 00 00 00 00  |................|
 FD3B  00 00 00 00 00 00 00 00 00 00 00 00 00 00 00 00  |................|
 FD4B  00 00 00 00 00 00 00 00 00 00 00 00 00 00 00 00  |................|
 FD5B  00 00 00 00 00 00 00 00 00 00 00 00 00 00 00 00  |................|
 FD6B  00 00 00 00 00 00 00 00 00 00 00 00 00 00 00 00  |................|
 FD7B  00 00 00 00 00 00 00 00 00 00 00 00 00 00 00 00  |................|
 FD8B  00 00 00 00 00 00 00 00 00 00 00 00 00 00 00 00  |................|
 FD9B  00 00 00 00 00 00 00 00 00 00 00 00 00 00 00 00  |................|
 FDAB  00 00 00 00 00 00 00 00 00 00 00 00 00 00 00 00  |................|
 FDBB  00 00 00 00 00 00 00 00 00 00 00 00 00 00 00 00  |................|
 FDCB  00 00 00 00 00 00 00 00 00 00 00 00 00 00 00 00  |................|
 FDDB  00 00 00 00 00 00 00 00 00 00 00 00 00 00 00 00  |................|
 FDEB  00 00 00 00 00 00 00 00 00 00 00 00 00 00 00 00  |................|
 FDFB  00 00 00 00 00 00 00 00 00 00 00 00 00 00 00 00  |................|
 FE0B  00 00 00 00 00 00 00 00 00 00 00 00 00 00 00 00  |................|
 FE1B  00 00 00 00 00 00 00 00 00 00 00 00 00 00 00 00  |................|
 FE2B  00 00 00 00 00 00 00 00 00 00 00 00 00 00 00 00  |................|
 FE3B  00 00 00 00 00 00 00 00 00 00 00 00 00 00 00 00  |................|
 FE4B  00 00 00 00 00 00 00 00 00 00 00 00 00 00 00 00  |................|
 FE5B  00 00 00 00 00 00 00 00 00 00 00 00 00 00 00 00  |................|
 FE6B  00 00 00 00 00 00 00 00 00 00 00 00 00 00 00 00  |................|
 FE7B  00 00 00 00 00 00 00 00 00 00 00 00 00 00 00 00  |................|
 FE8B  00 00 00 00 00 00 00 00 00 00 00 00 00 00 00 00  |................|
 FE9B  00 00 00 00 00 00 00 00 00 00 00 00 00 00 00 00  |................|
 FEAB  00 00 00 00 00 00 00 00 00 00 00 00 00 00 00 00  |................|
 FEBB  00 00 00 00 00 00 00 00 00 00 00 00 00 00 00 00  |................|
 FECB  00 00 00 00 00 00 00 00 00 00 00 00 00 00 00 00  |................|
 FEDB  00 00 00 00 00 00 00 00 00 00 00 00 00 00 00 00  |................|
 FEEB  00 00 00 00 00 00 00 00 00 00 00 00 00 00 00 00  |................|
 FEFB  00 00 00 00 00 00 00 00 00 00 00 00 00 00 00 00  |................|
 FF0B  00 00 00 00 00 00 00 00 00 00 00 00 00 00 00 00  |................|
 FF1B  00 00 00 00 00 00 00 00 00 00 00 00 00 00 00 00  |................|
 FF2B  00 00 00 00 00 00 00 00 00 00 00 00 00 00 00 00  |................|
 FF3B  00 00 00 00 00 00 00 00 00 00 00 00 00 00 00 00  |................|
 FF4B  00 00 00 00 00 00 00 00 00 00 00 00 00 00 00 00  |................|
 FF5B  00 00 00 00 00 00 00 00 00 00 00 00 00 00 00 00  |................|
 FF6B  00 00 00 00 00 00 00 00 00 00 00 00 00 00 00 00  |................|
 FF7B  00 00 00 00 00 00 00 00 00 00 00 00 00 00 00 00  |................|
 FF8B  00 00 00 00 00 00 00 00 00 00 00 00 00 00 00 00  |................|
 FF9B  00 00 00 00 00 00 00 00 00 00 00 00 00 00 00 00  |................|
 FFAB  00 00 00 00 00 00 00 00 00 00 00 00 00 00 00 00  |................|
 FFBB  00 00 00 00 00 00 00 00 00 00 00 00 00 00 00 00  |................|
 FFCB  00 00 00 00 00 00 00 00 00 00 00 00 00 00 00 00  |................|
 FFDB  00 00 00 00 00 00 00 00 00 00 00 00 00 00 00 00  |................|
 FFEB  00 00 00 00 00 00 00 00 00 00 00 00 00 00 00 10  |................|
 FFFB  F0 10 F0 10 F0                                   |.....           |
