 8000  78        SEI  
 8001  D8        CLD  
 8002  A9 1C     LDA  #$1C
 8004  85 10     STA  $10
 8006  A9 F0     LDA  #$F0
 8008  85 11     STA  $11
 800A  A9 16     LDA  #$16
 800C  85 12     STA  $12
 800E  A9 F0     LDA  #$F0
 8010  85 13     STA  $13
 8012  A2 FF     LDX  #$FF
 8014  9A        TXS  
 8015  A2 78     LDX  #$78
 8017  A9 0A     LDA  #$0A
 8019  85 18     STA  $18
 801B  64 19     STZ  $19
 801D  A9 14     LDA  #$14
 801F  85 1A     STA  $1A
 8021  64 1B     STZ  $1B
 8023  64 1C     STZ  $1C
 8025  64 1D     STZ  $1D
 8027  A9 FF     LDA  #$FF
 8029  85 00     STA  $00
 802B  A9 02     LDA  #$02
 802D  85 01     STA  $01
 802F  A9 00     LDA  #$00
 8031  85 08     STA  $08
 8033  A9 02     LDA  #$02
 8035  85 09     STA  $09
 8037  64 0A     STZ  $0A
 8039  64 0B     STZ  $0B
 803B  64 06     STZ  $06
 803D  64 07     STZ  $07
 803F  64 16     STZ  $16
 8041  64 17     STZ  $17
 8043  A9 58     LDA  #$58
 8045  85 02     STA  $02
 8047  A9 B1     LDA  #$B1
 8049  85 03     STA  $03
 804B  20 2C 85  JSR  $852C
 804E  CA        DEX  
 804F  CA        DEX  
 8050  CA        DEX  
 8051  CA        DEX  
 8052  A9 86     LDA  #$86
 8054  95 02     STA  $02, X
 8056  A9 A1     LDA  #$A1
 8058  95 03     STA  $03, X
 805A  A9 8C     LDA  #$8C
 805C  38        SEC  
 805D  E9 86     SBC  #$86
 805F  95 00     STA  $00, X
 8061  A9 A6     LDA  #$A6
 8063  E9 A1     SBC  #$A1
 8065  95 01     STA  $01, X
 8067  20 1D 89  JSR  $891D
 806A  CA        DEX  
 806B  CA        DEX  
 806C  CA        DEX  
 806D  CA        DEX  
 806E  A9 8C     LDA  #$8C
 8070  95 02     STA  $02, X
 8072  A9 A6     LDA  #$A6
 8074  95 03     STA  $03, X
 8076  A9 3F     LDA  #$3F
 8078  38        SEC  
 8079  E9 8C     SBC  #$8C
 807B  95 00     STA  $00, X
 807D  A9 A8     LDA  #$A8
 807F  E9 A6     SBC  #$A6
 8081  95 01     STA  $01, X
 8083  20 1D 89  JSR  $891D
 8086  A2 78     LDX  #$78
 8088  8A        TXA  
 8089  A2 FF     LDX  #$FF
 808B  9A        TXS  
 808C  AA        TAX  
 808D  64 0E     STZ  $0E
 808F  64 0F     STZ  $0F
 8091  64 06     STZ  $06
 8093  64 07     STZ  $07
 8095  64 16     STZ  $16
 8097  64 17     STZ  $17
 8099  A9 00     LDA  #$00
 809B  85 08     STA  $08
 809D  A9 02     LDA  #$02
 809F  85 09     STA  $09
 80A1  64 0A     STZ  $0A
 80A3  64 0B     STZ  $0B
 80A5  20 C9 91  JSR  $91C9
 80A8  B5 00     LDA  $00, X
 80AA  D0 05     BNE  $80B1
 80AC  A9 08     LDA  #$08
 80AE  4C 3E B4  JMP  $B43E
 80B1  E8        INX  
 80B2  E8        INX  
 80B3  64 0C     STZ  $0C
 80B5  64 0D     STZ  $0D
 80B7  20 D1 B3  JSR  $B3D1
 80BA  E0 78     CPX  #$78
 80BC  F0 05     BEQ  $80C3
 80BE  90 03     BCC  $80C3
 80C0  4C 3C B4  JMP  $B43C
 80C3  A5 16     LDA  $16
 80C5  F0 02     BEQ  $80C9
 80C7  A9 01     LDA  #$01
 80C9  20 51 B4  JSR  $B451
 80CC  80 CB     BRA  $8099
 80CE  20 46 92  JSR  $9246
 80D1  A0 80     LDY  #$80
 80D3  A9 D9     LDA  #$D9
 80D5  20 31 B3  JSR  $B331
 80D8  60        RTS  
 80D9  B5 04     LDA  $04, X
 80DB  15 05     ORA  $05, X
 80DD  F0 09     BEQ  $80E8
 80DF  20 E1 96  JSR  $96E1
 80E2  20 2C 85  JSR  $852C
 80E5  4C 86 80  JMP  $8086
 80E8  8A        TXA  
 80E9  18        CLC  
 80EA  69 06     ADC  #$06
 80EC  AA        TAX  
 80ED  60        RTS  
 80EE  E0 77     CPX  #$77
 80F0  30 03     BMI  $80F5
 80F2  4C 3C B4  JMP  $B43C
 80F5  B5 01     LDA  $01, X
 80F7  10 0D     BPL  $8106
 80F9  38        SEC  
 80FA  A9 00     LDA  #$00
 80FC  F5 00     SBC  $00, X
 80FE  95 00     STA  $00, X
 8100  A9 00     LDA  #$00
 8102  F5 01     SBC  $01, X
 8104  95 01     STA  $01, X
 8106  60        RTS  
 8107  E0 75     CPX  #$75
 8109  30 03     BMI  $810E
 810B  4C 3C B4  JMP  $B43C
 810E  B5 00     LDA  $00, X
 8110  15 01     ORA  $01, X
 8112  D0 08     BNE  $811C
 8114  E8        INX  
 8115  E8        INX  
 8116  74 00     STZ  $00, X
 8118  74 01     STZ  $01, X
 811A  80 54     BRA  $8170
 811C  B5 00     LDA  $00, X
 811E  85 22     STA  $22
 8120  64 23     STZ  $23
 8122  B5 02     LDA  $02, X
 8124  85 20     STA  $20
 8126  B5 03     LDA  $03, X
 8128  85 21     STA  $21
 812A  E8        INX  
 812B  E8        INX  
 812C  A0 00     LDY  #$00
 812E  20 A0 8B  JSR  $8BA0
 8131  C9 0A     CMP  #$0A
 8133  F0 16     BEQ  $814B
 8135  C9 0D     CMP  #$0D
 8137  F0 12     BEQ  $814B
 8139  C9 08     CMP  #$08
 813B  F0 17     BEQ  $8154
 813D  C9 7F     CMP  #$7F
 813F  F0 13     BEQ  $8154
 8141  20 A3 88  JSR  $88A3
 8144  91 20     STA  ($20), Y
 8146  C8        INY  
 8147  C4 22     CPY  $22
 8149  D0 E3     BNE  $812E
 814B  94 00     STY  $00, X
 814D  74 01     STZ  $01, X
 814F  20 F3 93  JSR  $93F3
 8152  80 1C     BRA  $8170
 8154  C0 00     CPY  #$00
 8156  D0 06     BNE  $815E
 8158  A9 07     LDA  #$07
 815A  20 A3 88  JSR  $88A3
 815D  C8        INY  
 815E  88        DEY  
 815F  A9 08     LDA  #$08
 8161  20 A3 88  JSR  $88A3
 8164  A9 20     LDA  #$20
 8166  20 A3 88  JSR  $88A3
 8169  A9 08     LDA  #$08
 816B  20 A3 88  JSR  $88A3
 816E  80 BE     BRA  $812E
 8170  60        RTS  
 8171  E0 77     CPX  #$77
 8173  30 03     BMI  $8178
 8175  4C 3C B4  JMP  $B43C
 8178  A0 00     LDY  #$00
 817A  A9 4C     LDA  #$4C
 817C  91 00     STA  ($00), Y
 817E  C8        INY  
 817F  B5 00     LDA  $00, X
 8181  91 00     STA  ($00), Y
 8183  C8        INY  
 8184  B5 01     LDA  $01, X
 8186  91 00     STA  ($00), Y
 8188  C8        INY  
 8189  98        TYA  
 818A  18        CLC  
 818B  65 00     ADC  $00
 818D  85 00     STA  $00
 818F  90 02     BCC  $8193
 8191  E6 01     INC  $01
 8193  E8        INX  
 8194  E8        INX  
 8195  60        RTS  
 8196  60        RTS  
 8197  E0 77     CPX  #$77
 8199  30 03     BMI  $819E
 819B  4C 3C B4  JMP  $B43C
 819E  18        CLC  
 819F  A5 00     LDA  $00
 81A1  75 00     ADC  $00, X
 81A3  85 00     STA  $00
 81A5  A5 01     LDA  $01
 81A7  75 01     ADC  $01, X
 81A9  85 01     STA  $01
 81AB  B5 01     LDA  $01, X
 81AD  30 15     BMI  $81C4
 81AF  A0 FF     LDY  #$FF
 81B1  C4 00     CPY  $00
 81B3  A9 7F     LDA  #$7F
 81B5  E5 01     SBC  $01
 81B7  B0 1B     BCS  $81D4
 81B9  84 00     STY  $00
 81BB  A9 7F     LDA  #$7F
 81BD  85 01     STA  $01
 81BF  A9 00     LDA  #$00
 81C1  4C 3E B4  JMP  $B43E
 81C4  A0 FF     LDY  #$FF
 81C6  C4 00     CPY  $00
 81C8  A9 02     LDA  #$02
 81CA  E5 01     SBC  $01
 81CC  90 06     BCC  $81D4
 81CE  84 00     STY  $00
 81D0  A9 02     LDA  #$02
 81D2  85 01     STA  $01
 81D4  E8        INX  
 81D5  E8        INX  
 81D6  60        RTS  
 81D7  A0 01     LDY  #$01
 81D9  B1 02     LDA  ($02), Y
 81DB  09 02     ORA  #$02
 81DD  91 02     STA  ($02), Y
 81DF  60        RTS  
 81E0  E0 75     CPX  #$75
 81E2  30 03     BMI  $81E7
 81E4  4C 3C B4  JMP  $B43C
 81E7  B5 00     LDA  $00, X
 81E9  35 02     AND  $02, X
 81EB  95 02     STA  $02, X
 81ED  B5 01     LDA  $01, X
 81EF  35 03     AND  $03, X
 81F1  95 03     STA  $03, X
 81F3  E8        INX  
 81F4  E8        INX  
 81F5  60        RTS  
 81F6  E0 75     CPX  #$75
 81F8  30 03     BMI  $81FD
 81FA  4C 3C B4  JMP  $B43C
 81FD  A9 1B     LDA  #$1B
 81FF  20 A3 88  JSR  $88A3
 8202  A9 5B     LDA  #$5B
 8204  20 A3 88  JSR  $88A3
 8207  20 74 B4  JSR  $B474
 820A  A9 3B     LDA  #$3B
 820C  20 A3 88  JSR  $88A3
 820F  20 74 B4  JSR  $B474
 8212  A9 48     LDA  #$48
 8214  20 A3 88  JSR  $88A3
 8217  60        RTS  
 8218  A5 0A     LDA  $0A
 821A  85 0C     STA  $0C
 821C  A5 0B     LDA  $0B
 821E  85 0D     STA  $0D
 8220  60        RTS  
 8221  CA        DEX  
 8222  CA        DEX  
 8223  A9 18     LDA  #$18
 8225  95 00     STA  $00, X
 8227  A9 00     LDA  #$00
 8229  95 01     STA  $01, X
 822B  60        RTS  
 822C  20 BE 8A  JSR  $8ABE
 822F  60        RTS  
 8230  A9 07     LDA  #$07
 8232  20 A3 88  JSR  $88A3
 8235  60        RTS  
 8236  CA        DEX  
 8237  CA        DEX  
 8238  A9 20     LDA  #$20
 823A  95 00     STA  $00, X
 823C  74 01     STZ  $01, X
 823E  60        RTS  
 823F  E0 75     CPX  #$75
 8241  30 03     BMI  $8246
 8243  4C 3C B4  JMP  $B43C
 8246  18        CLC  
 8247  B5 00     LDA  $00, X
 8249  B4 02     LDY  $02, X
 824B  75 02     ADC  $02, X
 824D  95 02     STA  $02, X
 824F  94 00     STY  $00, X
 8251  B5 01     LDA  $01, X
 8253  B4 03     LDY  $03, X
 8255  75 03     ADC  $03, X
 8257  95 03     STA  $03, X
 8259  94 01     STY  $01, X
 825B  60        RTS  
 825C  20 C9 82  JSR  $82C9
 825F  20 E6 8B  JSR  $8BE6
 8262  60        RTS  
 8263  20 79 94  JSR  $9479
 8266  20 E6 8B  JSR  $8BE6
 8269  60        RTS  
 826A  A0 82     LDY  #$82
 826C  A9 72     LDA  #$72
 826E  20 31 B3  JSR  $B331
 8271  60        RTS  
 8272  68        PLA  
 8273  85 1E     STA  $1E
 8275  68        PLA  
 8276  85 1F     STA  $1F
 8278  A0 01     LDY  #$01
 827A  B1 1E     LDA  ($1E), Y
 827C  85 20     STA  $20
 827E  C8        INY  
 827F  B1 1E     LDA  ($1E), Y
 8281  85 21     STA  $21
 8283  6C 20 00  JMP  ($0020)
 8286  00        BRK  
 8287  60        RTS  
 8288  E0 77     CPX  #$77
 828A  30 03     BMI  $828F
 828C  4C 3C B4  JMP  $B43C
 828F  B5 00     LDA  $00, X
 8291  20 41 B3  JSR  $B341
 8294  E8        INX  
 8295  E8        INX  
 8296  60        RTS  
 8297  E0 77     CPX  #$77
 8299  30 03     BMI  $829E
 829B  4C 3C B4  JMP  $B43C
 829E  A1 00     LDA  ($00, X)
 82A0  95 00     STA  $00, X
 82A2  74 01     STZ  $01, X
 82A4  60        RTS  
 82A5  E0 75     CPX  #$75
 82A7  30 03     BMI  $82AC
 82A9  4C 3C B4  JMP  $B43C
 82AC  B5 02     LDA  $02, X
 82AE  81 00     STA  ($00, X)
 82B0  E8        INX  
 82B1  E8        INX  
 82B2  E8        INX  
 82B3  E8        INX  
 82B4  60        RTS  
 82B5  E0 77     CPX  #$77
 82B7  30 03     BMI  $82BC
 82B9  4C 3C B4  JMP  $B43C
 82BC  F6 00     INC  $00, X
 82BE  D0 02     BNE  $82C2
 82C0  F6 01     INC  $01, X
 82C2  F6 00     INC  $00, X
 82C4  D0 02     BNE  $82C8
 82C6  F6 01     INC  $01, X
 82C8  60        RTS  
 82C9  20 E1 8F  JSR  $8FE1
 82CC  B5 00     LDA  $00, X
 82CE  15 01     ORA  $01, X
 82D0  D0 05     BNE  $82D7
 82D2  A9 06     LDA  #$06
 82D4  4C 3E B4  JMP  $B43E
 82D7  E8        INX  
 82D8  E8        INX  
 82D9  A1 00     LDA  ($00, X)
 82DB  95 00     STA  $00, X
 82DD  74 01     STZ  $01, X
 82DF  60        RTS  
 82E0  E0 77     CPX  #$77
 82E2  30 03     BMI  $82E7
 82E4  4C 3C B4  JMP  $B43C
 82E7  60        RTS  
 82E8  E0 73     CPX  #$73
 82EA  30 03     BMI  $82EF
 82EC  4C 3C B4  JMP  $B43C
 82EF  B5 02     LDA  $02, X
 82F1  85 22     STA  $22
 82F3  B5 03     LDA  $03, X
 82F5  85 23     STA  $23
 82F7  B5 04     LDA  $04, X
 82F9  85 20     STA  $20
 82FB  B5 05     LDA  $05, X
 82FD  85 21     STA  $21
 82FF  A0 00     LDY  #$00
 8301  B5 01     LDA  $01, X
 8303  F0 0F     BEQ  $8314
 8305  B1 20     LDA  ($20), Y
 8307  91 22     STA  ($22), Y
 8309  C8        INY  
 830A  D0 F9     BNE  $8305
 830C  E6 21     INC  $21
 830E  E6 23     INC  $23
 8310  D6 01     DEC  $01, X
 8312  D0 F1     BNE  $8305
 8314  B5 00     LDA  $00, X
 8316  F0 09     BEQ  $8321
 8318  B1 20     LDA  ($20), Y
 831A  91 22     STA  ($22), Y
 831C  C8        INY  
 831D  D6 00     DEC  $00, X
 831F  D0 F7     BNE  $8318
 8321  8A        TXA  
 8322  18        CLC  
 8323  69 06     ADC  #$06
 8325  AA        TAX  
 8326  60        RTS  
 8327  E0 73     CPX  #$73
 8329  30 03     BMI  $832E
 832B  4C 3C B4  JMP  $B43C
 832E  B5 02     LDA  $02, X
 8330  85 22     STA  $22
 8332  B5 03     LDA  $03, X
 8334  18        CLC  
 8335  75 01     ADC  $01, X
 8337  85 23     STA  $23
 8339  B5 04     LDA  $04, X
 833B  85 20     STA  $20
 833D  B5 05     LDA  $05, X
 833F  18        CLC  
 8340  75 01     ADC  $01, X
 8342  85 21     STA  $21
 8344  F6 01     INC  $01, X
 8346  B4 00     LDY  $00, X
 8348  F0 0E     BEQ  $8358
 834A  88        DEY  
 834B  F0 07     BEQ  $8354
 834D  B1 20     LDA  ($20), Y
 834F  91 22     STA  ($22), Y
 8351  88        DEY  
 8352  D0 F9     BNE  $834D
 8354  B2 20     LDA  ($20)
 8356  92 22     STA  ($22)
 8358  C6 21     DEC  $21
 835A  C6 23     DEC  $23
 835C  D6 01     DEC  $01, X
 835E  D0 EA     BNE  $834A
 8360  8A        TXA  
 8361  18        CLC  
 8362  69 06     ADC  #$06
 8364  AA        TAX  
 8365  60        RTS  
 8366  A5 16     LDA  $16
 8368  05 17     ORA  $17
 836A  F0 05     BEQ  $8371
 836C  A9 0A     LDA  #$0A
 836E  4C 3E B4  JMP  $B43E
 8371  C6 16     DEC  $16
 8373  C6 17     DEC  $17
 8375  A5 03     LDA  $03
 8377  48        PHA  
 8378  A5 02     LDA  $02
 837A  48        PHA  
 837B  20 32 85  JSR  $8532
 837E  A5 02     LDA  $02
 8380  85 04     STA  $04
 8382  A5 03     LDA  $03
 8384  85 05     STA  $05
 8386  68        PLA  
 8387  85 02     STA  $02
 8389  68        PLA  
 838A  85 03     STA  $03
 838C  A5 00     LDA  $00
 838E  38        SEC  
 838F  E9 03     SBC  #$03
 8391  85 00     STA  $00
 8393  B0 02     BCS  $8397
 8395  C6 01     DEC  $01
 8397  60        RTS  
 8398  E0 77     CPX  #$77
 839A  D0 03     BNE  $839F
 839C  4C 3C B4  JMP  $B43C
 839F  B5 00     LDA  $00, X
 83A1  92 00     STA  ($00)
 83A3  E6 00     INC  $00
 83A5  D0 02     BNE  $83A9
 83A7  E6 01     INC  $01
 83A9  B5 01     LDA  $01, X
 83AB  92 00     STA  ($00)
 83AD  E6 00     INC  $00
 83AF  D0 02     BNE  $83B3
 83B1  E6 01     INC  $01
 83B3  E8        INX  
 83B4  E8        INX  
 83B5  60        RTS  
 83B6  E0 77     CPX  #$77
 83B8  30 03     BMI  $83BD
 83BA  4C 3C B4  JMP  $B43C
 83BD  B5 01     LDA  $01, X
 83BF  48        PHA  
 83C0  B5 00     LDA  $00, X
 83C2  48        PHA  
 83C3  20 14 8B  JSR  $8B14
 83C6  B5 00     LDA  $00, X
 83C8  85 28     STA  $28
 83CA  B5 01     LDA  $01, X
 83CC  85 29     STA  $29
 83CE  F6 00     INC  $00, X
 83D0  D0 02     BNE  $83D4
 83D2  F6 01     INC  $01, X
 83D4  A1 00     LDA  ($00, X)
 83D6  85 24     STA  $24
 83D8  29 02     AND  #$02
 83DA  F0 0D     BEQ  $83E9
 83DC  A5 28     LDA  $28
 83DE  95 00     STA  $00, X
 83E0  A5 29     LDA  $29
 83E2  95 01     STA  $01, X
 83E4  20 8B 98  JSR  $988B
 83E7  80 1C     BRA  $8405
 83E9  A5 24     LDA  $24
 83EB  29 08     AND  #$08
 83ED  F0 03     BEQ  $83F2
 83EF  4C AE 84  JMP  $84AE
 83F2  A5 28     LDA  $28
 83F4  95 00     STA  $00, X
 83F6  A5 29     LDA  $29
 83F8  95 01     STA  $01, X
 83FA  20 8B 98  JSR  $988B
 83FD  18        CLC  
 83FE  C5 1A     CMP  $1A
 8400  90 03     BCC  $8405
 8402  4C AE 84  JMP  $84AE
 8405  CA        DEX  
 8406  CA        DEX  
 8407  CA        DEX  
 8408  CA        DEX  
 8409  B5 04     LDA  $04, X
 840B  95 00     STA  $00, X
 840D  B5 05     LDA  $05, X
 840F  95 01     STA  $01, X
 8411  68        PLA  
 8412  95 04     STA  $04, X
 8414  68        PLA  
 8415  95 05     STA  $05, X
 8417  A5 00     LDA  $00
 8419  95 02     STA  $02, X
 841B  A5 01     LDA  $01
 841D  95 03     STA  $03, X
 841F  A0 00     LDY  #$00
 8421  B9 9C 84  LDA  $849C, Y
 8424  D5 04     CMP  $04, X
 8426  D0 09     BNE  $8431
 8428  C8        INY  
 8429  B9 9C 84  LDA  $849C, Y
 842C  D5 05     CMP  $05, X
 842E  F0 0D     BEQ  $843D
 8430  88        DEY  
 8431  B9 9C 84  LDA  $849C, Y
 8434  19 9D 84  ORA  $849D, Y
 8437  F0 27     BEQ  $8460
 8439  C8        INY  
 843A  C8        INY  
 843B  80 E4     BRA  $8421
 843D  88        DEY  
 843E  98        TYA  
 843F  4A        LSR  
 8440  A8        TAY  
 8441  B9 A8 84  LDA  $84A8, Y
 8444  85 28     STA  $28
 8446  18        CLC  
 8447  75 04     ADC  $04, X
 8449  95 04     STA  $04, X
 844B  B5 05     LDA  $05, X
 844D  69 00     ADC  #$00
 844F  95 05     STA  $05, X
 8451  06 28     ASL  $28
 8453  38        SEC  
 8454  B5 00     LDA  $00, X
 8456  E5 28     SBC  $28
 8458  95 00     STA  $00, X
 845A  B5 01     LDA  $01, X
 845C  E9 00     SBC  #$00
 845E  95 01     STA  $01, X
 8460  A5 1C     LDA  $1C
 8462  05 1D     ORA  $1D
 8464  F0 20     BEQ  $8486
 8466  A5 24     LDA  $24
 8468  29 10     AND  #$10
 846A  F0 1A     BEQ  $8486
 846C  18        CLC  
 846D  B5 04     LDA  $04, X
 846F  69 07     ADC  #$07
 8471  95 04     STA  $04, X
 8473  B5 05     LDA  $05, X
 8475  69 00     ADC  #$00
 8477  95 05     STA  $05, X
 8479  38        SEC  
 847A  B5 00     LDA  $00, X
 847C  E9 07     SBC  #$07
 847E  95 00     STA  $00, X
 8480  B5 01     LDA  $01, X
 8482  E9 00     SBC  #$00
 8484  95 01     STA  $01, X
 8486  B5 01     LDA  $01, X
 8488  48        PHA  
 8489  B5 00     LDA  $00, X
 848B  48        PHA  
 848C  20 97 8D  JSR  $8D97
 848F  18        CLC  
 8490  68        PLA  
 8491  65 00     ADC  $00
 8493  85 00     STA  $00
 8495  68        PLA  
 8496  65 01     ADC  $01
 8498  85 01     STA  $01
 849A  80 2C     BRA  $84C8
 849C  8B 91 76 91 A4 95 AE 96 4E 96 00 00 04 04 04 06  |..v.....N.......|
 84AC  06 00                                            |..              |
 84AE  A9 20     LDA  #$20
 84B0  92 00     STA  ($00)
 84B2  A0 01     LDY  #$01
 84B4  68        PLA  
 84B5  91 00     STA  ($00), Y
 84B7  C8        INY  
 84B8  68        PLA  
 84B9  91 00     STA  ($00), Y
 84BB  A9 03     LDA  #$03
 84BD  18        CLC  
 84BE  65 00     ADC  $00
 84C0  85 00     STA  $00
 84C2  90 02     BCC  $84C6
 84C4  E6 01     INC  $01
 84C6  E8        INX  
 84C7  E8        INX  
 84C8  60        RTS  
 84C9  A0 01     LDY  #$01
 84CB  B1 02     LDA  ($02), Y
 84CD  09 01     ORA  #$01
 84CF  91 02     STA  ($02), Y
 84D1  60        RTS  
 84D2  E0 77     CPX  #$77
 84D4  30 03     BMI  $84D9
 84D6  4C 3C B4  JMP  $B43C
 84D9  20 32 85  JSR  $8532
 84DC  38        SEC  
 84DD  A5 00     LDA  $00
 84DF  E9 02     SBC  #$02
 84E1  85 20     STA  $20
 84E3  A5 01     LDA  $01
 84E5  E9 00     SBC  #$00
 84E7  85 21     STA  $21
 84E9  A9 4A     LDA  #$4A
 84EB  92 20     STA  ($20)
 84ED  A0 01     LDY  #$01
 84EF  A9 B3     LDA  #$B3
 84F1  91 20     STA  ($20), Y
 84F3  20 98 83  JSR  $8398
 84F6  20 A3 8B  JSR  $8BA3
 84F9  B5 00     LDA  $00, X
 84FB  85 20     STA  $20
 84FD  B5 01     LDA  $01, X
 84FF  85 21     STA  $21
 8501  A0 06     LDY  #$06
 8503  B1 20     LDA  ($20), Y
 8505  18        CLC  
 8506  69 02     ADC  #$02
 8508  91 20     STA  ($20), Y
 850A  C8        INY  
 850B  B1 20     LDA  ($20), Y
 850D  69 00     ADC  #$00
 850F  91 20     STA  ($20), Y
 8511  E8        INX  
 8512  E8        INX  
 8513  60        RTS  
 8514  E0 77     CPX  #$77
 8516  30 03     BMI  $851B
 8518  4C 3C B4  JMP  $B43C
 851B  A1 00     LDA  ($00, X)
 851D  A8        TAY  
 851E  F6 00     INC  $00, X
 8520  D0 02     BNE  $8524
 8522  F6 01     INC  $01, X
 8524  98        TYA  
 8525  CA        DEX  
 8526  CA        DEX  
 8527  95 00     STA  $00, X
 8529  74 01     STZ  $01, X
 852B  60        RTS  
 852C  A9 0A     LDA  #$0A
 852E  20 A3 88  JSR  $88A3
 8531  60        RTS  
 8532  20 E1 8F  JSR  $8FE1
 8535  B5 00     LDA  $00, X
 8537  15 01     ORA  $01, X
 8539  D0 05     BNE  $8540
 853B  A9 06     LDA  #$06
 853D  4C 3E B4  JMP  $B43E
 8540  74 01     STZ  $01, X
 8542  B5 00     LDA  $00, X
 8544  85 22     STA  $22
 8546  A5 00     LDA  $00
 8548  85 20     STA  $20
 854A  A5 01     LDA  $01
 854C  85 21     STA  $21
 854E  B5 00     LDA  $00, X
 8550  18        CLC  
 8551  69 08     ADC  #$08
 8553  85 24     STA  $24
 8555  18        CLC  
 8556  69 03     ADC  #$03
 8558  95 00     STA  $00, X
 855A  74 01     STZ  $01, X
 855C  20 97 81  JSR  $8197
 855F  A0 00     LDY  #$00
 8561  A5 22     LDA  $22
 8563  91 20     STA  ($20), Y
 8565  A9 08     LDA  #$08
 8567  C8        INY  
 8568  91 20     STA  ($20), Y
 856A  C8        INY  
 856B  A5 02     LDA  $02
 856D  91 20     STA  ($20), Y
 856F  C8        INY  
 8570  A5 03     LDA  $03
 8572  91 20     STA  ($20), Y
 8574  C8        INY  
 8575  A5 21     LDA  $21
 8577  85 03     STA  $03
 8579  A5 20     LDA  $20
 857B  85 02     STA  $02
 857D  18        CLC  
 857E  65 24     ADC  $24
 8580  91 20     STA  ($20), Y
 8582  48        PHA  
 8583  C8        INY  
 8584  A5 21     LDA  $21
 8586  69 00     ADC  #$00
 8588  91 20     STA  ($20), Y
 858A  C8        INY  
 858B  68        PLA  
 858C  18        CLC  
 858D  69 03     ADC  #$03
 858F  91 20     STA  ($20), Y
 8591  88        DEY  
 8592  B1 20     LDA  ($20), Y
 8594  69 00     ADC  #$00
 8596  C8        INY  
 8597  C8        INY  
 8598  91 20     STA  ($20), Y
 859A  C8        INY  
 859B  B5 00     LDA  $00, X
 859D  38        SEC  
 859E  E9 08     SBC  #$08
 85A0  85 28     STA  $28
 85A2  B5 01     LDA  $01, X
 85A4  E9 00     SBC  #$00
 85A6  85 29     STA  $29
 85A8  B1 28     LDA  ($28), Y
 85AA  91 20     STA  ($20), Y
 85AC  C8        INY  
 85AD  C6 22     DEC  $22
 85AF  D0 F7     BNE  $85A8
 85B1  A9 20     LDA  #$20
 85B3  91 20     STA  ($20), Y
 85B5  C8        INY  
 85B6  A9 91     LDA  #$91
 85B8  91 20     STA  ($20), Y
 85BA  C8        INY  
 85BB  A9 B3     LDA  #$B3
 85BD  91 20     STA  ($20), Y
 85BF  E8        INX  
 85C0  E8        INX  
 85C1  60        RTS  
 85C2  E0 71     CPX  #$71
 85C4  30 03     BMI  $85C9
 85C6  4C 3C B4  JMP  $B43C
 85C9  38        SEC  
 85CA  B5 06     LDA  $06, X
 85CC  F5 02     SBC  $02, X
 85CE  95 06     STA  $06, X
 85D0  B5 07     LDA  $07, X
 85D2  F5 03     SBC  $03, X
 85D4  95 07     STA  $07, X
 85D6  B5 04     LDA  $04, X
 85D8  F5 00     SBC  $00, X
 85DA  95 04     STA  $04, X
 85DC  B5 05     LDA  $05, X
 85DE  F5 01     SBC  $01, X
 85E0  95 05     STA  $05, X
 85E2  E8        INX  
 85E3  E8        INX  
 85E4  E8        INX  
 85E5  E8        INX  
 85E6  60        RTS  
 85E7  E0 71     CPX  #$71
 85E9  30 03     BMI  $85EE
 85EB  4C 3C B4  JMP  $B43C
 85EE  18        CLC  
 85EF  B5 02     LDA  $02, X
 85F1  75 06     ADC  $06, X
 85F3  95 06     STA  $06, X
 85F5  B5 03     LDA  $03, X
 85F7  75 07     ADC  $07, X
 85F9  95 07     STA  $07, X
 85FB  B5 00     LDA  $00, X
 85FD  75 04     ADC  $04, X
 85FF  95 04     STA  $04, X
 8601  B5 01     LDA  $01, X
 8603  75 05     ADC  $05, X
 8605  95 05     STA  $05, X
 8607  E8        INX  
 8608  E8        INX  
 8609  E8        INX  
 860A  E8        INX  
 860B  60        RTS  
 860C  E0 75     CPX  #$75
 860E  30 03     BMI  $8613
 8610  4C 3C B4  JMP  $B43C
 8613  E8        INX  
 8614  E8        INX  
 8615  60        RTS  
 8616  E0 75     CPX  #$75
 8618  30 03     BMI  $861D
 861A  4C 3C B4  JMP  $B43C
 861D  B5 01     LDA  $01, X
 861F  10 17     BPL  $8638
 8621  A0 00     LDY  #$00
 8623  38        SEC  
 8624  98        TYA  
 8625  F5 02     SBC  $02, X
 8627  95 02     STA  $02, X
 8629  98        TYA  
 862A  F5 03     SBC  $03, X
 862C  95 03     STA  $03, X
 862E  98        TYA  
 862F  F5 00     SBC  $00, X
 8631  95 00     STA  $00, X
 8633  98        TYA  
 8634  F5 01     SBC  $01, X
 8636  95 01     STA  $01, X
 8638  60        RTS  
 8639  A9 0A     LDA  #$0A
 863B  85 18     STA  $18
 863D  64 19     STZ  $19
 863F  60        RTS  
 8640  20 32 85  JSR  $8532
 8643  A5 00     LDA  $00
 8645  38        SEC  
 8646  E9 02     SBC  #$02
 8648  85 20     STA  $20
 864A  A5 01     LDA  $01
 864C  E9 00     SBC  #$00
 864E  85 21     STA  $21
 8650  A0 00     LDY  #$00
 8652  A9 5E     LDA  #$5E
 8654  91 20     STA  ($20), Y
 8656  C8        INY  
 8657  A9 B3     LDA  #$B3
 8659  91 20     STA  ($20), Y
 865B  A9 72     LDA  #$72
 865D  92 00     STA  ($00)
 865F  E6 00     INC  $00
 8661  D0 02     BNE  $8665
 8663  E6 01     INC  $01
 8665  A9 B3     LDA  #$B3
 8667  92 00     STA  ($00)
 8669  E6 00     INC  $00
 866B  D0 02     BNE  $866F
 866D  E6 01     INC  $01
 866F  20 F6 84  JSR  $84F6
 8672  60        RTS  
 8673  A9 78     LDA  #$78
 8675  86 26     STX  $26
 8677  38        SEC  
 8678  E5 26     SBC  $26
 867A  4A        LSR  
 867B  CA        DEX  
 867C  CA        DEX  
 867D  95 00     STA  $00, X
 867F  74 01     STZ  $01, X
 8681  60        RTS  
 8682  E0 77     CPX  #$77
 8684  30 03     BMI  $8689
 8686  4C 3C B4  JMP  $B43C
 8689  CA        DEX  
 868A  CA        DEX  
 868B  74 00     STZ  $00, X
 868D  74 01     STZ  $01, X
 868F  74 03     STZ  $03, X
 8691  B5 02     LDA  $02, X
 8693  C9 30     CMP  #$30
 8695  90 23     BCC  $86BA
 8697  C9 3A     CMP  #$3A
 8699  90 12     BCC  $86AD
 869B  C9 40     CMP  #$40
 869D  90 1B     BCC  $86BA
 869F  C9 61     CMP  #$61
 86A1  90 07     BCC  $86AA
 86A3  C9 7B     CMP  #$7B
 86A5  B0 03     BCS  $86AA
 86A7  18        CLC  
 86A8  69 E0     ADC  #$E0
 86AA  38        SEC  
 86AB  E9 07     SBC  #$07
 86AD  38        SEC  
 86AE  E9 30     SBC  #$30
 86B0  C5 18     CMP  $18
 86B2  B0 06     BCS  $86BA
 86B4  95 02     STA  $02, X
 86B6  D6 00     DEC  $00, X
 86B8  D6 01     DEC  $01, X
 86BA  60        RTS  
 86BB  E0 75     CPX  #$75
 86BD  30 03     BMI  $86C2
 86BF  4C 3C B4  JMP  $B43C
 86C2  20 6A 99  JSR  $996A
 86C5  60        RTS  
 86C6  E0 75     CPX  #$75
 86C8  30 03     BMI  $86CD
 86CA  4C 3C B4  JMP  $B43C
 86CD  A0 00     LDY  #$00
 86CF  38        SEC  
 86D0  98        TYA  
 86D1  F5 02     SBC  $02, X
 86D3  95 02     STA  $02, X
 86D5  98        TYA  
 86D6  F5 03     SBC  $03, X
 86D8  95 03     STA  $03, X
 86DA  98        TYA  
 86DB  F5 00     SBC  $00, X
 86DD  95 00     STA  $00, X
 86DF  98        TYA  
 86E0  F5 01     SBC  $01, X
 86E2  95 01     STA  $01, X
 86E4  60        RTS  
 86E5  A9 FF     LDA  #$FF
 86E7  85 20     STA  $20
 86E9  80 02     BRA  $86ED
 86EB  64 20     STZ  $20
 86ED  CA        DEX  
 86EE  CA        DEX  
 86EF  A5 00     LDA  $00
 86F1  95 00     STA  $00, X
 86F3  A5 01     LDA  $01
 86F5  95 01     STA  $01, X
 86F7  A9 05     LDA  #$05
 86F9  A8        TAY  
 86FA  91 00     STA  ($00), Y
 86FC  88        DEY  
 86FD  10 FB     BPL  $86FA
 86FF  1A        INC  
 8700  18        CLC  
 8701  65 00     ADC  $00
 8703  85 00     STA  $00
 8705  90 02     BCC  $8709
 8707  E6 01     INC  $01
 8709  A5 20     LDA  $20
 870B  F0 17     BEQ  $8724
 870D  A0 16     LDY  #$16
 870F  5A        PHY  
 8710  B9 6A 87  LDA  $876A, Y
 8713  91 00     STA  ($00), Y
 8715  88        DEY  
 8716  10 F8     BPL  $8710
 8718  68        PLA  
 8719  18        CLC  
 871A  65 00     ADC  $00
 871C  85 00     STA  $00
 871E  A5 01     LDA  $01
 8720  69 00     ADC  #$00
 8722  85 01     STA  $01
 8724  A0 24     LDY  #$24
 8726  5A        PHY  
 8727  B9 46 87  LDA  $8746, Y
 872A  91 00     STA  ($00), Y
 872C  88        DEY  
 872D  10 F8     BPL  $8727
 872F  68        PLA  
 8730  18        CLC  
 8731  65 00     ADC  $00
 8733  85 00     STA  $00
 8735  A5 01     LDA  $01
 8737  69 00     ADC  #$00
 8739  85 01     STA  $01
 873B  CA        DEX  
 873C  CA        DEX  
 873D  A5 00     LDA  $00
 873F  95 00     STA  $00, X
 8741  A5 01     LDA  $01
 8743  95 01     STA  $01, X
 8745  60        RTS  
 8746  38        SEC  
 8747  A9 00     LDA  #$00
 8749  F5 02     SBC  $02, X
 874B  95 02     STA  $02, X
 874D  A9 80     LDA  #$80
 874F  F5 03     SBC  $03, X
 8751  95 03     STA  $03, X
 8753  48        PHA  
 8754  B5 02     LDA  $02, X
 8756  48        PHA  
 8757  18        CLC  
 8758  B5 00     LDA  $00, X
 875A  75 02     ADC  $02, X
 875C  95 00     STA  $00, X
 875E  B5 01     LDA  $01, X
 8760  75 03     ADC  $03, X
 8762  48        PHA  
 8763  B5 00     LDA  $00, X
 8765  48        PHA  
 8766  E8        INX  
 8767  E8        INX  
 8768  E8        INX  
 8769  E8        INX  
 876A  20 F8 95  JSR  $95F8
 876D  20 A6 88  JSR  $88A6
 8770  B5 00     LDA  $00, X
 8772  15 01     ORA  $01, X
 8774  F0 08     BEQ  $877E
 8776  8A        TXA  
 8777  18        CLC  
 8778  69 06     ADC  #$06
 877A  AA        TAX  
 877B  68        PLA  
 877C  68        PLA  
 877D  60        RTS  
 877E  E8        INX  
 877F  E8        INX  
 8780  A0 87     LDY  #$87
 8782  A9 8F     LDA  #$8F
 8784  20 31 B3  JSR  $B331
 8787  A0 B3     LDY  #$B3
 8789  A9 77     LDA  #$77
 878B  20 31 B3  JSR  $B331
 878E  60        RTS  
 878F  7A        PLY  
 8790  68        PLA  
 8791  C8        INY  
 8792  D0 01     BNE  $8795
 8794  1A        INC  
 8795  84 20     STY  $20
 8797  85 21     STA  $21
 8799  A5 02     LDA  $02
 879B  18        CLC  
 879C  69 04     ADC  #$04
 879E  85 22     STA  $22
 87A0  A5 03     LDA  $03
 87A2  69 00     ADC  #$00
 87A4  85 23     STA  $23
 87A6  B2 22     LDA  ($22)
 87A8  18        CLC  
 87A9  69 01     ADC  #$01
 87AB  85 24     STA  $24
 87AD  A0 01     LDY  #$01
 87AF  B1 22     LDA  ($22), Y
 87B1  69 00     ADC  #$00
 87B3  85 25     STA  $25
 87B5  A5 20     LDA  $20
 87B7  92 24     STA  ($24)
 87B9  A5 21     LDA  $21
 87BB  91 24     STA  ($24), Y
 87BD  60        RTS  
 87BE  E0 77     CPX  #$77
 87C0  30 03     BMI  $87C5
 87C2  4C 3C B4  JMP  $B43C
 87C5  20 86 88  JSR  $8886
 87C8  20 EE 80  JSR  $80EE
 87CB  20 C6 98  JSR  $98C6
 87CE  20 BF 8B  JSR  $8BBF
 87D1  20 44 8F  JSR  $8F44
 87D4  20 0E 92  JSR  $920E
 87D7  20 CA 92  JSR  $92CA
 87DA  20 1E 8F  JSR  $8F1E
 87DD  20 E1 96  JSR  $96E1
 87E0  20 F3 93  JSR  $93F3
 87E3  60        RTS  
 87E4  20 46 92  JSR  $9246
 87E7  A0 96     LDY  #$96
 87E9  A9 E1     LDA  #$E1
 87EB  20 31 B3  JSR  $B331
 87EE  60        RTS  
 87EF  20 73 86  JSR  $8673
 87F2  A9 3C     LDA  #$3C
 87F4  20 A3 88  JSR  $88A3
 87F7  B5 00     LDA  $00, X
 87F9  48        PHA  
 87FA  CA        DEX  
 87FB  CA        DEX  
 87FC  95 00     STA  $00, X
 87FE  74 01     STZ  $01, X
 8800  20 74 B4  JSR  $B474
 8803  A9 3E     LDA  #$3E
 8805  20 A3 88  JSR  $88A3
 8808  A9 20     LDA  #$20
 880A  20 A3 88  JSR  $88A3
 880D  E8        INX  
 880E  E8        INX  
 880F  E0 78     CPX  #$78
 8811  F0 1E     BEQ  $8831
 8813  7A        PLY  
 8814  A9 77     LDA  #$77
 8816  85 24     STA  $24
 8818  64 25     STZ  $25
 881A  CA        DEX  
 881B  CA        DEX  
 881C  B2 24     LDA  ($24)
 881E  95 01     STA  $01, X
 8820  C6 24     DEC  $24
 8822  B2 24     LDA  ($24)
 8824  95 00     STA  $00, X
 8826  C6 24     DEC  $24
 8828  5A        PHY  
 8829  20 BE 87  JSR  $87BE
 882C  7A        PLY  
 882D  88        DEY  
 882E  D0 EA     BNE  $881A
 8830  48        PHA  
 8831  68        PLA  
 8832  60        RTS  
 8833  E0 77     CPX  #$77
 8835  30 03     BMI  $883A
 8837  4C 3C B4  JMP  $B43C
 883A  E8        INX  
 883B  E8        INX  
 883C  60        RTS  
 883D  E0 75     CPX  #$75
 883F  30 03     BMI  $8844
 8841  4C 3C B4  JMP  $B43C
 8844  A0 10     LDY  #$10
 8846  20 2C 85  JSR  $852C
 8849  B5 03     LDA  $03, X
 884B  20 9F B3  JSR  $B39F
 884E  B5 02     LDA  $02, X
 8850  20 9F B3  JSR  $B39F
 8853  20 F3 93  JSR  $93F3
 8856  20 F3 93  JSR  $93F3
 8859  B5 00     LDA  $00, X
 885B  15 01     ORA  $01, X
 885D  F0 22     BEQ  $8881
 885F  A1 02     LDA  ($02, X)
 8861  20 9F B3  JSR  $B39F
 8864  20 F3 93  JSR  $93F3
 8867  C0 09     CPY  #$09
 8869  D0 03     BNE  $886E
 886B  20 F3 93  JSR  $93F3
 886E  F6 02     INC  $02, X
 8870  D0 02     BNE  $8874
 8872  F6 03     INC  $03, X
 8874  B5 00     LDA  $00, X
 8876  D0 02     BNE  $887A
 8878  D6 01     DEC  $01, X
 887A  D6 00     DEC  $00, X
 887C  88        DEY  
 887D  D0 DA     BNE  $8859
 887F  80 BC     BRA  $883D
 8881  E8        INX  
 8882  E8        INX  
 8883  E8        INX  
 8884  E8        INX  
 8885  60        RTS  
 8886  E0 77     CPX  #$77
 8888  30 03     BMI  $888D
 888A  4C 3C B4  JMP  $B43C
 888D  CA        DEX  
 888E  CA        DEX  
 888F  B5 02     LDA  $02, X
 8891  95 00     STA  $00, X
 8893  B5 03     LDA  $03, X
 8895  95 01     STA  $01, X
 8897  60        RTS  
 8898  E0 77     CPX  #$77
 889A  30 03     BMI  $889F
 889C  4C 3C B4  JMP  $B43C
 889F  B5 00     LDA  $00, X
 88A1  E8        INX  
 88A2  E8        INX  
 88A3  6C 10 00  JMP  ($0010)
 88A6  E0 75     CPX  #$75
 88A8  30 03     BMI  $88AD
 88AA  4C 3C B4  JMP  $B43C
 88AD  B5 00     LDA  $00, X
 88AF  D5 02     CMP  $02, X
 88B1  D0 0A     BNE  $88BD
 88B3  B5 01     LDA  $01, X
 88B5  D5 03     CMP  $03, X
 88B7  D0 04     BNE  $88BD
 88B9  A9 FF     LDA  #$FF
 88BB  80 02     BRA  $88BF
 88BD  A9 00     LDA  #$00
 88BF  95 02     STA  $02, X
 88C1  95 03     STA  $03, X
 88C3  E8        INX  
 88C4  E8        INX  
 88C5  60        RTS  
 88C6  CA        DEX  
 88C7  CA        DEX  
 88C8  A9 20     LDA  #$20
 88CA  95 00     STA  $00, X
 88CC  74 01     STZ  $01, X
 88CE  80 06     BRA  $88D6
 88D0  CA        DEX  
 88D1  CA        DEX  
 88D2  74 00     STZ  $00, X
 88D4  74 01     STZ  $01, X
 88D6  E0 73     CPX  #$73
 88D8  30 03     BMI  $88DD
 88DA  4C 3C B4  JMP  $B43C
 88DD  B5 04     LDA  $04, X
 88DF  85 20     STA  $20
 88E1  B5 05     LDA  $05, X
 88E3  85 21     STA  $21
 88E5  B5 02     LDA  $02, X
 88E7  85 22     STA  $22
 88E9  B5 03     LDA  $03, X
 88EB  85 23     STA  $23
 88ED  B5 00     LDA  $00, X
 88EF  A8        TAY  
 88F0  A9 7F     LDA  #$7F
 88F2  C5 21     CMP  $21
 88F4  90 21     BCC  $8917
 88F6  D0 06     BNE  $88FE
 88F8  A9 FF     LDA  #$FF
 88FA  C5 20     CMP  $20
 88FC  90 19     BCC  $8917
 88FE  A5 22     LDA  $22
 8900  05 23     ORA  $23
 8902  F0 13     BEQ  $8917
 8904  98        TYA  
 8905  92 20     STA  ($20)
 8907  A5 22     LDA  $22
 8909  D0 02     BNE  $890D
 890B  C6 23     DEC  $23
 890D  C6 22     DEC  $22
 890F  E6 20     INC  $20
 8911  D0 DD     BNE  $88F0
 8913  E6 21     INC  $21
 8915  80 D9     BRA  $88F0
 8917  8A        TXA  
 8918  18        CLC  
 8919  69 06     ADC  #$06
 891B  AA        TAX  
 891C  60        RTS  
 891D  E0 75     CPX  #$75
 891F  30 03     BMI  $8924
 8921  4C 3C B4  JMP  $B43C
 8924  B5 00     LDA  $00, X
 8926  15 01     ORA  $01, X
 8928  F0 4D     BEQ  $8977
 892A  A5 0D     LDA  $0D
 892C  48        PHA  
 892D  A5 0C     LDA  $0C
 892F  48        PHA  
 8930  A5 07     LDA  $07
 8932  48        PHA  
 8933  A5 06     LDA  $06
 8935  48        PHA  
 8936  A5 09     LDA  $09
 8938  48        PHA  
 8939  A5 08     LDA  $08
 893B  48        PHA  
 893C  A5 0B     LDA  $0B
 893E  48        PHA  
 893F  A5 0A     LDA  $0A
 8941  48        PHA  
 8942  A9 FF     LDA  #$FF
 8944  85 06     STA  $06
 8946  85 07     STA  $07
 8948  64 0C     STZ  $0C
 894A  64 0D     STZ  $0D
 894C  B5 00     LDA  $00, X
 894E  85 0A     STA  $0A
 8950  B5 01     LDA  $01, X
 8952  85 0B     STA  $0B
 8954  B5 02     LDA  $02, X
 8956  85 08     STA  $08
 8958  B5 03     LDA  $03, X
 895A  85 09     STA  $09
 895C  20 D1 B3  JSR  $B3D1
 895F  68        PLA  
 8960  85 0A     STA  $0A
 8962  68        PLA  
 8963  85 0B     STA  $0B
 8965  68        PLA  
 8966  85 08     STA  $08
 8968  68        PLA  
 8969  85 09     STA  $09
 896B  68        PLA  
 896C  85 06     STA  $06
 896E  68        PLA  
 896F  85 07     STA  $07
 8971  68        PLA  
 8972  85 0C     STA  $0C
 8974  68        PLA  
 8975  85 0D     STA  $0D
 8977  E8        INX  
 8978  E8        INX  
 8979  E8        INX  
 897A  E8        INX  
 897B  60        RTS  
 897C  E0 77     CPX  #$77
 897E  30 03     BMI  $8983
 8980  4C 3C B4  JMP  $B43C
 8983  20 87 89  JSR  $8987
 8986  60        RTS  
 8987  B5 00     LDA  $00, X
 8989  85 0E     STA  $0E
 898B  B5 01     LDA  $01, X
 898D  85 0F     STA  $0F
 898F  E8        INX  
 8990  E8        INX  
 8991  6C 0E 00  JMP  ($000E)
 8994  60        RTS  
 8995  CA        DEX  
 8996  CA        DEX  
 8997  74 00     STZ  $00, X
 8999  74 01     STZ  $01, X
 899B  60        RTS  
 899C  E0 77     CPX  #$77
 899E  30 03     BMI  $89A3
 89A0  4C 3C B4  JMP  $B43C
 89A3  A1 00     LDA  ($00, X)
 89A5  A8        TAY  
 89A6  F6 00     INC  $00, X
 89A8  D0 02     BNE  $89AC
 89AA  F6 01     INC  $01, X
 89AC  A1 00     LDA  ($00, X)
 89AE  95 01     STA  $01, X
 89B0  94 00     STY  $00, X
 89B2  60        RTS  
 89B3  E0 77     CPX  #$77
 89B5  30 03     BMI  $89BA
 89B7  4C 3C B4  JMP  $B43C
 89BA  20 14 85  JSR  $8514
 89BD  B5 03     LDA  $03, X
 89BF  48        PHA  
 89C0  B5 02     LDA  $02, X
 89C2  48        PHA  
 89C3  20 FF 89  JSR  $89FF
 89C6  B5 00     LDA  $00, X
 89C8  15 01     ORA  $01, X
 89CA  D0 0B     BNE  $89D7
 89CC  20 95 89  JSR  $8995
 89CF  68        PLA  
 89D0  95 02     STA  $02, X
 89D2  68        PLA  
 89D3  95 03     STA  $03, X
 89D5  80 27     BRA  $89FE
 89D7  68        PLA  
 89D8  68        PLA  
 89D9  20 86 88  JSR  $8886
 89DC  20 B6 8D  JSR  $8DB6
 89DF  20 61 94  JSR  $9461
 89E2  A0 00     LDY  #$00
 89E4  F6 00     INC  $00, X
 89E6  D0 02     BNE  $89EA
 89E8  F6 01     INC  $01, X
 89EA  A1 00     LDA  ($00, X)
 89EC  29 04     AND  #$04
 89EE  D0 08     BNE  $89F8
 89F0  A9 FF     LDA  #$FF
 89F2  95 00     STA  $00, X
 89F4  95 01     STA  $01, X
 89F6  80 06     BRA  $89FE
 89F8  A9 01     LDA  #$01
 89FA  95 00     STA  $00, X
 89FC  74 01     STZ  $01, X
 89FE  60        RTS  
 89FF  E0 75     CPX  #$75
 8A01  30 03     BMI  $8A06
 8A03  4C 3C B4  JMP  $B43C
 8A06  B5 00     LDA  $00, X
 8A08  15 01     ORA  $01, X
 8A0A  F0 57     BEQ  $8A63
 8A0C  A5 02     LDA  $02
 8A0E  85 20     STA  $20
 8A10  A5 03     LDA  $03
 8A12  85 21     STA  $21
 8A14  B5 02     LDA  $02, X
 8A16  85 22     STA  $22
 8A18  B5 03     LDA  $03, X
 8A1A  85 23     STA  $23
 8A1C  B2 20     LDA  ($20)
 8A1E  D5 00     CMP  $00, X
 8A20  D0 30     BNE  $8A52
 8A22  A0 08     LDY  #$08
 8A24  B1 20     LDA  ($20), Y
 8A26  D2 22     CMP  ($22)
 8A28  D0 28     BNE  $8A52
 8A2A  B5 00     LDA  $00, X
 8A2C  3A        DEC  
 8A2D  F0 19     BEQ  $8A48
 8A2F  A5 20     LDA  $20
 8A31  18        CLC  
 8A32  69 08     ADC  #$08
 8A34  85 24     STA  $24
 8A36  A5 21     LDA  $21
 8A38  69 00     ADC  #$00
 8A3A  85 25     STA  $25
 8A3C  B4 00     LDY  $00, X
 8A3E  88        DEY  
 8A3F  B1 22     LDA  ($22), Y
 8A41  D1 24     CMP  ($24), Y
 8A43  D0 0D     BNE  $8A52
 8A45  88        DEY  
 8A46  D0 F7     BNE  $8A3F
 8A48  A5 20     LDA  $20
 8A4A  95 02     STA  $02, X
 8A4C  A5 21     LDA  $21
 8A4E  95 03     STA  $03, X
 8A50  80 15     BRA  $8A67
 8A52  A0 02     LDY  #$02
 8A54  B1 20     LDA  ($20), Y
 8A56  48        PHA  
 8A57  C8        INY  
 8A58  B1 20     LDA  ($20), Y
 8A5A  85 21     STA  $21
 8A5C  68        PLA  
 8A5D  85 20     STA  $20
 8A5F  05 21     ORA  $21
 8A61  D0 B9     BNE  $8A1C
 8A63  74 02     STZ  $02, X
 8A65  74 03     STZ  $03, X
 8A67  E8        INX  
 8A68  E8        INX  
 8A69  60        RTS  
 8A6A  E0 73     CPX  #$73
 8A6C  30 03     BMI  $8A71
 8A6E  4C 3C B4  JMP  $B43C
 8A71  64 22     STZ  $22
 8A73  B5 01     LDA  $01, X
 8A75  10 0E     BPL  $8A85
 8A77  E6 22     INC  $22
 8A79  20 00 8E  JSR  $8E00
 8A7C  20 A4 95  JSR  $95A4
 8A7F  20 C6 86  JSR  $86C6
 8A82  20 8B 91  JSR  $918B
 8A85  B5 03     LDA  $03, X
 8A87  10 0D     BPL  $8A96
 8A89  18        CLC  
 8A8A  B5 00     LDA  $00, X
 8A8C  75 02     ADC  $02, X
 8A8E  95 02     STA  $02, X
 8A90  B5 01     LDA  $01, X
 8A92  75 03     ADC  $03, X
 8A94  95 03     STA  $03, X
 8A96  20 49 97  JSR  $9749
 8A99  A5 22     LDA  $22
 8A9B  F0 07     BEQ  $8AA4
 8A9D  E8        INX  
 8A9E  E8        INX  
 8A9F  20 00 8E  JSR  $8E00
 8AA2  CA        DEX  
 8AA3  CA        DEX  
 8AA4  60        RTS  
 8AA5  E0 75     CPX  #$75
 8AA7  30 03     BMI  $8AAC
 8AA9  4C 3C B4  JMP  $B43C
 8AAC  A0 00     LDY  #$00
 8AAE  20 B6 B3  JSR  $B3B6
 8AB1  F0 03     BEQ  $8AB6
 8AB3  10 01     BPL  $8AB6
 8AB5  88        DEY  
 8AB6  98        TYA  
 8AB7  E8        INX  
 8AB8  E8        INX  
 8AB9  95 00     STA  $00, X
 8ABB  95 01     STA  $01, X
 8ABD  60        RTS  
 8ABE  CA        DEX  
 8ABF  CA        DEX  
 8AC0  A5 00     LDA  $00
 8AC2  95 00     STA  $00, X
 8AC4  A5 01     LDA  $01
 8AC6  95 01     STA  $01, X
 8AC8  60        RTS  
 8AC9  A9 10     LDA  #$10
 8ACB  85 18     STA  $18
 8ACD  64 19     STZ  $19
 8ACF  60        RTS  
 8AD0  E0 77     CPX  #$77
 8AD2  30 03     BMI  $8AD7
 8AD4  4C 3C B4  JMP  $B43C
 8AD7  A5 2A     LDA  $2A
 8AD9  D0 02     BNE  $8ADD
 8ADB  C6 2B     DEC  $2B
 8ADD  C6 2A     DEC  $2A
 8ADF  B5 00     LDA  $00, X
 8AE1  92 2A     STA  ($2A)
 8AE3  E8        INX  
 8AE4  E8        INX  
 8AE5  60        RTS  
 8AE6  CA        DEX  
 8AE7  CA        DEX  
 8AE8  86 26     STX  $26
 8AEA  BA        TSX  
 8AEB  38        SEC  
 8AEC  BD 01 01  LDA  $0101, X
 8AEF  FD 03 01  SBC  $0103, X
 8AF2  A8        TAY  
 8AF3  BD 02 01  LDA  $0102, X
 8AF6  FD 04 01  SBC  $0104, X
 8AF9  A6 26     LDX  $26
 8AFB  95 01     STA  $01, X
 8AFD  94 00     STY  $00, X
 8AFF  60        RTS  
 8B00  A0 01     LDY  #$01
 8B02  B1 02     LDA  ($02), Y
 8B04  09 04     ORA  #$04
 8B06  91 02     STA  ($02), Y
 8B08  60        RTS  
 8B09  CA        DEX  
 8B0A  CA        DEX  
 8B0B  A9 12     LDA  #$12
 8B0D  95 00     STA  $00, X
 8B0F  A9 00     LDA  #$00
 8B11  95 01     STA  $01, X
 8B13  60        RTS  
 8B14  E0 77     CPX  #$77
 8B16  30 03     BMI  $8B1B
 8B18  4C 3C B4  JMP  $B43C
 8B1B  A5 02     LDA  $02
 8B1D  85 22     STA  $22
 8B1F  A5 03     LDA  $03
 8B21  85 23     STA  $23
 8B23  B5 00     LDA  $00, X
 8B25  85 24     STA  $24
 8B27  B5 01     LDA  $01, X
 8B29  85 25     STA  $25
 8B2B  A0 04     LDY  #$04
 8B2D  B1 22     LDA  ($22), Y
 8B2F  C5 24     CMP  $24
 8B31  D0 07     BNE  $8B3A
 8B33  C8        INY  
 8B34  B1 22     LDA  ($22), Y
 8B36  C5 25     CMP  $25
 8B38  F0 25     BEQ  $8B5F
 8B3A  18        CLC  
 8B3B  A5 22     LDA  $22
 8B3D  69 02     ADC  #$02
 8B3F  85 22     STA  $22
 8B41  A5 23     LDA  $23
 8B43  69 00     ADC  #$00
 8B45  85 23     STA  $23
 8B47  A0 00     LDY  #$00
 8B49  B1 22     LDA  ($22), Y
 8B4B  48        PHA  
 8B4C  C8        INY  
 8B4D  11 22     ORA  ($22), Y
 8B4F  F0 09     BEQ  $8B5A
 8B51  B1 22     LDA  ($22), Y
 8B53  85 23     STA  $23
 8B55  68        PLA  
 8B56  85 22     STA  $22
 8B58  80 D1     BRA  $8B2B
 8B5A  A9 0D     LDA  #$0D
 8B5C  4C 3E B4  JMP  $B43E
 8B5F  A5 22     LDA  $22
 8B61  95 00     STA  $00, X
 8B63  A5 23     LDA  $23
 8B65  95 01     STA  $01, X
 8B67  60        RTS  
 8B68  E0 77     CPX  #$77
 8B6A  30 03     BMI  $8B6F
 8B6C  4C 3C B4  JMP  $B43C
 8B6F  A9 FF     LDA  #$FF
 8B71  55 00     EOR  $00, X
 8B73  95 00     STA  $00, X
 8B75  A9 FF     LDA  #$FF
 8B77  55 01     EOR  $01, X
 8B79  95 01     STA  $01, X
 8B7B  60        RTS  
 8B7C  CA        DEX  
 8B7D  CA        DEX  
 8B7E  86 26     STX  $26
 8B80  BA        TSX  
 8B81  38        SEC  
 8B82  BD 07 01  LDA  $0107, X
 8B85  FD 09 01  SBC  $0109, X
 8B88  A8        TAY  
 8B89  BD 08 01  LDA  $0108, X
 8B8C  FD 0A 01  SBC  $010A, X
 8B8F  A6 26     LDX  $26
 8B91  95 01     STA  $01, X
 8B93  94 00     STY  $00, X
 8B95  60        RTS  
 8B96  20 A0 8B  JSR  $8BA0
 8B99  CA        DEX  
 8B9A  CA        DEX  
 8B9B  95 00     STA  $00, X
 8B9D  74 01     STZ  $01, X
 8B9F  60        RTS  
 8BA0  6C 12 00  JMP  ($0012)
 8BA3  CA        DEX  
 8BA4  CA        DEX  
 8BA5  A5 02     LDA  $02
 8BA7  95 00     STA  $00, X
 8BA9  A5 03     LDA  $03
 8BAB  95 01     STA  $01, X
 8BAD  60        RTS  
 8BAE  20 A3 8B  JSR  $8BA3
 8BB1  20 B6 8D  JSR  $8DB6
 8BB4  60        RTS  
 8BB5  68        PLA  
 8BB6  68        PLA  
 8BB7  68        PLA  
 8BB8  68        PLA  
 8BB9  60        RTS  
 8BBA  64 16     STZ  $16
 8BBC  64 17     STZ  $17
 8BBE  60        RTS  
 8BBF  20 B3 8F  JSR  $8FB3
 8BC2  B5 00     LDA  $00, X
 8BC4  85 2A     STA  $2A
 8BC6  B5 01     LDA  $01, X
 8BC8  85 2B     STA  $2B
 8BCA  E8        INX  
 8BCB  E8        INX  
 8BCC  60        RTS  
 8BCD  E0 75     CPX  #$75
 8BCF  30 03     BMI  $8BD4
 8BD1  4C 3C B4  JMP  $B43C
 8BD4  A0 00     LDY  #$00
 8BD6  20 B6 B3  JSR  $B3B6
 8BD9  F0 03     BEQ  $8BDE
 8BDB  30 01     BMI  $8BDE
 8BDD  88        DEY  
 8BDE  98        TYA  
 8BDF  E8        INX  
 8BE0  E8        INX  
 8BE1  95 00     STA  $00, X
 8BE3  95 01     STA  $01, X
 8BE5  60        RTS  
 8BE6  E0 77     CPX  #$77
 8BE8  30 03     BMI  $8BED
 8BEA  4C 3C B4  JMP  $B43C
 8BED  A0 8B     LDY  #$8B
 8BEF  A9 F8     LDA  #$F8
 8BF1  20 31 B3  JSR  $B331
 8BF4  20 98 83  JSR  $8398
 8BF7  60        RTS  
 8BF8  CA        DEX  
 8BF9  CA        DEX  
 8BFA  68        PLA  
 8BFB  85 20     STA  $20
 8BFD  68        PLA  
 8BFE  85 21     STA  $21
 8C00  A0 01     LDY  #$01
 8C02  B1 20     LDA  ($20), Y
 8C04  95 00     STA  $00, X
 8C06  C8        INY  
 8C07  B1 20     LDA  ($20), Y
 8C09  95 01     STA  $01, X
 8C0B  98        TYA  
 8C0C  18        CLC  
 8C0D  65 20     ADC  $20
 8C0F  A8        TAY  
 8C10  A5 21     LDA  $21
 8C12  69 00     ADC  #$00
 8C14  48        PHA  
 8C15  5A        PHY  
 8C16  60        RTS  
 8C17  A0 8F     LDY  #$8F
 8C19  A9 59     LDA  #$59
 8C1B  20 31 B3  JSR  $B331
 8C1E  A0 11     LDY  #$11
 8C20  5A        PHY  
 8C21  B9 85 8C  LDA  $8C85, Y
 8C24  91 00     STA  ($00), Y
 8C26  88        DEY  
 8C27  10 F8     BPL  $8C21
 8C29  68        PLA  
 8C2A  18        CLC  
 8C2B  65 00     ADC  $00
 8C2D  85 00     STA  $00
 8C2F  A5 01     LDA  $01
 8C31  69 00     ADC  #$00
 8C33  85 01     STA  $01
 8C35  20 98 83  JSR  $8398
 8C38  A9 68     LDA  #$68
 8C3A  A0 06     LDY  #$06
 8C3C  91 00     STA  ($00), Y
 8C3E  88        DEY  
 8C3F  10 FB     BPL  $8C3C
 8C41  A9 06     LDA  #$06
 8C43  18        CLC  
 8C44  65 00     ADC  $00
 8C46  85 00     STA  $00
 8C48  A5 01     LDA  $01
 8C4A  69 00     ADC  #$00
 8C4C  85 01     STA  $01
 8C4E  B5 00     LDA  $00, X
 8C50  85 20     STA  $20
 8C52  B5 01     LDA  $01, X
 8C54  85 21     STA  $21
 8C56  E8        INX  
 8C57  E8        INX  
 8C58  A5 00     LDA  $00
 8C5A  38        SEC  
 8C5B  E9 01     SBC  #$01
 8C5D  85 22     STA  $22
 8C5F  A5 01     LDA  $01
 8C61  E9 00     SBC  #$00
 8C63  85 23     STA  $23
 8C65  A0 00     LDY  #$00
 8C67  A9 A9     LDA  #$A9
 8C69  91 20     STA  ($20), Y
 8C6B  C8        INY  
 8C6C  A5 23     LDA  $23
 8C6E  91 20     STA  ($20), Y
 8C70  C8        INY  
 8C71  A9 48     LDA  #$48
 8C73  91 20     STA  ($20), Y
 8C75  C8        INY  
 8C76  A9 A9     LDA  #$A9
 8C78  91 20     STA  ($20), Y
 8C7A  C8        INY  
 8C7B  A5 22     LDA  $22
 8C7D  91 20     STA  ($20), Y
 8C7F  C8        INY  
 8C80  A9 48     LDA  #$48
 8C82  91 20     STA  ($20), Y
 8C84  60        RTS  
 8C85  18        CLC  
 8C86  68        PLA  
 8C87  75 00     ADC  $00, X
 8C89  A8        TAY  
 8C8A  B8        CLV  
 8C8B  68        PLA  
 8C8C  75 01     ADC  $01, X
 8C8E  48        PHA  
 8C8F  98        TYA  
 8C90  48        PHA  
 8C91  E8        INX  
 8C92  E8        INX  
 8C93  70 03     BVS  $8C98
 8C95  4C                                               |L               |
 8C96  E0 75     CPX  #$75
 8C98  30 03     BMI  $8C9D
 8C9A  4C 3C B4  JMP  $B43C
 8C9D  B5 00     LDA  $00, X
 8C9F  29 0F     AND  #$0F
 8CA1  F0 08     BEQ  $8CAB
 8CA3  A8        TAY  
 8CA4  16 02     ASL  $02, X
 8CA6  36 03     ROL  $03, X
 8CA8  88        DEY  
 8CA9  D0 F9     BNE  $8CA4
 8CAB  E8        INX  
 8CAC  E8        INX  
 8CAD  60        RTS  
 8CAE  E0 75     CPX  #$75
 8CB0  30 03     BMI  $8CB5
 8CB2  4C 3C B4  JMP  $B43C
 8CB5  B5 01     LDA  $01, X
 8CB7  55 03     EOR  $03, X
 8CB9  48        PHA  
 8CBA  20 EE 80  JSR  $80EE
 8CBD  20 61 94  JSR  $9461
 8CC0  20 EE 80  JSR  $80EE
 8CC3  20 8F 97  JSR  $978F
 8CC6  68        PLA  
 8CC7  10 03     BPL  $8CCC
 8CC9  20 C6 86  JSR  $86C6
 8CCC  60        RTS  
 8CCD  20 32 85  JSR  $8532
 8CD0  A0 00     LDY  #$00
 8CD2  A5 02     LDA  $02
 8CD4  91 00     STA  ($00), Y
 8CD6  C8        INY  
 8CD7  A5 03     LDA  $03
 8CD9  91 00     STA  ($00), Y
 8CDB  C8        INY  
 8CDC  98        TYA  
 8CDD  18        CLC  
 8CDE  65 00     ADC  $00
 8CE0  85 00     STA  $00
 8CE2  90 02     BCC  $8CE6
 8CE4  E6 01     INC  $01
 8CE6  20 8F 87  JSR  $878F
 8CE9  20 77 B3  JSR  $B377
 8CEC  20 9C 89  JSR  $899C
 8CEF  B5 00     LDA  $00, X
 8CF1  85 20     STA  $20
 8CF3  B5 01     LDA  $01, X
 8CF5  85 21     STA  $21
 8CF7  E8        INX  
 8CF8  E8        INX  
 8CF9  A0 02     LDY  #$02
 8CFB  B1 20     LDA  ($20), Y
 8CFD  85 02     STA  $02
 8CFF  C8        INY  
 8D00  B1 20     LDA  ($20), Y
 8D02  85 03     STA  $03
 8D04  A0 06     LDY  #$06
 8D06  B1 02     LDA  ($02), Y
 8D08  85 00     STA  $00
 8D0A  C8        INY  
 8D0B  B1 02     LDA  ($02), Y
 8D0D  85 01     STA  $01
 8D0F  E6 00     INC  $00
 8D11  D0 02     BNE  $8D15
 8D13  E6 01     INC  $01
 8D15  60        RTS  
 8D16  E0 75     CPX  #$75
 8D18  30 03     BMI  $8D1D
 8D1A  4C 3C B4  JMP  $B43C
 8D1D  B5 00     LDA  $00, X
 8D1F  D5 02     CMP  $02, X
 8D21  B5 01     LDA  $01, X
 8D23  F5 03     SBC  $03, X
 8D25  50 02     BVC  $8D29
 8D27  49 80     EOR  #$80
 8D29  30 08     BMI  $8D33
 8D2B  B5 00     LDA  $00, X
 8D2D  95 02     STA  $02, X
 8D2F  B5 01     LDA  $01, X
 8D31  95 03     STA  $03, X
 8D33  E8        INX  
 8D34  E8        INX  
 8D35  60        RTS  
 8D36  E0 75     CPX  #$75
 8D38  30 03     BMI  $8D3D
 8D3A  4C 3C B4  JMP  $B43C
 8D3D  B5 00     LDA  $00, X
 8D3F  D5 02     CMP  $02, X
 8D41  B5 01     LDA  $01, X
 8D43  F5 03     SBC  $03, X
 8D45  50 02     BVC  $8D49
 8D47  49 80     EOR  #$80
 8D49  10 08     BPL  $8D53
 8D4B  B5 00     LDA  $00, X
 8D4D  95 02     STA  $02, X
 8D4F  B5 01     LDA  $01, X
 8D51  95 03     STA  $03, X
 8D53  E8        INX  
 8D54  E8        INX  
 8D55  60        RTS  
 8D56  E0 75     CPX  #$75
 8D58  30 03     BMI  $8D5D
 8D5A  4C 3C B4  JMP  $B43C
 8D5D  38        SEC  
 8D5E  B5 02     LDA  $02, X
 8D60  F5 00     SBC  $00, X
 8D62  95 02     STA  $02, X
 8D64  B5 03     LDA  $03, X
 8D66  F5 01     SBC  $01, X
 8D68  95 03     STA  $03, X
 8D6A  E8        INX  
 8D6B  E8        INX  
 8D6C  60        RTS  
 8D6D  E0 75     CPX  #$75
 8D6F  30 03     BMI  $8D74
 8D71  4C 3C B4  JMP  $B43C
 8D74  B5 00     LDA  $00, X
 8D76  15 01     ORA  $01, X
 8D78  F0 1C     BEQ  $8D96
 8D7A  B5 02     LDA  $02, X
 8D7C  85 20     STA  $20
 8D7E  B5 03     LDA  $03, X
 8D80  85 21     STA  $21
 8D82  B5 00     LDA  $00, X
 8D84  A8        TAY  
 8D85  88        DEY  
 8D86  B1 20     LDA  ($20), Y
 8D88  C9 20     CMP  #$20
 8D8A  D0 04     BNE  $8D90
 8D8C  88        DEY  
 8D8D  D0 F7     BNE  $8D86
 8D8F  88        DEY  
 8D90  C8        INY  
 8D91  98        TYA  
 8D92  95 00     STA  $00, X
 8D94  74 01     STZ  $01, X
 8D96  60        RTS  
 8D97  B5 03     LDA  $03, X
 8D99  D5 05     CMP  $05, X
 8D9B  F0 05     BEQ  $8DA2
 8D9D  90 0E     BCC  $8DAD
 8D9F  4C E8 82  JMP  $82E8
 8DA2  B5 02     LDA  $02, X
 8DA4  D5 04     CMP  $04, X
 8DA6  F0 08     BEQ  $8DB0
 8DA8  90 03     BCC  $8DAD
 8DAA  4C E8 82  JMP  $82E8
 8DAD  4C 27 83  JMP  $8327
 8DB0  8A        TXA  
 8DB1  18        CLC  
 8DB2  69 06     ADC  #$06
 8DB4  AA        TAX  
 8DB5  60        RTS  
 8DB6  E0 77     CPX  #$77
 8DB8  30 03     BMI  $8DBD
 8DBA  4C 3C B4  JMP  $B43C
 8DBD  B5 00     LDA  $00, X
 8DBF  18        CLC  
 8DC0  69 04     ADC  #$04
 8DC2  85 24     STA  $24
 8DC4  B5 01     LDA  $01, X
 8DC6  90 01     BCC  $8DC9
 8DC8  1A        INC  
 8DC9  85 25     STA  $25
 8DCB  A0 00     LDY  #$00
 8DCD  B1 24     LDA  ($24), Y
 8DCF  95 00     STA  $00, X
 8DD1  C8        INY  
 8DD2  B1 24     LDA  ($24), Y
 8DD4  95 01     STA  $01, X
 8DD6  60        RTS  
 8DD7  E0 77     CPX  #$77
 8DD9  30 03     BMI  $8DDE
 8DDB  4C 3C B4  JMP  $B43C
 8DDE  CA        DEX  
 8DDF  CA        DEX  
 8DE0  A1 02     LDA  ($02, X)
 8DE2  95 00     STA  $00, X
 8DE4  74 01     STZ  $01, X
 8DE6  B5 02     LDA  $02, X
 8DE8  18        CLC  
 8DE9  69 08     ADC  #$08
 8DEB  A8        TAY  
 8DEC  B5 03     LDA  $03, X
 8DEE  69 00     ADC  #$00
 8DF0  95 03     STA  $03, X
 8DF2  94 02     STY  $02, X
 8DF4  60        RTS  
 8DF5  CA        DEX  
 8DF6  CA        DEX  
 8DF7  A9 1A     LDA  #$1A
 8DF9  95 00     STA  $00, X
 8DFB  A9 00     LDA  #$00
 8DFD  95 01     STA  $01, X
 8DFF  60        RTS  
 8E00  E0 77     CPX  #$77
 8E02  30 03     BMI  $8E07
 8E04  4C 3C B4  JMP  $B43C
 8E07  A9 00     LDA  #$00
 8E09  38        SEC  
 8E0A  F5 00     SBC  $00, X
 8E0C  95 00     STA  $00, X
 8E0E  A9 00     LDA  #$00
 8E10  F5 01     SBC  $01, X
 8E12  95 01     STA  $01, X
 8E14  60        RTS  
 8E15  A0 01     LDY  #$01
 8E17  B1 02     LDA  ($02), Y
 8E19  09 08     ORA  #$08
 8E1B  91 02     STA  ($02), Y
 8E1D  60        RTS  
 8E1E  E0 75     CPX  #$75
 8E20  30 03     BMI  $8E25
 8E22  4C 3C B4  JMP  $B43C
 8E25  B5 00     LDA  $00, X
 8E27  95 02     STA  $02, X
 8E29  B5 01     LDA  $01, X
 8E2B  95 03     STA  $03, X
 8E2D  E8        INX  
 8E2E  E8        INX  
 8E2F  60        RTS  
 8E30  E0 75     CPX  #$75
 8E32  30 03     BMI  $8E37
 8E34  4C 3C B4  JMP  $B43C
 8E37  A0 00     LDY  #$00
 8E39  B5 00     LDA  $00, X
 8E3B  D5 02     CMP  $02, X
 8E3D  D0 0A     BNE  $8E49
 8E3F  B5 01     LDA  $01, X
 8E41  D5 03     CMP  $03, X
 8E43  D0 04     BNE  $8E49
 8E45  A9 FF     LDA  #$FF
 8E47  80 01     BRA  $8E4A
 8E49  88        DEY  
 8E4A  98        TYA  
 8E4B  E8        INX  
 8E4C  E8        INX  
 8E4D  95 00     STA  $00, X
 8E4F  95 01     STA  $01, X
 8E51  60        RTS  
 8E52  E0 73     CPX  #$73
 8E54  30 03     BMI  $8E59
 8E56  4C 3C B4  JMP  $B43C
 8E59  B4 01     LDY  $01, X
 8E5B  B5 03     LDA  $03, X
 8E5D  95 01     STA  $01, X
 8E5F  B5 05     LDA  $05, X
 8E61  95 03     STA  $03, X
 8E63  94 05     STY  $05, X
 8E65  B4 00     LDY  $00, X
 8E67  B5 02     LDA  $02, X
 8E69  95 00     STA  $00, X
 8E6B  B5 04     LDA  $04, X
 8E6D  95 02     STA  $02, X
 8E6F  94 04     STY  $04, X
 8E71  60        RTS  
 8E72  E0 75     CPX  #$75
 8E74  30 03     BMI  $8E79
 8E76  4C 3C B4  JMP  $B43C
 8E79  64 26     STZ  $26
 8E7B  64 27     STZ  $27
 8E7D  A1 02     LDA  ($02, X)
 8E7F  C9 2D     CMP  #$2D
 8E81  D0 0A     BNE  $8E8D
 8E83  C6 27     DEC  $27
 8E85  F6 02     INC  $02, X
 8E87  D0 02     BNE  $8E8B
 8E89  F6 03     INC  $03, X
 8E8B  D6 00     DEC  $00, X
 8E8D  B5 02     LDA  $02, X
 8E8F  18        CLC  
 8E90  75 00     ADC  $00, X
 8E92  85 28     STA  $28
 8E94  B5 03     LDA  $03, X
 8E96  69 00     ADC  #$00
 8E98  85 29     STA  $29
 8E9A  A5 28     LDA  $28
 8E9C  D0 02     BNE  $8EA0
 8E9E  C6 29     DEC  $29
 8EA0  C6 28     DEC  $28
 8EA2  B2 28     LDA  ($28)
 8EA4  C9 2E     CMP  #$2E
 8EA6  D0 04     BNE  $8EAC
 8EA8  C6 26     DEC  $26
 8EAA  D6 00     DEC  $00, X
 8EAC  CA        DEX  
 8EAD  CA        DEX  
 8EAE  CA        DEX  
 8EAF  CA        DEX  
 8EB0  B5 04     LDA  $04, X
 8EB2  95 00     STA  $00, X
 8EB4  74 01     STZ  $01, X
 8EB6  B5 06     LDA  $06, X
 8EB8  95 02     STA  $02, X
 8EBA  B5 07     LDA  $07, X
 8EBC  95 03     STA  $03, X
 8EBE  74 04     STZ  $04, X
 8EC0  74 05     STZ  $05, X
 8EC2  74 06     STZ  $06, X
 8EC4  74 07     STZ  $07, X
 8EC6  20 00 95  JSR  $9500
 8EC9  B5 00     LDA  $00, X
 8ECB  F0 15     BEQ  $8EE2
 8ECD  A9 3E     LDA  #$3E
 8ECF  20 A3 88  JSR  $88A3
 8ED2  20 E1 96  JSR  $96E1
 8ED5  A9 3C     LDA  #$3C
 8ED7  20 A3 88  JSR  $88A3
 8EDA  20 F3 93  JSR  $93F3
 8EDD  A9 0C     LDA  #$0C
 8EDF  4C 3E B4  JMP  $B43E
 8EE2  E8        INX  
 8EE3  E8        INX  
 8EE4  E8        INX  
 8EE5  E8        INX  
 8EE6  A5 26     LDA  $26
 8EE8  F0 09     BEQ  $8EF3
 8EEA  A5 27     LDA  $27
 8EEC  F0 0E     BEQ  $8EFC
 8EEE  20 C6 86  JSR  $86C6
 8EF1  80 09     BRA  $8EFC
 8EF3  E8        INX  
 8EF4  E8        INX  
 8EF5  A5 27     LDA  $27
 8EF7  F0 03     BEQ  $8EFC
 8EF9  20 00 8E  JSR  $8E00
 8EFC  60        RTS  
 8EFD  E0 75     CPX  #$75
 8EFF  30 03     BMI  $8F04
 8F01  4C 3C B4  JMP  $B43C
 8F04  20 21 82  JSR  $8221
 8F07  20 9C 89  JSR  $899C
 8F0A  20 1B 97  JSR  $971B
 8F0D  20 0E 92  JSR  $920E
 8F10  B5 00     LDA  $00, X
 8F12  A8        TAY  
 8F13  B9 A1 B1  LDA  $B1A1, Y
 8F16  95 00     STA  $00, X
 8F18  74 01     STZ  $01, X
 8F1A  20 D0 8A  JSR  $8AD0
 8F1D  60        RTS  
 8F1E  E0 75     CPX  #$75
 8F20  30 03     BMI  $8F25
 8F22  4C 3C B4  JMP  $B43C
 8F25  A5 2A     LDA  $2A
 8F27  95 00     STA  $00, X
 8F29  95 02     STA  $02, X
 8F2B  A5 2B     LDA  $2B
 8F2D  95 01     STA  $01, X
 8F2F  95 03     STA  $03, X
 8F31  20 B3 8F  JSR  $8FB3
 8F34  38        SEC  
 8F35  B5 00     LDA  $00, X
 8F37  F5 02     SBC  $02, X
 8F39  95 02     STA  $02, X
 8F3B  B5 01     LDA  $01, X
 8F3D  F5 03     SBC  $03, X
 8F3F  95 03     STA  $03, X
 8F41  E8        INX  
 8F42  E8        INX  
 8F43  60        RTS  
 8F44  E0 75     CPX  #$75
 8F46  30 03     BMI  $8F4B
 8F48  4C 3C B4  JMP  $B43C
 8F4B  20 FD 8E  JSR  $8EFD
 8F4E  B5 00     LDA  $00, X
 8F50  15 01     ORA  $01, X
 8F52  15 02     ORA  $02, X
 8F54  15 03     ORA  $03, X
 8F56  D0 F3     BNE  $8F4B
 8F58  60        RTS  
 8F59  CA        DEX  
 8F5A  CA        DEX  
 8F5B  A9 01     LDA  #$01
 8F5D  95 00     STA  $00, X
 8F5F  74 01     STZ  $01, X
 8F61  60        RTS  
 8F62  E0 77     CPX  #$77
 8F64  30 03     BMI  $8F69
 8F66  4C 3C B4  JMP  $B43C
 8F69  B5 00     LDA  $00, X
 8F6B  D0 02     BNE  $8F6F
 8F6D  D6 01     DEC  $01, X
 8F6F  D6 00     DEC  $00, X
 8F71  60        RTS  
 8F72  E0 77     CPX  #$77
 8F74  30 03     BMI  $8F79
 8F76  4C 3C B4  JMP  $B43C
 8F79  F6 00     INC  $00, X
 8F7B  D0 02     BNE  $8F7F
 8F7D  F6 01     INC  $01, X
 8F7F  60        RTS  
 8F80  E0 75     CPX  #$75
 8F82  30 03     BMI  $8F87
 8F84  4C 3C B4  JMP  $B43C
 8F87  B5 00     LDA  $00, X
 8F89  15 02     ORA  $02, X
 8F8B  95 02     STA  $02, X
 8F8D  B5 01     LDA  $01, X
 8F8F  15 03     ORA  $03, X
 8F91  95 03     STA  $03, X
 8F93  E8        INX  
 8F94  E8        INX  
 8F95  60        RTS  
 8F96  CA        DEX  
 8F97  CA        DEX  
 8F98  A9 10     LDA  #$10
 8F9A  95 00     STA  $00, X
 8F9C  A9 00     LDA  #$00
 8F9E  95 01     STA  $01, X
 8FA0  60        RTS  
 8FA1  E0 75     CPX  #$75
 8FA3  30 03     BMI  $8FA8
 8FA5  4C 3C B4  JMP  $B43C
 8FA8  CA        DEX  
 8FA9  CA        DEX  
 8FAA  B5 04     LDA  $04, X
 8FAC  95 00     STA  $00, X
 8FAE  B5 05     LDA  $05, X
 8FB0  95 01     STA  $01, X
 8FB2  60        RTS  
 8FB3  CA        DEX  
 8FB4  CA        DEX  
 8FB5  A5 00     LDA  $00
 8FB7  18        CLC  
 8FB8  69 FF     ADC  #$FF
 8FBA  95 00     STA  $00, X
 8FBC  A5 01     LDA  $01
 8FBE  69 00     ADC  #$00
 8FC0  95 01     STA  $01, X
 8FC2  60        RTS  
 8FC3  A9 1B     LDA  #$1B
 8FC5  20 A3 88  JSR  $88A3
 8FC8  A9 5B     LDA  #$5B
 8FCA  20 A3 88  JSR  $88A3
 8FCD  A9 32     LDA  #$32
 8FCF  20 A3 88  JSR  $88A3
 8FD2  A9 4A     LDA  #$4A
 8FD4  20 A3 88  JSR  $88A3
 8FD7  20 C6 98  JSR  $98C6
 8FDA  20 C6 98  JSR  $98C6
 8FDD  20 F6 81  JSR  $81F6
 8FE0  60        RTS  
 8FE1  A5 0A     LDA  $0A
 8FE3  38        SEC  
 8FE4  E5 0C     SBC  $0C
 8FE6  85 20     STA  $20
 8FE8  A5 0B     LDA  $0B
 8FEA  E5 0D     SBC  $0D
 8FEC  85 21     STA  $21
 8FEE  A5 20     LDA  $20
 8FF0  F0 02     BEQ  $8FF4
 8FF2  C6 21     DEC  $21
 8FF4  C6 20     DEC  $20
 8FF6  A5 08     LDA  $08
 8FF8  18        CLC  
 8FF9  65 0C     ADC  $0C
 8FFB  85 22     STA  $22
 8FFD  A5 09     LDA  $09
 8FFF  65 0D     ADC  $0D
 9001  85 23     STA  $23
 9003  B2 22     LDA  ($22)
 9005  C9 20     CMP  #$20
 9007  D0 1F     BNE  $9028
 9009  E6 22     INC  $22
 900B  D0 02     BNE  $900F
 900D  E6 23     INC  $23
 900F  A5 20     LDA  $20
 9011  D0 02     BNE  $9015
 9013  C6 21     DEC  $21
 9015  C6 20     DEC  $20
 9017  A5 20     LDA  $20
 9019  05 21     ORA  $21
 901B  D0 E6     BNE  $9003
 901D  CA        DEX  
 901E  CA        DEX  
 901F  CA        DEX  
 9020  CA        DEX  
 9021  74 00     STZ  $00, X
 9023  74 01     STZ  $01, X
 9025  4C CB 90  JMP  $90CB
 9028  A5 22     LDA  $22
 902A  38        SEC  
 902B  E5 08     SBC  $08
 902D  85 0C     STA  $0C
 902F  A5 23     LDA  $23
 9031  E5 09     SBC  $09
 9033  85 0D     STA  $0D
 9035  CA        DEX  
 9036  CA        DEX  
 9037  A9 20     LDA  #$20
 9039  95 00     STA  $00, X
 903B  74 01     STZ  $01, X
 903D  E0 77     CPX  #$77
 903F  30 03     BMI  $9044
 9041  4C 3C B4  JMP  $B43C
 9044  A5 0A     LDA  $0A
 9046  05 0B     ORA  $0B
 9048  F0 0C     BEQ  $9056
 904A  A5 0D     LDA  $0D
 904C  C5 0B     CMP  $0B
 904E  90 0E     BCC  $905E
 9050  A5 0C     LDA  $0C
 9052  C5 0A     CMP  $0A
 9054  90 08     BCC  $905E
 9056  CA        DEX  
 9057  CA        DEX  
 9058  74 00     STZ  $00, X
 905A  74 01     STZ  $01, X
 905C  80 6D     BRA  $90CB
 905E  B5 00     LDA  $00, X
 9060  85 28     STA  $28
 9062  CA        DEX  
 9063  CA        DEX  
 9064  A5 08     LDA  $08
 9066  18        CLC  
 9067  65 0C     ADC  $0C
 9069  85 20     STA  $20
 906B  85 22     STA  $22
 906D  95 02     STA  $02, X
 906F  A5 09     LDA  $09
 9071  65 0D     ADC  $0D
 9073  85 21     STA  $21
 9075  85 23     STA  $23
 9077  95 03     STA  $03, X
 9079  A5 08     LDA  $08
 907B  18        CLC  
 907C  65 0A     ADC  $0A
 907E  85 24     STA  $24
 9080  A5 09     LDA  $09
 9082  65 0B     ADC  $0B
 9084  85 25     STA  $25
 9086  64 29     STZ  $29
 9088  A5 22     LDA  $22
 908A  C5 24     CMP  $24
 908C  D0 06     BNE  $9094
 908E  A5 23     LDA  $23
 9090  C5 25     CMP  $25
 9092  F0 10     BEQ  $90A4
 9094  B2 22     LDA  ($22)
 9096  C5 28     CMP  $28
 9098  F0 08     BEQ  $90A2
 909A  E6 22     INC  $22
 909C  D0 EA     BNE  $9088
 909E  E6 23     INC  $23
 90A0  80 E6     BRA  $9088
 90A2  E6 29     INC  $29
 90A4  A5 22     LDA  $22
 90A6  38        SEC  
 90A7  E5 20     SBC  $20
 90A9  95 00     STA  $00, X
 90AB  A5 23     LDA  $23
 90AD  E5 21     SBC  $21
 90AF  95 01     STA  $01, X
 90B1  A5 22     LDA  $22
 90B3  38        SEC  
 90B4  E5 08     SBC  $08
 90B6  85 0C     STA  $0C
 90B8  A5 23     LDA  $23
 90BA  E5 09     SBC  $09
 90BC  85 0D     STA  $0D
 90BE  A5 0C     LDA  $0C
 90C0  18        CLC  
 90C1  65 29     ADC  $29
 90C3  85 0C     STA  $0C
 90C5  A5 0D     LDA  $0D
 90C7  69 00     ADC  #$00
 90C9  85 0D     STA  $0D
 90CB  60        RTS  
 90CC  16 00     ASL  $00, X
 90CE  8A        TXA  
 90CF  75 00     ADC  $00, X
 90D1  A8        TAY  
 90D2  B9 02 00  LDA  $0002, Y
 90D5  95 00     STA  $00, X
 90D7  B9 03 00  LDA  $0003, Y
 90DA  95 01     STA  $01, X
 90DC  60        RTS  
 90DD  E0 75     CPX  #$75
 90DF  30 03     BMI  $90E4
 90E1  4C 3C B4  JMP  $B43C
 90E4  18        CLC  
 90E5  B5 00     LDA  $00, X
 90E7  75 02     ADC  $02, X
 90E9  95 02     STA  $02, X
 90EB  B5 01     LDA  $01, X
 90ED  75 03     ADC  $03, X
 90EF  95 03     STA  $03, X
 90F1  E8        INX  
 90F2  E8        INX  
 90F3  60        RTS  
 90F4  E0 75     CPX  #$75
 90F6  30 03     BMI  $90FB
 90F8  4C 3C B4  JMP  $B43C
 90FB  B5 00     LDA  $00, X
 90FD  85 20     STA  $20
 90FF  B5 01     LDA  $01, X
 9101  85 21     STA  $21
 9103  A0 00     LDY  #$00
 9105  B1 20     LDA  ($20), Y
 9107  18        CLC  
 9108  75 02     ADC  $02, X
 910A  91 20     STA  ($20), Y
 910C  C8        INY  
 910D  B1 20     LDA  ($20), Y
 910F  75 03     ADC  $03, X
 9111  91 20     STA  ($20), Y
 9113  E8        INX  
 9114  E8        INX  
 9115  E8        INX  
 9116  E8        INX  
 9117  60        RTS  
 9118  20 E1 8F  JSR  $8FE1
 911B  B5 00     LDA  $00, X
 911D  15 01     ORA  $01, X
 911F  D0 05     BNE  $9126
 9121  A9 06     LDA  #$06
 9123  4C 3E B4  JMP  $B43E
 9126  20 FF 89  JSR  $89FF
 9129  D0 05     BNE  $9130
 912B  A9 06     LDA  #$06
 912D  4C 3E B4  JMP  $B43E
 9130  B5 00     LDA  $00, X
 9132  85 20     STA  $20
 9134  B5 01     LDA  $01, X
 9136  85 21     STA  $21
 9138  20 B6 8D  JSR  $8DB6
 913B  E6 20     INC  $20
 913D  D0 02     BNE  $9141
 913F  E6 21     INC  $21
 9141  B2 20     LDA  ($20)
 9143  29 04     AND  #$04
 9145  F0 05     BEQ  $914C
 9147  20 B6 83  JSR  $83B6
 914A  80 0A     BRA  $9156
 914C  20 E6 8B  JSR  $8BE6
 914F  A0 83     LDY  #$83
 9151  A9 B6     LDA  #$B6
 9153  20 31 B3  JSR  $B331
 9156  60        RTS  
 9157  20 9C 89  JSR  $899C
 915A  20 BE 87  JSR  $87BE
 915D  60        RTS  
 915E  E0 77     CPX  #$77
 9160  30 03     BMI  $9165
 9162  4C 3C B4  JMP  $B43C
 9165  B5 00     LDA  $00, X
 9167  15 01     ORA  $01, X
 9169  F0 0A     BEQ  $9175
 916B  CA        DEX  
 916C  CA        DEX  
 916D  B5 02     LDA  $02, X
 916F  95 00     STA  $00, X
 9171  B5 03     LDA  $03, X
 9173  95 01     STA  $01, X
 9175  60        RTS  
 9176  7A        PLY  
 9177  84 20     STY  $20
 9179  7A        PLY  
 917A  CA        DEX  
 917B  CA        DEX  
 917C  68        PLA  
 917D  95 00     STA  $00, X
 917F  68        PLA  
 9180  95 01     STA  $01, X
 9182  48        PHA  
 9183  B5 00     LDA  $00, X
 9185  48        PHA  
 9186  5A        PHY  
 9187  A4 20     LDY  $20
 9189  5A        PHY  
 918A  60        RTS  
 918B  68        PLA  
 918C  85 28     STA  $28
 918E  7A        PLY  
 918F  CA        DEX  
 9190  CA        DEX  
 9191  68        PLA  
 9192  95 00     STA  $00, X
 9194  68        PLA  
 9195  95 01     STA  $01, X
 9197  5A        PHY  
 9198  A5 28     LDA  $28
 919A  48        PHA  
 919B  60        RTS  
 919C  A0 00     LDY  #$00
 919E  A9 20     LDA  #$20
 91A0  91 00     STA  ($00), Y
 91A2  C8        INY  
 91A3  A5 04     LDA  $04
 91A5  18        CLC  
 91A6  69 04     ADC  #$04
 91A8  85 20     STA  $20
 91AA  A5 05     LDA  $05
 91AC  69 00     ADC  #$00
 91AE  85 21     STA  $21
 91B0  B2 20     LDA  ($20)
 91B2  91 00     STA  ($00), Y
 91B4  5A        PHY  
 91B5  A0 01     LDY  #$01
 91B7  B1 20     LDA  ($20), Y
 91B9  7A        PLY  
 91BA  C8        INY  
 91BB  91 00     STA  ($00), Y
 91BD  C8        INY  
 91BE  98        TYA  
 91BF  18        CLC  
 91C0  65 00     ADC  $00
 91C2  85 00     STA  $00
 91C4  90 02     BCC  $91C8
 91C6  E6 01     INC  $01
 91C8  60        RTS  
 91C9  A5 06     LDA  $06
 91CB  D0 29     BNE  $91F6
 91CD  CA        DEX  
 91CE  CA        DEX  
 91CF  CA        DEX  
 91D0  CA        DEX  
 91D1  A5 08     LDA  $08
 91D3  95 02     STA  $02, X
 91D5  A5 09     LDA  $09
 91D7  95 03     STA  $03, X
 91D9  64 0A     STZ  $0A
 91DB  64 0B     STZ  $0B
 91DD  A9 FF     LDA  #$FF
 91DF  95 00     STA  $00, X
 91E1  74 01     STZ  $01, X
 91E3  20 07 81  JSR  $8107
 91E6  B5 00     LDA  $00, X
 91E8  85 0A     STA  $0A
 91EA  B5 01     LDA  $01, X
 91EC  85 0B     STA  $0B
 91EE  A9 FF     LDA  #$FF
 91F0  95 00     STA  $00, X
 91F2  95 01     STA  $01, X
 91F4  80 10     BRA  $9206
 91F6  1A        INC  
 91F7  D0 08     BNE  $9201
 91F9  CA        DEX  
 91FA  CA        DEX  
 91FB  74 00     STZ  $00, X
 91FD  74 01     STZ  $01, X
 91FF  80 05     BRA  $9206
 9201  A9 09     LDA  #$09
 9203  4C 3E B4  JMP  $B43E
 9206  60        RTS  
 9207  A9 FF     LDA  #$FF
 9209  85 16     STA  $16
 920B  85 17     STA  $17
 920D  60        RTS  
 920E  E0 73     CPX  #$73
 9210  30 03     BMI  $9215
 9212  4C 3C B4  JMP  $B43C
 9215  B4 05     LDY  $05, X
 9217  B5 03     LDA  $03, X
 9219  95 05     STA  $05, X
 921B  B5 01     LDA  $01, X
 921D  95 03     STA  $03, X
 921F  94 01     STY  $01, X
 9221  B4 04     LDY  $04, X
 9223  B5 02     LDA  $02, X
 9225  95 04     STA  $04, X
 9227  B5 00     LDA  $00, X
 9229  95 02     STA  $02, X
 922B  94 00     STY  $00, X
 922D  60        RTS  
 922E  E0 75     CPX  #$75
 9230  30 03     BMI  $9235
 9232  4C 3C B4  JMP  $B43C
 9235  B5 00     LDA  $00, X
 9237  29 0F     AND  #$0F
 9239  F0 08     BEQ  $9243
 923B  A8        TAY  
 923C  56 03     LSR  $03, X
 923E  76 02     ROR  $02, X
 9240  88        DEY  
 9241  D0 F9     BNE  $923C
 9243  E8        INX  
 9244  E8        INX  
 9245  60        RTS  
 9246  CA        DEX  
 9247  CA        DEX  
 9248  A9 22     LDA  #$22
 924A  95 00     STA  $00, X
 924C  74 01     STZ  $01, X
 924E  20 3D 90  JSR  $903D
 9251  B5 00     LDA  $00, X
 9253  15 01     ORA  $01, X
 9255  D0 06     BNE  $925D
 9257  E8        INX  
 9258  E8        INX  
 9259  E8        INX  
 925A  E8        INX  
 925B  80 39     BRA  $9296
 925D  A5 16     LDA  $16
 925F  05 17     ORA  $17
 9261  F0 05     BEQ  $9268
 9263  20 07 93  JSR  $9307
 9266  80 2E     BRA  $9296
 9268  B5 02     LDA  $02, X
 926A  85 20     STA  $20
 926C  B5 03     LDA  $03, X
 926E  85 21     STA  $21
 9270  A5 00     LDA  $00
 9272  85 22     STA  $22
 9274  A5 01     LDA  $01
 9276  85 23     STA  $23
 9278  B4 00     LDY  $00, X
 927A  88        DEY  
 927B  B1 20     LDA  ($20), Y
 927D  91 22     STA  ($22), Y
 927F  D0 F9     BNE  $927A
 9281  A5 00     LDA  $00
 9283  95 02     STA  $02, X
 9285  A5 01     LDA  $01
 9287  95 03     STA  $03, X
 9289  B5 00     LDA  $00, X
 928B  18        CLC  
 928C  65 00     ADC  $00
 928E  85 00     STA  $00
 9290  A5 01     LDA  $01
 9292  69 00     ADC  #$00
 9294  85 01     STA  $01
 9296  60        RTS  
 9297  E0 77     CPX  #$77
 9299  30 03     BMI  $929E
 929B  4C 3C B4  JMP  $B43C
 929E  CA        DEX  
 929F  CA        DEX  
 92A0  74 00     STZ  $00, X
 92A2  74 01     STZ  $01, X
 92A4  B5 03     LDA  $03, X
 92A6  10 04     BPL  $92AC
 92A8  D6 00     DEC  $00, X
 92AA  D6 01     DEC  $01, X
 92AC  60        RTS  
 92AD  A0 06     LDY  #$06
 92AF  A5 00     LDA  $00
 92B1  91 04     STA  ($04), Y
 92B3  C8        INY  
 92B4  A5 01     LDA  $01
 92B6  91 04     STA  ($04), Y
 92B8  A9 60     LDA  #$60
 92BA  20 41 B3  JSR  $B341
 92BD  A5 04     LDA  $04
 92BF  85 02     STA  $02
 92C1  A5 05     LDA  $05
 92C3  85 03     STA  $03
 92C5  64 16     STZ  $16
 92C7  64 17     STZ  $17
 92C9  60        RTS  
 92CA  E0 77     CPX  #$77
 92CC  30 03     BMI  $92D1
 92CE  4C 3C B4  JMP  $B43C
 92D1  B5 01     LDA  $01, X
 92D3  30 04     BMI  $92D9
 92D5  E8        INX  
 92D6  E8        INX  
 92D7  80 09     BRA  $92E2
 92D9  A9 2D     LDA  #$2D
 92DB  95 00     STA  $00, X
 92DD  74 01     STZ  $01, X
 92DF  20 D0 8A  JSR  $8AD0
 92E2  60        RTS  
 92E3  E0 73     CPX  #$73
 92E5  30 03     BMI  $92EA
 92E7  4C 3C B4  JMP  $B43C
 92EA  18        CLC  
 92EB  B5 00     LDA  $00, X
 92ED  75 04     ADC  $04, X
 92EF  95 04     STA  $04, X
 92F1  B5 01     LDA  $01, X
 92F3  75 05     ADC  $05, X
 92F5  95 05     STA  $05, X
 92F7  38        SEC  
 92F8  B5 02     LDA  $02, X
 92FA  F5 00     SBC  $00, X
 92FC  95 02     STA  $02, X
 92FE  B5 03     LDA  $03, X
 9300  F5 01     SBC  $01, X
 9302  95 03     STA  $03, X
 9304  E8        INX  
 9305  E8        INX  
 9306  60        RTS  
 9307  E0 75     CPX  #$75
 9309  30 03     BMI  $930E
 930B  4C 3C B4  JMP  $B43C
 930E  B5 00     LDA  $00, X
 9310  85 28     STA  $28
 9312  B5 01     LDA  $01, X
 9314  85 29     STA  $29
 9316  B5 02     LDA  $02, X
 9318  85 20     STA  $20
 931A  B5 03     LDA  $03, X
 931C  85 21     STA  $21
 931E  A9 4C     LDA  #$4C
 9320  20 41 B3  JSR  $B341
 9323  A5 28     LDA  $28
 9325  18        CLC  
 9326  65 00     ADC  $00
 9328  69 02     ADC  #$02
 932A  92 00     STA  ($00)
 932C  A5 29     LDA  $29
 932E  65 01     ADC  $01
 9330  A0 01     LDY  #$01
 9332  91 00     STA  ($00), Y
 9334  18        CLC  
 9335  A5 00     LDA  $00
 9337  69 02     ADC  #$02
 9339  85 00     STA  $00
 933B  A5 01     LDA  $01
 933D  69 00     ADC  #$00
 933F  85 01     STA  $01
 9341  A4 28     LDY  $28
 9343  88        DEY  
 9344  B1 20     LDA  ($20), Y
 9346  91 00     STA  ($00), Y
 9348  88        DEY  
 9349  10 F9     BPL  $9344
 934B  A5 00     LDA  $00
 934D  85 24     STA  $24
 934F  A5 01     LDA  $01
 9351  85 25     STA  $25
 9353  18        CLC  
 9354  A5 00     LDA  $00
 9356  65 28     ADC  $28
 9358  85 00     STA  $00
 935A  A5 01     LDA  $01
 935C  65 29     ADC  $29
 935E  85 01     STA  $01
 9360  A0 93     LDY  #$93
 9362  A9 7A     LDA  #$7A
 9364  20 31 B3  JSR  $B331
 9367  A4 25     LDY  $25
 9369  A5 24     LDA  $24
 936B  20 3D B3  JSR  $B33D
 936E  A4 29     LDY  $29
 9370  A5 28     LDA  $28
 9372  20 3D B3  JSR  $B33D
 9375  E8        INX  
 9376  E8        INX  
 9377  E8        INX  
 9378  E8        INX  
 9379  60        RTS  
 937A  CA        DEX  
 937B  CA        DEX  
 937C  CA        DEX  
 937D  CA        DEX  
 937E  68        PLA  
 937F  85 20     STA  $20
 9381  68        PLA  
 9382  85 21     STA  $21
 9384  A0 01     LDY  #$01
 9386  B1 20     LDA  ($20), Y
 9388  95 02     STA  $02, X
 938A  C8        INY  
 938B  B1 20     LDA  ($20), Y
 938D  95 03     STA  $03, X
 938F  C8        INY  
 9390  B1 20     LDA  ($20), Y
 9392  95 00     STA  $00, X
 9394  C8        INY  
 9395  B1 20     LDA  ($20), Y
 9397  95 01     STA  $01, X
 9399  18        CLC  
 939A  A5 20     LDA  $20
 939C  69 04     ADC  #$04
 939E  A8        TAY  
 939F  A5 21     LDA  $21
 93A1  69 00     ADC  #$00
 93A3  48        PHA  
 93A4  5A        PHY  
 93A5  60        RTS  
 93A6  E0 73     CPX  #$73
 93A8  30 03     BMI  $93AD
 93AA  4C 3C B4  JMP  $B43C
 93AD  B5 03     LDA  $03, X
 93AF  48        PHA  
 93B0  B5 01     LDA  $01, X
 93B2  55 03     EOR  $03, X
 93B4  48        PHA  
 93B5  20 EE 80  JSR  $80EE
 93B8  E8        INX  
 93B9  E8        INX  
 93BA  20 16 86  JSR  $8616
 93BD  CA        DEX  
 93BE  CA        DEX  
 93BF  20 49 97  JSR  $9749
 93C2  68        PLA  
 93C3  10 03     BPL  $93C8
 93C5  20 00 8E  JSR  $8E00
 93C8  68        PLA  
 93C9  10 07     BPL  $93D2
 93CB  E8        INX  
 93CC  E8        INX  
 93CD  20 00 8E  JSR  $8E00
 93D0  CA        DEX  
 93D1  CA        DEX  
 93D2  60        RTS  
 93D3  CA        DEX  
 93D4  CA        DEX  
 93D5  A5 08     LDA  $08
 93D7  95 00     STA  $00, X
 93D9  A5 09     LDA  $09
 93DB  95 01     STA  $01, X
 93DD  CA        DEX  
 93DE  CA        DEX  
 93DF  A5 0A     LDA  $0A
 93E1  95 00     STA  $00, X
 93E3  A5 0B     LDA  $0B
 93E5  95 01     STA  $01, X
 93E7  60        RTS  
 93E8  CA        DEX  
 93E9  CA        DEX  
 93EA  A5 06     LDA  $06
 93EC  95 00     STA  $00, X
 93EE  A5 07     LDA  $07
 93F0  95 01     STA  $01, X
 93F2  60        RTS  
 93F3  A9 20     LDA  #$20
 93F5  20 A3 88  JSR  $88A3
 93F8  60        RTS  
 93F9  E0 77     CPX  #$77
 93FB  30 03     BMI  $9400
 93FD  4C 3C B4  JMP  $B43C
 9400  B5 00     LDA  $00, X
 9402  15 01     ORA  $01, X
 9404  F0 26     BEQ  $942C
 9406  A9 20     LDA  #$20
 9408  B4 01     LDY  $01, X
 940A  D0 0A     BNE  $9416
 940C  B4 00     LDY  $00, X
 940E  20 A3 88  JSR  $88A3
 9411  88        DEY  
 9412  F0 18     BEQ  $942C
 9414  80 F8     BRA  $940E
 9416  B4 00     LDY  $00, X
 9418  F0 06     BEQ  $9420
 941A  20 A3 88  JSR  $88A3
 941D  88        DEY  
 941E  80 F8     BRA  $9418
 9420  A0 00     LDY  #$00
 9422  20 A3 88  JSR  $88A3
 9425  88        DEY  
 9426  D0 FA     BNE  $9422
 9428  D6 01     DEC  $01, X
 942A  D0 F4     BNE  $9420
 942C  E8        INX  
 942D  E8        INX  
 942E  60        RTS  
 942F  E0 75     CPX  #$75
 9431  30 03     BMI  $9436
 9433  4C 3C B4  JMP  $B43C
 9436  20 8F 97  JSR  $978F
 9439  E8        INX  
 943A  E8        INX  
 943B  60        RTS  
 943C  CA        DEX  
 943D  CA        DEX  
 943E  A9 16     LDA  #$16
 9440  95 00     STA  $00, X
 9442  A9 00     LDA  #$00
 9444  95 01     STA  $01, X
 9446  60        RTS  
 9447  E0 75     CPX  #$75
 9449  30 03     BMI  $944E
 944B  4C 3C B4  JMP  $B43C
 944E  B5 02     LDA  $02, X
 9450  81 00     STA  ($00, X)
 9452  F6 00     INC  $00, X
 9454  D0 02     BNE  $9458
 9456  F6 01     INC  $01, X
 9458  B5 03     LDA  $03, X
 945A  81 00     STA  ($00, X)
 945C  E8        INX  
 945D  E8        INX  
 945E  E8        INX  
 945F  E8        INX  
 9460  60        RTS  
 9461  E0 75     CPX  #$75
 9463  30 03     BMI  $9468
 9465  20 3C B4  JSR  $B43C
 9468  B5 00     LDA  $00, X
 946A  B4 02     LDY  $02, X
 946C  95 02     STA  $02, X
 946E  94 00     STY  $00, X
 9470  B5 01     LDA  $01, X
 9472  B4 03     LDY  $03, X
 9474  95 03     STA  $03, X
 9476  94 01     STY  $01, X
 9478  60        RTS  
 9479  20 E1 8F  JSR  $8FE1
 947C  B5 00     LDA  $00, X
 947E  15 01     ORA  $01, X
 9480  D0 05     BNE  $9487
 9482  A9 06     LDA  #$06
 9484  4C 3E B4  JMP  $B43E
 9487  20 FF 89  JSR  $89FF
 948A  B5 00     LDA  $00, X
 948C  15 01     ORA  $01, X
 948E  D0 05     BNE  $9495
 9490  A9 0C     LDA  #$0C
 9492  4C 3E B4  JMP  $B43E
 9495  20 B6 8D  JSR  $8DB6
 9498  60        RTS  
 9499  E0 77     CPX  #$77
 949B  30 03     BMI  $94A0
 949D  4C 3C B4  JMP  $B43C
 94A0  A1 00     LDA  ($00, X)
 94A2  C9 20     CMP  #$20
 94A4  D0 4E     BNE  $94F4
 94A6  B5 00     LDA  $00, X
 94A8  85 20     STA  $20
 94AA  B5 01     LDA  $01, X
 94AC  85 21     STA  $21
 94AE  A0 01     LDY  #$01
 94B0  B1 20     LDA  ($20), Y
 94B2  C9 91     CMP  #$91
 94B4  D0 08     BNE  $94BE
 94B6  C8        INY  
 94B7  B1 20     LDA  ($20), Y
 94B9  C9 B3     CMP  #$B3
 94BB  F0 2A     BEQ  $94E7
 94BD  88        DEY  
 94BE  B1 20     LDA  ($20), Y
 94C0  C9 4A     CMP  #$4A
 94C2  D0 08     BNE  $94CC
 94C4  C8        INY  
 94C5  B1 20     LDA  ($20), Y
 94C7  C9 B3     CMP  #$B3
 94C9  F0 1C     BEQ  $94E7
 94CB  88        DEY  
 94CC  B1 20     LDA  ($20), Y
 94CE  C9 5E     CMP  #$5E
 94D0  D0 08     BNE  $94DA
 94D2  C8        INY  
 94D3  B1 20     LDA  ($20), Y
 94D5  C9 B3     CMP  #$B3
 94D7  F0 0E     BEQ  $94E7
 94D9  88        DEY  
 94DA  B1 20     LDA  ($20), Y
 94DC  C9 77     CMP  #$77
 94DE  D0 14     BNE  $94F4
 94E0  C8        INY  
 94E1  B1 20     LDA  ($20), Y
 94E3  C9 B3     CMP  #$B3
 94E5  D0 0D     BNE  $94F4
 94E7  18        CLC  
 94E8  B5 00     LDA  $00, X
 94EA  69 03     ADC  #$03
 94EC  95 00     STA  $00, X
 94EE  B5 01     LDA  $01, X
 94F0  69 00     ADC  #$00
 94F2  95 01     STA  $01, X
 94F4  60        RTS  
 94F5  CA        DEX  
 94F6  CA        DEX  
 94F7  A9 0C     LDA  #$0C
 94F9  95 00     STA  $00, X
 94FB  A9 00     LDA  #$00
 94FD  95 01     STA  $01, X
 94FF  60        RTS  
 9500  E0 71     CPX  #$71
 9502  30 03     BMI  $9507
 9504  4C 3C B4  JMP  $B43C
 9507  B5 06     LDA  $06, X
 9509  85 2C     STA  $2C
 950B  B5 07     LDA  $07, X
 950D  85 2D     STA  $2D
 950F  B5 04     LDA  $04, X
 9511  85 2E     STA  $2E
 9513  B5 05     LDA  $05, X
 9515  85 2F     STA  $2F
 9517  CA        DEX  
 9518  CA        DEX  
 9519  A1 04     LDA  ($04, X)
 951B  95 00     STA  $00, X
 951D  74 01     STZ  $01, X
 951F  20 82 86  JSR  $8682
 9522  B5 00     LDA  $00, X
 9524  D0 04     BNE  $952A
 9526  E8        INX  
 9527  E8        INX  
 9528  80 67     BRA  $9591
 952A  B5 02     LDA  $02, X
 952C  85 30     STA  $30
 952E  B5 03     LDA  $03, X
 9530  85 31     STA  $31
 9532  A5 2E     LDA  $2E
 9534  95 02     STA  $02, X
 9536  A5 2F     LDA  $2F
 9538  95 03     STA  $03, X
 953A  A5 18     LDA  $18
 953C  95 00     STA  $00, X
 953E  74 01     STZ  $01, X
 9540  20 8F 97  JSR  $978F
 9543  B5 02     LDA  $02, X
 9545  85 32     STA  $32
 9547  B5 03     LDA  $03, X
 9549  85 33     STA  $33
 954B  A5 2C     LDA  $2C
 954D  95 02     STA  $02, X
 954F  A5 2D     LDA  $2D
 9551  95 03     STA  $03, X
 9553  A5 18     LDA  $18
 9555  95 00     STA  $00, X
 9557  74 01     STZ  $01, X
 9559  20 8F 97  JSR  $978F
 955C  B5 00     LDA  $00, X
 955E  85 2E     STA  $2E
 9560  B5 01     LDA  $01, X
 9562  85 2F     STA  $2F
 9564  B5 02     LDA  $02, X
 9566  85 2C     STA  $2C
 9568  B5 03     LDA  $03, X
 956A  85 2D     STA  $2D
 956C  18        CLC  
 956D  A5 2C     LDA  $2C
 956F  65 30     ADC  $30
 9571  85 2C     STA  $2C
 9573  A5 2D     LDA  $2D
 9575  65 31     ADC  $31
 9577  85 2D     STA  $2D
 9579  A5 2E     LDA  $2E
 957B  65 32     ADC  $32
 957D  85 2E     STA  $2E
 957F  A5 2F     LDA  $2F
 9581  65 33     ADC  $33
 9583  85 2F     STA  $2F
 9585  E8        INX  
 9586  E8        INX  
 9587  F6 04     INC  $04, X
 9589  D0 02     BNE  $958D
 958B  F6 05     INC  $05, X
 958D  D6 02     DEC  $02, X
 958F  D0 88     BNE  $9519
 9591  E8        INX  
 9592  E8        INX  
 9593  A5 2C     LDA  $2C
 9595  95 06     STA  $06, X
 9597  A5 2D     LDA  $2D
 9599  95 07     STA  $07, X
 959B  A5 2E     LDA  $2E
 959D  95 04     STA  $04, X
 959F  A5 2F     LDA  $2F
 95A1  95 05     STA  $05, X
 95A3  60        RTS  
 95A4  68        PLA  
 95A5  85 28     STA  $28
 95A7  7A        PLY  
 95A8  E0 77     CPX  #$77
 95AA  30 03     BMI  $95AF
 95AC  4C 3C B4  JMP  $B43C
 95AF  B5 01     LDA  $01, X
 95B1  48        PHA  
 95B2  B5 00     LDA  $00, X
 95B4  48        PHA  
 95B5  E8        INX  
 95B6  E8        INX  
 95B7  5A        PHY  
 95B8  A5 28     LDA  $28
 95BA  48        PHA  
 95BB  60        RTS  
 95BC  CA        DEX  
 95BD  CA        DEX  
 95BE  A9 FF     LDA  #$FF
 95C0  95 00     STA  $00, X
 95C2  95 01     STA  $01, X
 95C4  60        RTS  
 95C5  E0 75     CPX  #$75
 95C7  30 03     BMI  $95CC
 95C9  4C 3C B4  JMP  $B43C
 95CC  CA        DEX  
 95CD  CA        DEX  
 95CE  B4 04     LDY  $04, X
 95D0  B5 02     LDA  $02, X
 95D2  95 04     STA  $04, X
 95D4  94 02     STY  $02, X
 95D6  95 00     STA  $00, X
 95D8  B4 05     LDY  $05, X
 95DA  B5 03     LDA  $03, X
 95DC  95 05     STA  $05, X
 95DE  94 03     STY  $03, X
 95E0  95 01     STA  $01, X
 95E2  60        RTS  
 95E3  CA        DEX  
 95E4  CA        DEX  
 95E5  A9 02     LDA  #$02
 95E7  95 00     STA  $00, X
 95E9  74 01     STZ  $01, X
 95EB  60        RTS  
 95EC  E0 75     CPX  #$75
 95EE  30 03     BMI  $95F3
 95F0  4C 3C B4  JMP  $B43C
 95F3  E8        INX  
 95F4  E8        INX  
 95F5  E8        INX  
 95F6  E8        INX  
 95F7  60        RTS  
 95F8  E0 75     CPX  #$75
 95FA  30 03     BMI  $95FF
 95FC  4C 3C B4  JMP  $B43C
 95FF  CA        DEX  
 9600  CA        DEX  
 9601  CA        DEX  
 9602  CA        DEX  
 9603  B5 04     LDA  $04, X
 9605  95 00     STA  $00, X
 9607  B5 05     LDA  $05, X
 9609  95 01     STA  $01, X
 960B  B5 06     LDA  $06, X
 960D  95 02     STA  $02, X
 960F  B5 07     LDA  $07, X
 9611  95 03     STA  $03, X
 9613  60        RTS  
 9614  E0 71     CPX  #$71
 9616  30 03     BMI  $961B
 9618  4C 3C B4  JMP  $B43C
 961B  CA        DEX  
 961C  CA        DEX  
 961D  CA        DEX  
 961E  CA        DEX  
 961F  B5 08     LDA  $08, X
 9621  95 00     STA  $00, X
 9623  B5 09     LDA  $09, X
 9625  95 01     STA  $01, X
 9627  B5 0A     LDA  $0A, X
 9629  95 02     STA  $02, X
 962B  B5 0B     LDA  $0B, X
 962D  95 03     STA  $03, X
 962F  60        RTS  
 9630  CA        DEX  
 9631  CA        DEX  
 9632  CA        DEX  
 9633  CA        DEX  
 9634  8A        TXA  
 9635  BA        TSX  
 9636  DA        PHX  
 9637  7A        PLY  
 9638  AA        TAX  
 9639  B9 03 01  LDA  $0103, Y
 963C  95 00     STA  $00, X
 963E  B9 04 01  LDA  $0104, Y
 9641  95 01     STA  $01, X
 9643  B9 05 01  LDA  $0105, Y
 9646  95 02     STA  $02, X
 9648  B9 06 01  LDA  $0106, Y
 964B  95 03     STA  $03, X
 964D  60        RTS  
 964E  68        PLA  
 964F  85 20     STA  $20
 9651  68        PLA  
 9652  85 21     STA  $21
 9654  CA        DEX  
 9655  CA        DEX  
 9656  CA        DEX  
 9657  CA        DEX  
 9658  68        PLA  
 9659  95 00     STA  $00, X
 965B  68        PLA  
 965C  95 01     STA  $01, X
 965E  68        PLA  
 965F  95 02     STA  $02, X
 9661  68        PLA  
 9662  95 03     STA  $03, X
 9664  A5 21     LDA  $21
 9666  48        PHA  
 9667  A5 20     LDA  $20
 9669  48        PHA  
 966A  60        RTS  
 966B  E0 77     CPX  #$77
 966D  30 03     BMI  $9672
 966F  4C 3C B4  JMP  $B43C
 9672  B5 01     LDA  $01, X
 9674  0A        ASL  
 9675  76 01     ROR  $01, X
 9677  76 00     ROR  $00, X
 9679  60        RTS  
 967A  E0 77     CPX  #$77
 967C  30 03     BMI  $9681
 967E  4C 3C B4  JMP  $B43C
 9681  16 00     ASL  $00, X
 9683  36 01     ROL  $01, X
 9685  60        RTS  
 9686  E0 71     CPX  #$71
 9688  30 03     BMI  $968D
 968A  4C 3C B4  JMP  $B43C
 968D  B5 00     LDA  $00, X
 968F  B4 04     LDY  $04, X
 9691  95 04     STA  $04, X
 9693  94 00     STY  $00, X
 9695  B5 01     LDA  $01, X
 9697  B4 05     LDY  $05, X
 9699  95 05     STA  $05, X
 969B  94 01     STY  $01, X
 969D  B5 02     LDA  $02, X
 969F  B4 06     LDY  $06, X
 96A1  95 06     STA  $06, X
 96A3  94 02     STY  $02, X
 96A5  B5 03     LDA  $03, X
 96A7  B4 07     LDY  $07, X
 96A9  95 07     STA  $07, X
 96AB  94 03     STY  $03, X
 96AD  60        RTS  
 96AE  68        PLA  
 96AF  85 20     STA  $20
 96B1  68        PLA  
 96B2  85 21     STA  $21
 96B4  E0 75     CPX  #$75
 96B6  30 03     BMI  $96BB
 96B8  4C 3C B4  JMP  $B43C
 96BB  B5 03     LDA  $03, X
 96BD  48        PHA  
 96BE  B5 02     LDA  $02, X
 96C0  48        PHA  
 96C1  B5 01     LDA  $01, X
 96C3  48        PHA  
 96C4  B5 00     LDA  $00, X
 96C6  48        PHA  
 96C7  E8        INX  
 96C8  E8        INX  
 96C9  E8        INX  
 96CA  E8        INX  
 96CB  A5 21     LDA  $21
 96CD  48        PHA  
 96CE  A5 20     LDA  $20
 96D0  48        PHA  
 96D1  60        RTS  
 96D2  20 32 85  JSR  $8532
 96D5  CA        DEX  
 96D6  CA        DEX  
 96D7  A9 04     LDA  #$04
 96D9  95 00     STA  $00, X
 96DB  74 01     STZ  $01, X
 96DD  20 97 81  JSR  $8197
 96E0  60        RTS  
 96E1  E0 75     CPX  #$75
 96E3  30 03     BMI  $96E8
 96E5  4C 3C B4  JMP  $B43C
 96E8  B5 00     LDA  $00, X
 96EA  15 01     ORA  $01, X
 96EC  F0 18     BEQ  $9706
 96EE  B5 02     LDA  $02, X
 96F0  85 20     STA  $20
 96F2  B5 03     LDA  $03, X
 96F4  85 21     STA  $21
 96F6  A0 00     LDY  #$00
 96F8  B5 00     LDA  $00, X
 96FA  85 22     STA  $22
 96FC  B1 20     LDA  ($20), Y
 96FE  20 A3 88  JSR  $88A3
 9701  C8        INY  
 9702  C4 22     CPY  $22
 9704  D0 F6     BNE  $96FC
 9706  E8        INX  
 9707  E8        INX  
 9708  E8        INX  
 9709  E8        INX  
 970A  60        RTS  
 970B  E0 77     CPX  #$77
 970D  30 03     BMI  $9712
 970F  4C 3C B4  JMP  $B43C
 9712  20 74 B4  JSR  $B474
 9715  A9 20     LDA  #$20
 9717  20 A3 88  JSR  $88A3
 971A  60        RTS  
 971B  E0 73     CPX  #$73
 971D  30 03     BMI  $9722
 971F  4C 3C B4  JMP  $B43C
 9722  20 A4 95  JSR  $95A4
 9725  20 C6 98  JSR  $98C6
 9728  20 76 91  JSR  $9176
 972B  20 49 97  JSR  $9749
 972E  20 0E 92  JSR  $920E
 9731  20 0E 92  JSR  $920E
 9734  20 8B 91  JSR  $918B
 9737  20 49 97  JSR  $9749
 973A  20 0E 92  JSR  $920E
 973D  60        RTS  
 973E  CA        DEX  
 973F  CA        DEX  
 9740  A9 1C     LDA  #$1C
 9742  95 00     STA  $00, X
 9744  A9 00     LDA  #$00
 9746  95 01     STA  $01, X
 9748  60        RTS  
 9749  E0 73     CPX  #$73
 974B  30 03     BMI  $9750
 974D  4C 3C B4  JMP  $B43C
 9750  B5 00     LDA  $00, X
 9752  15 01     ORA  $01, X
 9754  D0 05     BNE  $975B
 9756  A9 03     LDA  #$03
 9758  4C 3E B4  JMP  $B43E
 975B  A9 11     LDA  #$11
 975D  85 28     STA  $28
 975F  36 04     ROL  $04, X
 9761  36 05     ROL  $05, X
 9763  C6 28     DEC  $28
 9765  F0 22     BEQ  $9789
 9767  36 02     ROL  $02, X
 9769  36 03     ROL  $03, X
 976B  64 20     STZ  $20
 976D  26 20     ROL  $20
 976F  38        SEC  
 9770  B5 02     LDA  $02, X
 9772  F5 00     SBC  $00, X
 9774  85 21     STA  $21
 9776  B5 03     LDA  $03, X
 9778  F5 01     SBC  $01, X
 977A  A8        TAY  
 977B  A5 20     LDA  $20
 977D  E9 00     SBC  #$00
 977F  90 DE     BCC  $975F
 9781  A5 21     LDA  $21
 9783  95 02     STA  $02, X
 9785  94 03     STY  $03, X
 9787  80 D6     BRA  $975F
 9789  E8        INX  
 978A  E8        INX  
 978B  20 61 94  JSR  $9461
 978E  60        RTS  
 978F  E0 75     CPX  #$75
 9791  30 03     BMI  $9796
 9793  4C 3C B4  JMP  $B43C
 9796  18        CLC  
 9797  B5 00     LDA  $00, X
 9799  E9 00     SBC  #$00
 979B  85 22     STA  $22
 979D  B5 01     LDA  $01, X
 979F  E9 00     SBC  #$00
 97A1  90 31     BCC  $97D4
 97A3  85 23     STA  $23
 97A5  A9 00     LDA  #$00
 97A7  85 20     STA  $20
 97A9  86 24     STX  $24
 97AB  CA        DEX  
 97AC  CA        DEX  
 97AD  A0 08     LDY  #$08
 97AF  56 04     LSR  $04, X
 97B1  90 0C     BCC  $97BF
 97B3  85 21     STA  $21
 97B5  A5 20     LDA  $20
 97B7  65 22     ADC  $22
 97B9  85 20     STA  $20
 97BB  A5 21     LDA  $21
 97BD  65 23     ADC  $23
 97BF  6A        ROR  
 97C0  66 20     ROR  $20
 97C2  76 04     ROR  $04, X
 97C4  88        DEY  
 97C5  D0 EA     BNE  $97B1
 97C7  E8        INX  
 97C8  E4 24     CPX  $24
 97CA  D0 E1     BNE  $97AD
 97CC  95 01     STA  $01, X
 97CE  A5 20     LDA  $20
 97D0  95 00     STA  $00, X
 97D2  80 04     BRA  $97D8
 97D4  74 02     STZ  $02, X
 97D6  74 03     STZ  $03, X
 97D8  60        RTS  
 97D9  68        PLA  
 97DA  68        PLA  
 97DB  68        PLA  
 97DC  68        PLA  
 97DD  68        PLA  
 97DE  68        PLA  
 97DF  60        RTS  
 97E0  CA        DEX  
 97E1  CA        DEX  
 97E2  A9 FF     LDA  #$FF
 97E4  38        SEC  
 97E5  E5 00     SBC  $00
 97E7  95 00     STA  $00, X
 97E9  A9 7F     LDA  #$7F
 97EB  E5 01     SBC  $01
 97ED  95 01     STA  $01, X
 97EF  60        RTS  
 97F0  20 32 85  JSR  $8532
 97F3  A9 00     LDA  #$00
 97F5  92 00     STA  ($00)
 97F7  E6 00     INC  $00
 97F9  D0 02     BNE  $97FD
 97FB  E6 01     INC  $01
 97FD  92 00     STA  ($00)
 97FF  E6 00     INC  $00
 9801  D0 00     BNE  $9803
 9803  E6 01     INC  $01
 9805  20 F6 84  JSR  $84F6
 9808  60        RTS  
 9809  E0 77     CPX  #$77
 980B  30 03     BMI  $9810
 980D  4C 3C B4  JMP  $B43C
 9810  A4 0C     LDY  $0C
 9812  C4 0A     CPY  $0A
 9814  F0 09     BEQ  $981F
 9816  B1 08     LDA  ($08), Y
 9818  D5 00     CMP  $00, X
 981A  D0 03     BNE  $981F
 981C  C8        INY  
 981D  80 F3     BRA  $9812
 981F  84 0C     STY  $0C
 9821  20 3D 90  JSR  $903D
 9824  B5 00     LDA  $00, X
 9826  92 00     STA  ($00)
 9828  48        PHA  
 9829  20 86 88  JSR  $8886
 982C  A5 00     LDA  $00
 982E  18        CLC  
 982F  69 01     ADC  #$01
 9831  95 02     STA  $02, X
 9833  A5 01     LDA  $01
 9835  69 00     ADC  #$00
 9837  95 03     STA  $03, X
 9839  20 97 8D  JSR  $8D97
 983C  CA        DEX  
 983D  CA        DEX  
 983E  A5 00     LDA  $00
 9840  95 00     STA  $00, X
 9842  A5 01     LDA  $01
 9844  95 01     STA  $01, X
 9846  68        PLA  
 9847  18        CLC  
 9848  65 00     ADC  $00
 984A  85 00     STA  $00
 984C  A5 01     LDA  $01
 984E  69 00     ADC  #$00
 9850  85 01     STA  $01
 9852  20 2C 85  JSR  $852C
 9855  20 A3 8B  JSR  $8BA3
 9858  A9 00     LDA  #$00
 985A  48        PHA  
 985B  20 86 88  JSR  $8886
 985E  20 D7 8D  JSR  $8DD7
 9861  68        PLA  
 9862  18        CLC  
 9863  75 00     ADC  $00, X
 9865  1A        INC  
 9866  C9 4F     CMP  #$4F
 9868  90 05     BCC  $986F
 986A  20 2C 85  JSR  $852C
 986D  A9 00     LDA  #$00
 986F  48        PHA  
 9870  20 E1 96  JSR  $96E1
 9873  A9 20     LDA  #$20
 9875  20 A3 88  JSR  $88A3
 9878  20 72 8F  JSR  $8F72
 987B  20 72 8F  JSR  $8F72
 987E  20 9C 89  JSR  $899C
 9881  B5 00     LDA  $00, X
 9883  15 01     ORA  $01, X
 9885  D0 D4     BNE  $985B
 9887  68        PLA  
 9888  E8        INX  
 9889  E8        INX  
 988A  60        RTS  
 988B  E0 77     CPX  #$77
 988D  30 03     BMI  $9892
 988F  4C 3C B4  JMP  $B43C
 9892  B5 00     LDA  $00, X
 9894  85 20     STA  $20
 9896  B5 01     LDA  $01, X
 9898  85 21     STA  $21
 989A  A0 06     LDY  #$06
 989C  B1 20     LDA  ($20), Y
 989E  88        DEY  
 989F  88        DEY  
 98A0  38        SEC  
 98A1  F1 20     SBC  ($20), Y
 98A3  95 00     STA  $00, X
 98A5  A0 07     LDY  #$07
 98A7  B1 20     LDA  ($20), Y
 98A9  88        DEY  
 98AA  88        DEY  
 98AB  F1 20     SBC  ($20), Y
 98AD  95 01     STA  $01, X
 98AF  60        RTS  
 98B0  E0 75     CPX  #$75
 98B2  30 03     BMI  $98B7
 98B4  4C 3C B4  JMP  $B43C
 98B7  B5 00     LDA  $00, X
 98B9  55 02     EOR  $02, X
 98BB  95 02     STA  $02, X
 98BD  B5 01     LDA  $01, X
 98BF  55 03     EOR  $03, X
 98C1  95 03     STA  $03, X
 98C3  E8        INX  
 98C4  E8        INX  
 98C5  60        RTS  
 98C6  CA        DEX  
 98C7  CA        DEX  
 98C8  74 00     STZ  $00, X
 98CA  74 01     STZ  $01, X
 98CC  60        RTS  
 98CD  A0 98     LDY  #$98
 98CF  A9 D5     LDA  #$D5
 98D1  20 31 B3  JSR  $B331
 98D4  60        RTS  
 98D5  68        PLA  
 98D6  85 1E     STA  $1E
 98D8  68        PLA  
 98D9  85 1F     STA  $1F
 98DB  B5 00     LDA  $00, X
 98DD  15 01     ORA  $01, X
 98DF  F0 13     BEQ  $98F4
 98E1  A5 1E     LDA  $1E
 98E3  18        CLC  
 98E4  69 02     ADC  #$02
 98E6  85 20     STA  $20
 98E8  A5 1F     LDA  $1F
 98EA  90 02     BCC  $98EE
 98EC  E6 21     INC  $21
 98EE  A5 1F     LDA  $1F
 98F0  85 21     STA  $21
 98F2  80 13     BRA  $9907
 98F4  A0 01     LDY  #$01
 98F6  B1 1E     LDA  ($1E), Y
 98F8  85 20     STA  $20
 98FA  C8        INY  
 98FB  B1 1E     LDA  ($1E), Y
 98FD  85 21     STA  $21
 98FF  A5 20     LDA  $20
 9901  D0 02     BNE  $9905
 9903  C6 21     DEC  $21
 9905  C6 20     DEC  $20
 9907  A5 21     LDA  $21
 9909  48        PHA  
 990A  A5 20     LDA  $20
 990C  48        PHA  
 990D  E8        INX  
 990E  E8        INX  
 990F  60        RTS  
 9910  E0 77     CPX  #$77
 9912  30 03     BMI  $9917
 9914  4C 3C B4  JMP  $B43C
 9917  B5 00     LDA  $00, X
 9919  15 01     ORA  $01, X
 991B  F0 04     BEQ  $9921
 991D  A9 00     LDA  #$00
 991F  80 02     BRA  $9923
 9921  A9 FF     LDA  #$FF
 9923  95 00     STA  $00, X
 9925  95 01     STA  $01, X
 9927  60        RTS  
 9928  E0 77     CPX  #$77
 992A  30 03     BMI  $992F
 992C  4C 3C B4  JMP  $B43C
 992F  A0 00     LDY  #$00
 9931  B5 01     LDA  $01, X
 9933  30 05     BMI  $993A
 9935  15 00     ORA  $00, X
 9937  F0 01     BEQ  $993A
 9939  88        DEY  
 993A  98        TYA  
 993B  95 00     STA  $00, X
 993D  95 01     STA  $01, X
 993F  60        RTS  
 9940  E0 77     CPX  #$77
 9942  30 03     BMI  $9947
 9944  4C 3C B4  JMP  $B43C
 9947  A0 00     LDY  #$00
 9949  B5 01     LDA  $01, X
 994B  10 01     BPL  $994E
 994D  88        DEY  
 994E  98        TYA  
 994F  95 00     STA  $00, X
 9951  95 01     STA  $01, X
 9953  60        RTS  
 9954  E0 77     CPX  #$77
 9956  30 03     BMI  $995B
 9958  4C 3C B4  JMP  $B43C
 995B  A0 00     LDY  #$00
 995D  B5 00     LDA  $00, X
 995F  15 01     ORA  $01, X
 9961  F0 01     BEQ  $9964
 9963  88        DEY  
 9964  98        TYA  
 9965  95 00     STA  $00, X
 9967  95 01     STA  $01, X
 9969  60        RTS  
 996A  A5 18     LDA  $18
 996C  48        PHA  
 996D  20 C9 8A  JSR  $8AC9
 9970  20 2C 85  JSR  $852C
 9973  20 A1 8F  JSR  $8FA1
 9976  20 0B 97  JSR  $970B
 9979  20 F3 93  JSR  $93F3
 997C  A9 19     LDA  #$19
 997E  85 22     STA  $22
 9980  A9 9A     LDA  #$9A
 9982  85 23     STA  $23
 9984  A1 02     LDA  ($02, X)
 9986  0A        ASL  
 9987  90 02     BCC  $998B
 9989  E6 23     INC  $23
 998B  A8        TAY  
 998C  B1 22     LDA  ($22), Y
 998E  85 24     STA  $24
 9990  C8        INY  
 9991  B1 22     LDA  ($22), Y
 9993  85 25     STA  $25
 9995  B2 24     LDA  ($24)
 9997  48        PHA  
 9998  E6 24     INC  $24
 999A  D0 02     BNE  $999E
 999C  E6 25     INC  $25
 999E  20 67 B4  JSR  $B467
 99A1  F6 02     INC  $02, X
 99A3  D0 02     BNE  $99A7
 99A5  F6 03     INC  $03, X
 99A7  20 62 8F  JSR  $8F62
 99AA  7A        PLY  
 99AB  F0 58     BEQ  $9A05
 99AD  88        DEY  
 99AE  5A        PHY  
 99AF  20 F3 93  JSR  $93F3
 99B2  20 86 88  JSR  $8886
 99B5  A1 04     LDA  ($04, X)
 99B7  95 00     STA  $00, X
 99B9  74 01     STZ  $01, X
 99BB  F6 04     INC  $04, X
 99BD  D0 02     BNE  $99C1
 99BF  F6 05     INC  $05, X
 99C1  B5 02     LDA  $02, X
 99C3  D0 02     BNE  $99C7
 99C5  D6 03     DEC  $03, X
 99C7  D6 02     DEC  $02, X
 99C9  68        PLA  
 99CA  D0 14     BNE  $99E0
 99CC  20 C6 98  JSR  $98C6
 99CF  20 BF 8B  JSR  $8BBF
 99D2  20 FD 8E  JSR  $8EFD
 99D5  20 44 8F  JSR  $8F44
 99D8  20 1E 8F  JSR  $8F1E
 99DB  20 E1 96  JSR  $96E1
 99DE  80 25     BRA  $9A05
 99E0  A1 04     LDA  ($04, X)
 99E2  95 01     STA  $01, X
 99E4  20 C6 98  JSR  $98C6
 99E7  20 BF 8B  JSR  $8BBF
 99EA  20 FD 8E  JSR  $8EFD
 99ED  20 FD 8E  JSR  $8EFD
 99F0  20 FD 8E  JSR  $8EFD
 99F3  20 44 8F  JSR  $8F44
 99F6  20 1E 8F  JSR  $8F1E
 99F9  20 E1 96  JSR  $96E1
 99FC  F6 02     INC  $02, X
 99FE  D0 02     BNE  $9A02
 9A00  F6 03     INC  $03, X
 9A02  20 62 8F  JSR  $8F62
 9A05  B5 00     LDA  $00, X
 9A07  15 01     ORA  $01, X
 9A09  F0 05     BEQ  $9A10
 9A0B  30 03     BMI  $9A10
 9A0D  4C 70 99  JMP  $9970
 9A10  68        PLA  
 9A11  85 18     STA  $18
 9A13  20 2C 85  JSR  $852C
 9A16  4C EC 95  JMP  $95EC
 9A19  1C 9C 21 9C 19 9C 19 9C 19 9C 2A 9C 31 9C 19 9C  |..!.......*.1...|
 9A29  38 9C 3D 9C 44 9C 19 9C 4B 9C 50 9C 55 9C 5A 9C  |8.=.D...K.P.U.Z.|
 9A39  60 9C 65 9C 6E 9C 19 9C 76 9C 7D 9C 85 9C 8D 9C  |`.e.n...v.}.....|
 9A49  95 9C 9A 9C A1 9C 19 9C A8 9C AD 9C 19 9C B4 9C  |................|
 9A59  BB 9C C0 9C 19 9C 19 9C C9 9C D0 9C D7 9C DE 9C  |................|
 9A69  E6 9C EB 9C F2 9C 19 9C F9 9C FE 9C 04 9D 09 9D  |................|
 9A79  0F 9D 14 9D 1D 9D 19 9C 25 9D 2E 9D 36 9D 3E 9D  |........%...6.>.|
 9A89  46 9D 4B 9D 52 9D 19 9C 59 9D 60 9D 67 9D 5A 9C  |F.K.R...Y.`.g.Z.|
 9A99  74 9D 79 9D 19 9C 19 9C 19 9C 82 9D 89 9D 90 9D  |t.y.............|
 9AA9  98 9D 9D 9D A4 9D 19 9C AB 9D B0 9D B5 9D BA 9D  |................|
 9AB9  C0 9D C5 9D CE 9D 19 9C 19 9C D6 9D DE 9D E6 9D  |................|
 9AC9  EE 9D F3 9D FA 9D 19 9C 19 9C 19 9C 06 9E 0D 9E  |................|
 9AD9  13 9E 18 9E 19 9C 19 9C 2F 9E 28 9E 2F 9E 36 9E  |......../.(./.6.|
 9AE9  3E 9E 43 9E 4A 9E 19 9C 51 9E 58 9E 5D 9E 62 9E  |>.C.J...Q.X.].b.|
 9AF9  68 9E 6D 9E 76 9E 19 9C 7E 9E 86 9E 8E 9E 96 9E  |h.m.v...~.......|
 9B09  9E 9E A3 9E AA 9E 19 9C AF 9E B7 9E BE 9E C5 9E  |................|
 9B19  CB 9E D0 9E 19 9C 19 9C D9 9E E0 9E E7 9E 19 9C  |................|
 9B29  EE 9E F3 9E FA 9E 19 9C FF 9E 04 9F 09 9F 0E 9F  |................|
 9B39  14 9F 19 9F 22 9F 19 9C 2A 9F 32 9F 3A 9F 42 9F  |...."...*.2.:.B.|
 9B49  4A 9F 4F 9F 56 9F 19 9C 5B 9F 60 9F 67 9F 6E 9F  |J.O.V...[.`.g.n.|
 9B59  74 9F 7B 9F 84 9F 19 9C 8B 9F 92 9F 99 9F A0 9F  |t.{.............|
 9B69  A8 9F AD 9F B4 9F 19 9C B9 9F BE 9F C3 9F C8 9F  |................|
 9B79  CE 9F D3 9F DC 9F 19 9C E4 9F EC 9F F4 9F FC 9F  |................|
 9B89  04 A0 09 A0 10 A0 19 9C 15 A0 1C A0 23 A0 2A A0  |............#.*.|
 9B99  30 A0 37 A0 19 9C 19 9C 40 A0 47 A0 4E A0 55 A0  |0.7.....@.G.N.U.|
 9BA9  5D A0 62 A0 69 A0 6E A0 73 A0 78 A0 7D A0 82 A0  |].b.i.n.s.x.}...|
 9BB9  88 A0 8D A0 96 A0 19 9C 19 9C 9E A0 A6 A0 AE A0  |................|
 9BC9  B6 A0 BB A0 C2 A0 C7 A0 19 9C CC A0 D3 A0 DA A0  |................|
 9BD9  E0 A0 E7 A0 19 9C 19 9C F0 A0 F7 A0 FE A0 05 A1  |................|
 9BE9  0D A1 12 A1 19 A1 19 9C 1E A1 23 A1 28 A1 2D A1  |..........#.(.-.|
 9BF9  33 A1 38 A1 41 A1 19 9C 19 9C 49 A1 51 A1 59 A1  |3.8.A.....I.Q.Y.|
 9C09  61 A1 66 A1 6D A1 19 9C 19 9C 72 A1 79 A1 80 A1  |a.f.m.....r.y...|
 9C19  00 3F 00 00 62 72 6B 00 01 6F 72 61 2E 64 78 69  |.?..brk..ora.dxi|
 9C29  00 01 6F 72 64 2E 64 00 01 61 73 6C 2E 64 00 00  |..ord.d..asl.d..|
 9C39  70 68 70 00 01 6F 72 61 2E 23 00 00 61 73 6C 2E  |php..ora.#..asl.|
 9C49  61 00 02 74 73 62 00 02 6F 72 61 00 02 61 73 6C  |a..tsb..ora..asl|
 9C59  00 02 62 62 72 30 00 01 62 70 6C 00 01 6F 72 61  |..bbr0..bpl..ora|
 9C69  2E 7A 69 79 00 01 6F 72 61 2E 7A 69 00 01 74 72  |.ziy..ora.zi..tr|
 9C79  62 2E 7A 00 01 6F 72 61 2E 7A 78 00 01 61 73 6C  |b.z..ora.zx..asl|
 9C89  2E 7A 78 00 01 72 6D 62 31 2E 7A 00 00 63 6C 63  |.zx..rmb1.z..clc|
 9C99  00 02 6F 72 61 2E 79 00 00 69 6E 63 2E 61 00 02  |..ora.y..inc.a..|
 9CA9  74 72 62 00 02 6F 72 61 2E 78 00 02 61 73 6C 2E  |trb..ora.x..asl.|
 9CB9  78 00 02 6A 73 72 00 01 61 6E 64 2E 7A 78 69 00  |x..jsr..and.zxi.|
 9CC9  01 62 69 74 2E 7A 00 01 61 6E 64 2E 7A 00 01 72  |.bit.z..and.z..r|
 9CD9  6F 6C 2E 7A 00 01 72 6D 62 32 2E 7A 00 00 70 6C  |ol.z..rmb2.z..pl|
 9CE9  70 00 01 61 6E 64 2E 23 00 00 72 6F 6C 2E 61 00  |p..and.#..rol.a.|
 9CF9  02 62 69 74 00 02 61 6E 64 2E 00 02 72 6F 6C 00  |.bit..and...rol.|
 9D09  02 62 62 72 32 00 01 62 6D 69 00 01 61 6E 64 2E  |.bbr2..bmi..and.|
 9D19  7A 69 79 00 01 61 6E 64 2E 7A 69 00 01 62 69 74  |ziy..and.zi..bit|
 9D29  2E 7A 78 69 00 01 61 6E 64 2E 7A 78 00 01 72 6F  |.zxi..and.zx..ro|
 9D39  6C 2E 7A 78 00 01 72 6D 62 33 2E 7A 00 00 73 65  |l.zx..rmb3.z..se|
 9D49  63 00 02 61 6E 64 2E 79 00 00 64 65 63 2E 61 00  |c..and.y..dec.a.|
 9D59  02 62 69 74 2E 78 00 02 61 6E 64 2E 78 00 02 72  |.bit.x..and.x..r|
 9D69  6F 6C 2E 78 00 02 62 62 72 33 00 00 72 74 69 00  |ol.x..bbr3..rti.|
 9D79  01 65 6F 72 2E 7A 78 69 00 01 65 6F 72 2E 7A 00  |.eor.zxi..eor.z.|
 9D89  01 6C 73 72 2E 7A 00 01 72 62 6D 34 2E 7A 00 00  |.lsr.z..rbm4.z..|
 9D99  70 68 61 00 01 65 6F 72 2E 23 00 00 6C 73 72 2E  |pha..eor.#..lsr.|
 9DA9  61 00 02 6A 6D 70 00 02 65 6F 72 00 02 6C 73 72  |a..jmp..eor..lsr|
 9DB9  00 02 62 62 72 34 00 01 62 76 63 00 01 65 6F 72  |..bbr4..bvc..eor|
 9DC9  2E 7A 69 79 00 01 65 6F 72 2E 7A 69 00 01 65 6F  |.ziy..eor.zi..eo|
 9DD9  72 2E 7A 78 00 01 6C 73 72 2E 7A 78 00 01 72 62  |r.zx..lsr.zx..rb|
 9DE9  6D 35 2E 7A 00 00 63 6C 69 00 02 65 6F 72 2E 79  |m5.z..cli..eor.y|
 9DF9  00 00 70 68 79 00 02 65 6F 72 2E 78 00 02 6C 73  |..phy..eor.x..ls|
 9E09  72 2E 78 00 02 62 62 72 35 00 00 72 74 73 00 01  |r.x..bbr5..rts..|
 9E19  61 64 63 2E 7A 78 69 00 01 73 74 7A 2E 7A 00 01  |adc.zxi..stz.z..|
 9E29  61 64 63 2E 7A 00 01 72 6F 72 2E 7A 00 01 72 6D  |adc.z..ror.z..rm|
 9E39  62 36 2E 7A 00 00 70 6C 61 00 01 61 64 63 2E 23  |b6.z..pla..adc.#|
 9E49  00 00 72 6F 72 2E 61 00 02 6A 6D 70 2E 69 00 02  |..ror.a..jmp.i..|
 9E59  61 64 63 00 02 72 6F 72 00 02 62 62 72 36 00 01  |adc..ror..bbr6..|
 9E69  62 76 73 00 01 61 64 63 2E 7A 69 79 00 01 61 64  |bvs..adc.ziy..ad|
 9E79  63 2E 7A 69 00 01 73 74 7A 2E 7A 78 00 01 61 64  |c.zi..stz.zx..ad|
 9E89  63 2E 7A 78 00 01 72 6F 72 2E 7A 78 00 01 72 6D  |c.zx..ror.zx..rm|
 9E99  62 37 2E 7A 00 00 73 65 69 00 02 61 64 63 2E 79  |b7.z..sei..adc.y|
 9EA9  00 00 70 6C 79 00 02 6A 6D 70 2E 78 69 00 02 61  |..ply..jmp.xi..a|
 9EB9  64 63 2E 78 00 02 72 6F 72 2E 78 00 02 62 62 72  |dc.x..ror.x..bbr|
 9EC9  37 00 01 62 72 61 00 01 73 74 61 2E 7A 78 69 00  |7..bra..sta.zxi.|
 9ED9  01 73 74 79 2E 7A 00 01 73 74 61 2E 7A 00 01 73  |.sty.z..sta.z..s|
 9EE9  74 78 2E 7A 00 00 64 65 79 00 01 62 69 74 2E 23  |tx.z..dey..bit.#|
 9EF9  00 00 74 78 61 00 02 73 74 79 00 02 73 74 61 00  |..txa..sty..sta.|
 9F09  02 73 74 78 00 02 62 62 73 30 00 01 62 63 63 00  |.stx..bbs0..bcc.|
 9F19  01 73 74 61 2E 7A 69 79 00 01 73 74 61 2E 7A 69  |.sta.ziy..sta.zi|
 9F29  00 01 73 74 79 2E 7A 78 00 01 73 74 79 2E 7A 78  |..sty.zx..sty.zx|
 9F39  00 01 73 74 78 2E 7A 79 00 01 73 6D 62 31 2E 7A  |..stx.zy..smb1.z|
 9F49  00 00 74 79 61 00 02 73 74 61 2E 79 00 00 74 78  |..tya..sta.y..tx|
 9F59  73 00 02 73 74 7A 00 02 73 74 61 2E 78 00 02 73  |s..stz..sta.x..s|
 9F69  74 7A 2E 78 00 02 62 62 73 31 00 01 6C 64 79 2E  |tz.x..bbs1..ldy.|
 9F79  23 00 01 6C 64 61 2E 7A 78 69 00 01 6C 64 78 2E  |#..lda.zxi..ldx.|
 9F89  23 00 01 6C 64 79 2E 7A 00 01 6C 64 61 2E 7A 00  |#..ldy.z..lda.z.|
 9F99  01 6C 64 78 2E 7A 00 01 73 6D 62 32 2E 7A 00 00  |.ldx.z..smb2.z..|
 9FA9  74 61 79 00 01 6C 64 61 2E 23 00 00 74 61 78 00  |tay..lda.#..tax.|
 9FB9  02 6C 64 79 00 02 6C 64 61 00 02 6C 64 78 00 02  |.ldy..lda..ldx..|
 9FC9  62 62 73 32 00 01 62 63 73 00 01 6C 64 61 2E 7A  |bbs2..bcs..lda.z|
 9FD9  69 79 00 01 6C 64 61 2E 7A 69 00 01 6C 64 79 2E  |iy..lda.zi..ldy.|
 9FE9  7A 78 00 01 6C 64 61 2E 7A 78 00 01 6C 64 78 2E  |zx..lda.zx..ldx.|
 9FF9  7A 79 00 01 73 6D 62 33 2E 7A 00 00 63 6C 76 00  |zy..smb3.z..clv.|
 A009  02 6C 64 61 2E 79 00 00 74 73 78 00 02 6C 64 79  |.lda.y..tsx..ldy|
 A019  2E 78 00 02 6C 64 61 2E 78 00 02 6C 64 78 2E 79  |.x..lda.x..ldx.y|
 A029  00 02 62 62 73 34 00 01 63 70 79 2E 23 00 01 63  |..bbs4..cpy.#..c|
 A039  6D 70 2E 7A 78 69 00 01 63 70 79 2E 7A 00 01 63  |mp.zxi..cpy.z..c|
 A049  6D 70 2E 7A 00 01 64 65 63 2E 7A 00 01 73 6D 62  |mp.z..dec.z..smb|
 A059  34 2E 7A 00 00 69 6E 79 00 01 63 6D 70 2E 23 00  |4.z..iny..cmp.#.|
 A069  00 64 65 78 00 00 73 74 70 00 02 63 70 79 00 02  |.dex..stp..cpy..|
 A079  63 6D 70 00 02 64 65 63 00 02 62 62 73 34 00 01  |cmp..dec..bbs4..|
 A089  62 6E 65 00 01 63 6D 70 2E 7A 69 79 00 01 63 6D  |bne..cmp.ziy..cm|
 A099  70 2E 7A 69 00 01 63 6D 70 2E 7A 78 00 01 64 65  |p.zi..cmp.zx..de|
 A0A9  63 2E 7A 78 00 01 73 6D 62 35 2E 7A 00 00 63 6C  |c.zx..smb5.z..cl|
 A0B9  64 00 02 63 6D 70 2E 79 00 00 70 68 78 00 00 77  |d..cmp.y..phx..w|
 A0C9  61 69 00 02 63 6D 70 2E 78 00 02 64 65 63 2E 78  |ai..cmp.x..dec.x|
 A0D9  00 02 62 62 73 35 00 01 63 70 78 2E 23 00 01 73  |..bbs5..cpx.#..s|
 A0E9  62 63 2E 7A 78 69 00 01 63 70 78 2E 7A 00 01 73  |bc.zxi..cpx.z..s|
 A0F9  62 63 2E 7A 00 01 69 6E 63 2E 7A 00 01 73 6D 62  |bc.z..inc.z..smb|
 A109  36 2E 7A 00 00 69 6E 78 00 01 73 62 63 2E 23 00  |6.z..inx..sbc.#.|
 A119  00 6E 6F 70 00 02 63 70 78 00 02 73 62 63 00 02  |.nop..cpx..sbc..|
 A129  69 6E 63 00 02 62 62 73 36 00 01 62 65 71 00 01  |inc..bbs6..beq..|
 A139  73 62 63 2E 7A 69 79 00 01 73 62 63 2E 7A 69 00  |sbc.ziy..sbc.zi.|
 A149  01 73 62 63 2E 7A 78 00 01 69 6E 63 2E 7A 78 00  |.sbc.zx..inc.zx.|
 A159  01 73 6D 62 37 2E 7A 00 00 73 65 64 00 02 73 62  |.smb7.z..sed..sb|
 A169  63 2E 79 00 00 70 6C 78 00 02 73 62 63 2E 78 00  |c.y..plx..sbc.x.|
 A179  02 69 6E 63 2E 78 00 02 62 62 73 37 00 20 3A 20  |.inc.x..bbs7. : |
 A189  28 20 5B 63 68 61 72 5D 20 29 20 70 61 72 73 65  |( [char] ) parse|
 A199  20 32 64 72 6F 70 20 3B 20 69 6D 6D 65 64 69 61  | 2drop ; immedia|
 A1A9  74 65 20 3A 20 2E 28 20 5B 63 68 61 72 5D 20 29  |te : .( [char] )|
 A1B9  20 70 61 72 73 65 20 74 79 70 65 20 3B 20 69 6D  | parse type ; im|
 A1C9  6D 65 64 69 61 74 65 20 3A 20 69 66 20 70 6F 73  |mediate : if pos|
 A1D9  74 70 6F 6E 65 20 30 62 72 61 6E 63 68 20 68 65  |tpone 0branch he|
 A1E9  72 65 20 30 20 2C 20 3B 20 69 6D 6D 65 64 69 61  |re 0 , ; immedia|
 A1F9  74 65 20 63 6F 6D 70 69 6C 65 2D 6F 6E 6C 79 20  |te compile-only |
 A209  3A 20 74 68 65 6E 20 68 65 72 65 20 73 77 61 70  |: then here swap|
 A219  20 21 20 3B 20 69 6D 6D 65 64 69 61 74 65 20 63  | ! ; immediate c|
 A229  6F 6D 70 69 6C 65 2D 6F 6E 6C 79 20 3A 20 65 6C  |ompile-only : el|
 A239  73 65 20 70 6F 73 74 70 6F 6E 65 20 62 72 61 6E  |se postpone bran|
 A249  63 68 20 68 65 72 65 20 30 20 2C 20 68 65 72 65  |ch here 0 , here|
 A259  20 72 6F 74 20 21 20 3B 20 69 6D 6D 65 64 69 61  | rot ! ; immedia|
 A269  74 65 20 63 6F 6D 70 69 6C 65 2D 6F 6E 6C 79 20  |te compile-only |
 A279  3A 20 72 65 70 65 61 74 20 70 6F 73 74 70 6F 6E  |: repeat postpon|
 A289  65 20 61 67 61 69 6E 20 68 65 72 65 20 73 77 61  |e again here swa|
 A299  70 20 21 20 3B 20 69 6D 6D 65 64 69 61 74 65 20  |p ! ; immediate |
 A2A9  63 6F 6D 70 69 6C 65 2D 6F 6E 6C 79 20 3A 20 75  |compile-only : u|
 A2B9  6E 74 69 6C 20 70 6F 73 74 70 6F 6E 65 20 30 62  |ntil postpone 0b|
 A2C9  72 61 6E 63 68 20 2C 20 3B 20 69 6D 6D 65 64 69  |ranch , ; immedi|
 A2D9  61 74 65 20 63 6F 6D 70 69 6C 65 2D 6F 6E 6C 79  |ate compile-only|
 A2E9  20 3A 20 77 68 69 6C 65 20 70 6F 73 74 70 6F 6E  | : while postpon|
 A2F9  65 20 30 62 72 61 6E 63 68 20 68 65 72 65 20 30  |e 0branch here 0|
 A309  20 2C 20 73 77 61 70 20 3B 20 69 6D 6D 65 64 69  | , swap ; immedi|
 A319  61 74 65 20 63 6F 6D 70 69 6C 65 2D 6F 6E 6C 79  |ate compile-only|
 A329  20 3A 20 64 65 66 65 72 21 20 3E 62 6F 64 79 20  | : defer! >body |
 A339  21 20 3B 20 3A 20 64 65 66 65 72 40 20 3E 62 6F  |! ; : defer@ >bo|
 A349  64 79 20 40 20 3B 20 3A 20 69 73 20 73 74 61 74  |dy @ ; : is stat|
 A359  65 20 40 20 69 66 20 70 6F 73 74 70 6F 6E 65 20  |e @ if postpone |
 A369  5B 27 5D 20 70 6F 73 74 70 6F 6E 65 20 64 65 66  |['] postpone def|
 A379  65 72 21 20 65 6C 73 65 20 27 20 64 65 66 65 72  |er! else ' defer|
 A389  21 20 74 68 65 6E 20 3B 20 69 6D 6D 65 64 69 61  |! then ; immedia|
 A399  74 65 20 3A 20 61 63 74 69 6F 6E 2D 6F 66 20 73  |te : action-of s|
 A3A9  74 61 74 65 20 40 20 69 66 20 70 6F 73 74 70 6F  |tate @ if postpo|
 A3B9  6E 65 20 5B 27 5D 20 70 6F 73 74 70 6F 6E 65 20  |ne ['] postpone |
 A3C9  64 65 66 65 72 40 20 65 6C 73 65 20 27 20 64 65  |defer@ else ' de|
 A3D9  66 65 72 40 20 74 68 65 6E 20 3B 20 69 6D 6D 65  |fer@ then ; imme|
 A3E9  64 69 61 74 65 20 3A 20 2F 20 3E 72 20 73 3E 64  |diate : / >r s>d|
 A3F9  20 72 3E 20 73 6D 2F 72 65 6D 20 73 77 61 70 20  | r> sm/rem swap |
 A409  64 72 6F 70 20 3B 20 3A 20 2F 6D 6F 64 20 3E 72  |drop ; : /mod >r|
 A419  20 73 3E 64 20 72 3E 20 73 6D 2F 72 65 6D 20 3B  | s>d r> sm/rem ;|
 A429  20 3A 20 6D 6F 64 20 2F 6D 6F 64 20 64 72 6F 70  | : mod /mod drop|
 A439  20 3B 20 3A 20 2A 2F 20 3E 72 20 6D 2A 20 72 3E  | ; : */ >r m* r>|
 A449  20 73 6D 2F 72 65 6D 20 73 77 61 70 20 64 72 6F  | sm/rem swap dro|
 A459  70 20 3B 20 3A 20 2A 2F 6D 6F 64 20 3E 72 20 6D  |p ; : */mod >r m|
 A469  2A 20 72 3E 20 73 6D 2F 72 65 6D 20 3B 20 3A 20  |* r> sm/rem ; : |
 A479  75 2E 72 20 3E 72 20 30 20 3C 23 20 23 73 20 23  |u.r >r 0 <# #s #|
 A489  3E 20 72 3E 20 6F 76 65 72 20 2D 20 73 70 61 63  |> r> over - spac|
 A499  65 73 20 74 79 70 65 20 3B 20 3A 20 2E 72 20 3E  |es type ; : .r >|
 A4A9  72 20 64 75 70 20 61 62 73 20 30 20 3C 23 20 23  |r dup abs 0 <# #|
 A4B9  73 20 72 6F 74 20 73 69 67 6E 20 23 3E 20 72 3E  |s rot sign #> r>|
 A4C9  20 6F 76 65 72 20 2D 20 73 70 61 63 65 73 20 74  | over - spaces t|
 A4D9  79 70 65 20 3B 20 3A 20 75 64 2E 20 3C 23 20 23  |ype ; : ud. <# #|
 A4E9  73 20 23 3E 20 74 79 70 65 20 73 70 61 63 65 20  |s #> type space |
 A4F9  3B 20 3A 20 75 64 2E 72 20 3E 72 20 3C 23 20 23  |; : ud.r >r <# #|
 A509  73 20 23 3E 20 72 3E 20 6F 76 65 72 20 2D 20 73  |s #> r> over - s|
 A519  70 61 63 65 73 20 74 79 70 65 20 3B 20 3A 20 64  |paces type ; : d|
 A529  2E 20 74 75 63 6B 20 64 61 62 73 20 3C 23 20 23  |. tuck dabs <# #|
 A539  73 20 72 6F 74 20 73 69 67 6E 20 23 3E 20 74 79  |s rot sign #> ty|
 A549  70 65 20 73 70 61 63 65 20 3B 20 3A 20 64 2E 72  |pe space ; : d.r|
 A559  20 3E 72 20 74 75 63 6B 20 64 61 62 73 20 3C 23  | >r tuck dabs <#|
 A569  20 23 73 20 72 6F 74 20 73 69 67 6E 20 23 3E 20  | #s rot sign #> |
 A579  72 3E 20 6F 76 65 72 20 2D 20 73 70 61 63 65 73  |r> over - spaces|
 A589  20 74 79 70 65 20 3B 20 3A 20 74 6F 20 27 20 3E  | type ; : to ' >|
 A599  62 6F 64 79 20 21 20 3B 20 3A 20 77 69 74 68 69  |body ! ; : withi|
 A5A9  6E 20 72 6F 74 20 74 75 63 6B 20 3E 20 2D 72 6F  |n rot tuck > -ro|
 A5B9  74 20 3E 20 69 6E 76 65 72 74 20 61 6E 64 20 3B  |t > invert and ;|
 A5C9  20 2E 28 20 54 61 6C 69 20 46 6F 72 74 68 20 32  | .( Tali Forth 2|
 A5D9  20 66 6F 72 20 74 68 65 20 36 35 63 30 32 29 20  | for the 65c02) |
 A5E9  63 72 20 2E 28 20 56 65 72 73 69 6F 6E 20 41 4C  |cr .( Version AL|
 A5F9  50 48 41 20 31 36 2E 20 4D 61 79 20 32 30 31 38  |PHA 16. May 2018|
 A609  20 29 20 63 72 20 2E 28 20 43 6F 70 79 72 69 67  | ) cr .( Copyrig|
 A619  68 74 20 32 30 31 34 2D 32 30 31 38 20 53 63 6F  |ht 2014-2018 Sco|
 A629  74 20 57 2E 20 53 74 65 76 65 6E 73 6F 6E 29 20  |t W. Stevenson) |
 A639  63 72 20 2E 28 20 54 61 6C 69 20 46 6F 72 74 68  |cr .( Tali Forth|
 A649  20 32 20 63 6F 6D 65 73 20 77 69 74 68 20 61 62  | 2 comes with ab|
 A659  73 6F 6C 75 74 65 6C 79 20 4E 4F 20 57 41 52 52  |solutely NO WARR|
 A669  41 4E 54 59 29 20 63 72 20 2E 28 20 54 79 70 65  |ANTY) cr .( Type|
 A679  20 27 62 79 65 27 20 74 6F 20 65 78 69 74 29 20  | 'bye' to exit) |
 A689  63 72 20 20 3A 20 73 65 65 20 70 61 72 73 65 2D  |cr  : see parse-|
 A699  6E 61 6D 65 20 66 69 6E 64 2D 6E 61 6D 65 20 64  |name find-name d|
 A6A9  75 70 20 30 3D 20 61 62 6F 72 74 22 20 4E 6F 20  |up 0= abort" No |
 A6B9  73 75 63 68 20 6E 61 6D 65 22 20 62 61 73 65 20  |such name" base |
 A6C9  40 20 3E 72 20 68 65 78 20 64 75 70 20 63 72 20  |@ >r hex dup cr |
 A6D9  73 70 61 63 65 20 2E 22 20 6E 74 3A 20 22 20 75  |space ." nt: " u|
 A6E9  2E 20 64 75 70 20 34 20 2B 20 40 20 73 70 61 63  |. dup 4 + @ spac|
 A6F9  65 20 2E 22 20 78 74 3A 20 22 20 75 2E 20 64 75  |e ." xt: " u. du|
 A709  70 20 31 2B 20 63 40 20 31 20 61 6E 64 20 69 66  |p 1+ c@ 1 and if|
 A719  20 73 70 61 63 65 20 2E 22 20 43 4F 20 22 20 74  | space ." CO " t|
 A729  68 65 6E 20 64 75 70 20 31 2B 20 63 40 20 32 20  |hen dup 1+ c@ 2 |
 A739  61 6E 64 20 69 66 20 73 70 61 63 65 20 2E 22 20  |and if space ." |
 A749  41 4E 20 22 20 74 68 65 6E 20 64 75 70 20 31 2B  |AN " then dup 1+|
 A759  20 63 40 20 34 20 61 6E 64 20 69 66 20 73 70 61  | c@ 4 and if spa|
 A769  63 65 20 2E 22 20 49 4D 20 22 20 74 68 65 6E 20  |ce ." IM " then |
 A779  64 75 70 20 31 2B 20 63 40 20 38 20 61 6E 64 20  |dup 1+ c@ 8 and |
 A789  69 66 20 73 70 61 63 65 20 2E 22 20 4E 4E 20 22  |if space ." NN "|
 A799  20 74 68 65 6E 20 64 75 70 20 31 2B 20 63 40 20  | then dup 1+ c@ |
 A7A9  31 36 20 61 6E 64 20 69 66 20 73 70 61 63 65 20  |16 and if space |
 A7B9  2E 22 20 55 46 20 22 20 74 68 65 6E 20 64 75 70  |." UF " then dup|
 A7C9  20 63 72 20 73 70 61 63 65 20 2E 22 20 73 69 7A  | cr space ." siz|
 A7D9  65 20 28 64 65 63 69 6D 61 6C 29 3A 20 22 20 64  |e (decimal): " d|
 A7E9  65 63 69 6D 61 6C 20 77 6F 72 64 73 69 7A 65 20  |ecimal wordsize |
 A7F9  64 75 70 20 2E 20 73 77 61 70 20 6E 61 6D 65 3E  |dup . swap name>|
 A809  69 6E 74 20 73 77 61 70 20 68 65 78 20 63 72 20  |int swap hex cr |
 A819  73 70 61 63 65 20 32 64 75 70 20 64 75 6D 70 20  |space 2dup dump |
 A829  63 72 20 64 69 73 61 73 6D 20 72 3E 20 62 61 73  |cr disasm r> bas|
 A839  65 20 21 20 3B 20 03 00 00 00 86 82 87 82 62 79  |e ! ; ........by|
 A849  65 04 00 3F A8 00 80 CE 80 63 6F 6C 64 04 10 4A  |e..?.....cold..J|
 A859  A8 09 98 52 98 77 6F 72 64 04 10 56 A8 B3 89 FE  |...R.word..V....|
 A869  89 66 69 6E 64 06 10 62 A8 BB 86 C5 86 64 69 73  |.find..b.....dis|
 A879  61 73 6D 02 00 6E A8 EF 87 32 88 2E 73 04 10 7C  |asm..n...2..s..||
 A889  A8 3D 88 85 88 64 75 6D 70 04 00 86 A8 30 82 35  |.=...dump....0.5|
 A899  82 62 65 6C 6C 05 00 92 A8 96 81 96 81 61 6C 69  |.bell........ali|
 A8A9  67 6E 07 00 9E A8 96 81 96 81 61 6C 69 67 6E 65  |gn........aligne|
 A8B9  64 08 10 AB A8 8B 98 AF 98 77 6F 72 64 73 69 7A  |d........wordsiz|
 A8C9  65 05 00 BA A8 52 98 8A 98 77 6F 72 64 73 06 04  |e....R...words..|
 A8D9  CA A8 CD 8C 15 8D 6D 61 72 6B 65 72 05 10 D7 A8  |......marker....|
 A8E9  F6 81 17 82 61 74 2D 78 79 04 00 E5 A8 C3 8F E0  |....at-xy.......|
 A8F9  8F 70 61 67 65 02 00 F2 A8 2C 85 31 85 63 72 05  |.page....,.1.cr.|
 A909  00 FE A8 09 8B 13 8B 69 6E 70 75 74 06 00 08 A9  |.......input....|
 A919  96 8F A0 8F 6F 75 74 70 75 74 04 10 15 A9 CA 92  |....output......|
 A929  E2 92 73 69 67 6E 04 10 23 A9 D0 8A E5 8A 68 6F  |..sign..#.....ho|
 A939  6C 64 02 10 2F A9 1E 8F 43 8F 23 3E 02 10 3B A9  |ld../...C.#>..;.|
 A949  44 8F 58 8F 23 73 01 10 45 A9 FD 8E 1D 8F 23 02  |D.X.#s..E.....#.|
 A959  00 4F A9 BF 8B CC 8B 3C 23 03 00 58 A9 F5 94 FF  |.O.....<#..X....|
 A969  94 3E 69 6E 03 00 62 A9 B3 8F C2 8F 70 61 64 05  |.>in..b.....pad.|
 A979  10 6D A9 E8 82 26 83 63 6D 6F 76 65 06 10 78 A9  |.m...&.cmove..x.|
 A989  27 83 65 83 63 6D 6F 76 65 3E 04 18 85 A9 97 8D  |'.e.cmove>......|
 A999  B5 8D 6D 6F 76 65 01 04 93 A9 18 82 20 82 5C 06  |..move...... .\.|
 A9A9  10 9F A9 6A 8A A4 8A 66 6D 2F 6D 6F 64 06 10 A8  |...j...fm/mod...|
 A9B9  A9 A6 93 D2 93 73 6D 2F 72 65 6D 06 10 B6 A9 1B  |.....sm/rem.....|
 A9C9  97 3D 97 75 64 2F 6D 6F 64 06 10 C4 A9 49 97 8E  |.=.ud/mod....I..|
 A9D9  97 75 6D 2F 6D 6F 64 01 10 D2 A9 2F 94 3B 94 2A  |.um/mod..../.;.*|
 A9E9  03 10 E0 A9 8F 97 D8 97 75 6D 2A 02 10 E9 A9 AE  |........um*.....|
 A9F9  8C CC 8C 6D 2A 05 10 F4 A9 14 85 2B 85 63 6F 75  |...m*......+.cou|
 AA09  6E 74 07 00 FE A9 39 86 3F 86 64 65 63 69 6D 61  |nt....9.?.decima|
 AA19  6C 03 00 0B AA C9 8A CF 8A 68 65 78 07 10 1A AA  |l........hex....|
 AA29  00 95 A3 95 3E 6E 75 6D 62 65 72 06 10 25 AA 72  |....>number..%.r|
 AA39  8E FC 8E 6E 75 6D 62 65 72 06 10 34 AA 82 86 BA  |...number..4....|
 AA49  86 64 69 67 69 74 3F 04 00 42 AA 21 82 2B 82 62  |.digit?..B.!.+.b|
 AA59  61 73 65 08 10 50 AA 1D 89 7B 89 65 76 61 6C 75  |ase..P...{.evalu|
 AA69  61 74 65 05 00 5C AA 3C 94 46 94 73 74 61 74 65  |ate..\.<.F.state|
 AA79  05 17 6C AA 71 81 95 81 61 67 61 69 6E 05 07 79  |..l.q...again..y|
 AA89  AA 2C 82 2F 82 62 65 67 69 6E 04 00 86 AA 88 80  |.,./.begin......|
 AA99  CE 80 71 75 69 74 07 0D 93 AA 9C 91 C8 91 72 65  |..quit........re|
 AAA9  63 75 72 73 65 05 03 9F AA B5 8B BA 8B 6C 65 61  |curse........lea|
 AAB9  76 65 06 03 AE AA D9 97 DF 97 75 6E 6C 6F 6F 70  |ve........unloop|
 AAC9  04 03 BB AA 94 89 95 89 65 78 69 74 05 05 C9 AA  |........exit....|
 AAD9  1E 8C 84 8C 2B 6C 6F 6F 70 04 05 D5 AA 17 8C 84  |....+loop.......|
 AAE9  8C 6C 6F 6F 70 01 03 E2 AA 7C 8B 95 8B 6A 01 03  |.loop....|...j..|
 AAF9  EE AA E6 8A FF 8A 69 03 0D F7 AA E5 86 45 87 3F  |......i......E.?|
 AB09  64 6F 02 0D 00 AB EB 86 45 87 64 6F 06 05 0B AB  |do......E.do....|
 AB19  CE 80 D8 80 61 62 6F 72 74 22 05 00 15 AB 86 80  |....abort"......|
 AB29  CE 80 61 62 6F 72 74 08 00 23 AB 3E 97 48 97 75  |..abort..#.>.H.u|
 AB39  66 2D 73 74 72 69 70 08 00 30 AB F5 8D FF 8D 6E  |f-strip..0.....n|
 AB49  63 2D 6C 69 6D 69 74 0D 00 40 AB D7 81 DF 81 61  |c-limit..@.....a|
 AB59  6C 77 61 79 73 2D 6E 61 74 69 76 65 0C 00 50 AB  |lways-native..P.|
 AB69  15 8E 1D 8E 6E 65 76 65 72 2D 6E 61 74 69 76 65  |....never-native|
 AB79  0C 00 65 AB C9 84 D1 84 63 6F 6D 70 69 6C 65 2D  |..e.....compile-|
 AB89  6F 6E 6C 79 09 00 79 AB 00 8B 08 8B 69 6D 6D 65  |only..y.....imme|
 AB99  64 69 61 74 65 08 05 8D AB 18 91 56 91 70 6F 73  |diate......V.pos|
 ABA9  74 70 6F 6E 65 02 04 9E AB 46 92 96 92 73 22 02  |tpone....F...s".|
 ABB9  05 AE AB E4 87 EE 87 2E 22 08 15 B8 AB 07 93 79  |........"......y|
 ABC9  93 73 6C 69 74 65 72 61 6C 07 15 C2 AB E6 8B F7  |.sliteral.......|
 ABD9  8B 6C 69 74 65 72 61 6C 06 0D D2 AB 6A 82 71 82  |.literal....j.q.|
 ABE9  62 72 61 6E 63 68 07 0D E1 AB CD 98 D4 98 30 62  |branch........0b|
 ABF9  72 61 6E 63 68 01 04 EF AB 07 92 0D 92 5D 01 05  |ranch........]..|
 AC09  FE AB BA 8B BE 8B 5B 08 10 07 AC B6 83 C8 84 63  |......[........c|
 AC19  6F 6D 70 69 6C 65 2C 01 05 10 AC AD 92 C9 92 3B  |ompile,........;|
 AC29  01 00 20 AC 66 83 97 83 3A 09 00 29 AC E8 93 F2  |.. .f...:..)....|
 AC39  93 73 6F 75 72 63 65 2D 69 64 06 00 32 AC D3 93  |.source-id..2...|
 AC49  E7 93 73 6F 75 72 63 65 05 10 43 AC 3D 90 CB 90  |..source..C.=...|
 AC59  70 61 72 73 65 0A 00 51 AC E1 8F CB 90 70 61 72  |parse..Q.....par|
 AC69  73 65 2D 6E 61 6D 65 08 00 5E AC A3 8B AD 8B 6C  |se-name..^.....l|
 AC79  61 74 65 73 74 6E 74 08 00 70 AC AE 8B B4 8B 6C  |atestnt..p.....l|
 AC89  61 74 65 73 74 78 74 05 00 80 AC 40 86 72 86 64  |atestxt....@.r.d|
 AC99  65 66 65 72 05 10 90 AC 99 94 F4 94 3E 62 6F 64  |efer........>bod|
 ACA9  79 0B 10 9D AC D7 8D F4 8D 6E 61 6D 65 3E 73 74  |y........name>st|
 ACB9  72 69 6E 67 08 10 AA AC 14 8B 67 8B 69 6E 74 3E  |ring......g.int>|
 ACC9  6E 61 6D 65 08 10 BD AC B6 8D D6 8D 6E 61 6D 65  |name........name|
 ACD9  3E 69 6E 74 03 05 CD AC 63 82 69 82 5B 27 5D 01  |>int....c.i.['].|
 ACE9  00 DD AC 79 94 98 94 27 09 10 E8 AC FF 89 69 8A  |...y...'......i.|
 ACF9  66 69 6E 64 2D 6E 61 6D 65 04 10 F1 AC D6 88 1C  |find-name.......|
 AD09  89 66 69 6C 6C 05 00 02 AD C6 88 1C 89 62 6C 61  |.fill........bla|
 AD19  6E 6B 05 00 0E AD D0 88 1C 89 65 72 61 73 65 02  |nk........erase.|
 AD29  10 1B AD E7 85 0B 86 64 2B 02 10 28 AD C2 85 E6  |.......d+..(....|
 AD39  85 64 2D 03 10 32 AD 0C 86 15 86 64 3E 73 03 10  |.d-..2.....d>s..|
 AD49  3C AD 97 92 AC 92 73 3E 64 05 00 47 AD D2 84 13  |<.....s>d..G....|
 AD59  85 76 61 6C 75 65 08 10 52 AD D2 84 13 85 63 6F  |.value..R.....co|
 AD69  6E 73 74 61 6E 74 08 00 5F AD F0 97 08 98 76 61  |nstant.._.....va|
 AD79  72 69 61 62 6C 65 05 05 6F AD 80 87 8E 87 64 6F  |riable..o.....do|
 AD89  65 73 3E 06 00 7F AD 32 85 C1 85 63 72 65 61 74  |es>....2...creat|
 AD99  65 05 10 8C AD 97 81 D6 81 61 6C 6C 6F 74 03 00  |e........allot..|
 ADA9  9A AD 96 8B 9F 8B 6B 65 79 05 00 A7 AD 73 86 81  |......key....s..|
 ADB9  86 64 65 70 74 68 06 00 B2 AD E0 97 EF 97 75 6E  |.depth........un|
 ADC9  75 73 65 64 06 10 BF AD 07 81 70 81 61 63 63 65  |used......p.acce|
 ADD9  70 74 06 00 CD AD C9 91 06 92 72 65 66 69 6C 6C  |pt........refill|
 ADE9  07 10 DB AD E3 92 06 93 2F 73 74 72 69 6E 67 09  |......../string.|
 ADF9  10 E9 AD 6D 8D 96 8D 2D 74 72 61 69 6C 69 6E 67  |...m...-trailing|
 AE09  02 00 F8 AD 36 82 3E 82 62 6C 06 10 09 AE F9 93  |....6.>.bl......|
 AE19  2E 94 73 70 61 63 65 73 06 10 13 AE 3F 82 5B 82  |..spaces....?.[.|
 AE29  62 6F 75 6E 64 73 02 10 21 AE 88 82 96 82 63 2C  |bounds..!.....c,|
 AE39  07 10 2F AE C6 86 E4 86 64 6E 65 67 61 74 65 06  |../.....dnegate.|
 AE49  10 39 AE 00 8E 14 8E 6E 65 67 61 74 65 06 10 48  |.9.....negate..H|
 AE59  AE 68 8B 7B 8B 69 6E 76 65 72 74 03 11 56 AE AE  |.h.{.invert..V..|
 AE69  96 D1 96 32 3E 72 03 01 64 AE 4E 96 6A 96 32 72  |...2>r..d.N.j.2r|
 AE79  3E 03 09 6F AE 30 96 4D 96 32 72 40 09 00 7A AE  |>..o.0.M.2r@..z.|
 AE89  D2 96 E0 96 32 76 61 72 69 61 62 6C 65 05 10 85  |....2variable...|
 AE99  AE 14 96 2F 96 32 6F 76 65 72 05 10 96 AE 86 96  |.../.2over......|
 AEA9  AD 96 32 73 77 61 70 05 10 A3 AE EC 95 F7 95 32  |..2swap........2|
 AEB9  64 72 6F 70 03 10 B0 AE 16 8D 35 8D 6D 61 78 03  |drop......5.max.|
 AEC9  10 BD AE 36 8D 55 8D 6D 69 6E 02 10 C8 AE 40 99  |...6.U.min....@.|
 AED9  53 99 30 3C 02 10 D3 AE 28 99 3F 99 30 3E 03 10  |S.0<....(.?.0>..|
 AEE9  DD AE 54 99 69 99 30 3C 3E 02 10 E7 AE 10 99 27  |..T.i.0<>......'|
 AEF9  99 30 3D 01 10 F2 AE A5 8A BD 8A 3E 01 10 FC AE  |.0=........>....|
 AF09  CD 8B E5 8B 3C 02 10 05 AF 30 8E 51 8E 3C 3E 01  |....<....0.Q.<>.|
 AF19  10 0E AF A6 88 C5 88 3D 02 10 18 AF 6B 96 79 96  |.......=....k.y.|
 AF29  32 2F 02 10 21 AF 7A 96 85 96 32 2A 02 10 2B AF  |2/..!.z...2*..+.|
 AF39  72 8F 7F 8F 31 2B 02 10 35 AF 62 8F 71 8F 31 2D  |r...1+..5.b.q.1-|
 AF49  04 00 3F AF BE 8A C8 8A 68 65 72 65 05 10 49 AF  |..?.....here..I.|
 AF59  B5 82 C8 82 63 65 6C 6C 2B 05 00 55 AF 7A 96 85  |....cell+..U.z..|
 AF69  96 63 65 6C 6C 73 05 12 62 AF E0 82 E7 82 63 68  |.cells..b.....ch|
 AF79  61 72 73 05 00 6F AF 72 8F 7F 8F 63 68 61 72 2B  |ars..o.r...char+|
 AF89  06 05 7C AF 5C 82 62 82 5B 63 68 61 72 5D 04 00  |..|.\.b.[char]..|
 AF99  89 AF C9 82 DF 82 63 68 61 72 04 00 97 AF CC 90  |......char......|
 AFA9  DC 90 70 69 63 6B 06 10 A3 AF 96 8C AD 8C 6C 73  |..pick........ls|
 AFB9  68 69 66 74 06 10 AF AF 2E 92 45 92 72 73 68 69  |hift......E.rshi|
 AFC9  66 74 03 10 BD AF B0 98 C5 98 78 6F 72 02 10 CB  |ft........xor...|
 AFD9  AF 80 8F 95 8F 6F 72 03 10 D6 AF E0 81 F5 81 61  |.....or........a|
 AFE9  6E 64 04 10 E0 AF 16 86 38 86 64 61 62 73 03 10  |nd......8.dabs..|
 AFF9  EB AF EE 80 06 81 61 62 73 01 10 F7 AF 56 8D 6C  |......abs....V.l|
 B009  8D 2D 01 10 02 B0 DD 90 F3 90 2B 04 10 0B B0 5E  |.-........+....^|
 B019  91 75 91 3F 64 75 70 04 10 14 B0 F8 95 13 96 32  |.u.?dup........2|
 B029  64 75 70 01 00 20 B0 E3 95 EB 95 32 01 00 2C B0  |dup.. .....2..,.|
 B039  59 8F 61 8F 31 01 00 35 B0 C6 98 CC 98 30 05 00  |Y.a.1..5.....0..|
 B049  3E B0 F3 93 F8 93 73 70 61 63 65 04 00 47 B0 BC  |>.....space..G..|
 B059  95 C4 95 74 72 75 65 05 00 54 B0 95 89 9B 89 66  |...true..T.....f|
 B069  61 6C 73 65 01 00 60 B0 57 91 5D 91 3F 02 10 6D  |alse..`.W.].?..m|
 B079  B0 0B 97 1A 97 75 2E 01 10 76 B0 BE 87 E3 87 2E  |.....u...v......|
 B089  04 10 80 B0 E1 96 0A 97 74 79 70 65 04 18 89 B0  |........type....|
 B099  98 88 A6 88 65 6D 69 74 07 10 95 B0 7C 89 86 89  |....emit....|...|
 B0A9  65 78 65 63 75 74 65 02 10 A1 B0 F4 90 17 91 2B  |execute........+|
 B0B9  21 02 10 B0 B0 A5 82 B4 82 63 21 02 10 BA B0 97  |!........c!.....|
 B0C9  82 A4 82 63 40 01 10 C4 B0 98 83 B5 83 2C 04 10  |...c@........,..|
 B0D9  CE B0 C5 95 E2 95 74 75 63 6B 04 10 D7 B0 52 8E  |......tuck....R.|
 B0E9  71 8E 2D 72 6F 74 03 10 E3 B0 0E 92 2D 92 72 6F  |q.-rot......-.ro|
 B0F9  74 03 10 EF B0 1E 8E 2F 8E 6E 69 70 02 01 FA B0  |t....../.nip....|
 B109  76 91 8A 91 72 40 02 01 05 B1 8B 91 9B 91 72 3E  |v...r@........r>|
 B119  02 11 0F B1 A4 95 BB 95 3E 72 04 10 19 B1 A1 8F  |........>r......|
 B129  B2 8F 6F 76 65 72 01 10 23 B1 9C 89 B2 89 40 01  |..over..#.....@.|
 B139  10 2F B1 47 94 60 94 21 04 10 38 B1 61 94 78 94  |./.G.`.!..8.a.x.|
 B149  73 77 61 70 03 10 41 B1 86 88 97 88 64 75 70 04  |swap..A.....dup.|
 B159  10 4D B1 33 88 3C 88 64 72 6F 70 70 B1 74 B1 00  |.M.3.<.dropp.t..|
 B169  00 00 00 7E B1 A1 B1 20 6F 6B 00 20 63 6F 6D 70  |...~... ok. comp|
 B179  69 6C 65 64 00 30 31 32 33 34 35 36 37 38 39 61  |iled.0123456789a|
 B189  62 63 64 65 66 67 68 69 6A 6B 6C 6D 6E 6F 70 71  |bcdefghijklmnopq|
 B199  72 73 74 75 76 77 79 7A 30 31 32 33 34 35 36 37  |rstuvwyz01234567|
 B1A9  38 39 41 42 43 44 45 46 47 48 49 4A 4B 4C 4D 4E  |89ABCDEFGHIJKLMN|
 B1B9  4F 50 51 52 53 54 55 56 57 59 5A E0 B1 21 B2 42  |OPQRSTUVWYZ..!.B|
 B1C9  B2 5F B2 00 00 70 B2 86 B2 B5 B2 CC B2 01 B2 FA  |._...p..........|
 B1D9  B2 21 B3 12 B3 96 B2 41 4C 4C 4F 54 20 75 73 69  |.!.....ALLOT usi|
 B1E9  6E 67 20 61 6C 6C 20 61 76 61 69 6C 61 62 6C 65  |ng all available|
 B1F9  20 6D 65 6D 6F 72 79 00 49 6C 6C 65 67 61 6C 20  | memory.Illegal |
 B209  53 4F 55 52 43 45 2D 49 44 20 64 75 72 69 6E 67  |SOURCE-ID during|
 B219  20 52 45 46 49 4C 4C 00 49 6E 74 65 72 70 72 65  | REFILL.Interpre|
 B229  74 69 6E 67 20 61 20 63 6F 6D 70 69 6C 65 2D 6F  |ting a compile-o|
 B239  6E 6C 79 20 77 6F 72 64 00 44 45 46 45 52 65 64  |nly word.DEFERed|
 B249  20 77 6F 72 64 20 6E 6F 74 20 64 65 66 69 6E 65  | word not define|
 B259  64 20 79 65 74 00 44 69 76 69 73 69 6F 6E 20 62  |d yet.Division b|
 B269  79 20 7A 65 72 6F 00 4E 6F 74 20 69 6E 20 69 6E  |y zero.Not in in|
 B279  74 65 72 70 72 65 74 20 6D 6F 64 65 00 50 61 72  |terpret mode.Par|
 B289  73 69 6E 67 20 66 61 69 6C 75 72 65 00 4E 6F 20  |sing failure.No |
 B299  73 75 63 68 20 78 74 20 66 6F 75 6E 64 20 69 6E  |such xt found in|
 B2A9  20 44 69 63 74 69 6F 6E 61 72 79 00 44 69 67 69  | Dictionary.Digi|
 B2B9  74 20 6C 61 72 67 65 72 20 74 68 61 6E 20 62 61  |t larger than ba|
 B2C9  73 65 00 51 55 49 54 20 63 6F 75 6C 64 20 6E 6F  |se.QUIT could no|
 B2D9  74 20 67 65 74 20 69 6E 70 75 74 20 28 52 45 46  |t get input (REF|
 B2E9  49 4C 4C 20 72 65 74 75 72 6E 65 64 20 2D 31 29  |ILL returned -1)|
 B2F9  00 41 6C 72 65 61 64 79 20 69 6E 20 63 6F 6D 70  |.Already in comp|
 B309  69 6C 65 20 6D 6F 64 65 00 55 6E 64 65 66 69 6E  |ile mode.Undefin|
 B319  65 64 20 77 6F 72 64 00 53 74 61 63 6B 20 75 6E  |ed word.Stack un|
 B329  64 65 72 66 6C 6F 77 00                          |derflow.        |
 B331  48        PHA  
 B332  A9 20     LDA  #$20
 B334  80 03     BRA  $B339
 B336  48        PHA  
 B337  A9 4C     LDA  #$4C
 B339  20 41 B3  JSR  $B341
 B33C  68        PLA  
 B33D  20 41 B3  JSR  $B341
 B340  98        TYA  
 B341  92 00     STA  ($00)
 B343  E6 00     INC  $00
 B345  D0 02     BNE  $B349
 B347  E6 01     INC  $01
 B349  60        RTS  
 B34A  CA        DEX  
 B34B  CA        DEX  
 B34C  68        PLA  
 B34D  85 20     STA  $20
 B34F  68        PLA  
 B350  85 21     STA  $21
 B352  A0 01     LDY  #$01
 B354  B1 20     LDA  ($20), Y
 B356  95 00     STA  $00, X
 B358  C8        INY  
 B359  B1 20     LDA  ($20), Y
 B35B  95 01     STA  $01, X
 B35D  60        RTS  
 B35E  68        PLA  
 B35F  85 20     STA  $20
 B361  68        PLA  
 B362  85 21     STA  $21
 B364  A0 01     LDY  #$01
 B366  B1 20     LDA  ($20), Y
 B368  85 22     STA  $22
 B36A  C8        INY  
 B36B  B1 20     LDA  ($20), Y
 B36D  85 23     STA  $23
 B36F  6C 22 00  JMP  ($0022)
 B372  A9 02     LDA  #$02
 B374  4C 3E B4  JMP  $B43E
 B377  7A        PLY  
 B378  68        PLA  
 B379  C8        INY  
 B37A  D0 01     BNE  $B37D
 B37C  1A        INC  
 B37D  84 22     STY  $22
 B37F  85 23     STA  $23
 B381  CA        DEX  
 B382  CA        DEX  
 B383  7A        PLY  
 B384  68        PLA  
 B385  C8        INY  
 B386  18        CLC  
 B387  D0 01     BNE  $B38A
 B389  1A        INC  
 B38A  94 00     STY  $00, X
 B38C  95 01     STA  $01, X
 B38E  6C 22 00  JMP  ($0022)
 B391  7A        PLY  
 B392  68        PLA  
 B393  C8        INY  
 B394  D0 01     BNE  $B397
 B396  1A        INC  
 B397  CA        DEX  
 B398  CA        DEX  
 B399  95 01     STA  $01, X
 B39B  98        TYA  
 B39C  95 00     STA  $00, X
 B39E  60        RTS  
 B39F  48        PHA  
 B3A0  4A        LSR  
 B3A1  4A        LSR  
 B3A2  4A        LSR  
 B3A3  4A        LSR  
 B3A4  20 A8 B3  JSR  $B3A8
 B3A7  68        PLA  
 B3A8  29 0F     AND  #$0F
 B3AA  09 30     ORA  #$30
 B3AC  C9 3A     CMP  #$3A
 B3AE  90 02     BCC  $B3B2
 B3B0  69 06     ADC  #$06
 B3B2  4C A3 88  JMP  $88A3
 B3B5  60        RTS  
 B3B6  B5 00     LDA  $00, X
 B3B8  D5 02     CMP  $02, X
 B3BA  F0 0A     BEQ  $B3C6
 B3BC  B5 01     LDA  $01, X
 B3BE  F5 03     SBC  $03, X
 B3C0  09 01     ORA  #$01
 B3C2  70 08     BVS  $B3CC
 B3C4  80 08     BRA  $B3CE
 B3C6  B5 01     LDA  $01, X
 B3C8  F5 03     SBC  $03, X
 B3CA  50 04     BVC  $B3D0
 B3CC  49 80     EOR  #$80
 B3CE  09 01     ORA  #$01
 B3D0  60        RTS  
 B3D1  20 E1 8F  JSR  $8FE1
 B3D4  B5 00     LDA  $00, X
 B3D6  15 01     ORA  $01, X
 B3D8  F0 5D     BEQ  $B437
 B3DA  20 F8 95  JSR  $95F8
 B3DD  20 FF 89  JSR  $89FF
 B3E0  B5 00     LDA  $00, X
 B3E2  15 01     ORA  $01, X
 B3E4  D0 15     BNE  $B3FB
 B3E6  E8        INX  
 B3E7  E8        INX  
 B3E8  20 72 8E  JSR  $8E72
 B3EB  A5 16     LDA  $16
 B3ED  F0 E2     BEQ  $B3D1
 B3EF  A0 8B     LDY  #$8B
 B3F1  A9 F8     LDA  #$F8
 B3F3  20 31 B3  JSR  $B331
 B3F6  20 98 83  JSR  $8398
 B3F9  80 D6     BRA  $B3D1
 B3FB  B5 00     LDA  $00, X
 B3FD  95 04     STA  $04, X
 B3FF  B5 01     LDA  $01, X
 B401  95 05     STA  $05, X
 B403  E8        INX  
 B404  E8        INX  
 B405  E8        INX  
 B406  E8        INX  
 B407  B5 00     LDA  $00, X
 B409  85 1E     STA  $1E
 B40B  B5 01     LDA  $01, X
 B40D  85 1F     STA  $1F
 B40F  20 B6 8D  JSR  $8DB6
 B412  A5 16     LDA  $16
 B414  D0 13     BNE  $B429
 B416  A0 01     LDY  #$01
 B418  B1 1E     LDA  ($1E), Y
 B41A  29 01     AND  #$01
 B41C  F0 05     BEQ  $B423
 B41E  A9 01     LDA  #$01
 B420  4C 3E B4  JMP  $B43E
 B423  20 7C 89  JSR  $897C
 B426  4C D1 B3  JMP  $B3D1
 B429  A0 01     LDY  #$01
 B42B  B1 1E     LDA  ($1E), Y
 B42D  29 04     AND  #$04
 B42F  D0 F2     BNE  $B423
 B431  20 B6 83  JSR  $83B6
 B434  4C D1 B3  JMP  $B3D1
 B437  E8        INX  
 B438  E8        INX  
 B439  E8        INX  
 B43A  E8        INX  
 B43B  60        RTS  
 B43C  A9 0B     LDA  #$0B
 B43E  0A        ASL  
 B43F  A8        TAY  
 B440  B9 C4 B1  LDA  $B1C4, Y
 B443  85 24     STA  $24
 B445  C8        INY  
 B446  B9 C4 B1  LDA  $B1C4, Y
 B449  85 25     STA  $25
 B44B  20 5E B4  JSR  $B45E
 B44E  4C 86 80  JMP  $8086
 B451  0A        ASL  
 B452  A8        TAY  
 B453  B9 64 B1  LDA  $B164, Y
 B456  85 24     STA  $24
 B458  C8        INY  
 B459  B9 64 B1  LDA  $B164, Y
 B45C  85 25     STA  $25
 B45E  20 67 B4  JSR  $B467
 B461  A9 0A     LDA  #$0A
 B463  20 A3 88  JSR  $88A3
 B466  60        RTS  
 B467  A0 00     LDY  #$00
 B469  B1 24     LDA  ($24), Y
 B46B  F0 06     BEQ  $B473
 B46D  20 A3 88  JSR  $88A3
 B470  C8        INY  
 B471  80 F6     BRA  $B469
 B473  60        RTS  
 B474  CA        DEX  
 B475  CA        DEX  
 B476  74 00     STZ  $00, X
 B478  74 01     STZ  $01, X
 B47A  20 BF 8B  JSR  $8BBF
 B47D  20 44 8F  JSR  $8F44
 B480  20 1E 8F  JSR  $8F1E
 B483  20 E1 96  JSR  $96E1
 B486  60        RTS  
 B487  00 00 00 00 00 00 00 00 00 00 00 00 00 00 00 00  |................|
 B497  00 00 00 00 00 00 00 00 00 00 00 00 00 00 00 00  |................|
 B4A7  00 00 00 00 00 00 00 00 00 00 00 00 00 00 00 00  |................|
 B4B7  00 00 00 00 00 00 00 00 00 00 00 00 00 00 00 00  |................|
 B4C7  00 00 00 00 00 00 00 00 00 00 00 00 00 00 00 00  |................|
 B4D7  00 00 00 00 00 00 00 00 00 00 00 00 00 00 00 00  |................|
 B4E7  00 00 00 00 00 00 00 00 00 00 00 00 00 00 00 00  |................|
 B4F7  00 00 00 00 00 00 00 00 00 00 00 00 00 00 00 00  |................|
 B507  00 00 00 00 00 00 00 00 00 00 00 00 00 00 00 00  |................|
 B517  00 00 00 00 00 00 00 00 00 00 00 00 00 00 00 00  |................|
 B527  00 00 00 00 00 00 00 00 00 00 00 00 00 00 00 00  |................|
 B537  00 00 00 00 00 00 00 00 00 00 00 00 00 00 00 00  |................|
 B547  00 00 00 00 00 00 00 00 00 00 00 00 00 00 00 00  |................|
 B557  00 00 00 00 00 00 00 00 00 00 00 00 00 00 00 00  |................|
 B567  00 00 00 00 00 00 00 00 00 00 00 00 00 00 00 00  |................|
 B577  00 00 00 00 00 00 00 00 00 00 00 00 00 00 00 00  |................|
 B587  00 00 00 00 00 00 00 00 00 00 00 00 00 00 00 00  |................|
 B597  00 00 00 00 00 00 00 00 00 00 00 00 00 00 00 00  |................|
 B5A7  00 00 00 00 00 00 00 00 00 00 00 00 00 00 00 00  |................|
 B5B7  00 00 00 00 00 00 00 00 00 00 00 00 00 00 00 00  |................|
 B5C7  00 00 00 00 00 00 00 00 00 00 00 00 00 00 00 00  |................|
 B5D7  00 00 00 00 00 00 00 00 00 00 00 00 00 00 00 00  |................|
 B5E7  00 00 00 00 00 00 00 00 00 00 00 00 00 00 00 00  |................|
 B5F7  00 00 00 00 00 00 00 00 00 00 00 00 00 00 00 00  |................|
 B607  00 00 00 00 00 00 00 00 00 00 00 00 00 00 00 00  |................|
 B617  00 00 00 00 00 00 00 00 00 00 00 00 00 00 00 00  |................|
 B627  00 00 00 00 00 00 00 00 00 00 00 00 00 00 00 00  |................|
 B637  00 00 00 00 00 00 00 00 00 00 00 00 00 00 00 00  |................|
 B647  00 00 00 00 00 00 00 00 00 00 00 00 00 00 00 00  |................|
 B657  00 00 00 00 00 00 00 00 00 00 00 00 00 00 00 00  |................|
 B667  00 00 00 00 00 00 00 00 00 00 00 00 00 00 00 00  |................|
 B677  00 00 00 00 00 00 00 00 00 00 00 00 00 00 00 00  |................|
 B687  00 00 00 00 00 00 00 00 00 00 00 00 00 00 00 00  |................|
 B697  00 00 00 00 00 00 00 00 00 00 00 00 00 00 00 00  |................|
 B6A7  00 00 00 00 00 00 00 00 00 00 00 00 00 00 00 00  |................|
 B6B7  00 00 00 00 00 00 00 00 00 00 00 00 00 00 00 00  |................|
 B6C7  00 00 00 00 00 00 00 00 00 00 00 00 00 00 00 00  |................|
 B6D7  00 00 00 00 00 00 00 00 00 00 00 00 00 00 00 00  |................|
 B6E7  00 00 00 00 00 00 00 00 00 00 00 00 00 00 00 00  |................|
 B6F7  00 00 00 00 00 00 00 00 00 00 00 00 00 00 00 00  |................|
 B707  00 00 00 00 00 00 00 00 00 00 00 00 00 00 00 00  |................|
 B717  00 00 00 00 00 00 00 00 00 00 00 00 00 00 00 00  |................|
 B727  00 00 00 00 00 00 00 00 00 00 00 00 00 00 00 00  |................|
 B737  00 00 00 00 00 00 00 00 00 00 00 00 00 00 00 00  |................|
 B747  00 00 00 00 00 00 00 00 00 00 00 00 00 00 00 00  |................|
 B757  00 00 00 00 00 00 00 00 00 00 00 00 00 00 00 00  |................|
 B767  00 00 00 00 00 00 00 00 00 00 00 00 00 00 00 00  |................|
 B777  00 00 00 00 00 00 00 00 00 00 00 00 00 00 00 00  |................|
 B787  00 00 00 00 00 00 00 00 00 00 00 00 00 00 00 00  |................|
 B797  00 00 00 00 00 00 00 00 00 00 00 00 00 00 00 00  |................|
 B7A7  00 00 00 00 00 00 00 00 00 00 00 00 00 00 00 00  |................|
 B7B7  00 00 00 00 00 00 00 00 00 00 00 00 00 00 00 00  |................|
 B7C7  00 00 00 00 00 00 00 00 00 00 00 00 00 00 00 00  |................|
 B7D7  00 00 00 00 00 00 00 00 00 00 00 00 00 00 00 00  |................|
 B7E7  00 00 00 00 00 00 00 00 00 00 00 00 00 00 00 00  |................|
 B7F7  00 00 00 00 00 00 00 00 00 00 00 00 00 00 00 00  |................|
 B807  00 00 00 00 00 00 00 00 00 00 00 00 00 00 00 00  |................|
 B817  00 00 00 00 00 00 00 00 00 00 00 00 00 00 00 00  |................|
 B827  00 00 00 00 00 00 00 00 00 00 00 00 00 00 00 00  |................|
 B837  00 00 00 00 00 00 00 00 00 00 00 00 00 00 00 00  |................|
 B847  00 00 00 00 00 00 00 00 00 00 00 00 00 00 00 00  |................|
 B857  00 00 00 00 00 00 00 00 00 00 00 00 00 00 00 00  |................|
 B867  00 00 00 00 00 00 00 00 00 00 00 00 00 00 00 00  |................|
 B877  00 00 00 00 00 00 00 00 00 00 00 00 00 00 00 00  |................|
 B887  00 00 00 00 00 00 00 00 00 00 00 00 00 00 00 00  |................|
 B897  00 00 00 00 00 00 00 00 00 00 00 00 00 00 00 00  |................|
 B8A7  00 00 00 00 00 00 00 00 00 00 00 00 00 00 00 00  |................|
 B8B7  00 00 00 00 00 00 00 00 00 00 00 00 00 00 00 00  |................|
 B8C7  00 00 00 00 00 00 00 00 00 00 00 00 00 00 00 00  |................|
 B8D7  00 00 00 00 00 00 00 00 00 00 00 00 00 00 00 00  |................|
 B8E7  00 00 00 00 00 00 00 00 00 00 00 00 00 00 00 00  |................|
 B8F7  00 00 00 00 00 00 00 00 00 00 00 00 00 00 00 00  |................|
 B907  00 00 00 00 00 00 00 00 00 00 00 00 00 00 00 00  |................|
 B917  00 00 00 00 00 00 00 00 00 00 00 00 00 00 00 00  |................|
 B927  00 00 00 00 00 00 00 00 00 00 00 00 00 00 00 00  |................|
 B937  00 00 00 00 00 00 00 00 00 00 00 00 00 00 00 00  |................|
 B947  00 00 00 00 00 00 00 00 00 00 00 00 00 00 00 00  |................|
 B957  00 00 00 00 00 00 00 00 00 00 00 00 00 00 00 00  |................|
 B967  00 00 00 00 00 00 00 00 00 00 00 00 00 00 00 00  |................|
 B977  00 00 00 00 00 00 00 00 00 00 00 00 00 00 00 00  |................|
 B987  00 00 00 00 00 00 00 00 00 00 00 00 00 00 00 00  |................|
 B997  00 00 00 00 00 00 00 00 00 00 00 00 00 00 00 00  |................|
 B9A7  00 00 00 00 00 00 00 00 00 00 00 00 00 00 00 00  |................|
 B9B7  00 00 00 00 00 00 00 00 00 00 00 00 00 00 00 00  |................|
 B9C7  00 00 00 00 00 00 00 00 00 00 00 00 00 00 00 00  |................|
 B9D7  00 00 00 00 00 00 00 00 00 00 00 00 00 00 00 00  |................|
 B9E7  00 00 00 00 00 00 00 00 00 00 00 00 00 00 00 00  |................|
 B9F7  00 00 00 00 00 00 00 00 00 00 00 00 00 00 00 00  |................|
 BA07  00 00 00 00 00 00 00 00 00 00 00 00 00 00 00 00  |................|
 BA17  00 00 00 00 00 00 00 00 00 00 00 00 00 00 00 00  |................|
 BA27  00 00 00 00 00 00 00 00 00 00 00 00 00 00 00 00  |................|
 BA37  00 00 00 00 00 00 00 00 00 00 00 00 00 00 00 00  |................|
 BA47  00 00 00 00 00 00 00 00 00 00 00 00 00 00 00 00  |................|
 BA57  00 00 00 00 00 00 00 00 00 00 00 00 00 00 00 00  |................|
 BA67  00 00 00 00 00 00 00 00 00 00 00 00 00 00 00 00  |................|
 BA77  00 00 00 00 00 00 00 00 00 00 00 00 00 00 00 00  |................|
 BA87  00 00 00 00 00 00 00 00 00 00 00 00 00 00 00 00  |................|
 BA97  00 00 00 00 00 00 00 00 00 00 00 00 00 00 00 00  |................|
 BAA7  00 00 00 00 00 00 00 00 00 00 00 00 00 00 00 00  |................|
 BAB7  00 00 00 00 00 00 00 00 00 00 00 00 00 00 00 00  |................|
 BAC7  00 00 00 00 00 00 00 00 00 00 00 00 00 00 00 00  |................|
 BAD7  00 00 00 00 00 00 00 00 00 00 00 00 00 00 00 00  |................|
 BAE7  00 00 00 00 00 00 00 00 00 00 00 00 00 00 00 00  |................|
 BAF7  00 00 00 00 00 00 00 00 00 00 00 00 00 00 00 00  |................|
 BB07  00 00 00 00 00 00 00 00 00 00 00 00 00 00 00 00  |................|
 BB17  00 00 00 00 00 00 00 00 00 00 00 00 00 00 00 00  |................|
 BB27  00 00 00 00 00 00 00 00 00 00 00 00 00 00 00 00  |................|
 BB37  00 00 00 00 00 00 00 00 00 00 00 00 00 00 00 00  |................|
 BB47  00 00 00 00 00 00 00 00 00 00 00 00 00 00 00 00  |................|
 BB57  00 00 00 00 00 00 00 00 00 00 00 00 00 00 00 00  |................|
 BB67  00 00 00 00 00 00 00 00 00 00 00 00 00 00 00 00  |................|
 BB77  00 00 00 00 00 00 00 00 00 00 00 00 00 00 00 00  |................|
 BB87  00 00 00 00 00 00 00 00 00 00 00 00 00 00 00 00  |................|
 BB97  00 00 00 00 00 00 00 00 00 00 00 00 00 00 00 00  |................|
 BBA7  00 00 00 00 00 00 00 00 00 00 00 00 00 00 00 00  |................|
 BBB7  00 00 00 00 00 00 00 00 00 00 00 00 00 00 00 00  |................|
 BBC7  00 00 00 00 00 00 00 00 00 00 00 00 00 00 00 00  |................|
 BBD7  00 00 00 00 00 00 00 00 00 00 00 00 00 00 00 00  |................|
 BBE7  00 00 00 00 00 00 00 00 00 00 00 00 00 00 00 00  |................|
 BBF7  00 00 00 00 00 00 00 00 00 00 00 00 00 00 00 00  |................|
 BC07  00 00 00 00 00 00 00 00 00 00 00 00 00 00 00 00  |................|
 BC17  00 00 00 00 00 00 00 00 00 00 00 00 00 00 00 00  |................|
 BC27  00 00 00 00 00 00 00 00 00 00 00 00 00 00 00 00  |................|
 BC37  00 00 00 00 00 00 00 00 00 00 00 00 00 00 00 00  |................|
 BC47  00 00 00 00 00 00 00 00 00 00 00 00 00 00 00 00  |................|
 BC57  00 00 00 00 00 00 00 00 00 00 00 00 00 00 00 00  |................|
 BC67  00 00 00 00 00 00 00 00 00 00 00 00 00 00 00 00  |................|
 BC77  00 00 00 00 00 00 00 00 00 00 00 00 00 00 00 00  |................|
 BC87  00 00 00 00 00 00 00 00 00 00 00 00 00 00 00 00  |................|
 BC97  00 00 00 00 00 00 00 00 00 00 00 00 00 00 00 00  |................|
 BCA7  00 00 00 00 00 00 00 00 00 00 00 00 00 00 00 00  |................|
 BCB7  00 00 00 00 00 00 00 00 00 00 00 00 00 00 00 00  |................|
 BCC7  00 00 00 00 00 00 00 00 00 00 00 00 00 00 00 00  |................|
 BCD7  00 00 00 00 00 00 00 00 00 00 00 00 00 00 00 00  |................|
 BCE7  00 00 00 00 00 00 00 00 00 00 00 00 00 00 00 00  |................|
 BCF7  00 00 00 00 00 00 00 00 00 00 00 00 00 00 00 00  |................|
 BD07  00 00 00 00 00 00 00 00 00 00 00 00 00 00 00 00  |................|
 BD17  00 00 00 00 00 00 00 00 00 00 00 00 00 00 00 00  |................|
 BD27  00 00 00 00 00 00 00 00 00 00 00 00 00 00 00 00  |................|
 BD37  00 00 00 00 00 00 00 00 00 00 00 00 00 00 00 00  |................|
 BD47  00 00 00 00 00 00 00 00 00 00 00 00 00 00 00 00  |................|
 BD57  00 00 00 00 00 00 00 00 00 00 00 00 00 00 00 00  |................|
 BD67  00 00 00 00 00 00 00 00 00 00 00 00 00 00 00 00  |................|
 BD77  00 00 00 00 00 00 00 00 00 00 00 00 00 00 00 00  |................|
 BD87  00 00 00 00 00 00 00 00 00 00 00 00 00 00 00 00  |................|
 BD97  00 00 00 00 00 00 00 00 00 00 00 00 00 00 00 00  |................|
 BDA7  00 00 00 00 00 00 00 00 00 00 00 00 00 00 00 00  |................|
 BDB7  00 00 00 00 00 00 00 00 00 00 00 00 00 00 00 00  |................|
 BDC7  00 00 00 00 00 00 00 00 00 00 00 00 00 00 00 00  |................|
 BDD7  00 00 00 00 00 00 00 00 00 00 00 00 00 00 00 00  |................|
 BDE7  00 00 00 00 00 00 00 00 00 00 00 00 00 00 00 00  |................|
 BDF7  00 00 00 00 00 00 00 00 00 00 00 00 00 00 00 00  |................|
 BE07  00 00 00 00 00 00 00 00 00 00 00 00 00 00 00 00  |................|
 BE17  00 00 00 00 00 00 00 00 00 00 00 00 00 00 00 00  |................|
 BE27  00 00 00 00 00 00 00 00 00 00 00 00 00 00 00 00  |................|
 BE37  00 00 00 00 00 00 00 00 00 00 00 00 00 00 00 00  |................|
 BE47  00 00 00 00 00 00 00 00 00 00 00 00 00 00 00 00  |................|
 BE57  00 00 00 00 00 00 00 00 00 00 00 00 00 00 00 00  |................|
 BE67  00 00 00 00 00 00 00 00 00 00 00 00 00 00 00 00  |................|
 BE77  00 00 00 00 00 00 00 00 00 00 00 00 00 00 00 00  |................|
 BE87  00 00 00 00 00 00 00 00 00 00 00 00 00 00 00 00  |................|
 BE97  00 00 00 00 00 00 00 00 00 00 00 00 00 00 00 00  |................|
 BEA7  00 00 00 00 00 00 00 00 00 00 00 00 00 00 00 00  |................|
 BEB7  00 00 00 00 00 00 00 00 00 00 00 00 00 00 00 00  |................|
 BEC7  00 00 00 00 00 00 00 00 00 00 00 00 00 00 00 00  |................|
 BED7  00 00 00 00 00 00 00 00 00 00 00 00 00 00 00 00  |................|
 BEE7  00 00 00 00 00 00 00 00 00 00 00 00 00 00 00 00  |................|
 BEF7  00 00 00 00 00 00 00 00 00 00 00 00 00 00 00 00  |................|
 BF07  00 00 00 00 00 00 00 00 00 00 00 00 00 00 00 00  |................|
 BF17  00 00 00 00 00 00 00 00 00 00 00 00 00 00 00 00  |................|
 BF27  00 00 00 00 00 00 00 00 00 00 00 00 00 00 00 00  |................|
 BF37  00 00 00 00 00 00 00 00 00 00 00 00 00 00 00 00  |................|
 BF47  00 00 00 00 00 00 00 00 00 00 00 00 00 00 00 00  |................|
 BF57  00 00 00 00 00 00 00 00 00 00 00 00 00 00 00 00  |................|
 BF67  00 00 00 00 00 00 00 00 00 00 00 00 00 00 00 00  |................|
 BF77  00 00 00 00 00 00 00 00 00 00 00 00 00 00 00 00  |................|
 BF87  00 00 00 00 00 00 00 00 00 00 00 00 00 00 00 00  |................|
 BF97  00 00 00 00 00 00 00 00 00 00 00 00 00 00 00 00  |................|
 BFA7  00 00 00 00 00 00 00 00 00 00 00 00 00 00 00 00  |................|
 BFB7  00 00 00 00 00 00 00 00 00 00 00 00 00 00 00 00  |................|
 BFC7  00 00 00 00 00 00 00 00 00 00 00 00 00 00 00 00  |................|
 BFD7  00 00 00 00 00 00 00 00 00 00 00 00 00 00 00 00  |................|
 BFE7  00 00 00 00 00 00 00 00 00 00 00 00 00 00 00 00  |................|
 BFF7  00 00 00 00 00 00 00 00 00 00 00 00 00 00 00 00  |................|
 C007  00 00 00 00 00 00 00 00 00 00 00 00 00 00 00 00  |................|
 C017  00 00 00 00 00 00 00 00 00 00 00 00 00 00 00 00  |................|
 C027  00 00 00 00 00 00 00 00 00 00 00 00 00 00 00 00  |................|
 C037  00 00 00 00 00 00 00 00 00 00 00 00 00 00 00 00  |................|
 C047  00 00 00 00 00 00 00 00 00 00 00 00 00 00 00 00  |................|
 C057  00 00 00 00 00 00 00 00 00 00 00 00 00 00 00 00  |................|
 C067  00 00 00 00 00 00 00 00 00 00 00 00 00 00 00 00  |................|
 C077  00 00 00 00 00 00 00 00 00 00 00 00 00 00 00 00  |................|
 C087  00 00 00 00 00 00 00 00 00 00 00 00 00 00 00 00  |................|
 C097  00 00 00 00 00 00 00 00 00 00 00 00 00 00 00 00  |................|
 C0A7  00 00 00 00 00 00 00 00 00 00 00 00 00 00 00 00  |................|
 C0B7  00 00 00 00 00 00 00 00 00 00 00 00 00 00 00 00  |................|
 C0C7  00 00 00 00 00 00 00 00 00 00 00 00 00 00 00 00  |................|
 C0D7  00 00 00 00 00 00 00 00 00 00 00 00 00 00 00 00  |................|
 C0E7  00 00 00 00 00 00 00 00 00 00 00 00 00 00 00 00  |................|
 C0F7  00 00 00 00 00 00 00 00 00 00 00 00 00 00 00 00  |................|
 C107  00 00 00 00 00 00 00 00 00 00 00 00 00 00 00 00  |................|
 C117  00 00 00 00 00 00 00 00 00 00 00 00 00 00 00 00  |................|
 C127  00 00 00 00 00 00 00 00 00 00 00 00 00 00 00 00  |................|
 C137  00 00 00 00 00 00 00 00 00 00 00 00 00 00 00 00  |................|
 C147  00 00 00 00 00 00 00 00 00 00 00 00 00 00 00 00  |................|
 C157  00 00 00 00 00 00 00 00 00 00 00 00 00 00 00 00  |................|
 C167  00 00 00 00 00 00 00 00 00 00 00 00 00 00 00 00  |................|
 C177  00 00 00 00 00 00 00 00 00 00 00 00 00 00 00 00  |................|
 C187  00 00 00 00 00 00 00 00 00 00 00 00 00 00 00 00  |................|
 C197  00 00 00 00 00 00 00 00 00 00 00 00 00 00 00 00  |................|
 C1A7  00 00 00 00 00 00 00 00 00 00 00 00 00 00 00 00  |................|
 C1B7  00 00 00 00 00 00 00 00 00 00 00 00 00 00 00 00  |................|
 C1C7  00 00 00 00 00 00 00 00 00 00 00 00 00 00 00 00  |................|
 C1D7  00 00 00 00 00 00 00 00 00 00 00 00 00 00 00 00  |................|
 C1E7  00 00 00 00 00 00 00 00 00 00 00 00 00 00 00 00  |................|
 C1F7  00 00 00 00 00 00 00 00 00 00 00 00 00 00 00 00  |................|
 C207  00 00 00 00 00 00 00 00 00 00 00 00 00 00 00 00  |................|
 C217  00 00 00 00 00 00 00 00 00 00 00 00 00 00 00 00  |................|
 C227  00 00 00 00 00 00 00 00 00 00 00 00 00 00 00 00  |................|
 C237  00 00 00 00 00 00 00 00 00 00 00 00 00 00 00 00  |................|
 C247  00 00 00 00 00 00 00 00 00 00 00 00 00 00 00 00  |................|
 C257  00 00 00 00 00 00 00 00 00 00 00 00 00 00 00 00  |................|
 C267  00 00 00 00 00 00 00 00 00 00 00 00 00 00 00 00  |................|
 C277  00 00 00 00 00 00 00 00 00 00 00 00 00 00 00 00  |................|
 C287  00 00 00 00 00 00 00 00 00 00 00 00 00 00 00 00  |................|
 C297  00 00 00 00 00 00 00 00 00 00 00 00 00 00 00 00  |................|
 C2A7  00 00 00 00 00 00 00 00 00 00 00 00 00 00 00 00  |................|
 C2B7  00 00 00 00 00 00 00 00 00 00 00 00 00 00 00 00  |................|
 C2C7  00 00 00 00 00 00 00 00 00 00 00 00 00 00 00 00  |................|
 C2D7  00 00 00 00 00 00 00 00 00 00 00 00 00 00 00 00  |................|
 C2E7  00 00 00 00 00 00 00 00 00 00 00 00 00 00 00 00  |................|
 C2F7  00 00 00 00 00 00 00 00 00 00 00 00 00 00 00 00  |................|
 C307  00 00 00 00 00 00 00 00 00 00 00 00 00 00 00 00  |................|
 C317  00 00 00 00 00 00 00 00 00 00 00 00 00 00 00 00  |................|
 C327  00 00 00 00 00 00 00 00 00 00 00 00 00 00 00 00  |................|
 C337  00 00 00 00 00 00 00 00 00 00 00 00 00 00 00 00  |................|
 C347  00 00 00 00 00 00 00 00 00 00 00 00 00 00 00 00  |................|
 C357  00 00 00 00 00 00 00 00 00 00 00 00 00 00 00 00  |................|
 C367  00 00 00 00 00 00 00 00 00 00 00 00 00 00 00 00  |................|
 C377  00 00 00 00 00 00 00 00 00 00 00 00 00 00 00 00  |................|
 C387  00 00 00 00 00 00 00 00 00 00 00 00 00 00 00 00  |................|
 C397  00 00 00 00 00 00 00 00 00 00 00 00 00 00 00 00  |................|
 C3A7  00 00 00 00 00 00 00 00 00 00 00 00 00 00 00 00  |................|
 C3B7  00 00 00 00 00 00 00 00 00 00 00 00 00 00 00 00  |................|
 C3C7  00 00 00 00 00 00 00 00 00 00 00 00 00 00 00 00  |................|
 C3D7  00 00 00 00 00 00 00 00 00 00 00 00 00 00 00 00  |................|
 C3E7  00 00 00 00 00 00 00 00 00 00 00 00 00 00 00 00  |................|
 C3F7  00 00 00 00 00 00 00 00 00 00 00 00 00 00 00 00  |................|
 C407  00 00 00 00 00 00 00 00 00 00 00 00 00 00 00 00  |................|
 C417  00 00 00 00 00 00 00 00 00 00 00 00 00 00 00 00  |................|
 C427  00 00 00 00 00 00 00 00 00 00 00 00 00 00 00 00  |................|
 C437  00 00 00 00 00 00 00 00 00 00 00 00 00 00 00 00  |................|
 C447  00 00 00 00 00 00 00 00 00 00 00 00 00 00 00 00  |................|
 C457  00 00 00 00 00 00 00 00 00 00 00 00 00 00 00 00  |................|
 C467  00 00 00 00 00 00 00 00 00 00 00 00 00 00 00 00  |................|
 C477  00 00 00 00 00 00 00 00 00 00 00 00 00 00 00 00  |................|
 C487  00 00 00 00 00 00 00 00 00 00 00 00 00 00 00 00  |................|
 C497  00 00 00 00 00 00 00 00 00 00 00 00 00 00 00 00  |................|
 C4A7  00 00 00 00 00 00 00 00 00 00 00 00 00 00 00 00  |................|
 C4B7  00 00 00 00 00 00 00 00 00 00 00 00 00 00 00 00  |................|
 C4C7  00 00 00 00 00 00 00 00 00 00 00 00 00 00 00 00  |................|
 C4D7  00 00 00 00 00 00 00 00 00 00 00 00 00 00 00 00  |................|
 C4E7  00 00 00 00 00 00 00 00 00 00 00 00 00 00 00 00  |................|
 C4F7  00 00 00 00 00 00 00 00 00 00 00 00 00 00 00 00  |................|
 C507  00 00 00 00 00 00 00 00 00 00 00 00 00 00 00 00  |................|
 C517  00 00 00 00 00 00 00 00 00 00 00 00 00 00 00 00  |................|
 C527  00 00 00 00 00 00 00 00 00 00 00 00 00 00 00 00  |................|
 C537  00 00 00 00 00 00 00 00 00 00 00 00 00 00 00 00  |................|
 C547  00 00 00 00 00 00 00 00 00 00 00 00 00 00 00 00  |................|
 C557  00 00 00 00 00 00 00 00 00 00 00 00 00 00 00 00  |................|
 C567  00 00 00 00 00 00 00 00 00 00 00 00 00 00 00 00  |................|
 C577  00 00 00 00 00 00 00 00 00 00 00 00 00 00 00 00  |................|
 C587  00 00 00 00 00 00 00 00 00 00 00 00 00 00 00 00  |................|
 C597  00 00 00 00 00 00 00 00 00 00 00 00 00 00 00 00  |................|
 C5A7  00 00 00 00 00 00 00 00 00 00 00 00 00 00 00 00  |................|
 C5B7  00 00 00 00 00 00 00 00 00 00 00 00 00 00 00 00  |................|
 C5C7  00 00 00 00 00 00 00 00 00 00 00 00 00 00 00 00  |................|
 C5D7  00 00 00 00 00 00 00 00 00 00 00 00 00 00 00 00  |................|
 C5E7  00 00 00 00 00 00 00 00 00 00 00 00 00 00 00 00  |................|
 C5F7  00 00 00 00 00 00 00 00 00 00 00 00 00 00 00 00  |................|
 C607  00 00 00 00 00 00 00 00 00 00 00 00 00 00 00 00  |................|
 C617  00 00 00 00 00 00 00 00 00 00 00 00 00 00 00 00  |................|
 C627  00 00 00 00 00 00 00 00 00 00 00 00 00 00 00 00  |................|
 C637  00 00 00 00 00 00 00 00 00 00 00 00 00 00 00 00  |................|
 C647  00 00 00 00 00 00 00 00 00 00 00 00 00 00 00 00  |................|
 C657  00 00 00 00 00 00 00 00 00 00 00 00 00 00 00 00  |................|
 C667  00 00 00 00 00 00 00 00 00 00 00 00 00 00 00 00  |................|
 C677  00 00 00 00 00 00 00 00 00 00 00 00 00 00 00 00  |................|
 C687  00 00 00 00 00 00 00 00 00 00 00 00 00 00 00 00  |................|
 C697  00 00 00 00 00 00 00 00 00 00 00 00 00 00 00 00  |................|
 C6A7  00 00 00 00 00 00 00 00 00 00 00 00 00 00 00 00  |................|
 C6B7  00 00 00 00 00 00 00 00 00 00 00 00 00 00 00 00  |................|
 C6C7  00 00 00 00 00 00 00 00 00 00 00 00 00 00 00 00  |................|
 C6D7  00 00 00 00 00 00 00 00 00 00 00 00 00 00 00 00  |................|
 C6E7  00 00 00 00 00 00 00 00 00 00 00 00 00 00 00 00  |................|
 C6F7  00 00 00 00 00 00 00 00 00 00 00 00 00 00 00 00  |................|
 C707  00 00 00 00 00 00 00 00 00 00 00 00 00 00 00 00  |................|
 C717  00 00 00 00 00 00 00 00 00 00 00 00 00 00 00 00  |................|
 C727  00 00 00 00 00 00 00 00 00 00 00 00 00 00 00 00  |................|
 C737  00 00 00 00 00 00 00 00 00 00 00 00 00 00 00 00  |................|
 C747  00 00 00 00 00 00 00 00 00 00 00 00 00 00 00 00  |................|
 C757  00 00 00 00 00 00 00 00 00 00 00 00 00 00 00 00  |................|
 C767  00 00 00 00 00 00 00 00 00 00 00 00 00 00 00 00  |................|
 C777  00 00 00 00 00 00 00 00 00 00 00 00 00 00 00 00  |................|
 C787  00 00 00 00 00 00 00 00 00 00 00 00 00 00 00 00  |................|
 C797  00 00 00 00 00 00 00 00 00 00 00 00 00 00 00 00  |................|
 C7A7  00 00 00 00 00 00 00 00 00 00 00 00 00 00 00 00  |................|
 C7B7  00 00 00 00 00 00 00 00 00 00 00 00 00 00 00 00  |................|
 C7C7  00 00 00 00 00 00 00 00 00 00 00 00 00 00 00 00  |................|
 C7D7  00 00 00 00 00 00 00 00 00 00 00 00 00 00 00 00  |................|
 C7E7  00 00 00 00 00 00 00 00 00 00 00 00 00 00 00 00  |................|
 C7F7  00 00 00 00 00 00 00 00 00 00 00 00 00 00 00 00  |................|
 C807  00 00 00 00 00 00 00 00 00 00 00 00 00 00 00 00  |................|
 C817  00 00 00 00 00 00 00 00 00 00 00 00 00 00 00 00  |................|
 C827  00 00 00 00 00 00 00 00 00 00 00 00 00 00 00 00  |................|
 C837  00 00 00 00 00 00 00 00 00 00 00 00 00 00 00 00  |................|
 C847  00 00 00 00 00 00 00 00 00 00 00 00 00 00 00 00  |................|
 C857  00 00 00 00 00 00 00 00 00 00 00 00 00 00 00 00  |................|
 C867  00 00 00 00 00 00 00 00 00 00 00 00 00 00 00 00  |................|
 C877  00 00 00 00 00 00 00 00 00 00 00 00 00 00 00 00  |................|
 C887  00 00 00 00 00 00 00 00 00 00 00 00 00 00 00 00  |................|
 C897  00 00 00 00 00 00 00 00 00 00 00 00 00 00 00 00  |................|
 C8A7  00 00 00 00 00 00 00 00 00 00 00 00 00 00 00 00  |................|
 C8B7  00 00 00 00 00 00 00 00 00 00 00 00 00 00 00 00  |................|
 C8C7  00 00 00 00 00 00 00 00 00 00 00 00 00 00 00 00  |................|
 C8D7  00 00 00 00 00 00 00 00 00 00 00 00 00 00 00 00  |................|
 C8E7  00 00 00 00 00 00 00 00 00 00 00 00 00 00 00 00  |................|
 C8F7  00 00 00 00 00 00 00 00 00 00 00 00 00 00 00 00  |................|
 C907  00 00 00 00 00 00 00 00 00 00 00 00 00 00 00 00  |................|
 C917  00 00 00 00 00 00 00 00 00 00 00 00 00 00 00 00  |................|
 C927  00 00 00 00 00 00 00 00 00 00 00 00 00 00 00 00  |................|
 C937  00 00 00 00 00 00 00 00 00 00 00 00 00 00 00 00  |................|
 C947  00 00 00 00 00 00 00 00 00 00 00 00 00 00 00 00  |................|
 C957  00 00 00 00 00 00 00 00 00 00 00 00 00 00 00 00  |................|
 C967  00 00 00 00 00 00 00 00 00 00 00 00 00 00 00 00  |................|
 C977  00 00 00 00 00 00 00 00 00 00 00 00 00 00 00 00  |................|
 C987  00 00 00 00 00 00 00 00 00 00 00 00 00 00 00 00  |................|
 C997  00 00 00 00 00 00 00 00 00 00 00 00 00 00 00 00  |................|
 C9A7  00 00 00 00 00 00 00 00 00 00 00 00 00 00 00 00  |................|
 C9B7  00 00 00 00 00 00 00 00 00 00 00 00 00 00 00 00  |................|
 C9C7  00 00 00 00 00 00 00 00 00 00 00 00 00 00 00 00  |................|
 C9D7  00 00 00 00 00 00 00 00 00 00 00 00 00 00 00 00  |................|
 C9E7  00 00 00 00 00 00 00 00 00 00 00 00 00 00 00 00  |................|
 C9F7  00 00 00 00 00 00 00 00 00 00 00 00 00 00 00 00  |................|
 CA07  00 00 00 00 00 00 00 00 00 00 00 00 00 00 00 00  |................|
 CA17  00 00 00 00 00 00 00 00 00 00 00 00 00 00 00 00  |................|
 CA27  00 00 00 00 00 00 00 00 00 00 00 00 00 00 00 00  |................|
 CA37  00 00 00 00 00 00 00 00 00 00 00 00 00 00 00 00  |................|
 CA47  00 00 00 00 00 00 00 00 00 00 00 00 00 00 00 00  |................|
 CA57  00 00 00 00 00 00 00 00 00 00 00 00 00 00 00 00  |................|
 CA67  00 00 00 00 00 00 00 00 00 00 00 00 00 00 00 00  |................|
 CA77  00 00 00 00 00 00 00 00 00 00 00 00 00 00 00 00  |................|
 CA87  00 00 00 00 00 00 00 00 00 00 00 00 00 00 00 00  |................|
 CA97  00 00 00 00 00 00 00 00 00 00 00 00 00 00 00 00  |................|
 CAA7  00 00 00 00 00 00 00 00 00 00 00 00 00 00 00 00  |................|
 CAB7  00 00 00 00 00 00 00 00 00 00 00 00 00 00 00 00  |................|
 CAC7  00 00 00 00 00 00 00 00 00 00 00 00 00 00 00 00  |................|
 CAD7  00 00 00 00 00 00 00 00 00 00 00 00 00 00 00 00  |................|
 CAE7  00 00 00 00 00 00 00 00 00 00 00 00 00 00 00 00  |................|
 CAF7  00 00 00 00 00 00 00 00 00 00 00 00 00 00 00 00  |................|
 CB07  00 00 00 00 00 00 00 00 00 00 00 00 00 00 00 00  |................|
 CB17  00 00 00 00 00 00 00 00 00 00 00 00 00 00 00 00  |................|
 CB27  00 00 00 00 00 00 00 00 00 00 00 00 00 00 00 00  |................|
 CB37  00 00 00 00 00 00 00 00 00 00 00 00 00 00 00 00  |................|
 CB47  00 00 00 00 00 00 00 00 00 00 00 00 00 00 00 00  |................|
 CB57  00 00 00 00 00 00 00 00 00 00 00 00 00 00 00 00  |................|
 CB67  00 00 00 00 00 00 00 00 00 00 00 00 00 00 00 00  |................|
 CB77  00 00 00 00 00 00 00 00 00 00 00 00 00 00 00 00  |................|
 CB87  00 00 00 00 00 00 00 00 00 00 00 00 00 00 00 00  |................|
 CB97  00 00 00 00 00 00 00 00 00 00 00 00 00 00 00 00  |................|
 CBA7  00 00 00 00 00 00 00 00 00 00 00 00 00 00 00 00  |................|
 CBB7  00 00 00 00 00 00 00 00 00 00 00 00 00 00 00 00  |................|
 CBC7  00 00 00 00 00 00 00 00 00 00 00 00 00 00 00 00  |................|
 CBD7  00 00 00 00 00 00 00 00 00 00 00 00 00 00 00 00  |................|
 CBE7  00 00 00 00 00 00 00 00 00 00 00 00 00 00 00 00  |................|
 CBF7  00 00 00 00 00 00 00 00 00 00 00 00 00 00 00 00  |................|
 CC07  00 00 00 00 00 00 00 00 00 00 00 00 00 00 00 00  |................|
 CC17  00 00 00 00 00 00 00 00 00 00 00 00 00 00 00 00  |................|
 CC27  00 00 00 00 00 00 00 00 00 00 00 00 00 00 00 00  |................|
 CC37  00 00 00 00 00 00 00 00 00 00 00 00 00 00 00 00  |................|
 CC47  00 00 00 00 00 00 00 00 00 00 00 00 00 00 00 00  |................|
 CC57  00 00 00 00 00 00 00 00 00 00 00 00 00 00 00 00  |................|
 CC67  00 00 00 00 00 00 00 00 00 00 00 00 00 00 00 00  |................|
 CC77  00 00 00 00 00 00 00 00 00 00 00 00 00 00 00 00  |................|
 CC87  00 00 00 00 00 00 00 00 00 00 00 00 00 00 00 00  |................|
 CC97  00 00 00 00 00 00 00 00 00 00 00 00 00 00 00 00  |................|
 CCA7  00 00 00 00 00 00 00 00 00 00 00 00 00 00 00 00  |................|
 CCB7  00 00 00 00 00 00 00 00 00 00 00 00 00 00 00 00  |................|
 CCC7  00 00 00 00 00 00 00 00 00 00 00 00 00 00 00 00  |................|
 CCD7  00 00 00 00 00 00 00 00 00 00 00 00 00 00 00 00  |................|
 CCE7  00 00 00 00 00 00 00 00 00 00 00 00 00 00 00 00  |................|
 CCF7  00 00 00 00 00 00 00 00 00 00 00 00 00 00 00 00  |................|
 CD07  00 00 00 00 00 00 00 00 00 00 00 00 00 00 00 00  |................|
 CD17  00 00 00 00 00 00 00 00 00 00 00 00 00 00 00 00  |................|
 CD27  00 00 00 00 00 00 00 00 00 00 00 00 00 00 00 00  |................|
 CD37  00 00 00 00 00 00 00 00 00 00 00 00 00 00 00 00  |................|
 CD47  00 00 00 00 00 00 00 00 00 00 00 00 00 00 00 00  |................|
 CD57  00 00 00 00 00 00 00 00 00 00 00 00 00 00 00 00  |................|
 CD67  00 00 00 00 00 00 00 00 00 00 00 00 00 00 00 00  |................|
 CD77  00 00 00 00 00 00 00 00 00 00 00 00 00 00 00 00  |................|
 CD87  00 00 00 00 00 00 00 00 00 00 00 00 00 00 00 00  |................|
 CD97  00 00 00 00 00 00 00 00 00 00 00 00 00 00 00 00  |................|
 CDA7  00 00 00 00 00 00 00 00 00 00 00 00 00 00 00 00  |................|
 CDB7  00 00 00 00 00 00 00 00 00 00 00 00 00 00 00 00  |................|
 CDC7  00 00 00 00 00 00 00 00 00 00 00 00 00 00 00 00  |................|
 CDD7  00 00 00 00 00 00 00 00 00 00 00 00 00 00 00 00  |................|
 CDE7  00 00 00 00 00 00 00 00 00 00 00 00 00 00 00 00  |................|
 CDF7  00 00 00 00 00 00 00 00 00 00 00 00 00 00 00 00  |................|
 CE07  00 00 00 00 00 00 00 00 00 00 00 00 00 00 00 00  |................|
 CE17  00 00 00 00 00 00 00 00 00 00 00 00 00 00 00 00  |................|
 CE27  00 00 00 00 00 00 00 00 00 00 00 00 00 00 00 00  |................|
 CE37  00 00 00 00 00 00 00 00 00 00 00 00 00 00 00 00  |................|
 CE47  00 00 00 00 00 00 00 00 00 00 00 00 00 00 00 00  |................|
 CE57  00 00 00 00 00 00 00 00 00 00 00 00 00 00 00 00  |................|
 CE67  00 00 00 00 00 00 00 00 00 00 00 00 00 00 00 00  |................|
 CE77  00 00 00 00 00 00 00 00 00 00 00 00 00 00 00 00  |................|
 CE87  00 00 00 00 00 00 00 00 00 00 00 00 00 00 00 00  |................|
 CE97  00 00 00 00 00 00 00 00 00 00 00 00 00 00 00 00  |................|
 CEA7  00 00 00 00 00 00 00 00 00 00 00 00 00 00 00 00  |................|
 CEB7  00 00 00 00 00 00 00 00 00 00 00 00 00 00 00 00  |................|
 CEC7  00 00 00 00 00 00 00 00 00 00 00 00 00 00 00 00  |................|
 CED7  00 00 00 00 00 00 00 00 00 00 00 00 00 00 00 00  |................|
 CEE7  00 00 00 00 00 00 00 00 00 00 00 00 00 00 00 00  |................|
 CEF7  00 00 00 00 00 00 00 00 00 00 00 00 00 00 00 00  |................|
 CF07  00 00 00 00 00 00 00 00 00 00 00 00 00 00 00 00  |................|
 CF17  00 00 00 00 00 00 00 00 00 00 00 00 00 00 00 00  |................|
 CF27  00 00 00 00 00 00 00 00 00 00 00 00 00 00 00 00  |................|
 CF37  00 00 00 00 00 00 00 00 00 00 00 00 00 00 00 00  |................|
 CF47  00 00 00 00 00 00 00 00 00 00 00 00 00 00 00 00  |................|
 CF57  00 00 00 00 00 00 00 00 00 00 00 00 00 00 00 00  |................|
 CF67  00 00 00 00 00 00 00 00 00 00 00 00 00 00 00 00  |................|
 CF77  00 00 00 00 00 00 00 00 00 00 00 00 00 00 00 00  |................|
 CF87  00 00 00 00 00 00 00 00 00 00 00 00 00 00 00 00  |................|
 CF97  00 00 00 00 00 00 00 00 00 00 00 00 00 00 00 00  |................|
 CFA7  00 00 00 00 00 00 00 00 00 00 00 00 00 00 00 00  |................|
 CFB7  00 00 00 00 00 00 00 00 00 00 00 00 00 00 00 00  |................|
 CFC7  00 00 00 00 00 00 00 00 00 00 00 00 00 00 00 00  |................|
 CFD7  00 00 00 00 00 00 00 00 00 00 00 00 00 00 00 00  |................|
 CFE7  00 00 00 00 00 00 00 00 00 00 00 00 00 00 00 00  |................|
 CFF7  00 00 00 00 00 00 00 00 00 00 00 00 00 00 00 00  |................|
 D007  00 00 00 00 00 00 00 00 00 00 00 00 00 00 00 00  |................|
 D017  00 00 00 00 00 00 00 00 00 00 00 00 00 00 00 00  |................|
 D027  00 00 00 00 00 00 00 00 00 00 00 00 00 00 00 00  |................|
 D037  00 00 00 00 00 00 00 00 00 00 00 00 00 00 00 00  |................|
 D047  00 00 00 00 00 00 00 00 00 00 00 00 00 00 00 00  |................|
 D057  00 00 00 00 00 00 00 00 00 00 00 00 00 00 00 00  |................|
 D067  00 00 00 00 00 00 00 00 00 00 00 00 00 00 00 00  |................|
 D077  00 00 00 00 00 00 00 00 00 00 00 00 00 00 00 00  |................|
 D087  00 00 00 00 00 00 00 00 00 00 00 00 00 00 00 00  |................|
 D097  00 00 00 00 00 00 00 00 00 00 00 00 00 00 00 00  |................|
 D0A7  00 00 00 00 00 00 00 00 00 00 00 00 00 00 00 00  |................|
 D0B7  00 00 00 00 00 00 00 00 00 00 00 00 00 00 00 00  |................|
 D0C7  00 00 00 00 00 00 00 00 00 00 00 00 00 00 00 00  |................|
 D0D7  00 00 00 00 00 00 00 00 00 00 00 00 00 00 00 00  |................|
 D0E7  00 00 00 00 00 00 00 00 00 00 00 00 00 00 00 00  |................|
 D0F7  00 00 00 00 00 00 00 00 00 00 00 00 00 00 00 00  |................|
 D107  00 00 00 00 00 00 00 00 00 00 00 00 00 00 00 00  |................|
 D117  00 00 00 00 00 00 00 00 00 00 00 00 00 00 00 00  |................|
 D127  00 00 00 00 00 00 00 00 00 00 00 00 00 00 00 00  |................|
 D137  00 00 00 00 00 00 00 00 00 00 00 00 00 00 00 00  |................|
 D147  00 00 00 00 00 00 00 00 00 00 00 00 00 00 00 00  |................|
 D157  00 00 00 00 00 00 00 00 00 00 00 00 00 00 00 00  |................|
 D167  00 00 00 00 00 00 00 00 00 00 00 00 00 00 00 00  |................|
 D177  00 00 00 00 00 00 00 00 00 00 00 00 00 00 00 00  |................|
 D187  00 00 00 00 00 00 00 00 00 00 00 00 00 00 00 00  |................|
 D197  00 00 00 00 00 00 00 00 00 00 00 00 00 00 00 00  |................|
 D1A7  00 00 00 00 00 00 00 00 00 00 00 00 00 00 00 00  |................|
 D1B7  00 00 00 00 00 00 00 00 00 00 00 00 00 00 00 00  |................|
 D1C7  00 00 00 00 00 00 00 00 00 00 00 00 00 00 00 00  |................|
 D1D7  00 00 00 00 00 00 00 00 00 00 00 00 00 00 00 00  |................|
 D1E7  00 00 00 00 00 00 00 00 00 00 00 00 00 00 00 00  |................|
 D1F7  00 00 00 00 00 00 00 00 00 00 00 00 00 00 00 00  |................|
 D207  00 00 00 00 00 00 00 00 00 00 00 00 00 00 00 00  |................|
 D217  00 00 00 00 00 00 00 00 00 00 00 00 00 00 00 00  |................|
 D227  00 00 00 00 00 00 00 00 00 00 00 00 00 00 00 00  |................|
 D237  00 00 00 00 00 00 00 00 00 00 00 00 00 00 00 00  |................|
 D247  00 00 00 00 00 00 00 00 00 00 00 00 00 00 00 00  |................|
 D257  00 00 00 00 00 00 00 00 00 00 00 00 00 00 00 00  |................|
 D267  00 00 00 00 00 00 00 00 00 00 00 00 00 00 00 00  |................|
 D277  00 00 00 00 00 00 00 00 00 00 00 00 00 00 00 00  |................|
 D287  00 00 00 00 00 00 00 00 00 00 00 00 00 00 00 00  |................|
 D297  00 00 00 00 00 00 00 00 00 00 00 00 00 00 00 00  |................|
 D2A7  00 00 00 00 00 00 00 00 00 00 00 00 00 00 00 00  |................|
 D2B7  00 00 00 00 00 00 00 00 00 00 00 00 00 00 00 00  |................|
 D2C7  00 00 00 00 00 00 00 00 00 00 00 00 00 00 00 00  |................|
 D2D7  00 00 00 00 00 00 00 00 00 00 00 00 00 00 00 00  |................|
 D2E7  00 00 00 00 00 00 00 00 00 00 00 00 00 00 00 00  |................|
 D2F7  00 00 00 00 00 00 00 00 00 00 00 00 00 00 00 00  |................|
 D307  00 00 00 00 00 00 00 00 00 00 00 00 00 00 00 00  |................|
 D317  00 00 00 00 00 00 00 00 00 00 00 00 00 00 00 00  |................|
 D327  00 00 00 00 00 00 00 00 00 00 00 00 00 00 00 00  |................|
 D337  00 00 00 00 00 00 00 00 00 00 00 00 00 00 00 00  |................|
 D347  00 00 00 00 00 00 00 00 00 00 00 00 00 00 00 00  |................|
 D357  00 00 00 00 00 00 00 00 00 00 00 00 00 00 00 00  |................|
 D367  00 00 00 00 00 00 00 00 00 00 00 00 00 00 00 00  |................|
 D377  00 00 00 00 00 00 00 00 00 00 00 00 00 00 00 00  |................|
 D387  00 00 00 00 00 00 00 00 00 00 00 00 00 00 00 00  |................|
 D397  00 00 00 00 00 00 00 00 00 00 00 00 00 00 00 00  |................|
 D3A7  00 00 00 00 00 00 00 00 00 00 00 00 00 00 00 00  |................|
 D3B7  00 00 00 00 00 00 00 00 00 00 00 00 00 00 00 00  |................|
 D3C7  00 00 00 00 00 00 00 00 00 00 00 00 00 00 00 00  |................|
 D3D7  00 00 00 00 00 00 00 00 00 00 00 00 00 00 00 00  |................|
 D3E7  00 00 00 00 00 00 00 00 00 00 00 00 00 00 00 00  |................|
 D3F7  00 00 00 00 00 00 00 00 00 00 00 00 00 00 00 00  |................|
 D407  00 00 00 00 00 00 00 00 00 00 00 00 00 00 00 00  |................|
 D417  00 00 00 00 00 00 00 00 00 00 00 00 00 00 00 00  |................|
 D427  00 00 00 00 00 00 00 00 00 00 00 00 00 00 00 00  |................|
 D437  00 00 00 00 00 00 00 00 00 00 00 00 00 00 00 00  |................|
 D447  00 00 00 00 00 00 00 00 00 00 00 00 00 00 00 00  |................|
 D457  00 00 00 00 00 00 00 00 00 00 00 00 00 00 00 00  |................|
 D467  00 00 00 00 00 00 00 00 00 00 00 00 00 00 00 00  |................|
 D477  00 00 00 00 00 00 00 00 00 00 00 00 00 00 00 00  |................|
 D487  00 00 00 00 00 00 00 00 00 00 00 00 00 00 00 00  |................|
 D497  00 00 00 00 00 00 00 00 00 00 00 00 00 00 00 00  |................|
 D4A7  00 00 00 00 00 00 00 00 00 00 00 00 00 00 00 00  |................|
 D4B7  00 00 00 00 00 00 00 00 00 00 00 00 00 00 00 00  |................|
 D4C7  00 00 00 00 00 00 00 00 00 00 00 00 00 00 00 00  |................|
 D4D7  00 00 00 00 00 00 00 00 00 00 00 00 00 00 00 00  |................|
 D4E7  00 00 00 00 00 00 00 00 00 00 00 00 00 00 00 00  |................|
 D4F7  00 00 00 00 00 00 00 00 00 00 00 00 00 00 00 00  |................|
 D507  00 00 00 00 00 00 00 00 00 00 00 00 00 00 00 00  |................|
 D517  00 00 00 00 00 00 00 00 00 00 00 00 00 00 00 00  |................|
 D527  00 00 00 00 00 00 00 00 00 00 00 00 00 00 00 00  |................|
 D537  00 00 00 00 00 00 00 00 00 00 00 00 00 00 00 00  |................|
 D547  00 00 00 00 00 00 00 00 00 00 00 00 00 00 00 00  |................|
 D557  00 00 00 00 00 00 00 00 00 00 00 00 00 00 00 00  |................|
 D567  00 00 00 00 00 00 00 00 00 00 00 00 00 00 00 00  |................|
 D577  00 00 00 00 00 00 00 00 00 00 00 00 00 00 00 00  |................|
 D587  00 00 00 00 00 00 00 00 00 00 00 00 00 00 00 00  |................|
 D597  00 00 00 00 00 00 00 00 00 00 00 00 00 00 00 00  |................|
 D5A7  00 00 00 00 00 00 00 00 00 00 00 00 00 00 00 00  |................|
 D5B7  00 00 00 00 00 00 00 00 00 00 00 00 00 00 00 00  |................|
 D5C7  00 00 00 00 00 00 00 00 00 00 00 00 00 00 00 00  |................|
 D5D7  00 00 00 00 00 00 00 00 00 00 00 00 00 00 00 00  |................|
 D5E7  00 00 00 00 00 00 00 00 00 00 00 00 00 00 00 00  |................|
 D5F7  00 00 00 00 00 00 00 00 00 00 00 00 00 00 00 00  |................|
 D607  00 00 00 00 00 00 00 00 00 00 00 00 00 00 00 00  |................|
 D617  00 00 00 00 00 00 00 00 00 00 00 00 00 00 00 00  |................|
 D627  00 00 00 00 00 00 00 00 00 00 00 00 00 00 00 00  |................|
 D637  00 00 00 00 00 00 00 00 00 00 00 00 00 00 00 00  |................|
 D647  00 00 00 00 00 00 00 00 00 00 00 00 00 00 00 00  |................|
 D657  00 00 00 00 00 00 00 00 00 00 00 00 00 00 00 00  |................|
 D667  00 00 00 00 00 00 00 00 00 00 00 00 00 00 00 00  |................|
 D677  00 00 00 00 00 00 00 00 00 00 00 00 00 00 00 00  |................|
 D687  00 00 00 00 00 00 00 00 00 00 00 00 00 00 00 00  |................|
 D697  00 00 00 00 00 00 00 00 00 00 00 00 00 00 00 00  |................|
 D6A7  00 00 00 00 00 00 00 00 00 00 00 00 00 00 00 00  |................|
 D6B7  00 00 00 00 00 00 00 00 00 00 00 00 00 00 00 00  |................|
 D6C7  00 00 00 00 00 00 00 00 00 00 00 00 00 00 00 00  |................|
 D6D7  00 00 00 00 00 00 00 00 00 00 00 00 00 00 00 00  |................|
 D6E7  00 00 00 00 00 00 00 00 00 00 00 00 00 00 00 00  |................|
 D6F7  00 00 00 00 00 00 00 00 00 00 00 00 00 00 00 00  |................|
 D707  00 00 00 00 00 00 00 00 00 00 00 00 00 00 00 00  |................|
 D717  00 00 00 00 00 00 00 00 00 00 00 00 00 00 00 00  |................|
 D727  00 00 00 00 00 00 00 00 00 00 00 00 00 00 00 00  |................|
 D737  00 00 00 00 00 00 00 00 00 00 00 00 00 00 00 00  |................|
 D747  00 00 00 00 00 00 00 00 00 00 00 00 00 00 00 00  |................|
 D757  00 00 00 00 00 00 00 00 00 00 00 00 00 00 00 00  |................|
 D767  00 00 00 00 00 00 00 00 00 00 00 00 00 00 00 00  |................|
 D777  00 00 00 00 00 00 00 00 00 00 00 00 00 00 00 00  |................|
 D787  00 00 00 00 00 00 00 00 00 00 00 00 00 00 00 00  |................|
 D797  00 00 00 00 00 00 00 00 00 00 00 00 00 00 00 00  |................|
 D7A7  00 00 00 00 00 00 00 00 00 00 00 00 00 00 00 00  |................|
 D7B7  00 00 00 00 00 00 00 00 00 00 00 00 00 00 00 00  |................|
 D7C7  00 00 00 00 00 00 00 00 00 00 00 00 00 00 00 00  |................|
 D7D7  00 00 00 00 00 00 00 00 00 00 00 00 00 00 00 00  |................|
 D7E7  00 00 00 00 00 00 00 00 00 00 00 00 00 00 00 00  |................|
 D7F7  00 00 00 00 00 00 00 00 00 00 00 00 00 00 00 00  |................|
 D807  00 00 00 00 00 00 00 00 00 00 00 00 00 00 00 00  |................|
 D817  00 00 00 00 00 00 00 00 00 00 00 00 00 00 00 00  |................|
 D827  00 00 00 00 00 00 00 00 00 00 00 00 00 00 00 00  |................|
 D837  00 00 00 00 00 00 00 00 00 00 00 00 00 00 00 00  |................|
 D847  00 00 00 00 00 00 00 00 00 00 00 00 00 00 00 00  |................|
 D857  00 00 00 00 00 00 00 00 00 00 00 00 00 00 00 00  |................|
 D867  00 00 00 00 00 00 00 00 00 00 00 00 00 00 00 00  |................|
 D877  00 00 00 00 00 00 00 00 00 00 00 00 00 00 00 00  |................|
 D887  00 00 00 00 00 00 00 00 00 00 00 00 00 00 00 00  |................|
 D897  00 00 00 00 00 00 00 00 00 00 00 00 00 00 00 00  |................|
 D8A7  00 00 00 00 00 00 00 00 00 00 00 00 00 00 00 00  |................|
 D8B7  00 00 00 00 00 00 00 00 00 00 00 00 00 00 00 00  |................|
 D8C7  00 00 00 00 00 00 00 00 00 00 00 00 00 00 00 00  |................|
 D8D7  00 00 00 00 00 00 00 00 00 00 00 00 00 00 00 00  |................|
 D8E7  00 00 00 00 00 00 00 00 00 00 00 00 00 00 00 00  |................|
 D8F7  00 00 00 00 00 00 00 00 00 00 00 00 00 00 00 00  |................|
 D907  00 00 00 00 00 00 00 00 00 00 00 00 00 00 00 00  |................|
 D917  00 00 00 00 00 00 00 00 00 00 00 00 00 00 00 00  |................|
 D927  00 00 00 00 00 00 00 00 00 00 00 00 00 00 00 00  |................|
 D937  00 00 00 00 00 00 00 00 00 00 00 00 00 00 00 00  |................|
 D947  00 00 00 00 00 00 00 00 00 00 00 00 00 00 00 00  |................|
 D957  00 00 00 00 00 00 00 00 00 00 00 00 00 00 00 00  |................|
 D967  00 00 00 00 00 00 00 00 00 00 00 00 00 00 00 00  |................|
 D977  00 00 00 00 00 00 00 00 00 00 00 00 00 00 00 00  |................|
 D987  00 00 00 00 00 00 00 00 00 00 00 00 00 00 00 00  |................|
 D997  00 00 00 00 00 00 00 00 00 00 00 00 00 00 00 00  |................|
 D9A7  00 00 00 00 00 00 00 00 00 00 00 00 00 00 00 00  |................|
 D9B7  00 00 00 00 00 00 00 00 00 00 00 00 00 00 00 00  |................|
 D9C7  00 00 00 00 00 00 00 00 00 00 00 00 00 00 00 00  |................|
 D9D7  00 00 00 00 00 00 00 00 00 00 00 00 00 00 00 00  |................|
 D9E7  00 00 00 00 00 00 00 00 00 00 00 00 00 00 00 00  |................|
 D9F7  00 00 00 00 00 00 00 00 00 00 00 00 00 00 00 00  |................|
 DA07  00 00 00 00 00 00 00 00 00 00 00 00 00 00 00 00  |................|
 DA17  00 00 00 00 00 00 00 00 00 00 00 00 00 00 00 00  |................|
 DA27  00 00 00 00 00 00 00 00 00 00 00 00 00 00 00 00  |................|
 DA37  00 00 00 00 00 00 00 00 00 00 00 00 00 00 00 00  |................|
 DA47  00 00 00 00 00 00 00 00 00 00 00 00 00 00 00 00  |................|
 DA57  00 00 00 00 00 00 00 00 00 00 00 00 00 00 00 00  |................|
 DA67  00 00 00 00 00 00 00 00 00 00 00 00 00 00 00 00  |................|
 DA77  00 00 00 00 00 00 00 00 00 00 00 00 00 00 00 00  |................|
 DA87  00 00 00 00 00 00 00 00 00 00 00 00 00 00 00 00  |................|
 DA97  00 00 00 00 00 00 00 00 00 00 00 00 00 00 00 00  |................|
 DAA7  00 00 00 00 00 00 00 00 00 00 00 00 00 00 00 00  |................|
 DAB7  00 00 00 00 00 00 00 00 00 00 00 00 00 00 00 00  |................|
 DAC7  00 00 00 00 00 00 00 00 00 00 00 00 00 00 00 00  |................|
 DAD7  00 00 00 00 00 00 00 00 00 00 00 00 00 00 00 00  |................|
 DAE7  00 00 00 00 00 00 00 00 00 00 00 00 00 00 00 00  |................|
 DAF7  00 00 00 00 00 00 00 00 00 00 00 00 00 00 00 00  |................|
 DB07  00 00 00 00 00 00 00 00 00 00 00 00 00 00 00 00  |................|
 DB17  00 00 00 00 00 00 00 00 00 00 00 00 00 00 00 00  |................|
 DB27  00 00 00 00 00 00 00 00 00 00 00 00 00 00 00 00  |................|
 DB37  00 00 00 00 00 00 00 00 00 00 00 00 00 00 00 00  |................|
 DB47  00 00 00 00 00 00 00 00 00 00 00 00 00 00 00 00  |................|
 DB57  00 00 00 00 00 00 00 00 00 00 00 00 00 00 00 00  |................|
 DB67  00 00 00 00 00 00 00 00 00 00 00 00 00 00 00 00  |................|
 DB77  00 00 00 00 00 00 00 00 00 00 00 00 00 00 00 00  |................|
 DB87  00 00 00 00 00 00 00 00 00 00 00 00 00 00 00 00  |................|
 DB97  00 00 00 00 00 00 00 00 00 00 00 00 00 00 00 00  |................|
 DBA7  00 00 00 00 00 00 00 00 00 00 00 00 00 00 00 00  |................|
 DBB7  00 00 00 00 00 00 00 00 00 00 00 00 00 00 00 00  |................|
 DBC7  00 00 00 00 00 00 00 00 00 00 00 00 00 00 00 00  |................|
 DBD7  00 00 00 00 00 00 00 00 00 00 00 00 00 00 00 00  |................|
 DBE7  00 00 00 00 00 00 00 00 00 00 00 00 00 00 00 00  |................|
 DBF7  00 00 00 00 00 00 00 00 00 00 00 00 00 00 00 00  |................|
 DC07  00 00 00 00 00 00 00 00 00 00 00 00 00 00 00 00  |................|
 DC17  00 00 00 00 00 00 00 00 00 00 00 00 00 00 00 00  |................|
 DC27  00 00 00 00 00 00 00 00 00 00 00 00 00 00 00 00  |................|
 DC37  00 00 00 00 00 00 00 00 00 00 00 00 00 00 00 00  |................|
 DC47  00 00 00 00 00 00 00 00 00 00 00 00 00 00 00 00  |................|
 DC57  00 00 00 00 00 00 00 00 00 00 00 00 00 00 00 00  |................|
 DC67  00 00 00 00 00 00 00 00 00 00 00 00 00 00 00 00  |................|
 DC77  00 00 00 00 00 00 00 00 00 00 00 00 00 00 00 00  |................|
 DC87  00 00 00 00 00 00 00 00 00 00 00 00 00 00 00 00  |................|
 DC97  00 00 00 00 00 00 00 00 00 00 00 00 00 00 00 00  |................|
 DCA7  00 00 00 00 00 00 00 00 00 00 00 00 00 00 00 00  |................|
 DCB7  00 00 00 00 00 00 00 00 00 00 00 00 00 00 00 00  |................|
 DCC7  00 00 00 00 00 00 00 00 00 00 00 00 00 00 00 00  |................|
 DCD7  00 00 00 00 00 00 00 00 00 00 00 00 00 00 00 00  |................|
 DCE7  00 00 00 00 00 00 00 00 00 00 00 00 00 00 00 00  |................|
 DCF7  00 00 00 00 00 00 00 00 00 00 00 00 00 00 00 00  |................|
 DD07  00 00 00 00 00 00 00 00 00 00 00 00 00 00 00 00  |................|
 DD17  00 00 00 00 00 00 00 00 00 00 00 00 00 00 00 00  |................|
 DD27  00 00 00 00 00 00 00 00 00 00 00 00 00 00 00 00  |................|
 DD37  00 00 00 00 00 00 00 00 00 00 00 00 00 00 00 00  |................|
 DD47  00 00 00 00 00 00 00 00 00 00 00 00 00 00 00 00  |................|
 DD57  00 00 00 00 00 00 00 00 00 00 00 00 00 00 00 00  |................|
 DD67  00 00 00 00 00 00 00 00 00 00 00 00 00 00 00 00  |................|
 DD77  00 00 00 00 00 00 00 00 00 00 00 00 00 00 00 00  |................|
 DD87  00 00 00 00 00 00 00 00 00 00 00 00 00 00 00 00  |................|
 DD97  00 00 00 00 00 00 00 00 00 00 00 00 00 00 00 00  |................|
 DDA7  00 00 00 00 00 00 00 00 00 00 00 00 00 00 00 00  |................|
 DDB7  00 00 00 00 00 00 00 00 00 00 00 00 00 00 00 00  |................|
 DDC7  00 00 00 00 00 00 00 00 00 00 00 00 00 00 00 00  |................|
 DDD7  00 00 00 00 00 00 00 00 00 00 00 00 00 00 00 00  |................|
 DDE7  00 00 00 00 00 00 00 00 00 00 00 00 00 00 00 00  |................|
 DDF7  00 00 00 00 00 00 00 00 00 00 00 00 00 00 00 00  |................|
 DE07  00 00 00 00 00 00 00 00 00 00 00 00 00 00 00 00  |................|
 DE17  00 00 00 00 00 00 00 00 00 00 00 00 00 00 00 00  |................|
 DE27  00 00 00 00 00 00 00 00 00 00 00 00 00 00 00 00  |................|
 DE37  00 00 00 00 00 00 00 00 00 00 00 00 00 00 00 00  |................|
 DE47  00 00 00 00 00 00 00 00 00 00 00 00 00 00 00 00  |................|
 DE57  00 00 00 00 00 00 00 00 00 00 00 00 00 00 00 00  |................|
 DE67  00 00 00 00 00 00 00 00 00 00 00 00 00 00 00 00  |................|
 DE77  00 00 00 00 00 00 00 00 00 00 00 00 00 00 00 00  |................|
 DE87  00 00 00 00 00 00 00 00 00 00 00 00 00 00 00 00  |................|
 DE97  00 00 00 00 00 00 00 00 00 00 00 00 00 00 00 00  |................|
 DEA7  00 00 00 00 00 00 00 00 00 00 00 00 00 00 00 00  |................|
 DEB7  00 00 00 00 00 00 00 00 00 00 00 00 00 00 00 00  |................|
 DEC7  00 00 00 00 00 00 00 00 00 00 00 00 00 00 00 00  |................|
 DED7  00 00 00 00 00 00 00 00 00 00 00 00 00 00 00 00  |................|
 DEE7  00 00 00 00 00 00 00 00 00 00 00 00 00 00 00 00  |................|
 DEF7  00 00 00 00 00 00 00 00 00 00 00 00 00 00 00 00  |................|
 DF07  00 00 00 00 00 00 00 00 00 00 00 00 00 00 00 00  |................|
 DF17  00 00 00 00 00 00 00 00 00 00 00 00 00 00 00 00  |................|
 DF27  00 00 00 00 00 00 00 00 00 00 00 00 00 00 00 00  |................|
 DF37  00 00 00 00 00 00 00 00 00 00 00 00 00 00 00 00  |................|
 DF47  00 00 00 00 00 00 00 00 00 00 00 00 00 00 00 00  |................|
 DF57  00 00 00 00 00 00 00 00 00 00 00 00 00 00 00 00  |................|
 DF67  00 00 00 00 00 00 00 00 00 00 00 00 00 00 00 00  |................|
 DF77  00 00 00 00 00 00 00 00 00 00 00 00 00 00 00 00  |................|
 DF87  00 00 00 00 00 00 00 00 00 00 00 00 00 00 00 00  |................|
 DF97  00 00 00 00 00 00 00 00 00 00 00 00 00 00 00 00  |................|
 DFA7  00 00 00 00 00 00 00 00 00 00 00 00 00 00 00 00  |................|
 DFB7  00 00 00 00 00 00 00 00 00 00 00 00 00 00 00 00  |................|
 DFC7  00 00 00 00 00 00 00 00 00 00 00 00 00 00 00 00  |................|
 DFD7  00 00 00 00 00 00 00 00 00 00 00 00 00 00 00 00  |................|
 DFE7  00 00 00 00 00 00 00 00 00 00 00 00 00 00 00 00  |................|
 DFF7  00 00 00 00 00 00 00 00 00 00 00 00 00 00 00 00  |................|
 E007  00 00 00 00 00 00 00 00 00 00 00 00 00 00 00 00  |................|
 E017  00 00 00 00 00 00 00 00 00 00 00 00 00 00 00 00  |................|
 E027  00 00 00 00 00 00 00 00 00 00 00 00 00 00 00 00  |................|
 E037  00 00 00 00 00 00 00 00 00 00 00 00 00 00 00 00  |................|
 E047  00 00 00 00 00 00 00 00 00 00 00 00 00 00 00 00  |................|
 E057  00 00 00 00 00 00 00 00 00 00 00 00 00 00 00 00  |................|
 E067  00 00 00 00 00 00 00 00 00 00 00 00 00 00 00 00  |................|
 E077  00 00 00 00 00 00 00 00 00 00 00 00 00 00 00 00  |................|
 E087  00 00 00 00 00 00 00 00 00 00 00 00 00 00 00 00  |................|
 E097  00 00 00 00 00 00 00 00 00 00 00 00 00 00 00 00  |................|
 E0A7  00 00 00 00 00 00 00 00 00 00 00 00 00 00 00 00  |................|
 E0B7  00 00 00 00 00 00 00 00 00 00 00 00 00 00 00 00  |................|
 E0C7  00 00 00 00 00 00 00 00 00 00 00 00 00 00 00 00  |................|
 E0D7  00 00 00 00 00 00 00 00 00 00 00 00 00 00 00 00  |................|
 E0E7  00 00 00 00 00 00 00 00 00 00 00 00 00 00 00 00  |................|
 E0F7  00 00 00 00 00 00 00 00 00 00 00 00 00 00 00 00  |................|
 E107  00 00 00 00 00 00 00 00 00 00 00 00 00 00 00 00  |................|
 E117  00 00 00 00 00 00 00 00 00 00 00 00 00 00 00 00  |................|
 E127  00 00 00 00 00 00 00 00 00 00 00 00 00 00 00 00  |................|
 E137  00 00 00 00 00 00 00 00 00 00 00 00 00 00 00 00  |................|
 E147  00 00 00 00 00 00 00 00 00 00 00 00 00 00 00 00  |................|
 E157  00 00 00 00 00 00 00 00 00 00 00 00 00 00 00 00  |................|
 E167  00 00 00 00 00 00 00 00 00 00 00 00 00 00 00 00  |................|
 E177  00 00 00 00 00 00 00 00 00 00 00 00 00 00 00 00  |................|
 E187  00 00 00 00 00 00 00 00 00 00 00 00 00 00 00 00  |................|
 E197  00 00 00 00 00 00 00 00 00 00 00 00 00 00 00 00  |................|
 E1A7  00 00 00 00 00 00 00 00 00 00 00 00 00 00 00 00  |................|
 E1B7  00 00 00 00 00 00 00 00 00 00 00 00 00 00 00 00  |................|
 E1C7  00 00 00 00 00 00 00 00 00 00 00 00 00 00 00 00  |................|
 E1D7  00 00 00 00 00 00 00 00 00 00 00 00 00 00 00 00  |................|
 E1E7  00 00 00 00 00 00 00 00 00 00 00 00 00 00 00 00  |................|
 E1F7  00 00 00 00 00 00 00 00 00 00 00 00 00 00 00 00  |................|
 E207  00 00 00 00 00 00 00 00 00 00 00 00 00 00 00 00  |................|
 E217  00 00 00 00 00 00 00 00 00 00 00 00 00 00 00 00  |................|
 E227  00 00 00 00 00 00 00 00 00 00 00 00 00 00 00 00  |................|
 E237  00 00 00 00 00 00 00 00 00 00 00 00 00 00 00 00  |................|
 E247  00 00 00 00 00 00 00 00 00 00 00 00 00 00 00 00  |................|
 E257  00 00 00 00 00 00 00 00 00 00 00 00 00 00 00 00  |................|
 E267  00 00 00 00 00 00 00 00 00 00 00 00 00 00 00 00  |................|
 E277  00 00 00 00 00 00 00 00 00 00 00 00 00 00 00 00  |................|
 E287  00 00 00 00 00 00 00 00 00 00 00 00 00 00 00 00  |................|
 E297  00 00 00 00 00 00 00 00 00 00 00 00 00 00 00 00  |................|
 E2A7  00 00 00 00 00 00 00 00 00 00 00 00 00 00 00 00  |................|
 E2B7  00 00 00 00 00 00 00 00 00 00 00 00 00 00 00 00  |................|
 E2C7  00 00 00 00 00 00 00 00 00 00 00 00 00 00 00 00  |................|
 E2D7  00 00 00 00 00 00 00 00 00 00 00 00 00 00 00 00  |................|
 E2E7  00 00 00 00 00 00 00 00 00 00 00 00 00 00 00 00  |................|
 E2F7  00 00 00 00 00 00 00 00 00 00 00 00 00 00 00 00  |................|
 E307  00 00 00 00 00 00 00 00 00 00 00 00 00 00 00 00  |................|
 E317  00 00 00 00 00 00 00 00 00 00 00 00 00 00 00 00  |................|
 E327  00 00 00 00 00 00 00 00 00 00 00 00 00 00 00 00  |................|
 E337  00 00 00 00 00 00 00 00 00 00 00 00 00 00 00 00  |................|
 E347  00 00 00 00 00 00 00 00 00 00 00 00 00 00 00 00  |................|
 E357  00 00 00 00 00 00 00 00 00 00 00 00 00 00 00 00  |................|
 E367  00 00 00 00 00 00 00 00 00 00 00 00 00 00 00 00  |................|
 E377  00 00 00 00 00 00 00 00 00 00 00 00 00 00 00 00  |................|
 E387  00 00 00 00 00 00 00 00 00 00 00 00 00 00 00 00  |................|
 E397  00 00 00 00 00 00 00 00 00 00 00 00 00 00 00 00  |................|
 E3A7  00 00 00 00 00 00 00 00 00 00 00 00 00 00 00 00  |................|
 E3B7  00 00 00 00 00 00 00 00 00 00 00 00 00 00 00 00  |................|
 E3C7  00 00 00 00 00 00 00 00 00 00 00 00 00 00 00 00  |................|
 E3D7  00 00 00 00 00 00 00 00 00 00 00 00 00 00 00 00  |................|
 E3E7  00 00 00 00 00 00 00 00 00 00 00 00 00 00 00 00  |................|
 E3F7  00 00 00 00 00 00 00 00 00 00 00 00 00 00 00 00  |................|
 E407  00 00 00 00 00 00 00 00 00 00 00 00 00 00 00 00  |................|
 E417  00 00 00 00 00 00 00 00 00 00 00 00 00 00 00 00  |................|
 E427  00 00 00 00 00 00 00 00 00 00 00 00 00 00 00 00  |................|
 E437  00 00 00 00 00 00 00 00 00 00 00 00 00 00 00 00  |................|
 E447  00 00 00 00 00 00 00 00 00 00 00 00 00 00 00 00  |................|
 E457  00 00 00 00 00 00 00 00 00 00 00 00 00 00 00 00  |................|
 E467  00 00 00 00 00 00 00 00 00 00 00 00 00 00 00 00  |................|
 E477  00 00 00 00 00 00 00 00 00 00 00 00 00 00 00 00  |................|
 E487  00 00 00 00 00 00 00 00 00 00 00 00 00 00 00 00  |................|
 E497  00 00 00 00 00 00 00 00 00 00 00 00 00 00 00 00  |................|
 E4A7  00 00 00 00 00 00 00 00 00 00 00 00 00 00 00 00  |................|
 E4B7  00 00 00 00 00 00 00 00 00 00 00 00 00 00 00 00  |................|
 E4C7  00 00 00 00 00 00 00 00 00 00 00 00 00 00 00 00  |................|
 E4D7  00 00 00 00 00 00 00 00 00 00 00 00 00 00 00 00  |................|
 E4E7  00 00 00 00 00 00 00 00 00 00 00 00 00 00 00 00  |................|
 E4F7  00 00 00 00 00 00 00 00 00 00 00 00 00 00 00 00  |................|
 E507  00 00 00 00 00 00 00 00 00 00 00 00 00 00 00 00  |................|
 E517  00 00 00 00 00 00 00 00 00 00 00 00 00 00 00 00  |................|
 E527  00 00 00 00 00 00 00 00 00 00 00 00 00 00 00 00  |................|
 E537  00 00 00 00 00 00 00 00 00 00 00 00 00 00 00 00  |................|
 E547  00 00 00 00 00 00 00 00 00 00 00 00 00 00 00 00  |................|
 E557  00 00 00 00 00 00 00 00 00 00 00 00 00 00 00 00  |................|
 E567  00 00 00 00 00 00 00 00 00 00 00 00 00 00 00 00  |................|
 E577  00 00 00 00 00 00 00 00 00 00 00 00 00 00 00 00  |................|
 E587  00 00 00 00 00 00 00 00 00 00 00 00 00 00 00 00  |................|
 E597  00 00 00 00 00 00 00 00 00 00 00 00 00 00 00 00  |................|
 E5A7  00 00 00 00 00 00 00 00 00 00 00 00 00 00 00 00  |................|
 E5B7  00 00 00 00 00 00 00 00 00 00 00 00 00 00 00 00  |................|
 E5C7  00 00 00 00 00 00 00 00 00 00 00 00 00 00 00 00  |................|
 E5D7  00 00 00 00 00 00 00 00 00 00 00 00 00 00 00 00  |................|
 E5E7  00 00 00 00 00 00 00 00 00 00 00 00 00 00 00 00  |................|
 E5F7  00 00 00 00 00 00 00 00 00 00 00 00 00 00 00 00  |................|
 E607  00 00 00 00 00 00 00 00 00 00 00 00 00 00 00 00  |................|
 E617  00 00 00 00 00 00 00 00 00 00 00 00 00 00 00 00  |................|
 E627  00 00 00 00 00 00 00 00 00 00 00 00 00 00 00 00  |................|
 E637  00 00 00 00 00 00 00 00 00 00 00 00 00 00 00 00  |................|
 E647  00 00 00 00 00 00 00 00 00 00 00 00 00 00 00 00  |................|
 E657  00 00 00 00 00 00 00 00 00 00 00 00 00 00 00 00  |................|
 E667  00 00 00 00 00 00 00 00 00 00 00 00 00 00 00 00  |................|
 E677  00 00 00 00 00 00 00 00 00 00 00 00 00 00 00 00  |................|
 E687  00 00 00 00 00 00 00 00 00 00 00 00 00 00 00 00  |................|
 E697  00 00 00 00 00 00 00 00 00 00 00 00 00 00 00 00  |................|
 E6A7  00 00 00 00 00 00 00 00 00 00 00 00 00 00 00 00  |................|
 E6B7  00 00 00 00 00 00 00 00 00 00 00 00 00 00 00 00  |................|
 E6C7  00 00 00 00 00 00 00 00 00 00 00 00 00 00 00 00  |................|
 E6D7  00 00 00 00 00 00 00 00 00 00 00 00 00 00 00 00  |................|
 E6E7  00 00 00 00 00 00 00 00 00 00 00 00 00 00 00 00  |................|
 E6F7  00 00 00 00 00 00 00 00 00 00 00 00 00 00 00 00  |................|
 E707  00 00 00 00 00 00 00 00 00 00 00 00 00 00 00 00  |................|
 E717  00 00 00 00 00 00 00 00 00 00 00 00 00 00 00 00  |................|
 E727  00 00 00 00 00 00 00 00 00 00 00 00 00 00 00 00  |................|
 E737  00 00 00 00 00 00 00 00 00 00 00 00 00 00 00 00  |................|
 E747  00 00 00 00 00 00 00 00 00 00 00 00 00 00 00 00  |................|
 E757  00 00 00 00 00 00 00 00 00 00 00 00 00 00 00 00  |................|
 E767  00 00 00 00 00 00 00 00 00 00 00 00 00 00 00 00  |................|
 E777  00 00 00 00 00 00 00 00 00 00 00 00 00 00 00 00  |................|
 E787  00 00 00 00 00 00 00 00 00 00 00 00 00 00 00 00  |................|
 E797  00 00 00 00 00 00 00 00 00 00 00 00 00 00 00 00  |................|
 E7A7  00 00 00 00 00 00 00 00 00 00 00 00 00 00 00 00  |................|
 E7B7  00 00 00 00 00 00 00 00 00 00 00 00 00 00 00 00  |................|
 E7C7  00 00 00 00 00 00 00 00 00 00 00 00 00 00 00 00  |................|
 E7D7  00 00 00 00 00 00 00 00 00 00 00 00 00 00 00 00  |................|
 E7E7  00 00 00 00 00 00 00 00 00 00 00 00 00 00 00 00  |................|
 E7F7  00 00 00 00 00 00 00 00 00 00 00 00 00 00 00 00  |................|
 E807  00 00 00 00 00 00 00 00 00 00 00 00 00 00 00 00  |................|
 E817  00 00 00 00 00 00 00 00 00 00 00 00 00 00 00 00  |................|
 E827  00 00 00 00 00 00 00 00 00 00 00 00 00 00 00 00  |................|
 E837  00 00 00 00 00 00 00 00 00 00 00 00 00 00 00 00  |................|
 E847  00 00 00 00 00 00 00 00 00 00 00 00 00 00 00 00  |................|
 E857  00 00 00 00 00 00 00 00 00 00 00 00 00 00 00 00  |................|
 E867  00 00 00 00 00 00 00 00 00 00 00 00 00 00 00 00  |................|
 E877  00 00 00 00 00 00 00 00 00 00 00 00 00 00 00 00  |................|
 E887  00 00 00 00 00 00 00 00 00 00 00 00 00 00 00 00  |................|
 E897  00 00 00 00 00 00 00 00 00 00 00 00 00 00 00 00  |................|
 E8A7  00 00 00 00 00 00 00 00 00 00 00 00 00 00 00 00  |................|
 E8B7  00 00 00 00 00 00 00 00 00 00 00 00 00 00 00 00  |................|
 E8C7  00 00 00 00 00 00 00 00 00 00 00 00 00 00 00 00  |................|
 E8D7  00 00 00 00 00 00 00 00 00 00 00 00 00 00 00 00  |................|
 E8E7  00 00 00 00 00 00 00 00 00 00 00 00 00 00 00 00  |................|
 E8F7  00 00 00 00 00 00 00 00 00 00 00 00 00 00 00 00  |................|
 E907  00 00 00 00 00 00 00 00 00 00 00 00 00 00 00 00  |................|
 E917  00 00 00 00 00 00 00 00 00 00 00 00 00 00 00 00  |................|
 E927  00 00 00 00 00 00 00 00 00 00 00 00 00 00 00 00  |................|
 E937  00 00 00 00 00 00 00 00 00 00 00 00 00 00 00 00  |................|
 E947  00 00 00 00 00 00 00 00 00 00 00 00 00 00 00 00  |................|
 E957  00 00 00 00 00 00 00 00 00 00 00 00 00 00 00 00  |................|
 E967  00 00 00 00 00 00 00 00 00 00 00 00 00 00 00 00  |................|
 E977  00 00 00 00 00 00 00 00 00 00 00 00 00 00 00 00  |................|
 E987  00 00 00 00 00 00 00 00 00 00 00 00 00 00 00 00  |................|
 E997  00 00 00 00 00 00 00 00 00 00 00 00 00 00 00 00  |................|
 E9A7  00 00 00 00 00 00 00 00 00 00 00 00 00 00 00 00  |................|
 E9B7  00 00 00 00 00 00 00 00 00 00 00 00 00 00 00 00  |................|
 E9C7  00 00 00 00 00 00 00 00 00 00 00 00 00 00 00 00  |................|
 E9D7  00 00 00 00 00 00 00 00 00 00 00 00 00 00 00 00  |................|
 E9E7  00 00 00 00 00 00 00 00 00 00 00 00 00 00 00 00  |................|
 E9F7  00 00 00 00 00 00 00 00 00 00 00 00 00 00 00 00  |................|
 EA07  00 00 00 00 00 00 00 00 00 00 00 00 00 00 00 00  |................|
 EA17  00 00 00 00 00 00 00 00 00 00 00 00 00 00 00 00  |................|
 EA27  00 00 00 00 00 00 00 00 00 00 00 00 00 00 00 00  |................|
 EA37  00 00 00 00 00 00 00 00 00 00 00 00 00 00 00 00  |................|
 EA47  00 00 00 00 00 00 00 00 00 00 00 00 00 00 00 00  |................|
 EA57  00 00 00 00 00 00 00 00 00 00 00 00 00 00 00 00  |................|
 EA67  00 00 00 00 00 00 00 00 00 00 00 00 00 00 00 00  |................|
 EA77  00 00 00 00 00 00 00 00 00 00 00 00 00 00 00 00  |................|
 EA87  00 00 00 00 00 00 00 00 00 00 00 00 00 00 00 00  |................|
 EA97  00 00 00 00 00 00 00 00 00 00 00 00 00 00 00 00  |................|
 EAA7  00 00 00 00 00 00 00 00 00 00 00 00 00 00 00 00  |................|
 EAB7  00 00 00 00 00 00 00 00 00 00 00 00 00 00 00 00  |................|
 EAC7  00 00 00 00 00 00 00 00 00 00 00 00 00 00 00 00  |................|
 EAD7  00 00 00 00 00 00 00 00 00 00 00 00 00 00 00 00  |................|
 EAE7  00 00 00 00 00 00 00 00 00 00 00 00 00 00 00 00  |................|
 EAF7  00 00 00 00 00 00 00 00 00 00 00 00 00 00 00 00  |................|
 EB07  00 00 00 00 00 00 00 00 00 00 00 00 00 00 00 00  |................|
 EB17  00 00 00 00 00 00 00 00 00 00 00 00 00 00 00 00  |................|
 EB27  00 00 00 00 00 00 00 00 00 00 00 00 00 00 00 00  |................|
 EB37  00 00 00 00 00 00 00 00 00 00 00 00 00 00 00 00  |................|
 EB47  00 00 00 00 00 00 00 00 00 00 00 00 00 00 00 00  |................|
 EB57  00 00 00 00 00 00 00 00 00 00 00 00 00 00 00 00  |................|
 EB67  00 00 00 00 00 00 00 00 00 00 00 00 00 00 00 00  |................|
 EB77  00 00 00 00 00 00 00 00 00 00 00 00 00 00 00 00  |................|
 EB87  00 00 00 00 00 00 00 00 00 00 00 00 00 00 00 00  |................|
 EB97  00 00 00 00 00 00 00 00 00 00 00 00 00 00 00 00  |................|
 EBA7  00 00 00 00 00 00 00 00 00 00 00 00 00 00 00 00  |................|
 EBB7  00 00 00 00 00 00 00 00 00 00 00 00 00 00 00 00  |................|
 EBC7  00 00 00 00 00 00 00 00 00 00 00 00 00 00 00 00  |................|
 EBD7  00 00 00 00 00 00 00 00 00 00 00 00 00 00 00 00  |................|
 EBE7  00 00 00 00 00 00 00 00 00 00 00 00 00 00 00 00  |................|
 EBF7  00 00 00 00 00 00 00 00 00 00 00 00 00 00 00 00  |................|
 EC07  00 00 00 00 00 00 00 00 00 00 00 00 00 00 00 00  |................|
 EC17  00 00 00 00 00 00 00 00 00 00 00 00 00 00 00 00  |................|
 EC27  00 00 00 00 00 00 00 00 00 00 00 00 00 00 00 00  |................|
 EC37  00 00 00 00 00 00 00 00 00 00 00 00 00 00 00 00  |................|
 EC47  00 00 00 00 00 00 00 00 00 00 00 00 00 00 00 00  |................|
 EC57  00 00 00 00 00 00 00 00 00 00 00 00 00 00 00 00  |................|
 EC67  00 00 00 00 00 00 00 00 00 00 00 00 00 00 00 00  |................|
 EC77  00 00 00 00 00 00 00 00 00 00 00 00 00 00 00 00  |................|
 EC87  00 00 00 00 00 00 00 00 00 00 00 00 00 00 00 00  |................|
 EC97  00 00 00 00 00 00 00 00 00 00 00 00 00 00 00 00  |................|
 ECA7  00 00 00 00 00 00 00 00 00 00 00 00 00 00 00 00  |................|
 ECB7  00 00 00 00 00 00 00 00 00 00 00 00 00 00 00 00  |................|
 ECC7  00 00 00 00 00 00 00 00 00 00 00 00 00 00 00 00  |................|
 ECD7  00 00 00 00 00 00 00 00 00 00 00 00 00 00 00 00  |................|
 ECE7  00 00 00 00 00 00 00 00 00 00 00 00 00 00 00 00  |................|
 ECF7  00 00 00 00 00 00 00 00 00 00 00 00 00 00 00 00  |................|
 ED07  00 00 00 00 00 00 00 00 00 00 00 00 00 00 00 00  |................|
 ED17  00 00 00 00 00 00 00 00 00 00 00 00 00 00 00 00  |................|
 ED27  00 00 00 00 00 00 00 00 00 00 00 00 00 00 00 00  |................|
 ED37  00 00 00 00 00 00 00 00 00 00 00 00 00 00 00 00  |................|
 ED47  00 00 00 00 00 00 00 00 00 00 00 00 00 00 00 00  |................|
 ED57  00 00 00 00 00 00 00 00 00 00 00 00 00 00 00 00  |................|
 ED67  00 00 00 00 00 00 00 00 00 00 00 00 00 00 00 00  |................|
 ED77  00 00 00 00 00 00 00 00 00 00 00 00 00 00 00 00  |................|
 ED87  00 00 00 00 00 00 00 00 00 00 00 00 00 00 00 00  |................|
 ED97  00 00 00 00 00 00 00 00 00 00 00 00 00 00 00 00  |................|
 EDA7  00 00 00 00 00 00 00 00 00 00 00 00 00 00 00 00  |................|
 EDB7  00 00 00 00 00 00 00 00 00 00 00 00 00 00 00 00  |................|
 EDC7  00 00 00 00 00 00 00 00 00 00 00 00 00 00 00 00  |................|
 EDD7  00 00 00 00 00 00 00 00 00 00 00 00 00 00 00 00  |................|
 EDE7  00 00 00 00 00 00 00 00 00 00 00 00 00 00 00 00  |................|
 EDF7  00 00 00 00 00 00 00 00 00 00 00 00 00 00 00 00  |................|
 EE07  00 00 00 00 00 00 00 00 00 00 00 00 00 00 00 00  |................|
 EE17  00 00 00 00 00 00 00 00 00 00 00 00 00 00 00 00  |................|
 EE27  00 00 00 00 00 00 00 00 00 00 00 00 00 00 00 00  |................|
 EE37  00 00 00 00 00 00 00 00 00 00 00 00 00 00 00 00  |................|
 EE47  00 00 00 00 00 00 00 00 00 00 00 00 00 00 00 00  |................|
 EE57  00 00 00 00 00 00 00 00 00 00 00 00 00 00 00 00  |................|
 EE67  00 00 00 00 00 00 00 00 00 00 00 00 00 00 00 00  |................|
 EE77  00 00 00 00 00 00 00 00 00 00 00 00 00 00 00 00  |................|
 EE87  00 00 00 00 00 00 00 00 00 00 00 00 00 00 00 00  |................|
 EE97  00 00 00 00 00 00 00 00 00 00 00 00 00 00 00 00  |................|
 EEA7  00 00 00 00 00 00 00 00 00 00 00 00 00 00 00 00  |................|
 EEB7  00 00 00 00 00 00 00 00 00 00 00 00 00 00 00 00  |................|
 EEC7  00 00 00 00 00 00 00 00 00 00 00 00 00 00 00 00  |................|
 EED7  00 00 00 00 00 00 00 00 00 00 00 00 00 00 00 00  |................|
 EEE7  00 00 00 00 00 00 00 00 00 00 00 00 00 00 00 00  |................|
 EEF7  00 00 00 00 00 00 00 00 00 00 00 00 00 00 00 00  |................|
 EF07  00 00 00 00 00 00 00 00 00 00 00 00 00 00 00 00  |................|
 EF17  00 00 00 00 00 00 00 00 00 00 00 00 00 00 00 00  |................|
 EF27  00 00 00 00 00 00 00 00 00 00 00 00 00 00 00 00  |................|
 EF37  00 00 00 00 00 00 00 00 00 00 00 00 00 00 00 00  |................|
 EF47  00 00 00 00 00 00 00 00 00 00 00 00 00 00 00 00  |................|
 EF57  00 00 00 00 00 00 00 00 00 00 00 00 00 00 00 00  |................|
 EF67  00 00 00 00 00 00 00 00 00 00 00 00 00 00 00 00  |................|
 EF77  00 00 00 00 00 00 00 00 00 00 00 00 00 00 00 00  |................|
 EF87  00 00 00 00 00 00 00 00 00 00 00 00 00 00 00 00  |................|
 EF97  00 00 00 00 00 00 00 00 00 00 00 00 00 00 00 00  |................|
 EFA7  00 00 00 00 00 00 00 00 00 00 00 00 00 00 00 00  |................|
 EFB7  00 00 00 00 00 00 00 00 00 00 00 00 00 00 00 00  |................|
 EFC7  00 00 00 00 00 00 00 00 00 00 00 00 00 00 00 00  |................|
 EFD7  00 00 00 00 00 00 00 00 00 00 00 00 00 00 00 00  |................|
 EFE7  00 00 00 00 00 00 00 00 00 00 00 00 00 00 00 00  |................|
 EFF7  00 00 00 00 00 00 00 00 00 00 00 00 00 00 00     |............... |
 F006  A2 00     LDX  #$00
 F008  BD 20 F0  LDA  $F020, X
 F00B  F0 06     BEQ  $F013
 F00D  20 1C F0  JSR  $F01C
 F010  E8        INX  
 F011  80 F5     BRA  $F008
 F013  4C 00 80  JMP  $8000
 F016  AD 04 F0  LDA  $F004
 F019  F0 FB     BEQ  $F016
 F01B  60        RTS  
 F01C  8D 01 F0  STA  $F001
 F01F  60        RTS  
 F020  54 61 6C 69 20 46 6F 72 74 68 20 32 20 64 65 66  |Tali Forth 2 def|
 F030  61 75 6C 74 20 6B 65 72 6E 65 6C 20 66 6F 72 20  |ault kernel for |
 F040  70 79 36 35 6D 6F 6E 20 28 31 38 2E 20 46 65 62  |py65mon (18. Feb|
 F050  20 32 30 31 38 29 0A 00 00 00 00 00 00 00 00 00  | 2018)..........|
 F060  00 00 00 00 00 00 00 00 00 00 00 00 00 00 00 00  |................|
 F070  00 00 00 00 00 00 00 00 00 00 00 00 00 00 00 00  |................|
 F080  00 00 00 00 00 00 00 00 00 00 00 00 00 00 00 00  |................|
 F090  00 00 00 00 00 00 00 00 00 00 00 00 00 00 00 00  |................|
 F0A0  00 00 00 00 00 00 00 00 00 00 00 00 00 00 00 00  |................|
 F0B0  00 00 00 00 00 00 00 00 00 00 00 00 00 00 00 00  |................|
 F0C0  00 00 00 00 00 00 00 00 00 00 00 00 00 00 00 00  |................|
 F0D0  00 00 00 00 00 00 00 00 00 00 00 00 00 00 00 00  |................|
 F0E0  00 00 00 00 00 00 00 00 00 00 00 00 00 00 00 00  |................|
 F0F0  00 00 00 00 00 00 00 00 00 00 00 00 00 00 00 00  |................|
 F100  00 00 00 00 00 00 00 00 00 00 00 00 00 00 00 00  |................|
 F110  00 00 00 00 00 00 00 00 00 00 00 00 00 00 00 00  |................|
 F120  00 00 00 00 00 00 00 00 00 00 00 00 00 00 00 00  |................|
 F130  00 00 00 00 00 00 00 00 00 00 00 00 00 00 00 00  |................|
 F140  00 00 00 00 00 00 00 00 00 00 00 00 00 00 00 00  |................|
 F150  00 00 00 00 00 00 00 00 00 00 00 00 00 00 00 00  |................|
 F160  00 00 00 00 00 00 00 00 00 00 00 00 00 00 00 00  |................|
 F170  00 00 00 00 00 00 00 00 00 00 00 00 00 00 00 00  |................|
 F180  00 00 00 00 00 00 00 00 00 00 00 00 00 00 00 00  |................|
 F190  00 00 00 00 00 00 00 00 00 00 00 00 00 00 00 00  |................|
 F1A0  00 00 00 00 00 00 00 00 00 00 00 00 00 00 00 00  |................|
 F1B0  00 00 00 00 00 00 00 00 00 00 00 00 00 00 00 00  |................|
 F1C0  00 00 00 00 00 00 00 00 00 00 00 00 00 00 00 00  |................|
 F1D0  00 00 00 00 00 00 00 00 00 00 00 00 00 00 00 00  |................|
 F1E0  00 00 00 00 00 00 00 00 00 00 00 00 00 00 00 00  |................|
 F1F0  00 00 00 00 00 00 00 00 00 00 00 00 00 00 00 00  |................|
 F200  00 00 00 00 00 00 00 00 00 00 00 00 00 00 00 00  |................|
 F210  00 00 00 00 00 00 00 00 00 00 00 00 00 00 00 00  |................|
 F220  00 00 00 00 00 00 00 00 00 00 00 00 00 00 00 00  |................|
 F230  00 00 00 00 00 00 00 00 00 00 00 00 00 00 00 00  |................|
 F240  00 00 00 00 00 00 00 00 00 00 00 00 00 00 00 00  |................|
 F250  00 00 00 00 00 00 00 00 00 00 00 00 00 00 00 00  |................|
 F260  00 00 00 00 00 00 00 00 00 00 00 00 00 00 00 00  |................|
 F270  00 00 00 00 00 00 00 00 00 00 00 00 00 00 00 00  |................|
 F280  00 00 00 00 00 00 00 00 00 00 00 00 00 00 00 00  |................|
 F290  00 00 00 00 00 00 00 00 00 00 00 00 00 00 00 00  |................|
 F2A0  00 00 00 00 00 00 00 00 00 00 00 00 00 00 00 00  |................|
 F2B0  00 00 00 00 00 00 00 00 00 00 00 00 00 00 00 00  |................|
 F2C0  00 00 00 00 00 00 00 00 00 00 00 00 00 00 00 00  |................|
 F2D0  00 00 00 00 00 00 00 00 00 00 00 00 00 00 00 00  |................|
 F2E0  00 00 00 00 00 00 00 00 00 00 00 00 00 00 00 00  |................|
 F2F0  00 00 00 00 00 00 00 00 00 00 00 00 00 00 00 00  |................|
 F300  00 00 00 00 00 00 00 00 00 00 00 00 00 00 00 00  |................|
 F310  00 00 00 00 00 00 00 00 00 00 00 00 00 00 00 00  |................|
 F320  00 00 00 00 00 00 00 00 00 00 00 00 00 00 00 00  |................|
 F330  00 00 00 00 00 00 00 00 00 00 00 00 00 00 00 00  |................|
 F340  00 00 00 00 00 00 00 00 00 00 00 00 00 00 00 00  |................|
 F350  00 00 00 00 00 00 00 00 00 00 00 00 00 00 00 00  |................|
 F360  00 00 00 00 00 00 00 00 00 00 00 00 00 00 00 00  |................|
 F370  00 00 00 00 00 00 00 00 00 00 00 00 00 00 00 00  |................|
 F380  00 00 00 00 00 00 00 00 00 00 00 00 00 00 00 00  |................|
 F390  00 00 00 00 00 00 00 00 00 00 00 00 00 00 00 00  |................|
 F3A0  00 00 00 00 00 00 00 00 00 00 00 00 00 00 00 00  |................|
 F3B0  00 00 00 00 00 00 00 00 00 00 00 00 00 00 00 00  |................|
 F3C0  00 00 00 00 00 00 00 00 00 00 00 00 00 00 00 00  |................|
 F3D0  00 00 00 00 00 00 00 00 00 00 00 00 00 00 00 00  |................|
 F3E0  00 00 00 00 00 00 00 00 00 00 00 00 00 00 00 00  |................|
 F3F0  00 00 00 00 00 00 00 00 00 00 00 00 00 00 00 00  |................|
 F400  00 00 00 00 00 00 00 00 00 00 00 00 00 00 00 00  |................|
 F410  00 00 00 00 00 00 00 00 00 00 00 00 00 00 00 00  |................|
 F420  00 00 00 00 00 00 00 00 00 00 00 00 00 00 00 00  |................|
 F430  00 00 00 00 00 00 00 00 00 00 00 00 00 00 00 00  |................|
 F440  00 00 00 00 00 00 00 00 00 00 00 00 00 00 00 00  |................|
 F450  00 00 00 00 00 00 00 00 00 00 00 00 00 00 00 00  |................|
 F460  00 00 00 00 00 00 00 00 00 00 00 00 00 00 00 00  |................|
 F470  00 00 00 00 00 00 00 00 00 00 00 00 00 00 00 00  |................|
 F480  00 00 00 00 00 00 00 00 00 00 00 00 00 00 00 00  |................|
 F490  00 00 00 00 00 00 00 00 00 00 00 00 00 00 00 00  |................|
 F4A0  00 00 00 00 00 00 00 00 00 00 00 00 00 00 00 00  |................|
 F4B0  00 00 00 00 00 00 00 00 00 00 00 00 00 00 00 00  |................|
 F4C0  00 00 00 00 00 00 00 00 00 00 00 00 00 00 00 00  |................|
 F4D0  00 00 00 00 00 00 00 00 00 00 00 00 00 00 00 00  |................|
 F4E0  00 00 00 00 00 00 00 00 00 00 00 00 00 00 00 00  |................|
 F4F0  00 00 00 00 00 00 00 00 00 00 00 00 00 00 00 00  |................|
 F500  00 00 00 00 00 00 00 00 00 00 00 00 00 00 00 00  |................|
 F510  00 00 00 00 00 00 00 00 00 00 00 00 00 00 00 00  |................|
 F520  00 00 00 00 00 00 00 00 00 00 00 00 00 00 00 00  |................|
 F530  00 00 00 00 00 00 00 00 00 00 00 00 00 00 00 00  |................|
 F540  00 00 00 00 00 00 00 00 00 00 00 00 00 00 00 00  |................|
 F550  00 00 00 00 00 00 00 00 00 00 00 00 00 00 00 00  |................|
 F560  00 00 00 00 00 00 00 00 00 00 00 00 00 00 00 00  |................|
 F570  00 00 00 00 00 00 00 00 00 00 00 00 00 00 00 00  |................|
 F580  00 00 00 00 00 00 00 00 00 00 00 00 00 00 00 00  |................|
 F590  00 00 00 00 00 00 00 00 00 00 00 00 00 00 00 00  |................|
 F5A0  00 00 00 00 00 00 00 00 00 00 00 00 00 00 00 00  |................|
 F5B0  00 00 00 00 00 00 00 00 00 00 00 00 00 00 00 00  |................|
 F5C0  00 00 00 00 00 00 00 00 00 00 00 00 00 00 00 00  |................|
 F5D0  00 00 00 00 00 00 00 00 00 00 00 00 00 00 00 00  |................|
 F5E0  00 00 00 00 00 00 00 00 00 00 00 00 00 00 00 00  |................|
 F5F0  00 00 00 00 00 00 00 00 00 00 00 00 00 00 00 00  |................|
 F600  00 00 00 00 00 00 00 00 00 00 00 00 00 00 00 00  |................|
 F610  00 00 00 00 00 00 00 00 00 00 00 00 00 00 00 00  |................|
 F620  00 00 00 00 00 00 00 00 00 00 00 00 00 00 00 00  |................|
 F630  00 00 00 00 00 00 00 00 00 00 00 00 00 00 00 00  |................|
 F640  00 00 00 00 00 00 00 00 00 00 00 00 00 00 00 00  |................|
 F650  00 00 00 00 00 00 00 00 00 00 00 00 00 00 00 00  |................|
 F660  00 00 00 00 00 00 00 00 00 00 00 00 00 00 00 00  |................|
 F670  00 00 00 00 00 00 00 00 00 00 00 00 00 00 00 00  |................|
 F680  00 00 00 00 00 00 00 00 00 00 00 00 00 00 00 00  |................|
 F690  00 00 00 00 00 00 00 00 00 00 00 00 00 00 00 00  |................|
 F6A0  00 00 00 00 00 00 00 00 00 00 00 00 00 00 00 00  |................|
 F6B0  00 00 00 00 00 00 00 00 00 00 00 00 00 00 00 00  |................|
 F6C0  00 00 00 00 00 00 00 00 00 00 00 00 00 00 00 00  |................|
 F6D0  00 00 00 00 00 00 00 00 00 00 00 00 00 00 00 00  |................|
 F6E0  00 00 00 00 00 00 00 00 00 00 00 00 00 00 00 00  |................|
 F6F0  00 00 00 00 00 00 00 00 00 00 00 00 00 00 00 00  |................|
 F700  00 00 00 00 00 00 00 00 00 00 00 00 00 00 00 00  |................|
 F710  00 00 00 00 00 00 00 00 00 00 00 00 00 00 00 00  |................|
 F720  00 00 00 00 00 00 00 00 00 00 00 00 00 00 00 00  |................|
 F730  00 00 00 00 00 00 00 00 00 00 00 00 00 00 00 00  |................|
 F740  00 00 00 00 00 00 00 00 00 00 00 00 00 00 00 00  |................|
 F750  00 00 00 00 00 00 00 00 00 00 00 00 00 00 00 00  |................|
 F760  00 00 00 00 00 00 00 00 00 00 00 00 00 00 00 00  |................|
 F770  00 00 00 00 00 00 00 00 00 00 00 00 00 00 00 00  |................|
 F780  00 00 00 00 00 00 00 00 00 00 00 00 00 00 00 00  |................|
 F790  00 00 00 00 00 00 00 00 00 00 00 00 00 00 00 00  |................|
 F7A0  00 00 00 00 00 00 00 00 00 00 00 00 00 00 00 00  |................|
 F7B0  00 00 00 00 00 00 00 00 00 00 00 00 00 00 00 00  |................|
 F7C0  00 00 00 00 00 00 00 00 00 00 00 00 00 00 00 00  |................|
 F7D0  00 00 00 00 00 00 00 00 00 00 00 00 00 00 00 00  |................|
 F7E0  00 00 00 00 00 00 00 00 00 00 00 00 00 00 00 00  |................|
 F7F0  00 00 00 00 00 00 00 00 00 00 00 00 00 00 00 00  |................|
 F800  00 00 00 00 00 00 00 00 00 00 00 00 00 00 00 00  |................|
 F810  00 00 00 00 00 00 00 00 00 00 00 00 00 00 00 00  |................|
 F820  00 00 00 00 00 00 00 00 00 00 00 00 00 00 00 00  |................|
 F830  00 00 00 00 00 00 00 00 00 00 00 00 00 00 00 00  |................|
 F840  00 00 00 00 00 00 00 00 00 00 00 00 00 00 00 00  |................|
 F850  00 00 00 00 00 00 00 00 00 00 00 00 00 00 00 00  |................|
 F860  00 00 00 00 00 00 00 00 00 00 00 00 00 00 00 00  |................|
 F870  00 00 00 00 00 00 00 00 00 00 00 00 00 00 00 00  |................|
 F880  00 00 00 00 00 00 00 00 00 00 00 00 00 00 00 00  |................|
 F890  00 00 00 00 00 00 00 00 00 00 00 00 00 00 00 00  |................|
 F8A0  00 00 00 00 00 00 00 00 00 00 00 00 00 00 00 00  |................|
 F8B0  00 00 00 00 00 00 00 00 00 00 00 00 00 00 00 00  |................|
 F8C0  00 00 00 00 00 00 00 00 00 00 00 00 00 00 00 00  |................|
 F8D0  00 00 00 00 00 00 00 00 00 00 00 00 00 00 00 00  |................|
 F8E0  00 00 00 00 00 00 00 00 00 00 00 00 00 00 00 00  |................|
 F8F0  00 00 00 00 00 00 00 00 00 00 00 00 00 00 00 00  |................|
 F900  00 00 00 00 00 00 00 00 00 00 00 00 00 00 00 00  |................|
 F910  00 00 00 00 00 00 00 00 00 00 00 00 00 00 00 00  |................|
 F920  00 00 00 00 00 00 00 00 00 00 00 00 00 00 00 00  |................|
 F930  00 00 00 00 00 00 00 00 00 00 00 00 00 00 00 00  |................|
 F940  00 00 00 00 00 00 00 00 00 00 00 00 00 00 00 00  |................|
 F950  00 00 00 00 00 00 00 00 00 00 00 00 00 00 00 00  |................|
 F960  00 00 00 00 00 00 00 00 00 00 00 00 00 00 00 00  |................|
 F970  00 00 00 00 00 00 00 00 00 00 00 00 00 00 00 00  |................|
 F980  00 00 00 00 00 00 00 00 00 00 00 00 00 00 00 00  |................|
 F990  00 00 00 00 00 00 00 00 00 00 00 00 00 00 00 00  |................|
 F9A0  00 00 00 00 00 00 00 00 00 00 00 00 00 00 00 00  |................|
 F9B0  00 00 00 00 00 00 00 00 00 00 00 00 00 00 00 00  |................|
 F9C0  00 00 00 00 00 00 00 00 00 00 00 00 00 00 00 00  |................|
 F9D0  00 00 00 00 00 00 00 00 00 00 00 00 00 00 00 00  |................|
 F9E0  00 00 00 00 00 00 00 00 00 00 00 00 00 00 00 00  |................|
 F9F0  00 00 00 00 00 00 00 00 00 00 00 00 00 00 00 00  |................|
 FA00  00 00 00 00 00 00 00 00 00 00 00 00 00 00 00 00  |................|
 FA10  00 00 00 00 00 00 00 00 00 00 00 00 00 00 00 00  |................|
 FA20  00 00 00 00 00 00 00 00 00 00 00 00 00 00 00 00  |................|
 FA30  00 00 00 00 00 00 00 00 00 00 00 00 00 00 00 00  |................|
 FA40  00 00 00 00 00 00 00 00 00 00 00 00 00 00 00 00  |................|
 FA50  00 00 00 00 00 00 00 00 00 00 00 00 00 00 00 00  |................|
 FA60  00 00 00 00 00 00 00 00 00 00 00 00 00 00 00 00  |................|
 FA70  00 00 00 00 00 00 00 00 00 00 00 00 00 00 00 00  |................|
 FA80  00 00 00 00 00 00 00 00 00 00 00 00 00 00 00 00  |................|
 FA90  00 00 00 00 00 00 00 00 00 00 00 00 00 00 00 00  |................|
 FAA0  00 00 00 00 00 00 00 00 00 00 00 00 00 00 00 00  |................|
 FAB0  00 00 00 00 00 00 00 00 00 00 00 00 00 00 00 00  |................|
 FAC0  00 00 00 00 00 00 00 00 00 00 00 00 00 00 00 00  |................|
 FAD0  00 00 00 00 00 00 00 00 00 00 00 00 00 00 00 00  |................|
 FAE0  00 00 00 00 00 00 00 00 00 00 00 00 00 00 00 00  |................|
 FAF0  00 00 00 00 00 00 00 00 00 00 00 00 00 00 00 00  |................|
 FB00  00 00 00 00 00 00 00 00 00 00 00 00 00 00 00 00  |................|
 FB10  00 00 00 00 00 00 00 00 00 00 00 00 00 00 00 00  |................|
 FB20  00 00 00 00 00 00 00 00 00 00 00 00 00 00 00 00  |................|
 FB30  00 00 00 00 00 00 00 00 00 00 00 00 00 00 00 00  |................|
 FB40  00 00 00 00 00 00 00 00 00 00 00 00 00 00 00 00  |................|
 FB50  00 00 00 00 00 00 00 00 00 00 00 00 00 00 00 00  |................|
 FB60  00 00 00 00 00 00 00 00 00 00 00 00 00 00 00 00  |................|
 FB70  00 00 00 00 00 00 00 00 00 00 00 00 00 00 00 00  |................|
 FB80  00 00 00 00 00 00 00 00 00 00 00 00 00 00 00 00  |................|
 FB90  00 00 00 00 00 00 00 00 00 00 00 00 00 00 00 00  |................|
 FBA0  00 00 00 00 00 00 00 00 00 00 00 00 00 00 00 00  |................|
 FBB0  00 00 00 00 00 00 00 00 00 00 00 00 00 00 00 00  |................|
 FBC0  00 00 00 00 00 00 00 00 00 00 00 00 00 00 00 00  |................|
 FBD0  00 00 00 00 00 00 00 00 00 00 00 00 00 00 00 00  |................|
 FBE0  00 00 00 00 00 00 00 00 00 00 00 00 00 00 00 00  |................|
 FBF0  00 00 00 00 00 00 00 00 00 00 00 00 00 00 00 00  |................|
 FC00  00 00 00 00 00 00 00 00 00 00 00 00 00 00 00 00  |................|
 FC10  00 00 00 00 00 00 00 00 00 00 00 00 00 00 00 00  |................|
 FC20  00 00 00 00 00 00 00 00 00 00 00 00 00 00 00 00  |................|
 FC30  00 00 00 00 00 00 00 00 00 00 00 00 00 00 00 00  |................|
 FC40  00 00 00 00 00 00 00 00 00 00 00 00 00 00 00 00  |................|
 FC50  00 00 00 00 00 00 00 00 00 00 00 00 00 00 00 00  |................|
 FC60  00 00 00 00 00 00 00 00 00 00 00 00 00 00 00 00  |................|
 FC70  00 00 00 00 00 00 00 00 00 00 00 00 00 00 00 00  |................|
 FC80  00 00 00 00 00 00 00 00 00 00 00 00 00 00 00 00  |................|
 FC90  00 00 00 00 00 00 00 00 00 00 00 00 00 00 00 00  |................|
 FCA0  00 00 00 00 00 00 00 00 00 00 00 00 00 00 00 00  |................|
 FCB0  00 00 00 00 00 00 00 00 00 00 00 00 00 00 00 00  |................|
 FCC0  00 00 00 00 00 00 00 00 00 00 00 00 00 00 00 00  |................|
 FCD0  00 00 00 00 00 00 00 00 00 00 00 00 00 00 00 00  |................|
 FCE0  00 00 00 00 00 00 00 00 00 00 00 00 00 00 00 00  |................|
 FCF0  00 00 00 00 00 00 00 00 00 00 00 00 00 00 00 00  |................|
 FD00  00 00 00 00 00 00 00 00 00 00 00 00 00 00 00 00  |................|
 FD10  00 00 00 00 00 00 00 00 00 00 00 00 00 00 00 00  |................|
 FD20  00 00 00 00 00 00 00 00 00 00 00 00 00 00 00 00  |................|
 FD30  00 00 00 00 00 00 00 00 00 00 00 00 00 00 00 00  |................|
 FD40  00 00 00 00 00 00 00 00 00 00 00 00 00 00 00 00  |................|
 FD50  00 00 00 00 00 00 00 00 00 00 00 00 00 00 00 00  |................|
 FD60  00 00 00 00 00 00 00 00 00 00 00 00 00 00 00 00  |................|
 FD70  00 00 00 00 00 00 00 00 00 00 00 00 00 00 00 00  |................|
 FD80  00 00 00 00 00 00 00 00 00 00 00 00 00 00 00 00  |................|
 FD90  00 00 00 00 00 00 00 00 00 00 00 00 00 00 00 00  |................|
 FDA0  00 00 00 00 00 00 00 00 00 00 00 00 00 00 00 00  |................|
 FDB0  00 00 00 00 00 00 00 00 00 00 00 00 00 00 00 00  |................|
 FDC0  00 00 00 00 00 00 00 00 00 00 00 00 00 00 00 00  |................|
 FDD0  00 00 00 00 00 00 00 00 00 00 00 00 00 00 00 00  |................|
 FDE0  00 00 00 00 00 00 00 00 00 00 00 00 00 00 00 00  |................|
 FDF0  00 00 00 00 00 00 00 00 00 00 00 00 00 00 00 00  |................|
 FE00  00 00 00 00 00 00 00 00 00 00 00 00 00 00 00 00  |................|
 FE10  00 00 00 00 00 00 00 00 00 00 00 00 00 00 00 00  |................|
 FE20  00 00 00 00 00 00 00 00 00 00 00 00 00 00 00 00  |................|
 FE30  00 00 00 00 00 00 00 00 00 00 00 00 00 00 00 00  |................|
 FE40  00 00 00 00 00 00 00 00 00 00 00 00 00 00 00 00  |................|
 FE50  00 00 00 00 00 00 00 00 00 00 00 00 00 00 00 00  |................|
 FE60  00 00 00 00 00 00 00 00 00 00 00 00 00 00 00 00  |................|
 FE70  00 00 00 00 00 00 00 00 00 00 00 00 00 00 00 00  |................|
 FE80  00 00 00 00 00 00 00 00 00 00 00 00 00 00 00 00  |................|
 FE90  00 00 00 00 00 00 00 00 00 00 00 00 00 00 00 00  |................|
 FEA0  00 00 00 00 00 00 00 00 00 00 00 00 00 00 00 00  |................|
 FEB0  00 00 00 00 00 00 00 00 00 00 00 00 00 00 00 00  |................|
 FEC0  00 00 00 00 00 00 00 00 00 00 00 00 00 00 00 00  |................|
 FED0  00 00 00 00 00 00 00 00 00 00 00 00 00 00 00 00  |................|
 FEE0  00 00 00 00 00 00 00 00 00 00 00 00 00 00 00 00  |................|
 FEF0  00 00 00 00 00 00 00 00 00 00 00 00 00 00 00 00  |................|
 FF00  00 00 00 00 00 00 00 00 00 00 00 00 00 00 00 00  |................|
 FF10  00 00 00 00 00 00 00 00 00 00 00 00 00 00 00 00  |................|
 FF20  00 00 00 00 00 00 00 00 00 00 00 00 00 00 00 00  |................|
 FF30  00 00 00 00 00 00 00 00 00 00 00 00 00 00 00 00  |................|
 FF40  00 00 00 00 00 00 00 00 00 00 00 00 00 00 00 00  |................|
 FF50  00 00 00 00 00 00 00 00 00 00 00 00 00 00 00 00  |................|
 FF60  00 00 00 00 00 00 00 00 00 00 00 00 00 00 00 00  |................|
 FF70  00 00 00 00 00 00 00 00 00 00 00 00 00 00 00 00  |................|
 FF80  00 00 00 00 00 00 00 00 00 00 00 00 00 00 00 00  |................|
 FF90  00 00 00 00 00 00 00 00 00 00 00 00 00 00 00 00  |................|
 FFA0  00 00 00 00 00 00 00 00 00 00 00 00 00 00 00 00  |................|
 FFB0  00 00 00 00 00 00 00 00 00 00 00 00 00 00 00 00  |................|
 FFC0  00 00 00 00 00 00 00 00 00 00 00 00 00 00 00 00  |................|
 FFD0  00 00 00 00 00 00 00 00 00 00 00 00 00 00 00 00  |................|
 FFE0  00 00 00 00 00 00 00 00 00 00 00 00 00 00 00 00  |................|
 FFF0  00 00 00 00 00 00 00 00 00 00 06 F0 06 F0 06 F0  |................|
