 8000  D8        CLD  
 8001  A9 27     LDA  #$27
 8003  85 10     STA  $10
 8005  A9 F0     LDA  #$F0
 8007  85 11     STA  $11
 8009  A9 21     LDA  #$21
 800B  85 12     STA  $12
 800D  A9 F0     LDA  #$F0
 800F  85 13     STA  $13
 8011  A2 FF     LDX  #$FF
 8013  9A        TXS  
 8014  A2 78     LDX  #$78
 8016  A9 0A     LDA  #$0A
 8018  85 18     STA  $18
 801A  64 19     STZ  $19
 801C  A9 14     LDA  #$14
 801E  85 1A     STA  $1A
 8020  64 1B     STZ  $1B
 8022  64 1C     STZ  $1C
 8024  64 1D     STZ  $1D
 8026  A9 FF     LDA  #$FF
 8028  85 00     STA  $00
 802A  A9 02     LDA  #$02
 802C  85 01     STA  $01
 802E  A5 00     LDA  $00
 8030  85 3C     STA  $3C
 8032  A5 01     LDA  $01
 8034  85 3D     STA  $3D
 8036  E6 01     INC  $01
 8038  A0 00     LDY  #$00
 803A  A9 00     LDA  #$00
 803C  91 3C     STA  ($3C), Y
 803E  C8        INY  
 803F  D0 FB     BNE  $803C
 8041  A0 04     LDY  #$04
 8043  A9 00     LDA  #$00
 8045  91 3C     STA  ($3C), Y
 8047  C8        INY  
 8048  91 3C     STA  ($3C), Y
 804A  A0 06     LDY  #$06
 804C  A9 03     LDA  #$03
 804E  91 3C     STA  ($3C), Y
 8050  C8        INY  
 8051  A9 00     LDA  #$00
 8053  91 3C     STA  ($3C), Y
 8055  A0 08     LDY  #$08
 8057  A9 AE     LDA  #$AE
 8059  91 3C     STA  ($3C), Y
 805B  C8        INY  
 805C  A9 CA     LDA  #$CA
 805E  91 3C     STA  ($3C), Y
 8060  C8        INY  
 8061  A9 BA     LDA  #$BA
 8063  91 3C     STA  ($3C), Y
 8065  C8        INY  
 8066  A9 CA     LDA  #$CA
 8068  91 3C     STA  ($3C), Y
 806A  C8        INY  
 806B  A9 C3     LDA  #$C3
 806D  91 3C     STA  ($3C), Y
 806F  C8        INY  
 8070  A9 CA     LDA  #$CA
 8072  91 3C     STA  ($3C), Y
 8074  A0 1E     LDY  #$1E
 8076  A9 01     LDA  #$01
 8078  91 3C     STA  ($3C), Y
 807A  C8        INY  
 807B  A9 00     LDA  #$00
 807D  91 3C     STA  ($3C), Y
 807F  A0 20     LDY  #$20
 8081  A9 00     LDA  #$00
 8083  91 3C     STA  ($3C), Y
 8085  C8        INY  
 8086  A9 00     LDA  #$00
 8088  91 3C     STA  ($3C), Y
 808A  A0 30     LDY  #$30
 808C  A5 00     LDA  $00
 808E  91 3C     STA  ($3C), Y
 8090  C8        INY  
 8091  A5 01     LDA  $01
 8093  91 3C     STA  ($3C), Y
 8095  A9 04     LDA  #$04
 8097  18        CLC  
 8098  65 01     ADC  $01
 809A  85 01     STA  $01
 809C  A9 00     LDA  #$00
 809E  85 08     STA  $08
 80A0  A9 02     LDA  #$02
 80A2  85 09     STA  $09
 80A4  64 0A     STZ  $0A
 80A6  64 0B     STZ  $0B
 80A8  64 06     STZ  $06
 80AA  64 07     STZ  $07
 80AC  64 16     STZ  $16
 80AE  64 17     STZ  $17
 80B0  A9 AE     LDA  #$AE
 80B2  85 02     STA  $02
 80B4  A9 CA     LDA  #$CA
 80B6  85 03     STA  $03
 80B8  20 F7 89  JSR  $89F7
 80BB  CA        DEX  
 80BC  CA        DEX  
 80BD  CA        DEX  
 80BE  CA        DEX  
 80BF  A9 1F     LDA  #$1F
 80C1  95 02     STA  $02, X
 80C3  A9 B5     LDA  #$B5
 80C5  95 03     STA  $03, X
 80C7  A9 CA     LDA  #$CA
 80C9  38        SEC  
 80CA  E9 1F     SBC  #$1F
 80CC  95 00     STA  $00, X
 80CE  A9 BC     LDA  #$BC
 80D0  E9 B5     SBC  #$B5
 80D2  95 01     STA  $01, X
 80D4  20 2B 8F  JSR  $8F2B
 80D7  CA        DEX  
 80D8  CA        DEX  
 80D9  CA        DEX  
 80DA  CA        DEX  
 80DB  A9 CA     LDA  #$CA
 80DD  95 02     STA  $02, X
 80DF  A9 BC     LDA  #$BC
 80E1  95 03     STA  $03, X
 80E3  A9 A4     LDA  #$A4
 80E5  38        SEC  
 80E6  E9 CA     SBC  #$CA
 80E8  95 00     STA  $00, X
 80EA  A9 BE     LDA  #$BE
 80EC  E9 BC     SBC  #$BC
 80EE  95 01     STA  $01, X
 80F0  20 2B 8F  JSR  $8F2B
 80F3  9C 00 7C  STZ  $7C00
 80F6  9C 80 7C  STZ  $7C80
 80F9  9C 00 7D  STZ  $7D00
 80FC  9C 80 7D  STZ  $7D80
 80FF  9C 00 7E  STZ  $7E00
 8102  9C 80 7E  STZ  $7E80
 8105  9C 00 7F  STZ  $7F00
 8108  9C 80 7F  STZ  $7F80
 810B  A2 78     LDX  #$78
 810D  8A        TXA  
 810E  A2 FF     LDX  #$FF
 8110  9A        TXS  
 8111  AA        TAX  
 8112  64 0E     STZ  $0E
 8114  64 0F     STZ  $0F
 8116  64 06     STZ  $06
 8118  64 07     STZ  $07
 811A  64 16     STZ  $16
 811C  64 17     STZ  $17
 811E  A9 00     LDA  #$00
 8120  85 08     STA  $08
 8122  A9 02     LDA  #$02
 8124  85 09     STA  $09
 8126  64 0A     STZ  $0A
 8128  64 0B     STZ  $0B
 812A  20 9E 99  JSR  $999E
 812D  B5 00     LDA  $00, X
 812F  D0 05     BNE  $8136
 8131  A9 06     LDA  #$06
 8133  4C 7F CE  JMP  $CE7F
 8136  E8        INX  
 8137  E8        INX  
 8138  20 E5 CD  JSR  $CDE5
 813B  E0 78     CPX  #$78
 813D  F0 05     BEQ  $8144
 813F  90 03     BCC  $8144
 8141  4C 7D CE  JMP  $CE7D
 8144  A5 16     LDA  $16
 8146  F0 02     BEQ  $814A
 8148  A9 01     LDA  #$01
 814A  20 92 CE  JSR  $CE92
 814D  80 CF     BRA  $811E
 814F  20 6D 9B  JSR  $9B6D
 8152  A0 81     LDY  #$81
 8154  A9 5A     LDA  #$5A
 8156  20 45 CD  JSR  $CD45
 8159  60        RTS  
 815A  B5 04     LDA  $04, X
 815C  15 05     ORA  $05, X
 815E  F0 09     BEQ  $8169
 8160  20 4D A3  JSR  $A34D
 8163  20 F7 89  JSR  $89F7
 8166  4C 0B 81  JMP  $810B
 8169  8A        TXA  
 816A  18        CLC  
 816B  69 06     ADC  #$06
 816D  AA        TAX  
 816E  60        RTS  
 816F  E0 77     CPX  #$77
 8171  30 03     BMI  $8176
 8173  4C 7D CE  JMP  $CE7D
 8176  B5 01     LDA  $01, X
 8178  10 0D     BPL  $8187
 817A  38        SEC  
 817B  A9 00     LDA  #$00
 817D  F5 00     SBC  $00, X
 817F  95 00     STA  $00, X
 8181  A9 00     LDA  #$00
 8183  F5 01     SBC  $01, X
 8185  95 01     STA  $01, X
 8187  60        RTS  
 8188  E0 75     CPX  #$75
 818A  30 03     BMI  $818F
 818C  4C 7D CE  JMP  $CE7D
 818F  B5 00     LDA  $00, X
 8191  15 01     ORA  $01, X
 8193  D0 09     BNE  $819E
 8195  E8        INX  
 8196  E8        INX  
 8197  74 00     STZ  $00, X
 8199  74 01     STZ  $01, X
 819B  4C 8A 82  JMP  $828A
 819E  B5 00     LDA  $00, X
 81A0  85 22     STA  $22
 81A2  64 23     STZ  $23
 81A4  B5 02     LDA  $02, X
 81A6  85 20     STA  $20
 81A8  B5 03     LDA  $03, X
 81AA  85 21     STA  $21
 81AC  E8        INX  
 81AD  E8        INX  
 81AE  A0 00     LDY  #$00
 81B0  A5 3A     LDA  $3A
 81B2  29 F7     AND  #$F7
 81B4  1A        INC  
 81B5  09 08     ORA  #$08
 81B7  85 3A     STA  $3A
 81B9  20 7A 92  JSR  $927A
 81BC  C9 0A     CMP  #$0A
 81BE  F0 20     BEQ  $81E0
 81C0  C9 0D     CMP  #$0D
 81C2  F0 1C     BEQ  $81E0
 81C4  C9 08     CMP  #$08
 81C6  F0 22     BEQ  $81EA
 81C8  C9 7F     CMP  #$7F
 81CA  F0 1E     BEQ  $81EA
 81CC  C9 10     CMP  #$10
 81CE  F0 36     BEQ  $8206
 81D0  C9 0E     CMP  #$0E
 81D2  F0 44     BEQ  $8218
 81D4  20 D6 8D  JSR  $8DD6
 81D7  91 20     STA  ($20), Y
 81D9  C8        INY  
 81DA  C4 22     CPY  $22
 81DC  D0 DB     BNE  $81B9
 81DE  80 03     BRA  $81E3
 81E0  20 7C 9F  JSR  $9F7C
 81E3  94 00     STY  $00, X
 81E5  74 01     STZ  $01, X
 81E7  4C 8A 82  JMP  $828A
 81EA  C0 00     CPY  #$00
 81EC  D0 06     BNE  $81F4
 81EE  A9 07     LDA  #$07
 81F0  20 D6 8D  JSR  $8DD6
 81F3  C8        INY  
 81F4  88        DEY  
 81F5  A9 08     LDA  #$08
 81F7  20 D6 8D  JSR  $8DD6
 81FA  A9 20     LDA  #$20
 81FC  20 D6 8D  JSR  $8DD6
 81FF  A9 08     LDA  #$08
 8201  20 D6 8D  JSR  $8DD6
 8204  80 B3     BRA  $81B9
 8206  A5 3A     LDA  $3A
 8208  29 07     AND  #$07
 820A  D0 08     BNE  $8214
 820C  A5 3A     LDA  $3A
 820E  09 07     ORA  #$07
 8210  85 3A     STA  $3A
 8212  80 11     BRA  $8225
 8214  C6 3A     DEC  $3A
 8216  80 0D     BRA  $8225
 8218  A9 08     LDA  #$08
 821A  24 3A     BIT  $3A
 821C  D0 07     BNE  $8225
 821E  A5 3A     LDA  $3A
 8220  29 F7     AND  #$F7
 8222  1A        INC  
 8223  85 3A     STA  $3A
 8225  A5 3A     LDA  $3A
 8227  29 F7     AND  #$F7
 8229  85 3A     STA  $3A
 822B  A9 00     LDA  #$00
 822D  85 24     STA  $24
 822F  A9 7C     LDA  #$7C
 8231  85 25     STA  $25
 8233  A5 3A     LDA  $3A
 8235  6A        ROR  
 8236  29 03     AND  #$03
 8238  18        CLC  
 8239  65 25     ADC  $25
 823B  85 25     STA  $25
 823D  A5 3A     LDA  $3A
 823F  6A        ROR  
 8240  6A        ROR  
 8241  29 80     AND  #$80
 8243  18        CLC  
 8244  65 24     ADC  $24
 8246  85 24     STA  $24
 8248  90 02     BCC  $824C
 824A  E6 25     INC  $25
 824C  A9 0D     LDA  #$0D
 824E  20 D6 8D  JSR  $8DD6
 8251  C0 00     CPY  #$00
 8253  F0 08     BEQ  $825D
 8255  A9 20     LDA  #$20
 8257  20 D6 8D  JSR  $8DD6
 825A  88        DEY  
 825B  80 F4     BRA  $8251
 825D  A9 0D     LDA  #$0D
 825F  20 D6 8D  JSR  $8DD6
 8262  B1 24     LDA  ($24), Y
 8264  85 3B     STA  $3B
 8266  E6 24     INC  $24
 8268  D0 02     BNE  $826C
 826A  E6 25     INC  $25
 826C  A9 0D     LDA  #$0D
 826E  20 D6 8D  JSR  $8DD6
 8271  C4 3B     CPY  $3B
 8273  D0 03     BNE  $8278
 8275  4C B9 81  JMP  $81B9
 8278  C4 22     CPY  $22
 827A  F0 0A     BEQ  $8286
 827C  B1 24     LDA  ($24), Y
 827E  91 20     STA  ($20), Y
 8280  20 D6 8D  JSR  $8DD6
 8283  C8        INY  
 8284  80 EB     BRA  $8271
 8286  88        DEY  
 8287  4C B9 81  JMP  $81B9
 828A  A9 00     LDA  #$00
 828C  85 24     STA  $24
 828E  A9 7C     LDA  #$7C
 8290  85 25     STA  $25
 8292  A5 3A     LDA  $3A
 8294  6A        ROR  
 8295  29 03     AND  #$03
 8297  18        CLC  
 8298  65 25     ADC  $25
 829A  85 25     STA  $25
 829C  A5 3A     LDA  $3A
 829E  6A        ROR  
 829F  6A        ROR  
 82A0  29 80     AND  #$80
 82A2  18        CLC  
 82A3  65 24     ADC  $24
 82A5  85 24     STA  $24
 82A7  90 02     BCC  $82AB
 82A9  E6 25     INC  $25
 82AB  98        TYA  
 82AC  C9 80     CMP  #$80
 82AE  90 02     BCC  $82B2
 82B0  A9 7F     LDA  #$7F
 82B2  85 3B     STA  $3B
 82B4  A0 00     LDY  #$00
 82B6  91 24     STA  ($24), Y
 82B8  E6 24     INC  $24
 82BA  D0 02     BNE  $82BE
 82BC  E6 25     INC  $25
 82BE  C4 3B     CPY  $3B
 82C0  F0 07     BEQ  $82C9
 82C2  B1 20     LDA  ($20), Y
 82C4  91 24     STA  ($24), Y
 82C6  C8        INY  
 82C7  80 F5     BRA  $82BE
 82C9  60        RTS  
 82CA  E0 77     CPX  #$77
 82CC  30 03     BMI  $82D1
 82CE  4C 7D CE  JMP  $CE7D
 82D1  A0 00     LDY  #$00
 82D3  A9 4C     LDA  #$4C
 82D5  91 00     STA  ($00), Y
 82D7  C8        INY  
 82D8  B5 00     LDA  $00, X
 82DA  91 00     STA  ($00), Y
 82DC  C8        INY  
 82DD  B5 01     LDA  $01, X
 82DF  91 00     STA  ($00), Y
 82E1  C8        INY  
 82E2  98        TYA  
 82E3  18        CLC  
 82E4  65 00     ADC  $00
 82E6  85 00     STA  $00
 82E8  90 02     BCC  $82EC
 82EA  E6 01     INC  $01
 82EC  E8        INX  
 82ED  E8        INX  
 82EE  60        RTS  
 82EF  60        RTS  
 82F0  E0 77     CPX  #$77
 82F2  30 03     BMI  $82F7
 82F4  4C 7D CE  JMP  $CE7D
 82F7  B5 01     LDA  $01, X
 82F9  30 22     BMI  $831D
 82FB  18        CLC  
 82FC  A5 00     LDA  $00
 82FE  75 00     ADC  $00, X
 8300  85 00     STA  $00
 8302  A5 01     LDA  $01
 8304  75 01     ADC  $01, X
 8306  85 01     STA  $01
 8308  A0 00     LDY  #$00
 830A  C4 00     CPY  $00
 830C  A9 7C     LDA  #$7C
 830E  E5 01     SBC  $01
 8310  B0 48     BCS  $835A
 8312  84 00     STY  $00
 8314  A9 7C     LDA  #$7C
 8316  85 01     STA  $01
 8318  A9 00     LDA  #$00
 831A  4C 7F CE  JMP  $CE7F
 831D  CA        DEX  
 831E  CA        DEX  
 831F  A5 00     LDA  $00
 8321  95 00     STA  $00, X
 8323  A5 01     LDA  $01
 8325  95 01     STA  $01, X
 8327  20 A2 98  JSR  $98A2
 832A  CA        DEX  
 832B  CA        DEX  
 832C  A9 FF     LDA  #$FF
 832E  95 00     STA  $00, X
 8330  A9 02     LDA  #$02
 8332  95 01     STA  $01, X
 8334  20 CA CD  JSR  $CDCA
 8337  F0 17     BEQ  $8350
 8339  30 15     BMI  $8350
 833B  A9 FF     LDA  #$FF
 833D  85 00     STA  $00
 833F  A9 02     LDA  #$02
 8341  85 01     STA  $01
 8343  A9 AE     LDA  #$AE
 8345  85 02     STA  $02
 8347  A9 CA     LDA  #$CA
 8349  85 03     STA  $03
 834B  A9 0A     LDA  #$0A
 834D  4C 7F CE  JMP  $CE7F
 8350  B5 02     LDA  $02, X
 8352  85 00     STA  $00
 8354  B5 03     LDA  $03, X
 8356  85 01     STA  $01
 8358  E8        INX  
 8359  E8        INX  
 835A  E8        INX  
 835B  E8        INX  
 835C  60        RTS  
 835D  20 C8 CE  JSR  $CEC8
 8360  A0 01     LDY  #$01
 8362  B1 02     LDA  ($02), Y
 8364  29 F5     AND  #$F5
 8366  91 02     STA  ($02), Y
 8368  60        RTS  
 8369  20 C8 CE  JSR  $CEC8
 836C  A0 01     LDY  #$01
 836E  B1 02     LDA  ($02), Y
 8370  09 02     ORA  #$02
 8372  29 F7     AND  #$F7
 8374  91 02     STA  ($02), Y
 8376  60        RTS  
 8377  E0 75     CPX  #$75
 8379  30 03     BMI  $837E
 837B  4C 7D CE  JMP  $CE7D
 837E  B5 00     LDA  $00, X
 8380  35 02     AND  $02, X
 8382  95 02     STA  $02, X
 8384  B5 01     LDA  $01, X
 8386  35 03     AND  $03, X
 8388  95 03     STA  $03, X
 838A  E8        INX  
 838B  E8        INX  
 838C  60        RTS  
 838D  CA        DEX  
 838E  CA        DEX  
 838F  A9 02     LDA  #$02
 8391  95 00     STA  $00, X
 8393  74 01     STZ  $01, X
 8395  60        RTS  
 8396  E0 75     CPX  #$75
 8398  30 03     BMI  $839D
 839A  4C 7D CE  JMP  $CE7D
 839D  A9 1B     LDA  #$1B
 839F  20 D6 8D  JSR  $8DD6
 83A2  A9 5B     LDA  #$5B
 83A4  20 D6 8D  JSR  $8DD6
 83A7  20 B5 CE  JSR  $CEB5
 83AA  A9 3B     LDA  #$3B
 83AC  20 D6 8D  JSR  $8DD6
 83AF  20 B5 CE  JSR  $CEB5
 83B2  A9 48     LDA  #$48
 83B4  20 D6 8D  JSR  $8DD6
 83B7  60        RTS  
 83B8  A5 0A     LDA  $0A
 83BA  85 0C     STA  $0C
 83BC  A5 0B     LDA  $0B
 83BE  85 0D     STA  $0D
 83C0  60        RTS  
 83C1  CA        DEX  
 83C2  CA        DEX  
 83C3  A9 18     LDA  #$18
 83C5  95 00     STA  $00, X
 83C7  A9 00     LDA  #$00
 83C9  95 01     STA  $01, X
 83CB  60        RTS  
 83CC  20 72 91  JSR  $9172
 83CF  60        RTS  
 83D0  A9 07     LDA  #$07
 83D2  20 D6 8D  JSR  $8DD6
 83D5  60        RTS  
 83D6  CA        DEX  
 83D7  CA        DEX  
 83D8  A9 20     LDA  #$20
 83DA  95 00     STA  $00, X
 83DC  74 01     STZ  $01, X
 83DE  60        RTS  
 83DF  CA        DEX  
 83E0  CA        DEX  
 83E1  18        CLC  
 83E2  A5 3C     LDA  $3C
 83E4  69 00     ADC  #$00
 83E6  95 00     STA  $00, X
 83E8  A5 3D     LDA  $3D
 83EA  69 00     ADC  #$00
 83EC  95 01     STA  $01, X
 83EE  60        RTS  
 83EF  CA        DEX  
 83F0  CA        DEX  
 83F1  A0 30     LDY  #$30
 83F3  B1 3C     LDA  ($3C), Y
 83F5  95 00     STA  $00, X
 83F7  C8        INY  
 83F8  B1 3C     LDA  ($3C), Y
 83FA  95 01     STA  $01, X
 83FC  60        RTS  
 83FD  A0 32     LDY  #$32
 83FF  B1 3C     LDA  ($3C), Y
 8401  D5 00     CMP  $00, X
 8403  D0 0F     BNE  $8414
 8405  C8        INY  
 8406  B1 3C     LDA  ($3C), Y
 8408  D5 01     CMP  $01, X
 840A  D0 08     BNE  $8414
 840C  A0 34     LDY  #$34
 840E  B1 3C     LDA  ($3C), Y
 8410  29 01     AND  #$01
 8412  D0 30     BNE  $8444
 8414  A0 34     LDY  #$34
 8416  B1 3C     LDA  ($3C), Y
 8418  C9 03     CMP  #$03
 841A  D0 0C     BNE  $8428
 841C  20 EF 83  JSR  $83EF
 841F  20 C9 85  JSR  $85C9
 8422  20 CD 8F  JSR  $8FCD
 8425  20 7C 85  JSR  $857C
 8428  A0 32     LDY  #$32
 842A  B5 00     LDA  $00, X
 842C  91 3C     STA  ($3C), Y
 842E  C8        INY  
 842F  B5 01     LDA  $01, X
 8431  91 3C     STA  ($3C), Y
 8433  20 EF 83  JSR  $83EF
 8436  20 07 A0  JSR  $A007
 8439  20 71 85  JSR  $8571
 843C  A9 01     LDA  #$01
 843E  A0 34     LDY  #$34
 8440  91 3C     STA  ($3C), Y
 8442  CA        DEX  
 8443  CA        DEX  
 8444  A0 30     LDY  #$30
 8446  B1 3C     LDA  ($3C), Y
 8448  95 00     STA  $00, X
 844A  C8        INY  
 844B  B1 3C     LDA  ($3C), Y
 844D  95 01     STA  $01, X
 844F  60        RTS  
 8450  E0 77     CPX  #$77
 8452  30 03     BMI  $8457
 8454  4C 7D CE  JMP  $CE7D
 8457  4C 66 85  JMP  $8566
 845A  62 61 73 65 20 40 20 73 77 61 70 20 64 65 63 69  |base @ swap deci|
 846A  6D 61 6C 20 31 30 32 34 20 2A 20 64 75 70 20 62  |mal 1024 * dup b|
 847A  75 66 66 65 72 3A 20 72 61 6D 64 72 69 76 65 20  |uffer: ramdrive |
 848A  3A 20 62 6C 6F 63 6B 2D 72 65 61 64 2D 72 61 6D  |: block-read-ram|
 849A  64 72 69 76 65 20 72 61 6D 64 72 69 76 65 20 73  |drive ramdrive s|
 84AA  77 61 70 20 31 30 32 34 20 2A 20 2B 20 73 77 61  |wap 1024 * + swa|
 84BA  70 20 31 30 32 34 20 6D 6F 76 65 20 3B 20 3A 20  |p 1024 move ; : |
 84CA  62 6C 6F 63 6B 2D 77 72 69 74 65 2D 72 61 6D 64  |block-write-ramd|
 84DA  72 69 76 65 20 72 61 6D 64 72 69 76 65 20 73 77  |rive ramdrive sw|
 84EA  61 70 20 31 30 32 34 20 2A 20 2B 20 31 30 32 34  |ap 1024 * + 1024|
 84FA  20 6D 6F 76 65 20 3B 20 27 20 62 6C 6F 63 6B 2D  | move ; ' block-|
 850A  72 65 61 64 2D 72 61 6D 64 72 69 76 65 20 69 73  |read-ramdrive is|
 851A  20 62 6C 6F 63 6B 2D 72 65 61 64 20 27 20 62 6C  | block-read ' bl|
 852A  6F 63 6B 2D 77 72 69 74 65 2D 72 61 6D 64 72 69  |ock-write-ramdri|
 853A  76 65 20 69 73 20 62 6C 6F 63 6B 2D 77 72 69 74  |ve is block-writ|
 854A  65 20 72 61 6D 64 72 69 76 65 20 73 77 61 70 20  |e ramdrive swap |
 855A  62 6C 61 6E 6B 20 62 61 73 65 20 21              |blank base !    |
 8566  20 03 9F  JSR  $9F03
 8569  5A 84 0C 01                                      |Z...            |
 856D  20 2B 8F  JSR  $8F2B
 8570  60        RTS  
 8571  20 72 CD  JSR  $CD72
 8574  77 85                                            |w.              |
 8576  60        RTS  
 8577  A9 0C     LDA  #$0C
 8579  4C 7F CE  JMP  $CE7F
 857C  20 72 CD  JSR  $CD72
 857F  77 85                                            |w.              |
 8581  60        RTS  
 8582  E0 75     CPX  #$75
 8584  30 03     BMI  $8589
 8586  4C 7D CE  JMP  $CE7D
 8589  18        CLC  
 858A  B5 00     LDA  $00, X
 858C  B4 02     LDY  $02, X
 858E  75 02     ADC  $02, X
 8590  95 02     STA  $02, X
 8592  94 00     STY  $00, X
 8594  B5 01     LDA  $01, X
 8596  B4 03     LDY  $03, X
 8598  75 03     ADC  $03, X
 859A  95 03     STA  $03, X
 859C  94 01     STY  $01, X
 859E  60        RTS  
 859F  20 64 86  JSR  $8664
 85A2  20 D4 92  JSR  $92D4
 85A5  60        RTS  
 85A6  20 68 A0  JSR  $A068
 85A9  20 D4 92  JSR  $92D4
 85AC  60        RTS  
 85AD  A0 85     LDY  #$85
 85AF  A9 B5     LDA  #$B5
 85B1  20 45 CD  JSR  $CD45
 85B4  60        RTS  
 85B5  68        PLA  
 85B6  85 1E     STA  $1E
 85B8  68        PLA  
 85B9  85 1F     STA  $1F
 85BB  A0 01     LDY  #$01
 85BD  B1 1E     LDA  ($1E), Y
 85BF  85 20     STA  $20
 85C1  C8        INY  
 85C2  B1 1E     LDA  ($1E), Y
 85C4  85 21     STA  $21
 85C6  6C 20 00  JMP  ($0020)
 85C9  CA        DEX  
 85CA  CA        DEX  
 85CB  18        CLC  
 85CC  A5 3C     LDA  $3C
 85CE  69 32     ADC  #$32
 85D0  95 00     STA  $00, X
 85D2  A5 3D     LDA  $3D
 85D4  69 00     ADC  #$00
 85D6  95 01     STA  $01, X
 85D8  60        RTS  
 85D9  A0 34     LDY  #$34
 85DB  B1 3C     LDA  ($3C), Y
 85DD  C9 03     CMP  #$03
 85DF  D0 0C     BNE  $85ED
 85E1  20 EF 83  JSR  $83EF
 85E4  20 C9 85  JSR  $85C9
 85E7  20 CD 8F  JSR  $8FCD
 85EA  20 7C 85  JSR  $857C
 85ED  A0 32     LDY  #$32
 85EF  B5 00     LDA  $00, X
 85F1  91 3C     STA  ($3C), Y
 85F3  C8        INY  
 85F4  B5 01     LDA  $01, X
 85F6  91 3C     STA  ($3C), Y
 85F8  A9 01     LDA  #$01
 85FA  A0 34     LDY  #$34
 85FC  91 3C     STA  ($3C), Y
 85FE  A0 30     LDY  #$30
 8600  B1 3C     LDA  ($3C), Y
 8602  95 00     STA  $00, X
 8604  C8        INY  
 8605  B1 3C     LDA  ($3C), Y
 8607  95 01     STA  $01, X
 8609  60        RTS  
 860A  20 FD 89  JSR  $89FD
 860D  20 F0 82  JSR  $82F0
 8610  60        RTS  
 8611  CA        DEX  
 8612  CA        DEX  
 8613  18        CLC  
 8614  A5 3C     LDA  $3C
 8616  69 34     ADC  #$34
 8618  95 00     STA  $00, X
 861A  A5 3D     LDA  $3D
 861C  69 00     ADC  #$00
 861E  95 01     STA  $01, X
 8620  60        RTS  
 8621  00        BRK  
 8622  60        RTS  
 8623  E0 77     CPX  #$77
 8625  30 03     BMI  $862A
 8627  4C 7D CE  JMP  $CE7D
 862A  B5 00     LDA  $00, X
 862C  20 55 CD  JSR  $CD55
 862F  E8        INX  
 8630  E8        INX  
 8631  60        RTS  
 8632  E0 77     CPX  #$77
 8634  30 03     BMI  $8639
 8636  4C 7D CE  JMP  $CE7D
 8639  A1 00     LDA  ($00, X)
 863B  95 00     STA  $00, X
 863D  74 01     STZ  $01, X
 863F  60        RTS  
 8640  E0 75     CPX  #$75
 8642  30 03     BMI  $8647
 8644  4C 7D CE  JMP  $CE7D
 8647  B5 02     LDA  $02, X
 8649  81 00     STA  ($00, X)
 864B  E8        INX  
 864C  E8        INX  
 864D  E8        INX  
 864E  E8        INX  
 864F  60        RTS  
 8650  E0 77     CPX  #$77
 8652  30 03     BMI  $8657
 8654  4C 7D CE  JMP  $CE7D
 8657  F6 00     INC  $00, X
 8659  D0 02     BNE  $865D
 865B  F6 01     INC  $01, X
 865D  F6 00     INC  $00, X
 865F  D0 02     BNE  $8663
 8661  F6 01     INC  $01, X
 8663  60        RTS  
 8664  20 9A 97  JSR  $979A
 8667  B5 00     LDA  $00, X
 8669  15 01     ORA  $01, X
 866B  D0 05     BNE  $8672
 866D  A9 05     LDA  #$05
 866F  4C 7F CE  JMP  $CE7F
 8672  E8        INX  
 8673  E8        INX  
 8674  A1 00     LDA  ($00, X)
 8676  95 00     STA  $00, X
 8678  74 01     STZ  $01, X
 867A  60        RTS  
 867B  E0 77     CPX  #$77
 867D  30 03     BMI  $8682
 867F  4C 7D CE  JMP  $CE7D
 8682  60        RTS  
 8683  E0 73     CPX  #$73
 8685  30 03     BMI  $868A
 8687  4C 7D CE  JMP  $CE7D
 868A  B4 00     LDY  $00, X
 868C  CA        DEX  
 868D  CA        DEX  
 868E  B5 04     LDA  $04, X
 8690  95 00     STA  $00, X
 8692  B5 05     LDA  $05, X
 8694  95 01     STA  $01, X
 8696  B5 06     LDA  $06, X
 8698  95 02     STA  $02, X
 869A  B5 07     LDA  $07, X
 869C  95 03     STA  $03, X
 869E  B5 00     LDA  $00, X
 86A0  15 01     ORA  $01, X
 86A2  F0 6C     BEQ  $8710
 86A4  98        TYA  
 86A5  C1 02     CMP  ($02, X)
 86A7  F0 2C     BEQ  $86D5
 86A9  B5 00     LDA  $00, X
 86AB  D0 02     BNE  $86AF
 86AD  D6 01     DEC  $01, X
 86AF  D6 00     DEC  $00, X
 86B1  B5 00     LDA  $00, X
 86B3  15 01     ORA  $01, X
 86B5  F0 08     BEQ  $86BF
 86B7  F6 02     INC  $02, X
 86B9  D0 02     BNE  $86BD
 86BB  F6 03     INC  $03, X
 86BD  80 E5     BRA  $86A4
 86BF  B5 04     LDA  $04, X
 86C1  95 00     STA  $00, X
 86C3  B5 05     LDA  $05, X
 86C5  95 01     STA  $01, X
 86C7  B5 06     LDA  $06, X
 86C9  95 02     STA  $02, X
 86CB  B5 07     LDA  $07, X
 86CD  95 03     STA  $03, X
 86CF  74 04     STZ  $04, X
 86D1  74 05     STZ  $05, X
 86D3  80 3B     BRA  $8710
 86D5  B5 06     LDA  $06, X
 86D7  48        PHA  
 86D8  B5 07     LDA  $07, X
 86DA  48        PHA  
 86DB  B5 02     LDA  $02, X
 86DD  95 06     STA  $06, X
 86DF  B5 03     LDA  $03, X
 86E1  95 07     STA  $07, X
 86E3  F6 06     INC  $06, X
 86E5  D0 02     BNE  $86E9
 86E7  F6 07     INC  $07, X
 86E9  68        PLA  
 86EA  95 03     STA  $03, X
 86EC  68        PLA  
 86ED  95 02     STA  $02, X
 86EF  B5 05     LDA  $05, X
 86F1  48        PHA  
 86F2  B5 04     LDA  $04, X
 86F4  48        PHA  
 86F5  B5 00     LDA  $00, X
 86F7  95 04     STA  $04, X
 86F9  B5 01     LDA  $01, X
 86FB  95 05     STA  $05, X
 86FD  68        PLA  
 86FE  38        SEC  
 86FF  F5 00     SBC  $00, X
 8701  95 00     STA  $00, X
 8703  68        PLA  
 8704  F5 01     SBC  $01, X
 8706  95 01     STA  $01, X
 8708  B5 04     LDA  $04, X
 870A  D0 02     BNE  $870E
 870C  D6 05     DEC  $05, X
 870E  D6 04     DEC  $04, X
 8710  60        RTS  
 8711  E0 73     CPX  #$73
 8713  30 03     BMI  $8718
 8715  4C 7D CE  JMP  $CE7D
 8718  B5 02     LDA  $02, X
 871A  85 22     STA  $22
 871C  B5 03     LDA  $03, X
 871E  85 23     STA  $23
 8720  B5 04     LDA  $04, X
 8722  85 20     STA  $20
 8724  B5 05     LDA  $05, X
 8726  85 21     STA  $21
 8728  A0 00     LDY  #$00
 872A  B5 01     LDA  $01, X
 872C  F0 0F     BEQ  $873D
 872E  B1 20     LDA  ($20), Y
 8730  91 22     STA  ($22), Y
 8732  C8        INY  
 8733  D0 F9     BNE  $872E
 8735  E6 21     INC  $21
 8737  E6 23     INC  $23
 8739  D6 01     DEC  $01, X
 873B  D0 F1     BNE  $872E
 873D  B5 00     LDA  $00, X
 873F  F0 09     BEQ  $874A
 8741  B1 20     LDA  ($20), Y
 8743  91 22     STA  ($22), Y
 8745  C8        INY  
 8746  D6 00     DEC  $00, X
 8748  D0 F7     BNE  $8741
 874A  8A        TXA  
 874B  18        CLC  
 874C  69 06     ADC  #$06
 874E  AA        TAX  
 874F  60        RTS  
 8750  E0 73     CPX  #$73
 8752  30 03     BMI  $8757
 8754  4C 7D CE  JMP  $CE7D
 8757  B5 02     LDA  $02, X
 8759  85 22     STA  $22
 875B  B5 03     LDA  $03, X
 875D  18        CLC  
 875E  75 01     ADC  $01, X
 8760  85 23     STA  $23
 8762  B5 04     LDA  $04, X
 8764  85 20     STA  $20
 8766  B5 05     LDA  $05, X
 8768  18        CLC  
 8769  75 01     ADC  $01, X
 876B  85 21     STA  $21
 876D  F6 01     INC  $01, X
 876F  B4 00     LDY  $00, X
 8771  F0 0E     BEQ  $8781
 8773  88        DEY  
 8774  F0 07     BEQ  $877D
 8776  B1 20     LDA  ($20), Y
 8778  91 22     STA  ($22), Y
 877A  88        DEY  
 877B  D0 F9     BNE  $8776
 877D  B2 20     LDA  ($20)
 877F  92 22     STA  ($22)
 8781  C6 21     DEC  $21
 8783  C6 23     DEC  $23
 8785  D6 01     DEC  $01, X
 8787  D0 EA     BNE  $8773
 8789  8A        TXA  
 878A  18        CLC  
 878B  69 06     ADC  #$06
 878D  AA        TAX  
 878E  60        RTS  
 878F  A5 16     LDA  $16
 8791  05 17     ORA  $17
 8793  F0 05     BEQ  $879A
 8795  A9 07     LDA  #$07
 8797  4C 7F CE  JMP  $CE7F
 879A  C6 16     DEC  $16
 879C  C6 17     DEC  $17
 879E  A9 40     LDA  #$40
 87A0  05 3A     ORA  $3A
 87A2  85 3A     STA  $3A
 87A4  20 C8 CE  JSR  $CEC8
 87A7  A5 03     LDA  $03
 87A9  48        PHA  
 87AA  A5 02     LDA  $02
 87AC  48        PHA  
 87AD  20 FD 89  JSR  $89FD
 87B0  20 C8 CE  JSR  $CEC8
 87B3  A5 02     LDA  $02
 87B5  85 04     STA  $04
 87B7  A5 03     LDA  $03
 87B9  85 05     STA  $05
 87BB  68        PLA  
 87BC  85 02     STA  $02
 87BE  68        PLA  
 87BF  85 03     STA  $03
 87C1  20 DB CE  JSR  $CEDB
 87C4  A5 00     LDA  $00
 87C6  38        SEC  
 87C7  E9 03     SBC  #$03
 87C9  85 00     STA  $00
 87CB  B0 02     BCS  $87CF
 87CD  C6 01     DEC  $01
 87CF  60        RTS  
 87D0  A5 16     LDA  $16
 87D2  05 17     ORA  $17
 87D4  F0 05     BEQ  $87DB
 87D6  A9 07     LDA  #$07
 87D8  4C 7F CE  JMP  $CE7F
 87DB  C6 16     DEC  $16
 87DD  C6 17     DEC  $17
 87DF  A9 BF     LDA  #$BF
 87E1  25 3A     AND  $3A
 87E3  85 3A     STA  $3A
 87E5  A5 00     LDA  $00
 87E7  85 04     STA  $04
 87E9  A5 01     LDA  $01
 87EB  85 05     STA  $05
 87ED  60        RTS  
 87EE  E0 77     CPX  #$77
 87F0  D0 03     BNE  $87F5
 87F2  4C 7D CE  JMP  $CE7D
 87F5  B5 00     LDA  $00, X
 87F7  92 00     STA  ($00)
 87F9  E6 00     INC  $00
 87FB  D0 02     BNE  $87FF
 87FD  E6 01     INC  $01
 87FF  B5 01     LDA  $01, X
 8801  92 00     STA  ($00)
 8803  E6 00     INC  $00
 8805  D0 02     BNE  $8809
 8807  E6 01     INC  $01
 8809  E8        INX  
 880A  E8        INX  
 880B  60        RTS  
 880C  E0 71     CPX  #$71
 880E  D0 03     BNE  $8813
 8810  4C 7D CE  JMP  $CE7D
 8813  B5 02     LDA  $02, X
 8815  85 22     STA  $22
 8817  B5 03     LDA  $03, X
 8819  85 23     STA  $23
 881B  B5 06     LDA  $06, X
 881D  85 20     STA  $20
 881F  B5 07     LDA  $07, X
 8821  85 21     STA  $21
 8823  B5 04     LDA  $04, X
 8825  15 05     ORA  $05, X
 8827  F0 2C     BEQ  $8855
 8829  B5 00     LDA  $00, X
 882B  15 01     ORA  $01, X
 882D  F0 3A     BEQ  $8869
 882F  B2 20     LDA  ($20)
 8831  D2 22     CMP  ($22)
 8833  90 26     BCC  $885B
 8835  D0 32     BNE  $8869
 8837  E6 20     INC  $20
 8839  D0 02     BNE  $883D
 883B  E6 21     INC  $21
 883D  E6 22     INC  $22
 883F  D0 02     BNE  $8843
 8841  E6 23     INC  $23
 8843  B5 04     LDA  $04, X
 8845  D0 02     BNE  $8849
 8847  D6 05     DEC  $05, X
 8849  D6 04     DEC  $04, X
 884B  B5 00     LDA  $00, X
 884D  D0 02     BNE  $8851
 884F  D6 01     DEC  $01, X
 8851  D6 00     DEC  $00, X
 8853  80 CE     BRA  $8823
 8855  B5 00     LDA  $00, X
 8857  15 01     ORA  $01, X
 8859  F0 08     BEQ  $8863
 885B  A9 FF     LDA  #$FF
 885D  95 06     STA  $06, X
 885F  95 07     STA  $07, X
 8861  80 0C     BRA  $886F
 8863  74 06     STZ  $06, X
 8865  74 07     STZ  $07, X
 8867  80 06     BRA  $886F
 8869  A9 01     LDA  #$01
 886B  95 06     STA  $06, X
 886D  74 07     STZ  $07, X
 886F  8A        TXA  
 8870  18        CLC  
 8871  69 06     ADC  #$06
 8873  AA        TAX  
 8874  60        RTS  
 8875  E0 77     CPX  #$77
 8877  30 03     BMI  $887C
 8879  4C 7D CE  JMP  $CE7D
 887C  B5 01     LDA  $01, X
 887E  48        PHA  
 887F  B5 00     LDA  $00, X
 8881  48        PHA  
 8882  20 CB 91  JSR  $91CB
 8885  B5 00     LDA  $00, X
 8887  15 01     ORA  $01, X
 8889  D0 03     BNE  $888E
 888B  4C 76 89  JMP  $8976
 888E  B5 00     LDA  $00, X
 8890  85 28     STA  $28
 8892  B5 01     LDA  $01, X
 8894  85 29     STA  $29
 8896  F6 00     INC  $00, X
 8898  D0 02     BNE  $889C
 889A  F6 01     INC  $01, X
 889C  A1 00     LDA  ($00, X)
 889E  85 24     STA  $24
 88A0  29 02     AND  #$02
 88A2  F0 0D     BEQ  $88B1
 88A4  A5 28     LDA  $28
 88A6  95 00     STA  $00, X
 88A8  A5 29     LDA  $29
 88AA  95 01     STA  $01, X
 88AC  20 9D A5  JSR  $A59D
 88AF  80 27     BRA  $88D8
 88B1  A5 24     LDA  $24
 88B3  29 08     AND  #$08
 88B5  F0 03     BEQ  $88BA
 88B7  4C 76 89  JMP  $8976
 88BA  A5 28     LDA  $28
 88BC  95 00     STA  $00, X
 88BE  A5 29     LDA  $29
 88C0  95 01     STA  $01, X
 88C2  20 9D A5  JSR  $A59D
 88C5  B5 01     LDA  $01, X
 88C7  C5 1B     CMP  $1B
 88C9  90 0D     BCC  $88D8
 88CB  D0 08     BNE  $88D5
 88CD  B5 00     LDA  $00, X
 88CF  C5 1A     CMP  $1A
 88D1  90 05     BCC  $88D8
 88D3  F0 03     BEQ  $88D8
 88D5  4C 76 89  JMP  $8976
 88D8  CA        DEX  
 88D9  CA        DEX  
 88DA  CA        DEX  
 88DB  CA        DEX  
 88DC  B5 04     LDA  $04, X
 88DE  95 00     STA  $00, X
 88E0  B5 05     LDA  $05, X
 88E2  95 01     STA  $01, X
 88E4  68        PLA  
 88E5  95 04     STA  $04, X
 88E7  68        PLA  
 88E8  95 05     STA  $05, X
 88EA  A5 00     LDA  $00
 88EC  95 02     STA  $02, X
 88EE  A5 01     LDA  $01
 88F0  95 03     STA  $03, X
 88F2  A0 00     LDY  #$00
 88F4  B9 64 89  LDA  $8964, Y
 88F7  D5 04     CMP  $04, X
 88F9  D0 07     BNE  $8902
 88FB  B9 65 89  LDA  $8965, Y
 88FE  D5 05     CMP  $05, X
 8900  F0 0C     BEQ  $890E
 8902  B9 64 89  LDA  $8964, Y
 8905  19 65 89  ORA  $8965, Y
 8908  F0 22     BEQ  $892C
 890A  C8        INY  
 890B  C8        INY  
 890C  80 E6     BRA  $88F4
 890E  98        TYA  
 890F  4A        LSR  
 8910  A8        TAY  
 8911  B9 70 89  LDA  $8970, Y
 8914  85 28     STA  $28
 8916  18        CLC  
 8917  75 04     ADC  $04, X
 8919  95 04     STA  $04, X
 891B  90 02     BCC  $891F
 891D  F6 05     INC  $05, X
 891F  06 28     ASL  $28
 8921  38        SEC  
 8922  B5 00     LDA  $00, X
 8924  E5 28     SBC  $28
 8926  95 00     STA  $00, X
 8928  B0 02     BCS  $892C
 892A  D6 01     DEC  $01, X
 892C  A5 1C     LDA  $1C
 892E  05 1D     ORA  $1D
 8930  F0 1C     BEQ  $894E
 8932  A5 24     LDA  $24
 8934  29 10     AND  #$10
 8936  F0 16     BEQ  $894E
 8938  18        CLC  
 8939  B5 04     LDA  $04, X
 893B  69 07     ADC  #$07
 893D  95 04     STA  $04, X
 893F  90 02     BCC  $8943
 8941  F6 05     INC  $05, X
 8943  38        SEC  
 8944  B5 00     LDA  $00, X
 8946  E9 07     SBC  #$07
 8948  95 00     STA  $00, X
 894A  B0 02     BCS  $894E
 894C  D6 01     DEC  $01, X
 894E  B5 01     LDA  $01, X
 8950  48        PHA  
 8951  B5 00     LDA  $00, X
 8953  48        PHA  
 8954  20 17 95  JSR  $9517
 8957  18        CLC  
 8958  68        PLA  
 8959  65 00     ADC  $00
 895B  85 00     STA  $00
 895D  68        PLA  
 895E  65 01     ADC  $01
 8960  85 01     STA  $01
 8962  80 2C     BRA  $8990
 8964  50 99 3B 99 C0 A1 1A A3 90 A2 00 00 04 04 04 06  |P.;.............|
 8974  06 00                                            |..              |
 8976  A9 20     LDA  #$20
 8978  92 00     STA  ($00)
 897A  A0 01     LDY  #$01
 897C  68        PLA  
 897D  91 00     STA  ($00), Y
 897F  C8        INY  
 8980  68        PLA  
 8981  91 00     STA  ($00), Y
 8983  A9 03     LDA  #$03
 8985  18        CLC  
 8986  65 00     ADC  $00
 8988  85 00     STA  $00
 898A  90 02     BCC  $898E
 898C  E6 01     INC  $01
 898E  E8        INX  
 898F  E8        INX  
 8990  60        RTS  
 8991  20 C8 CE  JSR  $CEC8
 8994  A0 01     LDY  #$01
 8996  B1 02     LDA  ($02), Y
 8998  09 01     ORA  #$01
 899A  91 02     STA  ($02), Y
 899C  60        RTS  
 899D  E0 77     CPX  #$77
 899F  30 03     BMI  $89A4
 89A1  4C 7D CE  JMP  $CE7D
 89A4  20 FD 89  JSR  $89FD
 89A7  38        SEC  
 89A8  A5 00     LDA  $00
 89AA  E9 02     SBC  #$02
 89AC  85 20     STA  $20
 89AE  A5 01     LDA  $01
 89B0  E9 00     SBC  #$00
 89B2  85 21     STA  $21
 89B4  A9 5E     LDA  #$5E
 89B6  92 20     STA  ($20)
 89B8  A0 01     LDY  #$01
 89BA  A9 CD     LDA  #$CD
 89BC  91 20     STA  ($20), Y
 89BE  20 EE 87  JSR  $87EE
 89C1  20 7D 92  JSR  $927D
 89C4  B5 00     LDA  $00, X
 89C6  85 20     STA  $20
 89C8  B5 01     LDA  $01, X
 89CA  85 21     STA  $21
 89CC  A0 06     LDY  #$06
 89CE  B1 20     LDA  ($20), Y
 89D0  18        CLC  
 89D1  69 02     ADC  #$02
 89D3  91 20     STA  ($20), Y
 89D5  C8        INY  
 89D6  B1 20     LDA  ($20), Y
 89D8  69 00     ADC  #$00
 89DA  91 20     STA  ($20), Y
 89DC  E8        INX  
 89DD  E8        INX  
 89DE  60        RTS  
 89DF  E0 77     CPX  #$77
 89E1  30 03     BMI  $89E6
 89E3  4C 7D CE  JMP  $CE7D
 89E6  A1 00     LDA  ($00, X)
 89E8  A8        TAY  
 89E9  F6 00     INC  $00, X
 89EB  D0 02     BNE  $89EF
 89ED  F6 01     INC  $01, X
 89EF  98        TYA  
 89F0  CA        DEX  
 89F1  CA        DEX  
 89F2  95 00     STA  $00, X
 89F4  74 01     STZ  $01, X
 89F6  60        RTS  
 89F7  A9 0A     LDA  #$0A
 89F9  20 D6 8D  JSR  $8DD6
 89FC  60        RTS  
 89FD  20 9A 97  JSR  $979A
 8A00  B5 00     LDA  $00, X
 8A02  15 01     ORA  $01, X
 8A04  D0 05     BNE  $8A0B
 8A06  A9 05     LDA  #$05
 8A08  4C 7F CE  JMP  $CE7F
 8A0B  74 01     STZ  $01, X
 8A0D  B5 00     LDA  $00, X
 8A0F  85 22     STA  $22
 8A11  A5 00     LDA  $00
 8A13  85 20     STA  $20
 8A15  A5 01     LDA  $01
 8A17  85 21     STA  $21
 8A19  B5 00     LDA  $00, X
 8A1B  18        CLC  
 8A1C  69 08     ADC  #$08
 8A1E  85 24     STA  $24
 8A20  18        CLC  
 8A21  69 03     ADC  #$03
 8A23  95 00     STA  $00, X
 8A25  74 01     STZ  $01, X
 8A27  20 F0 82  JSR  $82F0
 8A2A  20 C8 CE  JSR  $CEC8
 8A2D  A0 00     LDY  #$00
 8A2F  A5 22     LDA  $22
 8A31  91 20     STA  ($20), Y
 8A33  A9 08     LDA  #$08
 8A35  09 20     ORA  #$20
 8A37  C8        INY  
 8A38  91 20     STA  ($20), Y
 8A3A  C8        INY  
 8A3B  A5 02     LDA  $02
 8A3D  91 20     STA  ($20), Y
 8A3F  C8        INY  
 8A40  A5 03     LDA  $03
 8A42  91 20     STA  ($20), Y
 8A44  C8        INY  
 8A45  A5 21     LDA  $21
 8A47  85 03     STA  $03
 8A49  A5 20     LDA  $20
 8A4B  85 02     STA  $02
 8A4D  18        CLC  
 8A4E  65 24     ADC  $24
 8A50  91 20     STA  ($20), Y
 8A52  48        PHA  
 8A53  C8        INY  
 8A54  A5 21     LDA  $21
 8A56  69 00     ADC  #$00
 8A58  91 20     STA  ($20), Y
 8A5A  C8        INY  
 8A5B  68        PLA  
 8A5C  18        CLC  
 8A5D  69 03     ADC  #$03
 8A5F  91 20     STA  ($20), Y
 8A61  88        DEY  
 8A62  B1 20     LDA  ($20), Y
 8A64  69 00     ADC  #$00
 8A66  C8        INY  
 8A67  C8        INY  
 8A68  91 20     STA  ($20), Y
 8A6A  C8        INY  
 8A6B  B5 00     LDA  $00, X
 8A6D  38        SEC  
 8A6E  E9 08     SBC  #$08
 8A70  85 28     STA  $28
 8A72  B5 01     LDA  $01, X
 8A74  E9 00     SBC  #$00
 8A76  85 29     STA  $29
 8A78  B1 28     LDA  ($28), Y
 8A7A  C9 5B     CMP  #$5B
 8A7C  B0 07     BCS  $8A85
 8A7E  C9 41     CMP  #$41
 8A80  90 03     BCC  $8A85
 8A82  18        CLC  
 8A83  69 20     ADC  #$20
 8A85  91 20     STA  ($20), Y
 8A87  C8        INY  
 8A88  C6 22     DEC  $22
 8A8A  D0 EC     BNE  $8A78
 8A8C  A9 20     LDA  #$20
 8A8E  91 20     STA  ($20), Y
 8A90  C8        INY  
 8A91  A9 A5     LDA  #$A5
 8A93  91 20     STA  ($20), Y
 8A95  C8        INY  
 8A96  A9 CD     LDA  #$CD
 8A98  91 20     STA  ($20), Y
 8A9A  20 DB CE  JSR  $CEDB
 8A9D  E8        INX  
 8A9E  E8        INX  
 8A9F  60        RTS  
 8AA0  E0 71     CPX  #$71
 8AA2  30 03     BMI  $8AA7
 8AA4  4C 7D CE  JMP  $CE7D
 8AA7  38        SEC  
 8AA8  B5 06     LDA  $06, X
 8AAA  F5 02     SBC  $02, X
 8AAC  95 06     STA  $06, X
 8AAE  B5 07     LDA  $07, X
 8AB0  F5 03     SBC  $03, X
 8AB2  95 07     STA  $07, X
 8AB4  B5 04     LDA  $04, X
 8AB6  F5 00     SBC  $00, X
 8AB8  95 04     STA  $04, X
 8ABA  B5 05     LDA  $05, X
 8ABC  F5 01     SBC  $01, X
 8ABE  95 05     STA  $05, X
 8AC0  E8        INX  
 8AC1  E8        INX  
 8AC2  E8        INX  
 8AC3  E8        INX  
 8AC4  60        RTS  
 8AC5  E0 71     CPX  #$71
 8AC7  30 03     BMI  $8ACC
 8AC9  4C 7D CE  JMP  $CE7D
 8ACC  18        CLC  
 8ACD  B5 02     LDA  $02, X
 8ACF  75 06     ADC  $06, X
 8AD1  95 06     STA  $06, X
 8AD3  B5 03     LDA  $03, X
 8AD5  75 07     ADC  $07, X
 8AD7  95 07     STA  $07, X
 8AD9  B5 00     LDA  $00, X
 8ADB  75 04     ADC  $04, X
 8ADD  95 04     STA  $04, X
 8ADF  B5 01     LDA  $01, X
 8AE1  75 05     ADC  $05, X
 8AE3  95 05     STA  $05, X
 8AE5  E8        INX  
 8AE6  E8        INX  
 8AE7  E8        INX  
 8AE8  E8        INX  
 8AE9  60        RTS  
 8AEA  E0 75     CPX  #$75
 8AEC  30 03     BMI  $8AF1
 8AEE  4C 7D CE  JMP  $CE7D
 8AF1  E8        INX  
 8AF2  E8        INX  
 8AF3  60        RTS  
 8AF4  E0 75     CPX  #$75
 8AF6  30 03     BMI  $8AFB
 8AF8  4C 7D CE  JMP  $CE7D
 8AFB  B5 01     LDA  $01, X
 8AFD  10 17     BPL  $8B16
 8AFF  A0 00     LDY  #$00
 8B01  38        SEC  
 8B02  98        TYA  
 8B03  F5 02     SBC  $02, X
 8B05  95 02     STA  $02, X
 8B07  98        TYA  
 8B08  F5 03     SBC  $03, X
 8B0A  95 03     STA  $03, X
 8B0C  98        TYA  
 8B0D  F5 00     SBC  $00, X
 8B0F  95 00     STA  $00, X
 8B11  98        TYA  
 8B12  F5 01     SBC  $01, X
 8B14  95 01     STA  $01, X
 8B16  60        RTS  
 8B17  A9 0A     LDA  #$0A
 8B19  85 18     STA  $18
 8B1B  64 19     STZ  $19
 8B1D  60        RTS  
 8B1E  20 FD 89  JSR  $89FD
 8B21  A5 00     LDA  $00
 8B23  38        SEC  
 8B24  E9 02     SBC  #$02
 8B26  85 20     STA  $20
 8B28  A5 01     LDA  $01
 8B2A  E9 00     SBC  #$00
 8B2C  85 21     STA  $21
 8B2E  A0 00     LDY  #$00
 8B30  A9 72     LDA  #$72
 8B32  91 20     STA  ($20), Y
 8B34  C8        INY  
 8B35  A9 CD     LDA  #$CD
 8B37  91 20     STA  ($20), Y
 8B39  A9 86     LDA  #$86
 8B3B  92 00     STA  ($00)
 8B3D  E6 00     INC  $00
 8B3F  D0 02     BNE  $8B43
 8B41  E6 01     INC  $01
 8B43  A9 CD     LDA  #$CD
 8B45  92 00     STA  ($00)
 8B47  E6 00     INC  $00
 8B49  D0 02     BNE  $8B4D
 8B4B  E6 01     INC  $01
 8B4D  20 C1 89  JSR  $89C1
 8B50  60        RTS  
 8B51  A0 20     LDY  #$20
 8B53  B1 3C     LDA  ($3C), Y
 8B55  A0 04     LDY  #$04
 8B57  91 3C     STA  ($3C), Y
 8B59  A0 21     LDY  #$21
 8B5B  B1 3C     LDA  ($3C), Y
 8B5D  A0 05     LDY  #$05
 8B5F  91 3C     STA  ($3C), Y
 8B61  60        RTS  
 8B62  A9 78     LDA  #$78
 8B64  86 26     STX  $26
 8B66  38        SEC  
 8B67  E5 26     SBC  $26
 8B69  4A        LSR  
 8B6A  CA        DEX  
 8B6B  CA        DEX  
 8B6C  95 00     STA  $00, X
 8B6E  74 01     STZ  $01, X
 8B70  60        RTS  
 8B71  E0 77     CPX  #$77
 8B73  30 03     BMI  $8B78
 8B75  4C 7D CE  JMP  $CE7D
 8B78  CA        DEX  
 8B79  CA        DEX  
 8B7A  74 00     STZ  $00, X
 8B7C  74 01     STZ  $01, X
 8B7E  74 03     STZ  $03, X
 8B80  B5 02     LDA  $02, X
 8B82  C9 30     CMP  #$30
 8B84  90 23     BCC  $8BA9
 8B86  C9 3A     CMP  #$3A
 8B88  90 12     BCC  $8B9C
 8B8A  C9 41     CMP  #$41
 8B8C  90 1B     BCC  $8BA9
 8B8E  C9 61     CMP  #$61
 8B90  90 07     BCC  $8B99
 8B92  C9 7B     CMP  #$7B
 8B94  B0 03     BCS  $8B99
 8B96  18        CLC  
 8B97  69 E0     ADC  #$E0
 8B99  38        SEC  
 8B9A  E9 07     SBC  #$07
 8B9C  38        SEC  
 8B9D  E9 30     SBC  #$30
 8B9F  C5 18     CMP  $18
 8BA1  B0 06     BCS  $8BA9
 8BA3  95 02     STA  $02, X
 8BA5  D6 00     DEC  $00, X
 8BA7  D6 01     DEC  $01, X
 8BA9  60        RTS  
 8BAA  E0 75     CPX  #$75
 8BAC  30 03     BMI  $8BB1
 8BAE  4C 7D CE  JMP  $CE7D
 8BB1  20 FA A6  JSR  $A6FA
 8BB4  60        RTS  
 8BB5  E0 75     CPX  #$75
 8BB7  30 03     BMI  $8BBC
 8BB9  4C 7D CE  JMP  $CE7D
 8BBC  A0 00     LDY  #$00
 8BBE  38        SEC  
 8BBF  98        TYA  
 8BC0  F5 02     SBC  $02, X
 8BC2  95 02     STA  $02, X
 8BC4  98        TYA  
 8BC5  F5 03     SBC  $03, X
 8BC7  95 03     STA  $03, X
 8BC9  98        TYA  
 8BCA  F5 00     SBC  $00, X
 8BCC  95 00     STA  $00, X
 8BCE  98        TYA  
 8BCF  F5 01     SBC  $01, X
 8BD1  95 01     STA  $01, X
 8BD3  60        RTS  
 8BD4  A9 FF     LDA  #$FF
 8BD6  85 20     STA  $20
 8BD8  80 02     BRA  $8BDC
 8BDA  64 20     STZ  $20
 8BDC  CA        DEX  
 8BDD  CA        DEX  
 8BDE  A5 00     LDA  $00
 8BE0  95 00     STA  $00, X
 8BE2  A5 01     LDA  $01
 8BE4  95 01     STA  $01, X
 8BE6  A9 05     LDA  #$05
 8BE8  A8        TAY  
 8BE9  91 00     STA  ($00), Y
 8BEB  88        DEY  
 8BEC  10 FB     BPL  $8BE9
 8BEE  1A        INC  
 8BEF  18        CLC  
 8BF0  65 00     ADC  $00
 8BF2  85 00     STA  $00
 8BF4  90 02     BCC  $8BF8
 8BF6  E6 01     INC  $01
 8BF8  A5 20     LDA  $20
 8BFA  F0 17     BEQ  $8C13
 8BFC  A0 14     LDY  #$14
 8BFE  5A        PHY  
 8BFF  B9 59 8C  LDA  $8C59, Y
 8C02  91 00     STA  ($00), Y
 8C04  88        DEY  
 8C05  10 F8     BPL  $8BFF
 8C07  68        PLA  
 8C08  18        CLC  
 8C09  65 00     ADC  $00
 8C0B  85 00     STA  $00
 8C0D  A5 01     LDA  $01
 8C0F  69 00     ADC  #$00
 8C11  85 01     STA  $01
 8C13  A0 24     LDY  #$24
 8C15  5A        PHY  
 8C16  B9 35 8C  LDA  $8C35, Y
 8C19  91 00     STA  ($00), Y
 8C1B  88        DEY  
 8C1C  10 F8     BPL  $8C16
 8C1E  68        PLA  
 8C1F  18        CLC  
 8C20  65 00     ADC  $00
 8C22  85 00     STA  $00
 8C24  A5 01     LDA  $01
 8C26  69 00     ADC  #$00
 8C28  85 01     STA  $01
 8C2A  CA        DEX  
 8C2B  CA        DEX  
 8C2C  A5 00     LDA  $00
 8C2E  95 00     STA  $00, X
 8C30  A5 01     LDA  $01
 8C32  95 01     STA  $01, X
 8C34  60        RTS  
 8C35  38        SEC  
 8C36  A9 00     LDA  #$00
 8C38  F5 02     SBC  $02, X
 8C3A  95 02     STA  $02, X
 8C3C  A9 80     LDA  #$80
 8C3E  F5 03     SBC  $03, X
 8C40  95 03     STA  $03, X
 8C42  48        PHA  
 8C43  B5 02     LDA  $02, X
 8C45  48        PHA  
 8C46  18        CLC  
 8C47  B5 00     LDA  $00, X
 8C49  75 02     ADC  $02, X
 8C4B  95 00     STA  $00, X
 8C4D  B5 01     LDA  $01, X
 8C4F  75 03     ADC  $03, X
 8C51  48        PHA  
 8C52  B5 00     LDA  $00, X
 8C54  48        PHA  
 8C55  E8        INX  
 8C56  E8        INX  
 8C57  E8        INX  
 8C58  E8        INX  
 8C59  20 14 A2  JSR  $A214
 8C5C  20 9D 8E  JSR  $8E9D
 8C5F  B5 00     LDA  $00, X
 8C61  15 01     ORA  $01, X
 8C63  F0 06     BEQ  $8C6B
 8C65  8A        TXA  
 8C66  18        CLC  
 8C67  69 06     ADC  #$06
 8C69  AA        TAX  
 8C6A  60        RTS  
 8C6B  E8        INX  
 8C6C  E8        INX  
 8C6D  A0 8C     LDY  #$8C
 8C6F  A9 7C     LDA  #$7C
 8C71  20 45 CD  JSR  $CD45
 8C74  A0 CD     LDY  #$CD
 8C76  A9 8B     LDA  #$8B
 8C78  20 45 CD  JSR  $CD45
 8C7B  60        RTS  
 8C7C  7A        PLY  
 8C7D  68        PLA  
 8C7E  C8        INY  
 8C7F  D0 01     BNE  $8C82
 8C81  1A        INC  
 8C82  84 20     STY  $20
 8C84  85 21     STA  $21
 8C86  20 C8 CE  JSR  $CEC8
 8C89  A5 02     LDA  $02
 8C8B  18        CLC  
 8C8C  69 04     ADC  #$04
 8C8E  85 22     STA  $22
 8C90  A5 03     LDA  $03
 8C92  69 00     ADC  #$00
 8C94  85 23     STA  $23
 8C96  B2 22     LDA  ($22)
 8C98  18        CLC  
 8C99  69 01     ADC  #$01
 8C9B  85 24     STA  $24
 8C9D  A0 01     LDY  #$01
 8C9F  B1 22     LDA  ($22), Y
 8CA1  69 00     ADC  #$00
 8CA3  85 25     STA  $25
 8CA5  A5 20     LDA  $20
 8CA7  92 24     STA  ($24)
 8CA9  A5 21     LDA  $21
 8CAB  91 24     STA  ($24), Y
 8CAD  60        RTS  
 8CAE  E0 77     CPX  #$77
 8CB0  30 03     BMI  $8CB5
 8CB2  4C 7D CE  JMP  $CE7D
 8CB5  20 AC 8D  JSR  $8DAC
 8CB8  20 6F 81  JSR  $816F
 8CBB  20 D8 A5  JSR  $A5D8
 8CBE  20 9C 92  JSR  $929C
 8CC1  20 FD 96  JSR  $96FD
 8CC4  20 E7 99  JSR  $99E7
 8CC7  20 35 9E  JSR  $9E35
 8CCA  20 C7 96  JSR  $96C7
 8CCD  20 4D A3  JSR  $A34D
 8CD0  20 7C 9F  JSR  $9F7C
 8CD3  60        RTS  
 8CD4  20 6D 9B  JSR  $9B6D
 8CD7  A0 A3     LDY  #$A3
 8CD9  A9 4D     LDA  #$4D
 8CDB  20 45 CD  JSR  $CD45
 8CDE  60        RTS  
 8CDF  20 62 8B  JSR  $8B62
 8CE2  A9 3C     LDA  #$3C
 8CE4  20 D6 8D  JSR  $8DD6
 8CE7  B5 00     LDA  $00, X
 8CE9  48        PHA  
 8CEA  CA        DEX  
 8CEB  CA        DEX  
 8CEC  95 00     STA  $00, X
 8CEE  74 01     STZ  $01, X
 8CF0  20 B5 CE  JSR  $CEB5
 8CF3  A9 3E     LDA  #$3E
 8CF5  20 D6 8D  JSR  $8DD6
 8CF8  A9 20     LDA  #$20
 8CFA  20 D6 8D  JSR  $8DD6
 8CFD  E8        INX  
 8CFE  E8        INX  
 8CFF  E0 78     CPX  #$78
 8D01  F0 1E     BEQ  $8D21
 8D03  7A        PLY  
 8D04  A9 77     LDA  #$77
 8D06  85 24     STA  $24
 8D08  64 25     STZ  $25
 8D0A  CA        DEX  
 8D0B  CA        DEX  
 8D0C  B2 24     LDA  ($24)
 8D0E  95 01     STA  $01, X
 8D10  C6 24     DEC  $24
 8D12  B2 24     LDA  ($24)
 8D14  95 00     STA  $00, X
 8D16  C6 24     DEC  $24
 8D18  5A        PHY  
 8D19  20 AE 8C  JSR  $8CAE
 8D1C  7A        PLY  
 8D1D  88        DEY  
 8D1E  D0 EA     BNE  $8D0A
 8D20  48        PHA  
 8D21  68        PLA  
 8D22  60        RTS  
 8D23  E0 77     CPX  #$77
 8D25  30 03     BMI  $8D2A
 8D27  4C 7D CE  JMP  $CE7D
 8D2A  E8        INX  
 8D2B  E8        INX  
 8D2C  60        RTS  
 8D2D  E0 75     CPX  #$75
 8D2F  30 03     BMI  $8D34
 8D31  4C 7D CE  JMP  $CE7D
 8D34  A0 10     LDY  #$10
 8D36  64 22     STZ  $22
 8D38  20 F7 89  JSR  $89F7
 8D3B  B5 03     LDA  $03, X
 8D3D  20 B3 CD  JSR  $CDB3
 8D40  B5 02     LDA  $02, X
 8D42  20 B3 CD  JSR  $CDB3
 8D45  20 7C 9F  JSR  $9F7C
 8D48  20 7C 9F  JSR  $9F7C
 8D4B  B5 00     LDA  $00, X
 8D4D  15 01     ORA  $01, X
 8D4F  F0 39     BEQ  $8D8A
 8D51  A1 02     LDA  ($02, X)
 8D53  48        PHA  
 8D54  20 B3 CD  JSR  $CDB3
 8D57  20 7C 9F  JSR  $9F7C
 8D5A  68        PLA  
 8D5B  20 63 CE  JSR  $CE63
 8D5E  B0 02     BCS  $8D62
 8D60  A9 2E     LDA  #$2E
 8D62  5A        PHY  
 8D63  A4 22     LDY  $22
 8D65  91 00     STA  ($00), Y
 8D67  E6 22     INC  $22
 8D69  7A        PLY  
 8D6A  C0 09     CPY  #$09
 8D6C  D0 03     BNE  $8D71
 8D6E  20 7C 9F  JSR  $9F7C
 8D71  F6 02     INC  $02, X
 8D73  D0 02     BNE  $8D77
 8D75  F6 03     INC  $03, X
 8D77  B5 00     LDA  $00, X
 8D79  D0 02     BNE  $8D7D
 8D7B  D6 01     DEC  $01, X
 8D7D  D6 00     DEC  $00, X
 8D7F  88        DEY  
 8D80  D0 C9     BNE  $8D4B
 8D82  20 7C 9F  JSR  $9F7C
 8D85  20 98 8D  JSR  $8D98
 8D88  80 AA     BRA  $8D34
 8D8A  A5 22     LDA  $22
 8D8C  F0 06     BEQ  $8D94
 8D8E  20 7C 9F  JSR  $9F7C
 8D91  20 98 8D  JSR  $8D98
 8D94  20 08 A2  JSR  $A208
 8D97  60        RTS  
 8D98  A0 00     LDY  #$00
 8D9A  B1 00     LDA  ($00), Y
 8D9C  20 D6 8D  JSR  $8DD6
 8D9F  C8        INY  
 8DA0  C0 08     CPY  #$08
 8DA2  D0 03     BNE  $8DA7
 8DA4  20 7C 9F  JSR  $9F7C
 8DA7  C6 22     DEC  $22
 8DA9  D0 EF     BNE  $8D9A
 8DAB  60        RTS  
 8DAC  E0 77     CPX  #$77
 8DAE  30 03     BMI  $8DB3
 8DB0  4C 7D CE  JMP  $CE7D
 8DB3  CA        DEX  
 8DB4  CA        DEX  
 8DB5  B5 02     LDA  $02, X
 8DB7  95 00     STA  $00, X
 8DB9  B5 03     LDA  $03, X
 8DBB  95 01     STA  $01, X
 8DBD  60        RTS  
 8DBE  20 16 AF  JSR  $AF16
 8DC1  60        RTS  
 8DC2  CA        DEX  
 8DC3  CA        DEX  
 8DC4  A9 01     LDA  #$01
 8DC6  95 00     STA  $00, X
 8DC8  74 01     STZ  $01, X
 8DCA  60        RTS  
 8DCB  E0 77     CPX  #$77
 8DCD  30 03     BMI  $8DD2
 8DCF  4C 7D CE  JMP  $CE7D
 8DD2  B5 00     LDA  $00, X
 8DD4  E8        INX  
 8DD5  E8        INX  
 8DD6  6C 10 00  JMP  ($0010)
 8DD9  A0 34     LDY  #$34
 8DDB  A9 00     LDA  #$00
 8DDD  91 3C     STA  ($3C), Y
 8DDF  60        RTS  
 8DE0  E0 75     CPX  #$75
 8DE2  30 03     BMI  $8DE7
 8DE4  4C 7D CE  JMP  $CE7D
 8DE7  A0 00     LDY  #$00
 8DE9  5A        PHY  
 8DEA  20 14 A2  JSR  $A214
 8DED  CA        DEX  
 8DEE  CA        DEX  
 8DEF  B9 61 8E  LDA  $8E61, Y
 8DF2  95 00     STA  $00, X
 8DF4  C8        INY  
 8DF5  B9 61 8E  LDA  $8E61, Y
 8DF8  95 01     STA  $01, X
 8DFA  C8        INY  
 8DFB  15 00     ORA  $00, X
 8DFD  F0 4D     BEQ  $8E4C
 8DFF  5A        PHY  
 8E00  20 DF 89  JSR  $89DF
 8E03  20 0C 88  JSR  $880C
 8E06  7A        PLY  
 8E07  B5 00     LDA  $00, X
 8E09  15 01     ORA  $01, X
 8E0B  F0 04     BEQ  $8E11
 8E0D  E8        INX  
 8E0E  E8        INX  
 8E0F  80 D9     BRA  $8DEA
 8E11  E8        INX  
 8E12  E8        INX  
 8E13  88        DEY  
 8E14  88        DEY  
 8E15  68        PLA  
 8E16  D0 0D     BNE  $8E25
 8E18  B9 7F 8E  LDA  $8E7F, Y
 8E1B  95 02     STA  $02, X
 8E1D  C8        INY  
 8E1E  B9 7F 8E  LDA  $8E7F, Y
 8E21  95 03     STA  $03, X
 8E23  80 1F     BRA  $8E44
 8E25  CA        DEX  
 8E26  CA        DEX  
 8E27  98        TYA  
 8E28  38        SEC  
 8E29  E9 18     SBC  #$18
 8E2B  0A        ASL  
 8E2C  A8        TAY  
 8E2D  B9 95 8E  LDA  $8E95, Y
 8E30  95 02     STA  $02, X
 8E32  C8        INY  
 8E33  B9 95 8E  LDA  $8E95, Y
 8E36  95 03     STA  $03, X
 8E38  C8        INY  
 8E39  B9 95 8E  LDA  $8E95, Y
 8E3C  95 04     STA  $04, X
 8E3E  C8        INY  
 8E3F  B9 95 8E  LDA  $8E95, Y
 8E42  95 05     STA  $05, X
 8E44  A9 FF     LDA  #$FF
 8E46  95 00     STA  $00, X
 8E48  95 01     STA  $01, X
 8E4A  80 14     BRA  $8E60
 8E4C  68        PLA  
 8E4D  D0 09     BNE  $8E58
 8E4F  1A        INC  
 8E50  48        PHA  
 8E51  8A        TXA  
 8E52  18        CLC  
 8E53  69 06     ADC  #$06
 8E55  AA        TAX  
 8E56  80 92     BRA  $8DEA
 8E58  8A        TXA  
 8E59  18        CLC  
 8E5A  69 0A     ADC  #$0A
 8E5C  AA        TAX  
 8E5D  20 C6 8F  JSR  $8FC6
 8E60  60        RTS  
 8E61  C5 CC D5 CC DB CC E0 CC F2 CC FA CC 03 CD 09 CD  |................|
 8E71  0F CD 22 CD 2E CD 00 00 38 CD 3E CD 00 00 FF 7F  |..".....8.>.....|
 8E81  FF 00 54 00 08 00 00 00 FF 00 FF 7F FF FF 80 00  |..T.............|
 8E91  20 00 08 00 FF 7F FF FF FF FF FF FF              | ...........    |
 8E9D  E0 75     CPX  #$75
 8E9F  30 03     BMI  $8EA4
 8EA1  4C 7D CE  JMP  $CE7D
 8EA4  B5 00     LDA  $00, X
 8EA6  D5 02     CMP  $02, X
 8EA8  D0 0A     BNE  $8EB4
 8EAA  B5 01     LDA  $01, X
 8EAC  D5 03     CMP  $03, X
 8EAE  D0 04     BNE  $8EB4
 8EB0  A9 FF     LDA  #$FF
 8EB2  80 02     BRA  $8EB6
 8EB4  A9 00     LDA  #$00
 8EB6  95 02     STA  $02, X
 8EB8  95 03     STA  $03, X
 8EBA  E8        INX  
 8EBB  E8        INX  
 8EBC  60        RTS  
 8EBD  CA        DEX  
 8EBE  CA        DEX  
 8EBF  A9 20     LDA  #$20
 8EC1  95 00     STA  $00, X
 8EC3  74 01     STZ  $01, X
 8EC5  80 06     BRA  $8ECD
 8EC7  CA        DEX  
 8EC8  CA        DEX  
 8EC9  74 00     STZ  $00, X
 8ECB  74 01     STZ  $01, X
 8ECD  E0 73     CPX  #$73
 8ECF  30 03     BMI  $8ED4
 8ED1  4C 7D CE  JMP  $CE7D
 8ED4  B5 04     LDA  $04, X
 8ED6  85 20     STA  $20
 8ED8  B5 05     LDA  $05, X
 8EDA  85 21     STA  $21
 8EDC  B5 02     LDA  $02, X
 8EDE  85 22     STA  $22
 8EE0  B5 03     LDA  $03, X
 8EE2  85 23     STA  $23
 8EE4  B5 00     LDA  $00, X
 8EE6  A8        TAY  
 8EE7  A9 7F     LDA  #$7F
 8EE9  C5 21     CMP  $21
 8EEB  90 21     BCC  $8F0E
 8EED  D0 06     BNE  $8EF5
 8EEF  A9 FF     LDA  #$FF
 8EF1  C5 20     CMP  $20
 8EF3  90 19     BCC  $8F0E
 8EF5  A5 22     LDA  $22
 8EF7  05 23     ORA  $23
 8EF9  F0 13     BEQ  $8F0E
 8EFB  98        TYA  
 8EFC  92 20     STA  ($20)
 8EFE  A5 22     LDA  $22
 8F00  D0 02     BNE  $8F04
 8F02  C6 23     DEC  $23
 8F04  C6 22     DEC  $22
 8F06  E6 20     INC  $20
 8F08  D0 DD     BNE  $8EE7
 8F0A  E6 21     INC  $21
 8F0C  80 D9     BRA  $8EE7
 8F0E  8A        TXA  
 8F0F  18        CLC  
 8F10  69 06     ADC  #$06
 8F12  AA        TAX  
 8F13  60        RTS  
 8F14  20 E0 9C  JSR  $9CE0
 8F17  A0 34     LDY  #$34
 8F19  A9 00     LDA  #$00
 8F1B  91 3C     STA  ($3C), Y
 8F1D  60        RTS  
 8F1E  CA        DEX  
 8F1F  CA        DEX  
 8F20  74 00     STZ  $00, X
 8F22  74 01     STZ  $01, X
 8F24  60        RTS  
 8F25  A9 FF     LDA  #$FF
 8F27  85 20     STA  $20
 8F29  80 15     BRA  $8F40
 8F2B  E0 75     CPX  #$75
 8F2D  30 03     BMI  $8F32
 8F2F  4C 7D CE  JMP  $CE7D
 8F32  64 20     STZ  $20
 8F34  B5 00     LDA  $00, X
 8F36  15 01     ORA  $01, X
 8F38  D0 06     BNE  $8F40
 8F3A  E8        INX  
 8F3B  E8        INX  
 8F3C  E8        INX  
 8F3D  E8        INX  
 8F3E  80 6C     BRA  $8FAC
 8F40  A0 01     LDY  #$01
 8F42  B1 3C     LDA  ($3C), Y
 8F44  48        PHA  
 8F45  88        DEY  
 8F46  B1 3C     LDA  ($3C), Y
 8F48  48        PHA  
 8F49  A5 20     LDA  $20
 8F4B  D0 05     BNE  $8F52
 8F4D  91 3C     STA  ($3C), Y
 8F4F  C8        INY  
 8F50  91 3C     STA  ($3C), Y
 8F52  A5 0D     LDA  $0D
 8F54  48        PHA  
 8F55  A5 0C     LDA  $0C
 8F57  48        PHA  
 8F58  A5 07     LDA  $07
 8F5A  48        PHA  
 8F5B  A5 06     LDA  $06
 8F5D  48        PHA  
 8F5E  A5 09     LDA  $09
 8F60  48        PHA  
 8F61  A5 08     LDA  $08
 8F63  48        PHA  
 8F64  A5 0B     LDA  $0B
 8F66  48        PHA  
 8F67  A5 0A     LDA  $0A
 8F69  48        PHA  
 8F6A  A9 FF     LDA  #$FF
 8F6C  85 06     STA  $06
 8F6E  85 07     STA  $07
 8F70  64 0C     STZ  $0C
 8F72  64 0D     STZ  $0D
 8F74  B5 00     LDA  $00, X
 8F76  85 0A     STA  $0A
 8F78  B5 01     LDA  $01, X
 8F7A  85 0B     STA  $0B
 8F7C  B5 02     LDA  $02, X
 8F7E  85 08     STA  $08
 8F80  B5 03     LDA  $03, X
 8F82  85 09     STA  $09
 8F84  E8        INX  
 8F85  E8        INX  
 8F86  E8        INX  
 8F87  E8        INX  
 8F88  20 E5 CD  JSR  $CDE5
 8F8B  68        PLA  
 8F8C  85 0A     STA  $0A
 8F8E  68        PLA  
 8F8F  85 0B     STA  $0B
 8F91  68        PLA  
 8F92  85 08     STA  $08
 8F94  68        PLA  
 8F95  85 09     STA  $09
 8F97  68        PLA  
 8F98  85 06     STA  $06
 8F9A  68        PLA  
 8F9B  85 07     STA  $07
 8F9D  68        PLA  
 8F9E  85 0C     STA  $0C
 8FA0  68        PLA  
 8FA1  85 0D     STA  $0D
 8FA3  A0 00     LDY  #$00
 8FA5  68        PLA  
 8FA6  91 3C     STA  ($3C), Y
 8FA8  C8        INY  
 8FA9  68        PLA  
 8FAA  91 3C     STA  ($3C), Y
 8FAC  60        RTS  
 8FAD  E0 77     CPX  #$77
 8FAF  30 03     BMI  $8FB4
 8FB1  4C 7D CE  JMP  $CE7D
 8FB4  20 B8 8F  JSR  $8FB8
 8FB7  60        RTS  
 8FB8  B5 00     LDA  $00, X
 8FBA  85 0E     STA  $0E
 8FBC  B5 01     LDA  $01, X
 8FBE  85 0F     STA  $0F
 8FC0  E8        INX  
 8FC1  E8        INX  
 8FC2  6C 0E 00  JMP  ($000E)
 8FC5  60        RTS  
 8FC6  CA        DEX  
 8FC7  CA        DEX  
 8FC8  74 00     STZ  $00, X
 8FCA  74 01     STZ  $01, X
 8FCC  60        RTS  
 8FCD  E0 77     CPX  #$77
 8FCF  30 03     BMI  $8FD4
 8FD1  4C 7D CE  JMP  $CE7D
 8FD4  A1 00     LDA  ($00, X)
 8FD6  A8        TAY  
 8FD7  F6 00     INC  $00, X
 8FD9  D0 02     BNE  $8FDD
 8FDB  F6 01     INC  $01, X
 8FDD  A1 00     LDA  ($00, X)
 8FDF  95 01     STA  $01, X
 8FE1  94 00     STY  $00, X
 8FE3  60        RTS  
 8FE4  E0 77     CPX  #$77
 8FE6  30 03     BMI  $8FEB
 8FE8  4C 7D CE  JMP  $CE7D
 8FEB  B5 01     LDA  $01, X
 8FED  48        PHA  
 8FEE  B5 00     LDA  $00, X
 8FF0  48        PHA  
 8FF1  20 DF 89  JSR  $89DF
 8FF4  20 30 90  JSR  $9030
 8FF7  B5 00     LDA  $00, X
 8FF9  15 01     ORA  $01, X
 8FFB  D0 0B     BNE  $9008
 8FFD  20 C6 8F  JSR  $8FC6
 9000  68        PLA  
 9001  95 02     STA  $02, X
 9003  68        PLA  
 9004  95 03     STA  $03, X
 9006  80 27     BRA  $902F
 9008  68        PLA  
 9009  68        PLA  
 900A  20 AC 8D  JSR  $8DAC
 900D  20 36 95  JSR  $9536
 9010  20 07 A0  JSR  $A007
 9013  A0 00     LDY  #$00
 9015  F6 00     INC  $00, X
 9017  D0 02     BNE  $901B
 9019  F6 01     INC  $01, X
 901B  A1 00     LDA  ($00, X)
 901D  29 04     AND  #$04
 901F  D0 08     BNE  $9029
 9021  A9 FF     LDA  #$FF
 9023  95 00     STA  $00, X
 9025  95 01     STA  $01, X
 9027  80 06     BRA  $902F
 9029  A9 01     LDA  #$01
 902B  95 00     STA  $00, X
 902D  74 01     STZ  $01, X
 902F  60        RTS  
 9030  E0 75     CPX  #$75
 9032  30 03     BMI  $9037
 9034  4C 7D CE  JMP  $CE7D
 9037  B5 00     LDA  $00, X
 9039  15 01     ORA  $01, X
 903B  D0 03     BNE  $9040
 903D  4C DA 90  JMP  $90DA
 9040  64 24     STZ  $24
 9042  A0 1E     LDY  #$1E
 9044  A5 24     LDA  $24
 9046  D1 3C     CMP  ($3C), Y
 9048  D0 03     BNE  $904D
 904A  4C DA 90  JMP  $90DA
 904D  0A        ASL  
 904E  18        CLC  
 904F  69 20     ADC  #$20
 9051  A8        TAY  
 9052  B1 3C     LDA  ($3C), Y
 9054  0A        ASL  
 9055  18        CLC  
 9056  69 08     ADC  #$08
 9058  A8        TAY  
 9059  B1 3C     LDA  ($3C), Y
 905B  85 20     STA  $20
 905D  C8        INY  
 905E  B1 3C     LDA  ($3C), Y
 9060  85 21     STA  $21
 9062  B5 02     LDA  $02, X
 9064  85 22     STA  $22
 9066  B5 03     LDA  $03, X
 9068  85 23     STA  $23
 906A  B2 20     LDA  ($20)
 906C  D5 00     CMP  $00, X
 906E  D0 54     BNE  $90C4
 9070  B2 22     LDA  ($22)
 9072  C9 5B     CMP  #$5B
 9074  B0 07     BCS  $907D
 9076  C9 41     CMP  #$41
 9078  90 03     BCC  $907D
 907A  18        CLC  
 907B  69 20     ADC  #$20
 907D  A0 08     LDY  #$08
 907F  D1 20     CMP  ($20), Y
 9081  D0 41     BNE  $90C4
 9083  B5 00     LDA  $00, X
 9085  3A        DEC  
 9086  F0 2C     BEQ  $90B4
 9088  A5 20     LDA  $20
 908A  48        PHA  
 908B  18        CLC  
 908C  69 08     ADC  #$08
 908E  85 20     STA  $20
 9090  A5 21     LDA  $21
 9092  48        PHA  
 9093  69 00     ADC  #$00
 9095  85 21     STA  $21
 9097  B4 00     LDY  $00, X
 9099  88        DEY  
 909A  B1 22     LDA  ($22), Y
 909C  C9 5B     CMP  #$5B
 909E  B0 07     BCS  $90A7
 90A0  C9 41     CMP  #$41
 90A2  90 03     BCC  $90A7
 90A4  18        CLC  
 90A5  69 20     ADC  #$20
 90A7  D1 20     CMP  ($20), Y
 90A9  D0 13     BNE  $90BE
 90AB  88        DEY  
 90AC  D0 EC     BNE  $909A
 90AE  68        PLA  
 90AF  85 21     STA  $21
 90B1  68        PLA  
 90B2  85 20     STA  $20
 90B4  A5 20     LDA  $20
 90B6  95 02     STA  $02, X
 90B8  A5 21     LDA  $21
 90BA  95 03     STA  $03, X
 90BC  80 20     BRA  $90DE
 90BE  68        PLA  
 90BF  85 21     STA  $21
 90C1  68        PLA  
 90C2  85 20     STA  $20
 90C4  A0 02     LDY  #$02
 90C6  B1 20     LDA  ($20), Y
 90C8  48        PHA  
 90C9  C8        INY  
 90CA  B1 20     LDA  ($20), Y
 90CC  85 21     STA  $21
 90CE  68        PLA  
 90CF  85 20     STA  $20
 90D1  05 21     ORA  $21
 90D3  D0 95     BNE  $906A
 90D5  E6 24     INC  $24
 90D7  4C 42 90  JMP  $9042
 90DA  74 02     STZ  $02, X
 90DC  74 03     STZ  $03, X
 90DE  E8        INX  
 90DF  E8        INX  
 90E0  60        RTS  
 90E1  E0 73     CPX  #$73
 90E3  30 03     BMI  $90E8
 90E5  4C 7D CE  JMP  $CE7D
 90E8  64 22     STZ  $22
 90EA  B5 01     LDA  $01, X
 90EC  10 0E     BPL  $90FC
 90EE  E6 22     INC  $22
 90F0  20 80 95  JSR  $9580
 90F3  20 C0 A1  JSR  $A1C0
 90F6  20 B5 8B  JSR  $8BB5
 90F9  20 50 99  JSR  $9950
 90FC  B5 03     LDA  $03, X
 90FE  10 0D     BPL  $910D
 9100  18        CLC  
 9101  B5 00     LDA  $00, X
 9103  75 02     ADC  $02, X
 9105  95 02     STA  $02, X
 9107  B5 01     LDA  $01, X
 9109  75 03     ADC  $03, X
 910B  95 03     STA  $03, X
 910D  20 F1 A3  JSR  $A3F1
 9110  A5 22     LDA  $22
 9112  F0 07     BEQ  $911B
 9114  E8        INX  
 9115  E8        INX  
 9116  20 80 95  JSR  $9580
 9119  CA        DEX  
 911A  CA        DEX  
 911B  60        RTS  
 911C  CA        DEX  
 911D  CA        DEX  
 911E  A0 04     LDY  #$04
 9120  B1 3C     LDA  ($3C), Y
 9122  95 00     STA  $00, X
 9124  C8        INY  
 9125  B1 3C     LDA  ($3C), Y
 9127  95 01     STA  $01, X
 9129  60        RTS  
 912A  A0 1E     LDY  #$1E
 912C  B1 3C     LDA  ($3C), Y
 912E  0A        ASL  
 912F  85 20     STA  $20
 9131  F0 1B     BEQ  $914E
 9133  C6 20     DEC  $20
 9135  C6 20     DEC  $20
 9137  A9 20     LDA  #$20
 9139  18        CLC  
 913A  65 20     ADC  $20
 913C  A8        TAY  
 913D  CA        DEX  
 913E  CA        DEX  
 913F  B1 3C     LDA  ($3C), Y
 9141  95 00     STA  $00, X
 9143  C8        INY  
 9144  B1 3C     LDA  ($3C), Y
 9146  95 01     STA  $01, X
 9148  A9 00     LDA  #$00
 914A  C5 20     CMP  $20
 914C  D0 E5     BNE  $9133
 914E  CA        DEX  
 914F  CA        DEX  
 9150  A0 1E     LDY  #$1E
 9152  B1 3C     LDA  ($3C), Y
 9154  95 00     STA  $00, X
 9156  74 01     STZ  $01, X
 9158  60        RTS  
 9159  E0 75     CPX  #$75
 915B  30 03     BMI  $9160
 915D  4C 7D CE  JMP  $CE7D
 9160  A0 00     LDY  #$00
 9162  20 CA CD  JSR  $CDCA
 9165  F0 03     BEQ  $916A
 9167  10 01     BPL  $916A
 9169  88        DEY  
 916A  98        TYA  
 916B  E8        INX  
 916C  E8        INX  
 916D  95 00     STA  $00, X
 916F  95 01     STA  $01, X
 9171  60        RTS  
 9172  CA        DEX  
 9173  CA        DEX  
 9174  A5 00     LDA  $00
 9176  95 00     STA  $00, X
 9178  A5 01     LDA  $01
 917A  95 01     STA  $01, X
 917C  60        RTS  
 917D  A9 10     LDA  #$10
 917F  85 18     STA  $18
 9181  64 19     STZ  $19
 9183  60        RTS  
 9184  E0 77     CPX  #$77
 9186  30 03     BMI  $918B
 9188  4C 7D CE  JMP  $CE7D
 918B  A5 30     LDA  $30
 918D  D0 02     BNE  $9191
 918F  C6 31     DEC  $31
 9191  C6 30     DEC  $30
 9193  B5 00     LDA  $00, X
 9195  92 30     STA  ($30)
 9197  E8        INX  
 9198  E8        INX  
 9199  60        RTS  
 919A  CA        DEX  
 919B  CA        DEX  
 919C  86 26     STX  $26
 919E  BA        TSX  
 919F  38        SEC  
 91A0  BD 01 01  LDA  $0101, X
 91A3  FD 03 01  SBC  $0103, X
 91A6  A8        TAY  
 91A7  BD 02 01  LDA  $0102, X
 91AA  FD 04 01  SBC  $0104, X
 91AD  A6 26     LDX  $26
 91AF  95 01     STA  $01, X
 91B1  94 00     STY  $00, X
 91B3  60        RTS  
 91B4  20 C8 CE  JSR  $CEC8
 91B7  A0 01     LDY  #$01
 91B9  B1 02     LDA  ($02), Y
 91BB  09 04     ORA  #$04
 91BD  91 02     STA  ($02), Y
 91BF  60        RTS  
 91C0  CA        DEX  
 91C1  CA        DEX  
 91C2  A9 12     LDA  #$12
 91C4  95 00     STA  $00, X
 91C6  A9 00     LDA  #$00
 91C8  95 01     STA  $01, X
 91CA  60        RTS  
 91CB  E0 77     CPX  #$77
 91CD  30 03     BMI  $91D2
 91CF  4C 7D CE  JMP  $CE7D
 91D2  CA        DEX  
 91D3  CA        DEX  
 91D4  74 00     STZ  $00, X
 91D6  74 01     STZ  $01, X
 91D8  B5 00     LDA  $00, X
 91DA  0A        ASL  
 91DB  18        CLC  
 91DC  69 08     ADC  #$08
 91DE  A8        TAY  
 91DF  B1 3C     LDA  ($3C), Y
 91E1  85 22     STA  $22
 91E3  C8        INY  
 91E4  B1 3C     LDA  ($3C), Y
 91E6  85 23     STA  $23
 91E8  A5 22     LDA  $22
 91EA  05 23     ORA  $23
 91EC  F0 38     BEQ  $9226
 91EE  B5 02     LDA  $02, X
 91F0  85 24     STA  $24
 91F2  B5 03     LDA  $03, X
 91F4  85 25     STA  $25
 91F6  A0 04     LDY  #$04
 91F8  B1 22     LDA  ($22), Y
 91FA  C5 24     CMP  $24
 91FC  D0 07     BNE  $9205
 91FE  C8        INY  
 91FF  B1 22     LDA  ($22), Y
 9201  C5 25     CMP  $25
 9203  F0 32     BEQ  $9237
 9205  18        CLC  
 9206  A5 22     LDA  $22
 9208  69 02     ADC  #$02
 920A  85 22     STA  $22
 920C  A5 23     LDA  $23
 920E  69 00     ADC  #$00
 9210  85 23     STA  $23
 9212  A0 00     LDY  #$00
 9214  B1 22     LDA  ($22), Y
 9216  48        PHA  
 9217  C8        INY  
 9218  11 22     ORA  ($22), Y
 921A  F0 09     BEQ  $9225
 921C  B1 22     LDA  ($22), Y
 921E  85 23     STA  $23
 9220  68        PLA  
 9221  85 22     STA  $22
 9223  80 D1     BRA  $91F6
 9225  68        PLA  
 9226  B5 00     LDA  $00, X
 9228  1A        INC  
 9229  95 00     STA  $00, X
 922B  C9 0B     CMP  #$0B
 922D  D0 A9     BNE  $91D8
 922F  E8        INX  
 9230  E8        INX  
 9231  74 00     STZ  $00, X
 9233  74 01     STZ  $01, X
 9235  80 0A     BRA  $9241
 9237  E8        INX  
 9238  E8        INX  
 9239  A5 22     LDA  $22
 923B  95 00     STA  $00, X
 923D  A5 23     LDA  $23
 923F  95 01     STA  $01, X
 9241  60        RTS  
 9242  E0 77     CPX  #$77
 9244  30 03     BMI  $9249
 9246  4C 7D CE  JMP  $CE7D
 9249  A9 FF     LDA  #$FF
 924B  55 00     EOR  $00, X
 924D  95 00     STA  $00, X
 924F  A9 FF     LDA  #$FF
 9251  55 01     EOR  $01, X
 9253  95 01     STA  $01, X
 9255  60        RTS  
 9256  CA        DEX  
 9257  CA        DEX  
 9258  86 26     STX  $26
 925A  BA        TSX  
 925B  38        SEC  
 925C  BD 07 01  LDA  $0107, X
 925F  FD 09 01  SBC  $0109, X
 9262  A8        TAY  
 9263  BD 08 01  LDA  $0108, X
 9266  FD 0A 01  SBC  $010A, X
 9269  A6 26     LDX  $26
 926B  95 01     STA  $01, X
 926D  94 00     STY  $00, X
 926F  60        RTS  
 9270  20 7A 92  JSR  $927A
 9273  CA        DEX  
 9274  CA        DEX  
 9275  95 00     STA  $00, X
 9277  74 01     STZ  $01, X
 9279  60        RTS  
 927A  6C 12 00  JMP  ($0012)
 927D  CA        DEX  
 927E  CA        DEX  
 927F  20 C8 CE  JSR  $CEC8
 9282  A5 02     LDA  $02
 9284  95 00     STA  $00, X
 9286  A5 03     LDA  $03
 9288  95 01     STA  $01, X
 928A  60        RTS  
 928B  20 7D 92  JSR  $927D
 928E  20 36 95  JSR  $9536
 9291  60        RTS  
 9292  68        PLA  
 9293  68        PLA  
 9294  68        PLA  
 9295  68        PLA  
 9296  60        RTS  
 9297  64 16     STZ  $16
 9299  64 17     STZ  $17
 929B  60        RTS  
 929C  20 6C 97  JSR  $976C
 929F  B5 00     LDA  $00, X
 92A1  85 30     STA  $30
 92A3  B5 01     LDA  $01, X
 92A5  85 31     STA  $31
 92A7  E8        INX  
 92A8  E8        INX  
 92A9  60        RTS  
 92AA  E0 75     CPX  #$75
 92AC  30 03     BMI  $92B1
 92AE  4C 7D CE  JMP  $CE7D
 92B1  A0 00     LDY  #$00
 92B3  20 CA CD  JSR  $CDCA
 92B6  F0 03     BEQ  $92BB
 92B8  30 01     BMI  $92BB
 92BA  88        DEY  
 92BB  98        TYA  
 92BC  E8        INX  
 92BD  E8        INX  
 92BE  95 00     STA  $00, X
 92C0  95 01     STA  $01, X
 92C2  60        RTS  
 92C3  E0 77     CPX  #$77
 92C5  30 03     BMI  $92CA
 92C7  4C 7D CE  JMP  $CE7D
 92CA  20 FB 9C  JSR  $9CFB
 92CD  20 ED 9F  JSR  $9FED
 92D0  20 78 A6  JSR  $A678
 92D3  60        RTS  
 92D4  E0 77     CPX  #$77
 92D6  30 03     BMI  $92DB
 92D8  4C 7D CE  JMP  $CE7D
 92DB  A0 92     LDY  #$92
 92DD  A9 E6     LDA  #$E6
 92DF  20 45 CD  JSR  $CD45
 92E2  20 EE 87  JSR  $87EE
 92E5  60        RTS  
 92E6  CA        DEX  
 92E7  CA        DEX  
 92E8  68        PLA  
 92E9  85 20     STA  $20
 92EB  68        PLA  
 92EC  85 21     STA  $21
 92EE  A0 01     LDY  #$01
 92F0  B1 20     LDA  ($20), Y
 92F2  95 00     STA  $00, X
 92F4  C8        INY  
 92F5  B1 20     LDA  ($20), Y
 92F7  95 01     STA  $01, X
 92F9  98        TYA  
 92FA  18        CLC  
 92FB  65 20     ADC  $20
 92FD  A8        TAY  
 92FE  A5 21     LDA  $21
 9300  69 00     ADC  #$00
 9302  48        PHA  
 9303  5A        PHY  
 9304  60        RTS  
 9305  E0 77     CPX  #$77
 9307  30 03     BMI  $930C
 9309  4C 7D CE  JMP  $CE7D
 930C  A0 01     LDY  #$01
 930E  B1 3C     LDA  ($3C), Y
 9310  48        PHA  
 9311  88        DEY  
 9312  B1 3C     LDA  ($3C), Y
 9314  48        PHA  
 9315  B5 00     LDA  $00, X
 9317  91 3C     STA  ($3C), Y
 9319  C8        INY  
 931A  B5 01     LDA  $01, X
 931C  91 3C     STA  ($3C), Y
 931E  20 FD 83  JSR  $83FD
 9321  CA        DEX  
 9322  CA        DEX  
 9323  A9 04     LDA  #$04
 9325  95 01     STA  $01, X
 9327  74 00     STZ  $00, X
 9329  20 25 8F  JSR  $8F25
 932C  A0 00     LDY  #$00
 932E  68        PLA  
 932F  91 3C     STA  ($3C), Y
 9331  C8        INY  
 9332  68        PLA  
 9333  91 3C     STA  ($3C), Y
 9335  88        DEY  
 9336  11 3C     ORA  ($3C), Y
 9338  F0 12     BEQ  $934C
 933A  CA        DEX  
 933B  CA        DEX  
 933C  A0 00     LDY  #$00
 933E  B1 3C     LDA  ($3C), Y
 9340  95 00     STA  $00, X
 9342  C8        INY  
 9343  B1 3C     LDA  ($3C), Y
 9345  95 01     STA  $01, X
 9347  20 FD 83  JSR  $83FD
 934A  E8        INX  
 934B  E8        INX  
 934C  60        RTS  
 934D  A0 97     LDY  #$97
 934F  A9 12     LDA  #$12
 9351  20 45 CD  JSR  $CD45
 9354  A0 11     LDY  #$11
 9356  5A        PHY  
 9357  B9 BB 93  LDA  $93BB, Y
 935A  91 00     STA  ($00), Y
 935C  88        DEY  
 935D  10 F8     BPL  $9357
 935F  68        PLA  
 9360  18        CLC  
 9361  65 00     ADC  $00
 9363  85 00     STA  $00
 9365  A5 01     LDA  $01
 9367  69 00     ADC  #$00
 9369  85 01     STA  $01
 936B  20 EE 87  JSR  $87EE
 936E  A9 68     LDA  #$68
 9370  A0 06     LDY  #$06
 9372  91 00     STA  ($00), Y
 9374  88        DEY  
 9375  10 FB     BPL  $9372
 9377  A9 06     LDA  #$06
 9379  18        CLC  
 937A  65 00     ADC  $00
 937C  85 00     STA  $00
 937E  A5 01     LDA  $01
 9380  69 00     ADC  #$00
 9382  85 01     STA  $01
 9384  B5 00     LDA  $00, X
 9386  85 20     STA  $20
 9388  B5 01     LDA  $01, X
 938A  85 21     STA  $21
 938C  E8        INX  
 938D  E8        INX  
 938E  A5 00     LDA  $00
 9390  38        SEC  
 9391  E9 01     SBC  #$01
 9393  85 22     STA  $22
 9395  A5 01     LDA  $01
 9397  E9 00     SBC  #$00
 9399  85 23     STA  $23
 939B  A0 00     LDY  #$00
 939D  A9 A9     LDA  #$A9
 939F  91 20     STA  ($20), Y
 93A1  C8        INY  
 93A2  A5 23     LDA  $23
 93A4  91 20     STA  ($20), Y
 93A6  C8        INY  
 93A7  A9 48     LDA  #$48
 93A9  91 20     STA  ($20), Y
 93AB  C8        INY  
 93AC  A9 A9     LDA  #$A9
 93AE  91 20     STA  ($20), Y
 93B0  C8        INY  
 93B1  A5 22     LDA  $22
 93B3  91 20     STA  ($20), Y
 93B5  C8        INY  
 93B6  A9 48     LDA  #$48
 93B8  91 20     STA  ($20), Y
 93BA  60        RTS  
 93BB  18        CLC  
 93BC  68        PLA  
 93BD  75 00     ADC  $00, X
 93BF  A8        TAY  
 93C0  B8        CLV  
 93C1  68        PLA  
 93C2  75 01     ADC  $01, X
 93C4  48        PHA  
 93C5  98        TYA  
 93C6  48        PHA  
 93C7  E8        INX  
 93C8  E8        INX  
 93C9  70 03     BVS  $93CE
 93CB  4C                                               |L               |
 93CC  E0 75     CPX  #$75
 93CE  30 03     BMI  $93D3
 93D0  4C 7D CE  JMP  $CE7D
 93D3  B5 00     LDA  $00, X
 93D5  29 0F     AND  #$0F
 93D7  F0 08     BEQ  $93E1
 93D9  A8        TAY  
 93DA  16 02     ASL  $02, X
 93DC  36 03     ROL  $03, X
 93DE  88        DEY  
 93DF  D0 F9     BNE  $93DA
 93E1  E8        INX  
 93E2  E8        INX  
 93E3  60        RTS  
 93E4  E0 75     CPX  #$75
 93E6  30 03     BMI  $93EB
 93E8  4C 7D CE  JMP  $CE7D
 93EB  B5 01     LDA  $01, X
 93ED  55 03     EOR  $03, X
 93EF  48        PHA  
 93F0  20 6F 81  JSR  $816F
 93F3  20 07 A0  JSR  $A007
 93F6  20 6F 81  JSR  $816F
 93F9  20 37 A4  JSR  $A437
 93FC  68        PLA  
 93FD  10 03     BPL  $9402
 93FF  20 B5 8B  JSR  $8BB5
 9402  60        RTS  
 9403  20 C8 CE  JSR  $CEC8
 9406  A5 02     LDA  $02
 9408  48        PHA  
 9409  A5 03     LDA  $03
 940B  48        PHA  
 940C  A5 00     LDA  $00
 940E  48        PHA  
 940F  A5 01     LDA  $01
 9411  48        PHA  
 9412  20 FD 89  JSR  $89FD
 9415  A5 00     LDA  $00
 9417  38        SEC  
 9418  E9 02     SBC  #$02
 941A  85 00     STA  $00
 941C  A5 01     LDA  $01
 941E  E9 00     SBC  #$00
 9420  85 01     STA  $01
 9422  A0 94     LDY  #$94
 9424  A9 41     LDA  #$41
 9426  20 51 CD  JSR  $CD51
 9429  7A        PLY  
 942A  68        PLA  
 942B  20 51 CD  JSR  $CD51
 942E  7A        PLY  
 942F  68        PLA  
 9430  20 51 CD  JSR  $CD51
 9433  A0 04     LDY  #$04
 9435  B1 3C     LDA  ($3C), Y
 9437  20 55 CD  JSR  $CD55
 943A  C8        INY  
 943B  98        TYA  
 943C  C9 30     CMP  #$30
 943E  D0 F5     BNE  $9435
 9440  60        RTS  
 9441  68        PLA  
 9442  85 20     STA  $20
 9444  68        PLA  
 9445  85 21     STA  $21
 9447  E6 20     INC  $20
 9449  D0 02     BNE  $944D
 944B  E6 21     INC  $21
 944D  A0 00     LDY  #$00
 944F  B1 20     LDA  ($20), Y
 9451  85 00     STA  $00
 9453  C8        INY  
 9454  B1 20     LDA  ($20), Y
 9456  85 01     STA  $01
 9458  C8        INY  
 9459  B1 20     LDA  ($20), Y
 945B  85 02     STA  $02
 945D  C8        INY  
 945E  B1 20     LDA  ($20), Y
 9460  85 03     STA  $03
 9462  A0 04     LDY  #$04
 9464  B1 20     LDA  ($20), Y
 9466  91 3C     STA  ($3C), Y
 9468  C8        INY  
 9469  98        TYA  
 946A  C9 30     CMP  #$30
 946C  D0 F6     BNE  $9464
 946E  20 DB CE  JSR  $CEDB
 9471  60        RTS  
 9472  E0 75     CPX  #$75
 9474  30 03     BMI  $9479
 9476  4C 7D CE  JMP  $CE7D
 9479  B5 00     LDA  $00, X
 947B  D5 02     CMP  $02, X
 947D  B5 01     LDA  $01, X
 947F  F5 03     SBC  $03, X
 9481  50 02     BVC  $9485
 9483  49 80     EOR  #$80
 9485  30 08     BMI  $948F
 9487  B5 00     LDA  $00, X
 9489  95 02     STA  $02, X
 948B  B5 01     LDA  $01, X
 948D  95 03     STA  $03, X
 948F  E8        INX  
 9490  E8        INX  
 9491  60        RTS  
 9492  E0 75     CPX  #$75
 9494  30 03     BMI  $9499
 9496  4C 7D CE  JMP  $CE7D
 9499  B5 00     LDA  $00, X
 949B  D5 02     CMP  $02, X
 949D  B5 01     LDA  $01, X
 949F  F5 03     SBC  $03, X
 94A1  50 02     BVC  $94A5
 94A3  49 80     EOR  #$80
 94A5  10 08     BPL  $94AF
 94A7  B5 00     LDA  $00, X
 94A9  95 02     STA  $02, X
 94AB  B5 01     LDA  $01, X
 94AD  95 03     STA  $03, X
 94AF  E8        INX  
 94B0  E8        INX  
 94B1  60        RTS  
 94B2  E0 75     CPX  #$75
 94B4  30 03     BMI  $94B9
 94B6  4C 7D CE  JMP  $CE7D
 94B9  38        SEC  
 94BA  B5 02     LDA  $02, X
 94BC  F5 00     SBC  $00, X
 94BE  95 02     STA  $02, X
 94C0  B5 03     LDA  $03, X
 94C2  F5 01     SBC  $01, X
 94C4  95 03     STA  $03, X
 94C6  E8        INX  
 94C7  E8        INX  
 94C8  60        RTS  
 94C9  E0 75     CPX  #$75
 94CB  30 03     BMI  $94D0
 94CD  4C 7D CE  JMP  $CE7D
 94D0  B5 00     LDA  $00, X
 94D2  15 01     ORA  $01, X
 94D4  F0 33     BEQ  $9509
 94D6  18        CLC  
 94D7  B5 02     LDA  $02, X
 94D9  75 00     ADC  $00, X
 94DB  85 20     STA  $20
 94DD  B5 03     LDA  $03, X
 94DF  75 01     ADC  $01, X
 94E1  85 21     STA  $21
 94E3  A5 20     LDA  $20
 94E5  D0 02     BNE  $94E9
 94E7  C6 21     DEC  $21
 94E9  C6 20     DEC  $20
 94EB  B2 20     LDA  ($20)
 94ED  C9 20     CMP  #$20
 94EF  D0 18     BNE  $9509
 94F1  A5 20     LDA  $20
 94F3  D0 02     BNE  $94F7
 94F5  C6 21     DEC  $21
 94F7  C6 20     DEC  $20
 94F9  B5 00     LDA  $00, X
 94FB  D0 02     BNE  $94FF
 94FD  D6 01     DEC  $01, X
 94FF  D6 00     DEC  $00, X
 9501  B5 00     LDA  $00, X
 9503  15 01     ORA  $01, X
 9505  F0 02     BEQ  $9509
 9507  80 E2     BRA  $94EB
 9509  60        RTS  
 950A  E0 77     CPX  #$77
 950C  30 03     BMI  $9511
 950E  4C 7D CE  JMP  $CE7D
 9511  20 53 9E  JSR  $9E53
 9514  E8        INX  
 9515  E8        INX  
 9516  60        RTS  
 9517  B5 03     LDA  $03, X
 9519  D5 05     CMP  $05, X
 951B  F0 05     BEQ  $9522
 951D  B0 0E     BCS  $952D
 951F  4C 11 87  JMP  $8711
 9522  B5 02     LDA  $02, X
 9524  D5 04     CMP  $04, X
 9526  F0 08     BEQ  $9530
 9528  B0 03     BCS  $952D
 952A  4C 11 87  JMP  $8711
 952D  4C 50 87  JMP  $8750
 9530  8A        TXA  
 9531  18        CLC  
 9532  69 06     ADC  #$06
 9534  AA        TAX  
 9535  60        RTS  
 9536  E0 77     CPX  #$77
 9538  30 03     BMI  $953D
 953A  4C 7D CE  JMP  $CE7D
 953D  B5 00     LDA  $00, X
 953F  18        CLC  
 9540  69 04     ADC  #$04
 9542  85 24     STA  $24
 9544  B5 01     LDA  $01, X
 9546  90 01     BCC  $9549
 9548  1A        INC  
 9549  85 25     STA  $25
 954B  A0 00     LDY  #$00
 954D  B1 24     LDA  ($24), Y
 954F  95 00     STA  $00, X
 9551  C8        INY  
 9552  B1 24     LDA  ($24), Y
 9554  95 01     STA  $01, X
 9556  60        RTS  
 9557  E0 77     CPX  #$77
 9559  30 03     BMI  $955E
 955B  4C 7D CE  JMP  $CE7D
 955E  CA        DEX  
 955F  CA        DEX  
 9560  A1 02     LDA  ($02, X)
 9562  95 00     STA  $00, X
 9564  74 01     STZ  $01, X
 9566  B5 02     LDA  $02, X
 9568  18        CLC  
 9569  69 08     ADC  #$08
 956B  A8        TAY  
 956C  B5 03     LDA  $03, X
 956E  69 00     ADC  #$00
 9570  95 03     STA  $03, X
 9572  94 02     STY  $02, X
 9574  60        RTS  
 9575  CA        DEX  
 9576  CA        DEX  
 9577  A9 1A     LDA  #$1A
 9579  95 00     STA  $00, X
 957B  A9 00     LDA  #$00
 957D  95 01     STA  $01, X
 957F  60        RTS  
 9580  E0 77     CPX  #$77
 9582  30 03     BMI  $9587
 9584  4C 7D CE  JMP  $CE7D
 9587  A9 00     LDA  #$00
 9589  38        SEC  
 958A  F5 00     SBC  $00, X
 958C  95 00     STA  $00, X
 958E  A9 00     LDA  #$00
 9590  F5 01     SBC  $01, X
 9592  95 01     STA  $01, X
 9594  60        RTS  
 9595  20 C8 CE  JSR  $CEC8
 9598  A0 01     LDY  #$01
 959A  B1 02     LDA  ($02), Y
 959C  09 08     ORA  #$08
 959E  29 FD     AND  #$FD
 95A0  91 02     STA  ($02), Y
 95A2  60        RTS  
 95A3  E0 75     CPX  #$75
 95A5  30 03     BMI  $95AA
 95A7  4C 7D CE  JMP  $CE7D
 95AA  B5 00     LDA  $00, X
 95AC  95 02     STA  $02, X
 95AE  B5 01     LDA  $01, X
 95B0  95 03     STA  $03, X
 95B2  E8        INX  
 95B3  E8        INX  
 95B4  60        RTS  
 95B5  E0 75     CPX  #$75
 95B7  30 03     BMI  $95BC
 95B9  4C 7D CE  JMP  $CE7D
 95BC  A0 00     LDY  #$00
 95BE  B5 00     LDA  $00, X
 95C0  D5 02     CMP  $02, X
 95C2  D0 0A     BNE  $95CE
 95C4  B5 01     LDA  $01, X
 95C6  D5 03     CMP  $03, X
 95C8  D0 04     BNE  $95CE
 95CA  A9 FF     LDA  #$FF
 95CC  80 01     BRA  $95CF
 95CE  88        DEY  
 95CF  98        TYA  
 95D0  E8        INX  
 95D1  E8        INX  
 95D2  95 00     STA  $00, X
 95D4  95 01     STA  $01, X
 95D6  60        RTS  
 95D7  E0 73     CPX  #$73
 95D9  30 03     BMI  $95DE
 95DB  4C 7D CE  JMP  $CE7D
 95DE  B4 01     LDY  $01, X
 95E0  B5 03     LDA  $03, X
 95E2  95 01     STA  $01, X
 95E4  B5 05     LDA  $05, X
 95E6  95 03     STA  $03, X
 95E8  94 05     STY  $05, X
 95EA  B4 00     LDY  $00, X
 95EC  B5 02     LDA  $02, X
 95EE  95 00     STA  $00, X
 95F0  B5 04     LDA  $04, X
 95F2  95 02     STA  $02, X
 95F4  94 04     STY  $04, X
 95F6  60        RTS  
 95F7  E0 75     CPX  #$75
 95F9  30 03     BMI  $95FE
 95FB  4C 7D CE  JMP  $CE7D
 95FE  64 26     STZ  $26
 9600  64 27     STZ  $27
 9602  A1 02     LDA  ($02, X)
 9604  C9 2D     CMP  #$2D
 9606  D0 0A     BNE  $9612
 9608  C6 27     DEC  $27
 960A  F6 02     INC  $02, X
 960C  D0 02     BNE  $9610
 960E  F6 03     INC  $03, X
 9610  D6 00     DEC  $00, X
 9612  B5 02     LDA  $02, X
 9614  18        CLC  
 9615  75 00     ADC  $00, X
 9617  85 28     STA  $28
 9619  B5 03     LDA  $03, X
 961B  69 00     ADC  #$00
 961D  85 29     STA  $29
 961F  A5 28     LDA  $28
 9621  D0 02     BNE  $9625
 9623  C6 29     DEC  $29
 9625  C6 28     DEC  $28
 9627  B2 28     LDA  ($28)
 9629  C9 2E     CMP  #$2E
 962B  D0 04     BNE  $9631
 962D  C6 26     DEC  $26
 962F  D6 00     DEC  $00, X
 9631  CA        DEX  
 9632  CA        DEX  
 9633  CA        DEX  
 9634  CA        DEX  
 9635  B5 04     LDA  $04, X
 9637  95 00     STA  $00, X
 9639  74 01     STZ  $01, X
 963B  B5 06     LDA  $06, X
 963D  95 02     STA  $02, X
 963F  B5 07     LDA  $07, X
 9641  95 03     STA  $03, X
 9643  74 04     STZ  $04, X
 9645  74 05     STZ  $05, X
 9647  74 06     STZ  $06, X
 9649  74 07     STZ  $07, X
 964B  20 1C A1  JSR  $A11C
 964E  B5 00     LDA  $00, X
 9650  F0 15     BEQ  $9667
 9652  A9 3E     LDA  #$3E
 9654  20 D6 8D  JSR  $8DD6
 9657  20 4D A3  JSR  $A34D
 965A  A9 3C     LDA  #$3C
 965C  20 D6 8D  JSR  $8DD6
 965F  20 7C 9F  JSR  $9F7C
 9662  A9 08     LDA  #$08
 9664  4C 7F CE  JMP  $CE7F
 9667  E8        INX  
 9668  E8        INX  
 9669  E8        INX  
 966A  E8        INX  
 966B  A5 26     LDA  $26
 966D  F0 0F     BEQ  $967E
 966F  A5 3A     LDA  $3A
 9671  09 20     ORA  #$20
 9673  85 3A     STA  $3A
 9675  A5 27     LDA  $27
 9677  F0 14     BEQ  $968D
 9679  20 B5 8B  JSR  $8BB5
 967C  80 0F     BRA  $968D
 967E  E8        INX  
 967F  E8        INX  
 9680  A5 3A     LDA  $3A
 9682  29 DF     AND  #$DF
 9684  85 3A     STA  $3A
 9686  A5 27     LDA  $27
 9688  F0 03     BEQ  $968D
 968A  20 80 95  JSR  $9580
 968D  60        RTS  
 968E  E0 75     CPX  #$75
 9690  30 03     BMI  $9695
 9692  4C 7D CE  JMP  $CE7D
 9695  20 C1 83  JSR  $83C1
 9698  20 CD 8F  JSR  $8FCD
 969B  20 C0 A1  JSR  $A1C0
 969E  20 D8 A5  JSR  $A5D8
 96A1  20 3B 99  JSR  $993B
 96A4  20 F1 A3  JSR  $A3F1
 96A7  20 E7 99  JSR  $99E7
 96AA  20 E7 99  JSR  $99E7
 96AD  20 50 99  JSR  $9950
 96B0  20 F1 A3  JSR  $A3F1
 96B3  20 E7 99  JSR  $99E7
 96B6  20 E7 99  JSR  $99E7
 96B9  B5 00     LDA  $00, X
 96BB  A8        TAY  
 96BC  B9 17 CB  LDA  $CB17, Y
 96BF  95 00     STA  $00, X
 96C1  74 01     STZ  $01, X
 96C3  20 84 91  JSR  $9184
 96C6  60        RTS  
 96C7  E0 75     CPX  #$75
 96C9  30 03     BMI  $96CE
 96CB  4C 7D CE  JMP  $CE7D
 96CE  A5 30     LDA  $30
 96D0  95 00     STA  $00, X
 96D2  95 02     STA  $02, X
 96D4  A5 31     LDA  $31
 96D6  95 01     STA  $01, X
 96D8  95 03     STA  $03, X
 96DA  20 6C 97  JSR  $976C
 96DD  38        SEC  
 96DE  B5 00     LDA  $00, X
 96E0  F5 02     SBC  $02, X
 96E2  95 02     STA  $02, X
 96E4  B5 01     LDA  $01, X
 96E6  F5 03     SBC  $03, X
 96E8  95 03     STA  $03, X
 96EA  E8        INX  
 96EB  E8        INX  
 96EC  60        RTS  
 96ED  CA        DEX  
 96EE  CA        DEX  
 96EF  18        CLC  
 96F0  A5 3C     LDA  $3C
 96F2  69 1E     ADC  #$1E
 96F4  95 00     STA  $00, X
 96F6  A5 3D     LDA  $3D
 96F8  69 00     ADC  #$00
 96FA  95 01     STA  $01, X
 96FC  60        RTS  
 96FD  E0 75     CPX  #$75
 96FF  30 03     BMI  $9704
 9701  4C 7D CE  JMP  $CE7D
 9704  20 8E 96  JSR  $968E
 9707  B5 00     LDA  $00, X
 9709  15 01     ORA  $01, X
 970B  15 02     ORA  $02, X
 970D  15 03     ORA  $03, X
 970F  D0 F3     BNE  $9704
 9711  60        RTS  
 9712  CA        DEX  
 9713  CA        DEX  
 9714  A9 01     LDA  #$01
 9716  95 00     STA  $00, X
 9718  74 01     STZ  $01, X
 971A  60        RTS  
 971B  E0 77     CPX  #$77
 971D  30 03     BMI  $9722
 971F  4C 7D CE  JMP  $CE7D
 9722  B5 00     LDA  $00, X
 9724  D0 02     BNE  $9728
 9726  D6 01     DEC  $01, X
 9728  D6 00     DEC  $00, X
 972A  60        RTS  
 972B  E0 77     CPX  #$77
 972D  30 03     BMI  $9732
 972F  4C 7D CE  JMP  $CE7D
 9732  F6 00     INC  $00, X
 9734  D0 02     BNE  $9738
 9736  F6 01     INC  $01, X
 9738  60        RTS  
 9739  E0 75     CPX  #$75
 973B  30 03     BMI  $9740
 973D  4C 7D CE  JMP  $CE7D
 9740  B5 00     LDA  $00, X
 9742  15 02     ORA  $02, X
 9744  95 02     STA  $02, X
 9746  B5 01     LDA  $01, X
 9748  15 03     ORA  $03, X
 974A  95 03     STA  $03, X
 974C  E8        INX  
 974D  E8        INX  
 974E  60        RTS  
 974F  CA        DEX  
 9750  CA        DEX  
 9751  A9 10     LDA  #$10
 9753  95 00     STA  $00, X
 9755  A9 00     LDA  #$00
 9757  95 01     STA  $01, X
 9759  60        RTS  
 975A  E0 75     CPX  #$75
 975C  30 03     BMI  $9761
 975E  4C 7D CE  JMP  $CE7D
 9761  CA        DEX  
 9762  CA        DEX  
 9763  B5 04     LDA  $04, X
 9765  95 00     STA  $00, X
 9767  B5 05     LDA  $05, X
 9769  95 01     STA  $01, X
 976B  60        RTS  
 976C  CA        DEX  
 976D  CA        DEX  
 976E  A5 00     LDA  $00
 9770  18        CLC  
 9771  69 FF     ADC  #$FF
 9773  95 00     STA  $00, X
 9775  A5 01     LDA  $01
 9777  69 00     ADC  #$00
 9779  95 01     STA  $01, X
 977B  60        RTS  
 977C  A9 1B     LDA  #$1B
 977E  20 D6 8D  JSR  $8DD6
 9781  A9 5B     LDA  #$5B
 9783  20 D6 8D  JSR  $8DD6
 9786  A9 32     LDA  #$32
 9788  20 D6 8D  JSR  $8DD6
 978B  A9 4A     LDA  #$4A
 978D  20 D6 8D  JSR  $8DD6
 9790  20 D8 A5  JSR  $A5D8
 9793  20 D8 A5  JSR  $A5D8
 9796  20 96 83  JSR  $8396
 9799  60        RTS  
 979A  A5 0A     LDA  $0A
 979C  38        SEC  
 979D  E5 0C     SBC  $0C
 979F  85 20     STA  $20
 97A1  A5 0B     LDA  $0B
 97A3  E5 0D     SBC  $0D
 97A5  85 21     STA  $21
 97A7  A5 20     LDA  $20
 97A9  05 21     ORA  $21
 97AB  F0 28     BEQ  $97D5
 97AD  A5 08     LDA  $08
 97AF  18        CLC  
 97B0  65 0C     ADC  $0C
 97B2  85 22     STA  $22
 97B4  A5 09     LDA  $09
 97B6  65 0D     ADC  $0D
 97B8  85 23     STA  $23
 97BA  B2 22     LDA  ($22)
 97BC  20 70 CE  JSR  $CE70
 97BF  90 1F     BCC  $97E0
 97C1  E6 22     INC  $22
 97C3  D0 02     BNE  $97C7
 97C5  E6 23     INC  $23
 97C7  A5 20     LDA  $20
 97C9  D0 02     BNE  $97CD
 97CB  C6 21     DEC  $21
 97CD  C6 20     DEC  $20
 97CF  A5 20     LDA  $20
 97D1  05 21     ORA  $21
 97D3  D0 E5     BNE  $97BA
 97D5  CA        DEX  
 97D6  CA        DEX  
 97D7  CA        DEX  
 97D8  CA        DEX  
 97D9  74 00     STZ  $00, X
 97DB  74 01     STZ  $01, X
 97DD  4C 90 98  JMP  $9890
 97E0  A5 22     LDA  $22
 97E2  38        SEC  
 97E3  E5 08     SBC  $08
 97E5  85 0C     STA  $0C
 97E7  A5 23     LDA  $23
 97E9  E5 09     SBC  $09
 97EB  85 0D     STA  $0D
 97ED  CA        DEX  
 97EE  CA        DEX  
 97EF  A9 20     LDA  #$20
 97F1  95 00     STA  $00, X
 97F3  74 01     STZ  $01, X
 97F5  E0 77     CPX  #$77
 97F7  30 03     BMI  $97FC
 97F9  4C 7D CE  JMP  $CE7D
 97FC  A5 0A     LDA  $0A
 97FE  05 0B     ORA  $0B
 9800  F0 0C     BEQ  $980E
 9802  A5 0D     LDA  $0D
 9804  C5 0B     CMP  $0B
 9806  90 0E     BCC  $9816
 9808  A5 0C     LDA  $0C
 980A  C5 0A     CMP  $0A
 980C  90 08     BCC  $9816
 980E  CA        DEX  
 980F  CA        DEX  
 9810  74 00     STZ  $00, X
 9812  74 01     STZ  $01, X
 9814  80 7A     BRA  $9890
 9816  B5 00     LDA  $00, X
 9818  85 28     STA  $28
 981A  CA        DEX  
 981B  CA        DEX  
 981C  A5 08     LDA  $08
 981E  18        CLC  
 981F  65 0C     ADC  $0C
 9821  85 20     STA  $20
 9823  85 22     STA  $22
 9825  95 02     STA  $02, X
 9827  A5 09     LDA  $09
 9829  65 0D     ADC  $0D
 982B  85 21     STA  $21
 982D  85 23     STA  $23
 982F  95 03     STA  $03, X
 9831  A5 08     LDA  $08
 9833  18        CLC  
 9834  65 0A     ADC  $0A
 9836  85 24     STA  $24
 9838  A5 09     LDA  $09
 983A  65 0B     ADC  $0B
 983C  85 25     STA  $25
 983E  64 29     STZ  $29
 9840  A5 22     LDA  $22
 9842  C5 24     CMP  $24
 9844  D0 06     BNE  $984C
 9846  A5 23     LDA  $23
 9848  C5 25     CMP  $25
 984A  F0 1D     BEQ  $9869
 984C  B2 22     LDA  ($22)
 984E  A4 28     LDY  $28
 9850  C0 20     CPY  #$20
 9852  D0 07     BNE  $985B
 9854  20 70 CE  JSR  $CE70
 9857  90 02     BCC  $985B
 9859  80 0C     BRA  $9867
 985B  C5 28     CMP  $28
 985D  F0 08     BEQ  $9867
 985F  E6 22     INC  $22
 9861  D0 DD     BNE  $9840
 9863  E6 23     INC  $23
 9865  80 D9     BRA  $9840
 9867  E6 29     INC  $29
 9869  A5 22     LDA  $22
 986B  38        SEC  
 986C  E5 20     SBC  $20
 986E  95 00     STA  $00, X
 9870  A5 23     LDA  $23
 9872  E5 21     SBC  $21
 9874  95 01     STA  $01, X
 9876  A5 22     LDA  $22
 9878  38        SEC  
 9879  E5 08     SBC  $08
 987B  85 0C     STA  $0C
 987D  A5 23     LDA  $23
 987F  E5 09     SBC  $09
 9881  85 0D     STA  $0D
 9883  A5 0C     LDA  $0C
 9885  18        CLC  
 9886  65 29     ADC  $29
 9888  85 0C     STA  $0C
 988A  A5 0D     LDA  $0D
 988C  69 00     ADC  #$00
 988E  85 0D     STA  $0D
 9890  60        RTS  
 9891  16 00     ASL  $00, X
 9893  8A        TXA  
 9894  75 00     ADC  $00, X
 9896  A8        TAY  
 9897  B9 02 00  LDA  $0002, Y
 989A  95 00     STA  $00, X
 989C  B9 03 00  LDA  $0003, Y
 989F  95 01     STA  $01, X
 98A1  60        RTS  
 98A2  E0 75     CPX  #$75
 98A4  30 03     BMI  $98A9
 98A6  4C 7D CE  JMP  $CE7D
 98A9  18        CLC  
 98AA  B5 00     LDA  $00, X
 98AC  75 02     ADC  $02, X
 98AE  95 02     STA  $02, X
 98B0  B5 01     LDA  $01, X
 98B2  75 03     ADC  $03, X
 98B4  95 03     STA  $03, X
 98B6  E8        INX  
 98B7  E8        INX  
 98B8  60        RTS  
 98B9  E0 75     CPX  #$75
 98BB  30 03     BMI  $98C0
 98BD  4C 7D CE  JMP  $CE7D
 98C0  B5 00     LDA  $00, X
 98C2  85 20     STA  $20
 98C4  B5 01     LDA  $01, X
 98C6  85 21     STA  $21
 98C8  A0 00     LDY  #$00
 98CA  B1 20     LDA  ($20), Y
 98CC  18        CLC  
 98CD  75 02     ADC  $02, X
 98CF  91 20     STA  ($20), Y
 98D1  C8        INY  
 98D2  B1 20     LDA  ($20), Y
 98D4  75 03     ADC  $03, X
 98D6  91 20     STA  ($20), Y
 98D8  E8        INX  
 98D9  E8        INX  
 98DA  E8        INX  
 98DB  E8        INX  
 98DC  60        RTS  
 98DD  20 9A 97  JSR  $979A
 98E0  B5 00     LDA  $00, X
 98E2  15 01     ORA  $01, X
 98E4  D0 05     BNE  $98EB
 98E6  A9 05     LDA  #$05
 98E8  4C 7F CE  JMP  $CE7F
 98EB  20 30 90  JSR  $9030
 98EE  D0 05     BNE  $98F5
 98F0  A9 05     LDA  #$05
 98F2  4C 7F CE  JMP  $CE7F
 98F5  B5 00     LDA  $00, X
 98F7  85 20     STA  $20
 98F9  B5 01     LDA  $01, X
 98FB  85 21     STA  $21
 98FD  20 36 95  JSR  $9536
 9900  E6 20     INC  $20
 9902  D0 02     BNE  $9906
 9904  E6 21     INC  $21
 9906  B2 20     LDA  ($20)
 9908  29 04     AND  #$04
 990A  F0 05     BEQ  $9911
 990C  20 75 88  JSR  $8875
 990F  80 0A     BRA  $991B
 9911  20 D4 92  JSR  $92D4
 9914  A0 88     LDY  #$88
 9916  A9 75     LDA  #$75
 9918  20 45 CD  JSR  $CD45
 991B  60        RTS  
 991C  20 CD 8F  JSR  $8FCD
 991F  20 AE 8C  JSR  $8CAE
 9922  60        RTS  
 9923  E0 77     CPX  #$77
 9925  30 03     BMI  $992A
 9927  4C 7D CE  JMP  $CE7D
 992A  B5 00     LDA  $00, X
 992C  15 01     ORA  $01, X
 992E  F0 0A     BEQ  $993A
 9930  CA        DEX  
 9931  CA        DEX  
 9932  B5 02     LDA  $02, X
 9934  95 00     STA  $00, X
 9936  B5 03     LDA  $03, X
 9938  95 01     STA  $01, X
 993A  60        RTS  
 993B  7A        PLY  
 993C  84 20     STY  $20
 993E  7A        PLY  
 993F  CA        DEX  
 9940  CA        DEX  
 9941  68        PLA  
 9942  95 00     STA  $00, X
 9944  68        PLA  
 9945  95 01     STA  $01, X
 9947  48        PHA  
 9948  B5 00     LDA  $00, X
 994A  48        PHA  
 994B  5A        PHY  
 994C  A4 20     LDY  $20
 994E  5A        PHY  
 994F  60        RTS  
 9950  68        PLA  
 9951  85 28     STA  $28
 9953  7A        PLY  
 9954  CA        DEX  
 9955  CA        DEX  
 9956  68        PLA  
 9957  95 00     STA  $00, X
 9959  68        PLA  
 995A  95 01     STA  $01, X
 995C  5A        PHY  
 995D  A5 28     LDA  $28
 995F  48        PHA  
 9960  60        RTS  
 9961  A0 00     LDY  #$00
 9963  A9 20     LDA  #$20
 9965  91 00     STA  ($00), Y
 9967  C8        INY  
 9968  24 3A     BIT  $3A
 996A  70 0C     BVS  $9978
 996C  A5 04     LDA  $04
 996E  91 00     STA  ($00), Y
 9970  C8        INY  
 9971  A5 05     LDA  $05
 9973  91 00     STA  ($00), Y
 9975  C8        INY  
 9976  80 1B     BRA  $9993
 9978  A5 04     LDA  $04
 997A  18        CLC  
 997B  69 04     ADC  #$04
 997D  85 20     STA  $20
 997F  A5 05     LDA  $05
 9981  69 00     ADC  #$00
 9983  85 21     STA  $21
 9985  B2 20     LDA  ($20)
 9987  91 00     STA  ($00), Y
 9989  5A        PHY  
 998A  A0 01     LDY  #$01
 998C  B1 20     LDA  ($20), Y
 998E  7A        PLY  
 998F  C8        INY  
 9990  91 00     STA  ($00), Y
 9992  C8        INY  
 9993  98        TYA  
 9994  18        CLC  
 9995  65 00     ADC  $00
 9997  85 00     STA  $00
 9999  90 02     BCC  $999D
 999B  E6 01     INC  $01
 999D  60        RTS  
 999E  A5 06     LDA  $06
 99A0  D0 2D     BNE  $99CF
 99A2  CA        DEX  
 99A3  CA        DEX  
 99A4  CA        DEX  
 99A5  CA        DEX  
 99A6  A5 08     LDA  $08
 99A8  95 02     STA  $02, X
 99AA  A5 09     LDA  $09
 99AC  95 03     STA  $03, X
 99AE  64 0A     STZ  $0A
 99B0  64 0B     STZ  $0B
 99B2  A9 FF     LDA  #$FF
 99B4  95 00     STA  $00, X
 99B6  74 01     STZ  $01, X
 99B8  20 88 81  JSR  $8188
 99BB  B5 00     LDA  $00, X
 99BD  85 0A     STA  $0A
 99BF  B5 01     LDA  $01, X
 99C1  85 0B     STA  $0B
 99C3  64 0C     STZ  $0C
 99C5  64 0D     STZ  $0D
 99C7  A9 FF     LDA  #$FF
 99C9  95 00     STA  $00, X
 99CB  95 01     STA  $01, X
 99CD  80 10     BRA  $99DF
 99CF  1A        INC  
 99D0  D0 08     BNE  $99DA
 99D2  CA        DEX  
 99D3  CA        DEX  
 99D4  74 00     STZ  $00, X
 99D6  74 01     STZ  $01, X
 99D8  80 05     BRA  $99DF
 99DA  A9 01     LDA  #$01
 99DC  4C 7F CE  JMP  $CE7F
 99DF  60        RTS  
 99E0  A9 FF     LDA  #$FF
 99E2  85 16     STA  $16
 99E4  85 17     STA  $17
 99E6  60        RTS  
 99E7  E0 73     CPX  #$73
 99E9  30 03     BMI  $99EE
 99EB  4C 7D CE  JMP  $CE7D
 99EE  B4 05     LDY  $05, X
 99F0  B5 03     LDA  $03, X
 99F2  95 05     STA  $05, X
 99F4  B5 01     LDA  $01, X
 99F6  95 03     STA  $03, X
 99F8  94 01     STY  $01, X
 99FA  B4 04     LDY  $04, X
 99FC  B5 02     LDA  $02, X
 99FE  95 04     STA  $04, X
 9A00  B5 00     LDA  $00, X
 9A02  95 02     STA  $02, X
 9A04  94 00     STY  $00, X
 9A06  60        RTS  
 9A07  E0 75     CPX  #$75
 9A09  30 03     BMI  $9A0E
 9A0B  4C 7D CE  JMP  $CE7D
 9A0E  B5 00     LDA  $00, X
 9A10  29 0F     AND  #$0F
 9A12  F0 08     BEQ  $9A1C
 9A14  A8        TAY  
 9A15  56 03     LSR  $03, X
 9A17  76 02     ROR  $02, X
 9A19  88        DEY  
 9A1A  D0 F9     BNE  $9A15
 9A1C  E8        INX  
 9A1D  E8        INX  
 9A1E  60        RTS  
 9A1F  A9 FF     LDA  #$FF
 9A21  85 22     STA  $22
 9A23  64 23     STZ  $23
 9A25  20 71 9B  JSR  $9B71
 9A28  60        RTS  
 9A29  C9 41     CMP  #$41
 9A2B  90 06     BCC  $9A33
 9A2D  29 DF     AND  #$DF
 9A2F  38        SEC  
 9A30  E9 37     SBC  #$37
 9A32  60        RTS  
 9A33  38        SEC  
 9A34  E9 30     SBC  #$30
 9A36  60        RTS  
 9A37  E0 73     CPX  #$73
 9A39  30 03     BMI  $9A3E
 9A3B  4C 7D CE  JMP  $CE7D
 9A3E  A5 3C     LDA  $3C
 9A40  18        CLC  
 9A41  69 08     ADC  #$08
 9A43  85 22     STA  $22
 9A45  A5 3D     LDA  $3D
 9A47  69 00     ADC  #$00
 9A49  85 23     STA  $23
 9A4B  B5 00     LDA  $00, X
 9A4D  0A        ASL  
 9A4E  65 22     ADC  $22
 9A50  85 22     STA  $22
 9A52  90 02     BCC  $9A56
 9A54  E6 23     INC  $23
 9A56  E8        INX  
 9A57  E8        INX  
 9A58  B5 00     LDA  $00, X
 9A5A  15 01     ORA  $01, X
 9A5C  D0 03     BNE  $9A61
 9A5E  4C 19 9B  JMP  $9B19
 9A61  A5 22     LDA  $22
 9A63  05 23     ORA  $23
 9A65  D0 03     BNE  $9A6A
 9A67  4C 19 9B  JMP  $9B19
 9A6A  B2 22     LDA  ($22)
 9A6C  85 20     STA  $20
 9A6E  E6 22     INC  $22
 9A70  D0 02     BNE  $9A74
 9A72  E6 23     INC  $23
 9A74  B2 22     LDA  ($22)
 9A76  85 21     STA  $21
 9A78  B5 02     LDA  $02, X
 9A7A  85 22     STA  $22
 9A7C  B5 03     LDA  $03, X
 9A7E  85 23     STA  $23
 9A80  B2 20     LDA  ($20)
 9A82  D5 00     CMP  $00, X
 9A84  D0 7B     BNE  $9B01
 9A86  B2 22     LDA  ($22)
 9A88  C9 5B     CMP  #$5B
 9A8A  B0 07     BCS  $9A93
 9A8C  C9 41     CMP  #$41
 9A8E  90 03     BCC  $9A93
 9A90  18        CLC  
 9A91  69 20     ADC  #$20
 9A93  A0 08     LDY  #$08
 9A95  D1 20     CMP  ($20), Y
 9A97  D0 68     BNE  $9B01
 9A99  B5 00     LDA  $00, X
 9A9B  3A        DEC  
 9A9C  F0 2C     BEQ  $9ACA
 9A9E  A5 20     LDA  $20
 9AA0  48        PHA  
 9AA1  18        CLC  
 9AA2  69 08     ADC  #$08
 9AA4  85 20     STA  $20
 9AA6  A5 21     LDA  $21
 9AA8  48        PHA  
 9AA9  69 00     ADC  #$00
 9AAB  85 21     STA  $21
 9AAD  B4 00     LDY  $00, X
 9AAF  88        DEY  
 9AB0  B1 22     LDA  ($22), Y
 9AB2  C9 5B     CMP  #$5B
 9AB4  B0 07     BCS  $9ABD
 9AB6  C9 41     CMP  #$41
 9AB8  90 03     BCC  $9ABD
 9ABA  18        CLC  
 9ABB  69 20     ADC  #$20
 9ABD  D1 20     CMP  ($20), Y
 9ABF  D0 3A     BNE  $9AFB
 9AC1  88        DEY  
 9AC2  D0 EC     BNE  $9AB0
 9AC4  68        PLA  
 9AC5  85 21     STA  $21
 9AC7  68        PLA  
 9AC8  85 20     STA  $20
 9ACA  E8        INX  
 9ACB  E8        INX  
 9ACC  A5 20     LDA  $20
 9ACE  95 00     STA  $00, X
 9AD0  A5 21     LDA  $21
 9AD2  95 01     STA  $01, X
 9AD4  20 AC 8D  JSR  $8DAC
 9AD7  20 36 95  JSR  $9536
 9ADA  20 07 A0  JSR  $A007
 9ADD  A0 00     LDY  #$00
 9ADF  F6 00     INC  $00, X
 9AE1  D0 02     BNE  $9AE5
 9AE3  F6 01     INC  $01, X
 9AE5  A1 00     LDA  ($00, X)
 9AE7  29 04     AND  #$04
 9AE9  D0 08     BNE  $9AF3
 9AEB  A9 FF     LDA  #$FF
 9AED  95 00     STA  $00, X
 9AEF  95 01     STA  $01, X
 9AF1  80 28     BRA  $9B1B
 9AF3  A9 01     LDA  #$01
 9AF5  95 00     STA  $00, X
 9AF7  74 01     STZ  $01, X
 9AF9  80 20     BRA  $9B1B
 9AFB  68        PLA  
 9AFC  85 21     STA  $21
 9AFE  68        PLA  
 9AFF  85 20     STA  $20
 9B01  A0 02     LDY  #$02
 9B03  B1 20     LDA  ($20), Y
 9B05  48        PHA  
 9B06  C8        INY  
 9B07  B1 20     LDA  ($20), Y
 9B09  85 21     STA  $21
 9B0B  68        PLA  
 9B0C  85 20     STA  $20
 9B0E  05 21     ORA  $21
 9B10  F0 03     BEQ  $9B15
 9B12  4C 80 9A  JMP  $9A80
 9B15  74 02     STZ  $02, X
 9B17  74 03     STZ  $03, X
 9B19  E8        INX  
 9B1A  E8        INX  
 9B1B  60        RTS  
 9B1C  E0 77     CPX  #$77
 9B1E  30 03     BMI  $9B23
 9B20  4C 7D CE  JMP  $CE7D
 9B23  A0 04     LDY  #$04
 9B25  B5 00     LDA  $00, X
 9B27  91 3C     STA  ($3C), Y
 9B29  C8        INY  
 9B2A  B5 01     LDA  $01, X
 9B2C  91 3C     STA  ($3C), Y
 9B2E  E8        INX  
 9B2F  E8        INX  
 9B30  60        RTS  
 9B31  A9 FF     LDA  #$FF
 9B33  D5 01     CMP  $01, X
 9B35  D0 10     BNE  $9B47
 9B37  D5 00     CMP  $00, X
 9B39  D0 0C     BNE  $9B47
 9B3B  CA        DEX  
 9B3C  CA        DEX  
 9B3D  74 03     STZ  $03, X
 9B3F  74 02     STZ  $02, X
 9B41  74 01     STZ  $01, X
 9B43  A9 01     LDA  #$01
 9B45  95 00     STA  $00, X
 9B47  A0 1E     LDY  #$1E
 9B49  B5 00     LDA  $00, X
 9B4B  91 3C     STA  ($3C), Y
 9B4D  85 20     STA  $20
 9B4F  C8        INY  
 9B50  B5 01     LDA  $01, X
 9B52  91 3C     STA  ($3C), Y
 9B54  E8        INX  
 9B55  E8        INX  
 9B56  A5 20     LDA  $20
 9B58  F0 12     BEQ  $9B6C
 9B5A  A0 20     LDY  #$20
 9B5C  B5 00     LDA  $00, X
 9B5E  91 3C     STA  ($3C), Y
 9B60  C8        INY  
 9B61  B5 01     LDA  $01, X
 9B63  91 3C     STA  ($3C), Y
 9B65  C8        INY  
 9B66  E8        INX  
 9B67  E8        INX  
 9B68  C6 20     DEC  $20
 9B6A  D0 F0     BNE  $9B5C
 9B6C  60        RTS  
 9B6D  64 22     STZ  $22
 9B6F  64 23     STZ  $23
 9B71  CA        DEX  
 9B72  CA        DEX  
 9B73  CA        DEX  
 9B74  CA        DEX  
 9B75  A9 4C     LDA  #$4C
 9B77  20 55 CD  JSR  $CD55
 9B7A  20 55 CD  JSR  $CD55
 9B7D  20 55 CD  JSR  $CD55
 9B80  A5 00     LDA  $00
 9B82  95 02     STA  $02, X
 9B84  A5 01     LDA  $01
 9B86  95 03     STA  $03, X
 9B88  A5 0D     LDA  $0D
 9B8A  C5 0B     CMP  $0B
 9B8C  90 2A     BCC  $9BB8
 9B8E  A5 0C     LDA  $0C
 9B90  C5 0A     CMP  $0A
 9B92  90 24     BCC  $9BB8
 9B94  A5 22     LDA  $22
 9B96  48        PHA  
 9B97  A5 23     LDA  $23
 9B99  48        PHA  
 9B9A  A5 24     LDA  $24
 9B9C  48        PHA  
 9B9D  20 9E 99  JSR  $999E
 9BA0  68        PLA  
 9BA1  85 24     STA  $24
 9BA3  68        PLA  
 9BA4  85 23     STA  $23
 9BA6  68        PLA  
 9BA7  85 22     STA  $22
 9BA9  B5 00     LDA  $00, X
 9BAB  15 01     ORA  $01, X
 9BAD  D0 05     BNE  $9BB4
 9BAF  A9 06     LDA  #$06
 9BB1  4C 7F CE  JMP  $CE7F
 9BB4  E8        INX  
 9BB5  E8        INX  
 9BB6  80 D0     BRA  $9B88
 9BB8  A5 08     LDA  $08
 9BBA  18        CLC  
 9BBB  65 0C     ADC  $0C
 9BBD  85 20     STA  $20
 9BBF  A5 09     LDA  $09
 9BC1  65 0D     ADC  $0D
 9BC3  85 21     STA  $21
 9BC5  B2 20     LDA  ($20)
 9BC7  24 22     BIT  $22
 9BC9  30 03     BMI  $9BCE
 9BCB  4C 86 9C  JMP  $9C86
 9BCE  24 23     BIT  $23
 9BD0  30 03     BMI  $9BD5
 9BD2  4C 7C 9C  JMP  $9C7C
 9BD5  70 22     BVS  $9BF9
 9BD7  A9 01     LDA  #$01
 9BD9  24 23     BIT  $23
 9BDB  D0 10     BNE  $9BED
 9BDD  E6 23     INC  $23
 9BDF  B2 20     LDA  ($20)
 9BE1  20 29 9A  JSR  $9A29
 9BE4  0A        ASL  
 9BE5  0A        ASL  
 9BE6  0A        ASL  
 9BE7  0A        ASL  
 9BE8  85 24     STA  $24
 9BEA  4C 8D 9C  JMP  $9C8D
 9BED  64 23     STZ  $23
 9BEF  B2 20     LDA  ($20)
 9BF1  20 29 9A  JSR  $9A29
 9BF4  05 24     ORA  $24
 9BF6  4C 8A 9C  JMP  $9C8A
 9BF9  64 23     STZ  $23
 9BFB  C9 61     CMP  #$61
 9BFD  D0 05     BNE  $9C04
 9BFF  A9 07     LDA  #$07
 9C01  4C 8A 9C  JMP  $9C8A
 9C04  C9 62     CMP  #$62
 9C06  D0 05     BNE  $9C0D
 9C08  A9 08     LDA  #$08
 9C0A  4C 8A 9C  JMP  $9C8A
 9C0D  C9 65     CMP  #$65
 9C0F  D0 04     BNE  $9C15
 9C11  A9 1B     LDA  #$1B
 9C13  80 75     BRA  $9C8A
 9C15  C9 66     CMP  #$66
 9C17  D0 04     BNE  $9C1D
 9C19  A9 0C     LDA  #$0C
 9C1B  80 6D     BRA  $9C8A
 9C1D  C9 6C     CMP  #$6C
 9C1F  D0 04     BNE  $9C25
 9C21  A9 0A     LDA  #$0A
 9C23  80 65     BRA  $9C8A
 9C25  C9 6D     CMP  #$6D
 9C27  D0 09     BNE  $9C32
 9C29  A9 0D     LDA  #$0D
 9C2B  20 55 CD  JSR  $CD55
 9C2E  A9 0A     LDA  #$0A
 9C30  80 58     BRA  $9C8A
 9C32  C9 6E     CMP  #$6E
 9C34  D0 04     BNE  $9C3A
 9C36  A9 0A     LDA  #$0A
 9C38  80 50     BRA  $9C8A
 9C3A  C9 71     CMP  #$71
 9C3C  D0 04     BNE  $9C42
 9C3E  A9 22     LDA  #$22
 9C40  80 48     BRA  $9C8A
 9C42  C9 72     CMP  #$72
 9C44  D0 04     BNE  $9C4A
 9C46  A9 0D     LDA  #$0D
 9C48  80 40     BRA  $9C8A
 9C4A  C9 74     CMP  #$74
 9C4C  D0 04     BNE  $9C52
 9C4E  A9 09     LDA  #$09
 9C50  80 38     BRA  $9C8A
 9C52  C9 76     CMP  #$76
 9C54  D0 04     BNE  $9C5A
 9C56  A9 0B     LDA  #$0B
 9C58  80 30     BRA  $9C8A
 9C5A  C9 7A     CMP  #$7A
 9C5C  D0 04     BNE  $9C62
 9C5E  A9 00     LDA  #$00
 9C60  80 28     BRA  $9C8A
 9C62  C9 22     CMP  #$22
 9C64  D0 04     BNE  $9C6A
 9C66  A9 22     LDA  #$22
 9C68  80 20     BRA  $9C8A
 9C6A  C9 78     CMP  #$78
 9C6C  D0 06     BNE  $9C74
 9C6E  A9 BE     LDA  #$BE
 9C70  85 23     STA  $23
 9C72  80 19     BRA  $9C8D
 9C74  C9 5C     CMP  #$5C
 9C76  D0 04     BNE  $9C7C
 9C78  A9 5C     LDA  #$5C
 9C7A  80 0E     BRA  $9C8A
 9C7C  C9 5C     CMP  #$5C
 9C7E  D0 06     BNE  $9C86
 9C80  A9 FF     LDA  #$FF
 9C82  85 23     STA  $23
 9C84  80 07     BRA  $9C8D
 9C86  C9 22     CMP  #$22
 9C88  F0 0C     BEQ  $9C96
 9C8A  20 55 CD  JSR  $CD55
 9C8D  E6 0C     INC  $0C
 9C8F  D0 02     BNE  $9C93
 9C91  E6 0D     INC  $0D
 9C93  4C 88 9B  JMP  $9B88
 9C96  E6 0C     INC  $0C
 9C98  D0 02     BNE  $9C9C
 9C9A  E6 0D     INC  $0D
 9C9C  A5 00     LDA  $00
 9C9E  38        SEC  
 9C9F  F5 02     SBC  $02, X
 9CA1  95 00     STA  $00, X
 9CA3  A5 01     LDA  $01
 9CA5  F5 03     SBC  $03, X
 9CA7  95 01     STA  $01, X
 9CA9  B5 02     LDA  $02, X
 9CAB  38        SEC  
 9CAC  E9 02     SBC  #$02
 9CAE  85 20     STA  $20
 9CB0  B5 03     LDA  $03, X
 9CB2  E9 00     SBC  #$00
 9CB4  85 21     STA  $21
 9CB6  A5 00     LDA  $00
 9CB8  92 20     STA  ($20)
 9CBA  A0 01     LDY  #$01
 9CBC  A5 01     LDA  $01
 9CBE  91 20     STA  ($20), Y
 9CC0  A5 16     LDA  $16
 9CC2  05 17     ORA  $17
 9CC4  F0 03     BEQ  $9CC9
 9CC6  20 E9 9E  JSR  $9EE9
 9CC9  60        RTS  
 9CCA  E0 77     CPX  #$77
 9CCC  30 03     BMI  $9CD1
 9CCE  4C 7D CE  JMP  $CE7D
 9CD1  CA        DEX  
 9CD2  CA        DEX  
 9CD3  74 00     STZ  $00, X
 9CD5  74 01     STZ  $01, X
 9CD7  B5 03     LDA  $03, X
 9CD9  10 04     BPL  $9CDF
 9CDB  D6 00     DEC  $00, X
 9CDD  D6 01     DEC  $01, X
 9CDF  60        RTS  
 9CE0  A0 34     LDY  #$34
 9CE2  B1 3C     LDA  ($3C), Y
 9CE4  C9 03     CMP  #$03
 9CE6  D0 12     BNE  $9CFA
 9CE8  20 EF 83  JSR  $83EF
 9CEB  20 C9 85  JSR  $85C9
 9CEE  20 CD 8F  JSR  $8FCD
 9CF1  20 7C 85  JSR  $857C
 9CF4  A9 01     LDA  #$01
 9CF6  A0 34     LDY  #$34
 9CF8  91 3C     STA  ($3C), Y
 9CFA  60        RTS  
 9CFB  CA        DEX  
 9CFC  CA        DEX  
 9CFD  18        CLC  
 9CFE  A5 3C     LDA  $3C
 9D00  69 02     ADC  #$02
 9D02  95 00     STA  $00, X
 9D04  A5 3D     LDA  $3D
 9D06  69 00     ADC  #$00
 9D08  95 01     STA  $01, X
 9D0A  60        RTS  
 9D0B  E0 71     CPX  #$71
 9D0D  D0 03     BNE  $9D12
 9D0F  4C 7D CE  JMP  $CE7D
 9D12  B5 00     LDA  $00, X
 9D14  15 01     ORA  $01, X
 9D16  D0 0B     BNE  $9D23
 9D18  E8        INX  
 9D19  E8        INX  
 9D1A  A9 FF     LDA  #$FF
 9D1C  95 00     STA  $00, X
 9D1E  95 01     STA  $01, X
 9D20  4C AD 9D  JMP  $9DAD
 9D23  20 D8 A5  JSR  $A5D8
 9D26  18        CLC  
 9D27  B5 00     LDA  $00, X
 9D29  75 02     ADC  $02, X
 9D2B  85 20     STA  $20
 9D2D  B5 01     LDA  $01, X
 9D2F  75 03     ADC  $03, X
 9D31  D5 07     CMP  $07, X
 9D33  90 12     BCC  $9D47
 9D35  D0 06     BNE  $9D3D
 9D37  B5 06     LDA  $06, X
 9D39  C5 20     CMP  $20
 9D3B  B0 0A     BCS  $9D47
 9D3D  E8        INX  
 9D3E  E8        INX  
 9D3F  E8        INX  
 9D40  E8        INX  
 9D41  74 00     STZ  $00, X
 9D43  74 01     STZ  $01, X
 9D45  80 66     BRA  $9DAD
 9D47  18        CLC  
 9D48  B5 08     LDA  $08, X
 9D4A  75 00     ADC  $00, X
 9D4C  85 20     STA  $20
 9D4E  B5 09     LDA  $09, X
 9D50  75 01     ADC  $01, X
 9D52  85 21     STA  $21
 9D54  B5 04     LDA  $04, X
 9D56  85 22     STA  $22
 9D58  B5 05     LDA  $05, X
 9D5A  85 23     STA  $23
 9D5C  B5 02     LDA  $02, X
 9D5E  85 24     STA  $24
 9D60  B5 03     LDA  $03, X
 9D62  85 25     STA  $25
 9D64  B2 20     LDA  ($20)
 9D66  D2 22     CMP  ($22)
 9D68  F0 05     BEQ  $9D6F
 9D6A  20 2B 97  JSR  $972B
 9D6D  80 B7     BRA  $9D26
 9D6F  E6 20     INC  $20
 9D71  D0 02     BNE  $9D75
 9D73  E6 21     INC  $21
 9D75  E6 22     INC  $22
 9D77  D0 02     BNE  $9D7B
 9D79  E6 23     INC  $23
 9D7B  A5 24     LDA  $24
 9D7D  D0 02     BNE  $9D81
 9D7F  C6 25     DEC  $25
 9D81  C6 24     DEC  $24
 9D83  A5 24     LDA  $24
 9D85  05 25     ORA  $25
 9D87  D0 DB     BNE  $9D64
 9D89  18        CLC  
 9D8A  B5 00     LDA  $00, X
 9D8C  75 08     ADC  $08, X
 9D8E  95 08     STA  $08, X
 9D90  B5 01     LDA  $01, X
 9D92  75 09     ADC  $09, X
 9D94  95 09     STA  $09, X
 9D96  38        SEC  
 9D97  B5 06     LDA  $06, X
 9D99  F5 00     SBC  $00, X
 9D9B  95 06     STA  $06, X
 9D9D  B5 07     LDA  $07, X
 9D9F  F5 01     SBC  $01, X
 9DA1  95 07     STA  $07, X
 9DA3  E8        INX  
 9DA4  E8        INX  
 9DA5  E8        INX  
 9DA6  E8        INX  
 9DA7  A9 FF     LDA  #$FF
 9DA9  95 00     STA  $00, X
 9DAB  95 01     STA  $01, X
 9DAD  60        RTS  
 9DAE  24 3A     BIT  $3A
 9DB0  70 11     BVS  $9DC3
 9DB2  A9 60     LDA  #$60
 9DB4  20 55 CD  JSR  $CD55
 9DB7  CA        DEX  
 9DB8  CA        DEX  
 9DB9  A5 04     LDA  $04
 9DBB  95 00     STA  $00, X
 9DBD  A5 05     LDA  $05
 9DBF  95 01     STA  $01, X
 9DC1  80 6D     BRA  $9E30
 9DC3  A0 06     LDY  #$06
 9DC5  A5 00     LDA  $00
 9DC7  91 04     STA  ($04), Y
 9DC9  C8        INY  
 9DCA  A5 01     LDA  $01
 9DCC  91 04     STA  ($04), Y
 9DCE  A9 60     LDA  #$60
 9DD0  20 55 CD  JSR  $CD55
 9DD3  CA        DEX  
 9DD4  CA        DEX  
 9DD5  CA        DEX  
 9DD6  CA        DEX  
 9DD7  B2 04     LDA  ($04)
 9DD9  95 00     STA  $00, X
 9DDB  74 01     STZ  $01, X
 9DDD  A5 04     LDA  $04
 9DDF  18        CLC  
 9DE0  69 08     ADC  #$08
 9DE2  95 02     STA  $02, X
 9DE4  A5 05     LDA  $05
 9DE6  69 00     ADC  #$00
 9DE8  95 03     STA  $03, X
 9DEA  20 30 90  JSR  $9030
 9DED  B5 00     LDA  $00, X
 9DEF  15 01     ORA  $01, X
 9DF1  F0 30     BEQ  $9E23
 9DF3  A9 E8     LDA  #$E8
 9DF5  85 24     STA  $24
 9DF7  A9 CA     LDA  #$CA
 9DF9  85 25     STA  $25
 9DFB  20 A8 CE  JSR  $CEA8
 9DFE  CA        DEX  
 9DFF  CA        DEX  
 9E00  B5 02     LDA  $02, X
 9E02  95 00     STA  $00, X
 9E04  B5 03     LDA  $03, X
 9E06  95 01     STA  $01, X
 9E08  A1 00     LDA  ($00, X)
 9E0A  95 00     STA  $00, X
 9E0C  74 01     STZ  $01, X
 9E0E  B5 02     LDA  $02, X
 9E10  18        CLC  
 9E11  69 08     ADC  #$08
 9E13  95 02     STA  $02, X
 9E15  B5 03     LDA  $03, X
 9E17  69 00     ADC  #$00
 9E19  95 03     STA  $03, X
 9E1B  20 4D A3  JSR  $A34D
 9E1E  20 7C 9F  JSR  $9F7C
 9E21  80 02     BRA  $9E25
 9E23  E8        INX  
 9E24  E8        INX  
 9E25  A5 04     LDA  $04
 9E27  85 02     STA  $02
 9E29  A5 05     LDA  $05
 9E2B  85 03     STA  $03
 9E2D  20 DB CE  JSR  $CEDB
 9E30  64 16     STZ  $16
 9E32  64 17     STZ  $17
 9E34  60        RTS  
 9E35  E0 77     CPX  #$77
 9E37  30 03     BMI  $9E3C
 9E39  4C 7D CE  JMP  $CE7D
 9E3C  B5 01     LDA  $01, X
 9E3E  30 04     BMI  $9E44
 9E40  E8        INX  
 9E41  E8        INX  
 9E42  80 09     BRA  $9E4D
 9E44  A9 2D     LDA  #$2D
 9E46  95 00     STA  $00, X
 9E48  74 01     STZ  $01, X
 9E4A  20 84 91  JSR  $9184
 9E4D  60        RTS  
 9E4E  A9 00     LDA  #$00
 9E50  48        PHA  
 9E51  80 03     BRA  $9E56
 9E53  A9 FF     LDA  #$FF
 9E55  48        PHA  
 9E56  20 C0 A1  JSR  $A1C0
 9E59  20 CA 9C  JSR  $9CCA
 9E5C  20 50 99  JSR  $9950
 9E5F  20 2F 9F  JSR  $9F2F
 9E62  68        PLA  
 9E63  D0 05     BNE  $9E6A
 9E65  20 07 A0  JSR  $A007
 9E68  E8        INX  
 9E69  E8        INX  
 9E6A  60        RTS  
 9E6B  E0 73     CPX  #$73
 9E6D  30 03     BMI  $9E72
 9E6F  4C 7D CE  JMP  $CE7D
 9E72  18        CLC  
 9E73  B5 00     LDA  $00, X
 9E75  75 04     ADC  $04, X
 9E77  95 04     STA  $04, X
 9E79  B5 01     LDA  $01, X
 9E7B  75 05     ADC  $05, X
 9E7D  95 05     STA  $05, X
 9E7F  38        SEC  
 9E80  B5 02     LDA  $02, X
 9E82  F5 00     SBC  $00, X
 9E84  95 02     STA  $02, X
 9E86  B5 03     LDA  $03, X
 9E88  F5 01     SBC  $01, X
 9E8A  95 03     STA  $03, X
 9E8C  E8        INX  
 9E8D  E8        INX  
 9E8E  60        RTS  
 9E8F  E0 75     CPX  #$75
 9E91  30 03     BMI  $9E96
 9E93  4C 7D CE  JMP  $CE7D
 9E96  A9 4C     LDA  #$4C
 9E98  20 55 CD  JSR  $CD55
 9E9B  20 55 CD  JSR  $CD55
 9E9E  20 55 CD  JSR  $CD55
 9EA1  8A        TXA  
 9EA2  38        SEC  
 9EA3  E9 06     SBC  #$06
 9EA5  AA        TAX  
 9EA6  B5 08     LDA  $08, X
 9EA8  95 04     STA  $04, X
 9EAA  B5 09     LDA  $09, X
 9EAC  95 05     STA  $05, X
 9EAE  B5 06     LDA  $06, X
 9EB0  95 00     STA  $00, X
 9EB2  B5 07     LDA  $07, X
 9EB4  95 01     STA  $01, X
 9EB6  A5 00     LDA  $00
 9EB8  95 08     STA  $08, X
 9EBA  95 02     STA  $02, X
 9EBC  A5 01     LDA  $01
 9EBE  95 09     STA  $09, X
 9EC0  95 03     STA  $03, X
 9EC2  20 17 95  JSR  $9517
 9EC5  18        CLC  
 9EC6  A5 00     LDA  $00
 9EC8  75 00     ADC  $00, X
 9ECA  85 00     STA  $00
 9ECC  A5 01     LDA  $01
 9ECE  75 01     ADC  $01, X
 9ED0  85 01     STA  $01
 9ED2  B5 02     LDA  $02, X
 9ED4  38        SEC  
 9ED5  E9 02     SBC  #$02
 9ED7  85 20     STA  $20
 9ED9  B5 03     LDA  $03, X
 9EDB  E9 00     SBC  #$00
 9EDD  85 21     STA  $21
 9EDF  A5 00     LDA  $00
 9EE1  92 20     STA  ($20)
 9EE3  A0 01     LDY  #$01
 9EE5  A5 01     LDA  $01
 9EE7  91 20     STA  ($20), Y
 9EE9  A0 9F     LDY  #$9F
 9EEB  A9 03     LDA  #$03
 9EED  20 45 CD  JSR  $CD45
 9EF0  B4 03     LDY  $03, X
 9EF2  B5 02     LDA  $02, X
 9EF4  20 51 CD  JSR  $CD51
 9EF7  B4 01     LDY  $01, X
 9EF9  B5 00     LDA  $00, X
 9EFB  20 51 CD  JSR  $CD51
 9EFE  E8        INX  
 9EFF  E8        INX  
 9F00  E8        INX  
 9F01  E8        INX  
 9F02  60        RTS  
 9F03  CA        DEX  
 9F04  CA        DEX  
 9F05  CA        DEX  
 9F06  CA        DEX  
 9F07  68        PLA  
 9F08  85 20     STA  $20
 9F0A  68        PLA  
 9F0B  85 21     STA  $21
 9F0D  A0 01     LDY  #$01
 9F0F  B1 20     LDA  ($20), Y
 9F11  95 02     STA  $02, X
 9F13  C8        INY  
 9F14  B1 20     LDA  ($20), Y
 9F16  95 03     STA  $03, X
 9F18  C8        INY  
 9F19  B1 20     LDA  ($20), Y
 9F1B  95 00     STA  $00, X
 9F1D  C8        INY  
 9F1E  B1 20     LDA  ($20), Y
 9F20  95 01     STA  $01, X
 9F22  18        CLC  
 9F23  A5 20     LDA  $20
 9F25  69 04     ADC  #$04
 9F27  A8        TAY  
 9F28  A5 21     LDA  $21
 9F2A  69 00     ADC  #$00
 9F2C  48        PHA  
 9F2D  5A        PHY  
 9F2E  60        RTS  
 9F2F  E0 73     CPX  #$73
 9F31  30 03     BMI  $9F36
 9F33  4C 7D CE  JMP  $CE7D
 9F36  B5 03     LDA  $03, X
 9F38  48        PHA  
 9F39  B5 01     LDA  $01, X
 9F3B  55 03     EOR  $03, X
 9F3D  48        PHA  
 9F3E  20 6F 81  JSR  $816F
 9F41  E8        INX  
 9F42  E8        INX  
 9F43  20 F4 8A  JSR  $8AF4
 9F46  CA        DEX  
 9F47  CA        DEX  
 9F48  20 F1 A3  JSR  $A3F1
 9F4B  68        PLA  
 9F4C  10 03     BPL  $9F51
 9F4E  20 80 95  JSR  $9580
 9F51  68        PLA  
 9F52  10 07     BPL  $9F5B
 9F54  E8        INX  
 9F55  E8        INX  
 9F56  20 80 95  JSR  $9580
 9F59  CA        DEX  
 9F5A  CA        DEX  
 9F5B  60        RTS  
 9F5C  CA        DEX  
 9F5D  CA        DEX  
 9F5E  A5 08     LDA  $08
 9F60  95 00     STA  $00, X
 9F62  A5 09     LDA  $09
 9F64  95 01     STA  $01, X
 9F66  CA        DEX  
 9F67  CA        DEX  
 9F68  A5 0A     LDA  $0A
 9F6A  95 00     STA  $00, X
 9F6C  A5 0B     LDA  $0B
 9F6E  95 01     STA  $01, X
 9F70  60        RTS  
 9F71  CA        DEX  
 9F72  CA        DEX  
 9F73  A5 06     LDA  $06
 9F75  95 00     STA  $00, X
 9F77  A5 07     LDA  $07
 9F79  95 01     STA  $01, X
 9F7B  60        RTS  
 9F7C  A9 20     LDA  #$20
 9F7E  20 D6 8D  JSR  $8DD6
 9F81  60        RTS  
 9F82  E0 77     CPX  #$77
 9F84  30 03     BMI  $9F89
 9F86  4C 7D CE  JMP  $CE7D
 9F89  B5 00     LDA  $00, X
 9F8B  15 01     ORA  $01, X
 9F8D  F0 26     BEQ  $9FB5
 9F8F  A9 20     LDA  #$20
 9F91  B4 01     LDY  $01, X
 9F93  D0 0A     BNE  $9F9F
 9F95  B4 00     LDY  $00, X
 9F97  20 D6 8D  JSR  $8DD6
 9F9A  88        DEY  
 9F9B  F0 18     BEQ  $9FB5
 9F9D  80 F8     BRA  $9F97
 9F9F  B4 00     LDY  $00, X
 9FA1  F0 06     BEQ  $9FA9
 9FA3  20 D6 8D  JSR  $8DD6
 9FA6  88        DEY  
 9FA7  80 F8     BRA  $9FA1
 9FA9  A0 00     LDY  #$00
 9FAB  20 D6 8D  JSR  $8DD6
 9FAE  88        DEY  
 9FAF  D0 FA     BNE  $9FAB
 9FB1  D6 01     DEC  $01, X
 9FB3  D0 F4     BNE  $9FA9
 9FB5  E8        INX  
 9FB6  E8        INX  
 9FB7  60        RTS  
 9FB8  E0 75     CPX  #$75
 9FBA  30 03     BMI  $9FBF
 9FBC  4C 7D CE  JMP  $CE7D
 9FBF  20 37 A4  JSR  $A437
 9FC2  E8        INX  
 9FC3  E8        INX  
 9FC4  60        RTS  
 9FC5  20 CE 9F  JSR  $9FCE
 9FC8  20 07 A0  JSR  $A007
 9FCB  E8        INX  
 9FCC  E8        INX  
 9FCD  60        RTS  
 9FCE  E0 75     CPX  #$75
 9FD0  30 03     BMI  $9FD5
 9FD2  4C 7D CE  JMP  $CE7D
 9FD5  20 C0 A1  JSR  $A1C0
 9FD8  20 E4 93  JSR  $93E4
 9FDB  20 50 99  JSR  $9950
 9FDE  20 2F 9F  JSR  $9F2F
 9FE1  60        RTS  
 9FE2  CA        DEX  
 9FE3  CA        DEX  
 9FE4  A9 16     LDA  #$16
 9FE6  95 00     STA  $00, X
 9FE8  A9 00     LDA  #$00
 9FEA  95 01     STA  $01, X
 9FEC  60        RTS  
 9FED  E0 75     CPX  #$75
 9FEF  30 03     BMI  $9FF4
 9FF1  4C 7D CE  JMP  $CE7D
 9FF4  B5 02     LDA  $02, X
 9FF6  81 00     STA  ($00, X)
 9FF8  F6 00     INC  $00, X
 9FFA  D0 02     BNE  $9FFE
 9FFC  F6 01     INC  $01, X
 9FFE  B5 03     LDA  $03, X
 A000  81 00     STA  ($00, X)
 A002  E8        INX  
 A003  E8        INX  
 A004  E8        INX  
 A005  E8        INX  
 A006  60        RTS  
 A007  E0 75     CPX  #$75
 A009  30 03     BMI  $A00E
 A00B  20 7D CE  JSR  $CE7D
 A00E  B5 00     LDA  $00, X
 A010  B4 02     LDY  $02, X
 A012  95 02     STA  $02, X
 A014  94 00     STY  $00, X
 A016  B5 01     LDA  $01, X
 A018  B4 03     LDY  $03, X
 A01A  95 03     STA  $03, X
 A01C  94 01     STY  $01, X
 A01E  60        RTS  
 A01F  E0 75     CPX  #$75
 A021  30 03     BMI  $A026
 A023  4C 7D CE  JMP  $CE7D
 A026  B5 01     LDA  $01, X
 A028  48        PHA  
 A029  B5 00     LDA  $00, X
 A02B  48        PHA  
 A02C  E8        INX  
 A02D  E8        INX  
 A02E  B5 01     LDA  $01, X
 A030  48        PHA  
 A031  B5 00     LDA  $00, X
 A033  48        PHA  
 A034  20 05 93  JSR  $9305
 A037  68        PLA  
 A038  85 20     STA  $20
 A03A  68        PLA  
 A03B  85 21     STA  $21
 A03D  68        PLA  
 A03E  85 22     STA  $22
 A040  68        PLA  
 A041  85 23     STA  $23
 A043  C5 21     CMP  $21
 A045  D0 08     BNE  $A04F
 A047  A5 22     LDA  $22
 A049  C5 20     CMP  $20
 A04B  D0 02     BNE  $A04F
 A04D  80 18     BRA  $A067
 A04F  A5 23     LDA  $23
 A051  48        PHA  
 A052  A5 22     LDA  $22
 A054  48        PHA  
 A055  E6 20     INC  $20
 A057  D0 02     BNE  $A05B
 A059  E6 21     INC  $21
 A05B  CA        DEX  
 A05C  CA        DEX  
 A05D  A5 20     LDA  $20
 A05F  95 00     STA  $00, X
 A061  A5 21     LDA  $21
 A063  95 01     STA  $01, X
 A065  80 C7     BRA  $A02E
 A067  60        RTS  
 A068  20 9A 97  JSR  $979A
 A06B  B5 00     LDA  $00, X
 A06D  15 01     ORA  $01, X
 A06F  D0 05     BNE  $A076
 A071  A9 05     LDA  #$05
 A073  4C 7F CE  JMP  $CE7F
 A076  20 30 90  JSR  $9030
 A079  B5 00     LDA  $00, X
 A07B  15 01     ORA  $01, X
 A07D  D0 05     BNE  $A084
 A07F  A9 08     LDA  #$08
 A081  4C 7F CE  JMP  $CE7F
 A084  20 36 95  JSR  $9536
 A087  60        RTS  
 A088  20 68 A0  JSR  $A068
 A08B  B5 00     LDA  $00, X
 A08D  18        CLC  
 A08E  69 03     ADC  #$03
 A090  85 20     STA  $20
 A092  B5 01     LDA  $01, X
 A094  69 00     ADC  #$00
 A096  85 21     STA  $21
 A098  E8        INX  
 A099  E8        INX  
 A09A  A5 16     LDA  $16
 A09C  05 17     ORA  $17
 A09E  F0 34     BEQ  $A0D4
 A0A0  A0 00     LDY  #$00
 A0A2  A9 B5     LDA  #$B5
 A0A4  20 51 CD  JSR  $CD51
 A0A7  A9 8D     LDA  #$8D
 A0A9  20 55 CD  JSR  $CD55
 A0AC  A4 21     LDY  $21
 A0AE  A5 20     LDA  $20
 A0B0  20 51 CD  JSR  $CD51
 A0B3  A0 01     LDY  #$01
 A0B5  A9 B5     LDA  #$B5
 A0B7  20 51 CD  JSR  $CD51
 A0BA  A9 8D     LDA  #$8D
 A0BC  20 55 CD  JSR  $CD55
 A0BF  E6 20     INC  $20
 A0C1  D0 02     BNE  $A0C5
 A0C3  E6 21     INC  $21
 A0C5  A4 21     LDY  $21
 A0C7  A5 20     LDA  $20
 A0C9  20 51 CD  JSR  $CD51
 A0CC  A0 E8     LDY  #$E8
 A0CE  98        TYA  
 A0CF  20 51 CD  JSR  $CD51
 A0D2  80 13     BRA  $A0E7
 A0D4  E0 77     CPX  #$77
 A0D6  30 03     BMI  $A0DB
 A0D8  4C 7D CE  JMP  $CE7D
 A0DB  B5 00     LDA  $00, X
 A0DD  92 20     STA  ($20)
 A0DF  A0 01     LDY  #$01
 A0E1  B5 01     LDA  $01, X
 A0E3  91 20     STA  ($20), Y
 A0E5  E8        INX  
 A0E6  E8        INX  
 A0E7  60        RTS  
 A0E8  E0 77     CPX  #$77
 A0EA  30 03     BMI  $A0EF
 A0EC  4C 7D CE  JMP  $CE7D
 A0EF  20 AC 8D  JSR  $8DAC
 A0F2  20 CB 91  JSR  $91CB
 A0F5  F6 00     INC  $00, X
 A0F7  D0 02     BNE  $A0FB
 A0F9  F6 01     INC  $01, X
 A0FB  A1 00     LDA  ($00, X)
 A0FD  29 20     AND  #$20
 A0FF  F0 0D     BEQ  $A10E
 A101  18        CLC  
 A102  B5 02     LDA  $02, X
 A104  69 03     ADC  #$03
 A106  95 02     STA  $02, X
 A108  B5 03     LDA  $03, X
 A10A  69 00     ADC  #$00
 A10C  95 03     STA  $03, X
 A10E  E8        INX  
 A10F  E8        INX  
 A110  60        RTS  
 A111  CA        DEX  
 A112  CA        DEX  
 A113  A9 0C     LDA  #$0C
 A115  95 00     STA  $00, X
 A117  A9 00     LDA  #$00
 A119  95 01     STA  $01, X
 A11B  60        RTS  
 A11C  E0 71     CPX  #$71
 A11E  30 03     BMI  $A123
 A120  4C 7D CE  JMP  $CE7D
 A123  B5 06     LDA  $06, X
 A125  85 32     STA  $32
 A127  B5 07     LDA  $07, X
 A129  85 33     STA  $33
 A12B  B5 04     LDA  $04, X
 A12D  85 34     STA  $34
 A12F  B5 05     LDA  $05, X
 A131  85 35     STA  $35
 A133  CA        DEX  
 A134  CA        DEX  
 A135  A1 04     LDA  ($04, X)
 A137  95 00     STA  $00, X
 A139  74 01     STZ  $01, X
 A13B  20 71 8B  JSR  $8B71
 A13E  B5 00     LDA  $00, X
 A140  D0 04     BNE  $A146
 A142  E8        INX  
 A143  E8        INX  
 A144  80 67     BRA  $A1AD
 A146  B5 02     LDA  $02, X
 A148  85 36     STA  $36
 A14A  B5 03     LDA  $03, X
 A14C  85 37     STA  $37
 A14E  A5 34     LDA  $34
 A150  95 02     STA  $02, X
 A152  A5 35     LDA  $35
 A154  95 03     STA  $03, X
 A156  A5 18     LDA  $18
 A158  95 00     STA  $00, X
 A15A  74 01     STZ  $01, X
 A15C  20 37 A4  JSR  $A437
 A15F  B5 02     LDA  $02, X
 A161  85 38     STA  $38
 A163  B5 03     LDA  $03, X
 A165  85 39     STA  $39
 A167  A5 32     LDA  $32
 A169  95 02     STA  $02, X
 A16B  A5 33     LDA  $33
 A16D  95 03     STA  $03, X
 A16F  A5 18     LDA  $18
 A171  95 00     STA  $00, X
 A173  74 01     STZ  $01, X
 A175  20 37 A4  JSR  $A437
 A178  B5 00     LDA  $00, X
 A17A  85 34     STA  $34
 A17C  B5 01     LDA  $01, X
 A17E  85 35     STA  $35
 A180  B5 02     LDA  $02, X
 A182  85 32     STA  $32
 A184  B5 03     LDA  $03, X
 A186  85 33     STA  $33
 A188  18        CLC  
 A189  A5 32     LDA  $32
 A18B  65 36     ADC  $36
 A18D  85 32     STA  $32
 A18F  A5 33     LDA  $33
 A191  65 37     ADC  $37
 A193  85 33     STA  $33
 A195  A5 34     LDA  $34
 A197  65 38     ADC  $38
 A199  85 34     STA  $34
 A19B  A5 35     LDA  $35
 A19D  65 39     ADC  $39
 A19F  85 35     STA  $35
 A1A1  E8        INX  
 A1A2  E8        INX  
 A1A3  F6 04     INC  $04, X
 A1A5  D0 02     BNE  $A1A9
 A1A7  F6 05     INC  $05, X
 A1A9  D6 02     DEC  $02, X
 A1AB  D0 88     BNE  $A135
 A1AD  E8        INX  
 A1AE  E8        INX  
 A1AF  A5 32     LDA  $32
 A1B1  95 06     STA  $06, X
 A1B3  A5 33     LDA  $33
 A1B5  95 07     STA  $07, X
 A1B7  A5 34     LDA  $34
 A1B9  95 04     STA  $04, X
 A1BB  A5 35     LDA  $35
 A1BD  95 05     STA  $05, X
 A1BF  60        RTS  
 A1C0  68        PLA  
 A1C1  85 28     STA  $28
 A1C3  7A        PLY  
 A1C4  E0 77     CPX  #$77
 A1C6  30 03     BMI  $A1CB
 A1C8  4C 7D CE  JMP  $CE7D
 A1CB  B5 01     LDA  $01, X
 A1CD  48        PHA  
 A1CE  B5 00     LDA  $00, X
 A1D0  48        PHA  
 A1D1  E8        INX  
 A1D2  E8        INX  
 A1D3  5A        PHY  
 A1D4  A5 28     LDA  $28
 A1D6  48        PHA  
 A1D7  60        RTS  
 A1D8  CA        DEX  
 A1D9  CA        DEX  
 A1DA  A9 FF     LDA  #$FF
 A1DC  95 00     STA  $00, X
 A1DE  95 01     STA  $01, X
 A1E0  60        RTS  
 A1E1  E0 75     CPX  #$75
 A1E3  30 03     BMI  $A1E8
 A1E5  4C 7D CE  JMP  $CE7D
 A1E8  CA        DEX  
 A1E9  CA        DEX  
 A1EA  B4 04     LDY  $04, X
 A1EC  B5 02     LDA  $02, X
 A1EE  95 04     STA  $04, X
 A1F0  94 02     STY  $02, X
 A1F2  95 00     STA  $00, X
 A1F4  B4 05     LDY  $05, X
 A1F6  B5 03     LDA  $03, X
 A1F8  95 05     STA  $05, X
 A1FA  94 03     STY  $03, X
 A1FC  95 01     STA  $01, X
 A1FE  60        RTS  
 A1FF  CA        DEX  
 A200  CA        DEX  
 A201  A9 02     LDA  #$02
 A203  95 00     STA  $00, X
 A205  74 01     STZ  $01, X
 A207  60        RTS  
 A208  E0 75     CPX  #$75
 A20A  30 03     BMI  $A20F
 A20C  4C 7D CE  JMP  $CE7D
 A20F  E8        INX  
 A210  E8        INX  
 A211  E8        INX  
 A212  E8        INX  
 A213  60        RTS  
 A214  E0 75     CPX  #$75
 A216  30 03     BMI  $A21B
 A218  4C 7D CE  JMP  $CE7D
 A21B  CA        DEX  
 A21C  CA        DEX  
 A21D  CA        DEX  
 A21E  CA        DEX  
 A21F  B5 04     LDA  $04, X
 A221  95 00     STA  $00, X
 A223  B5 05     LDA  $05, X
 A225  95 01     STA  $01, X
 A227  B5 06     LDA  $06, X
 A229  95 02     STA  $02, X
 A22B  B5 07     LDA  $07, X
 A22D  95 03     STA  $03, X
 A22F  60        RTS  
 A230  E0 77     CPX  #$77
 A232  30 03     BMI  $A237
 A234  4C 7D CE  JMP  $CE7D
 A237  B5 00     LDA  $00, X
 A239  85 20     STA  $20
 A23B  B4 01     LDY  $01, X
 A23D  84 21     STY  $21
 A23F  CA        DEX  
 A240  CA        DEX  
 A241  B2 20     LDA  ($20)
 A243  95 00     STA  $00, X
 A245  A0 01     LDY  #$01
 A247  B1 20     LDA  ($20), Y
 A249  95 01     STA  $01, X
 A24B  C8        INY  
 A24C  B1 20     LDA  ($20), Y
 A24E  95 02     STA  $02, X
 A250  C8        INY  
 A251  B1 20     LDA  ($20), Y
 A253  95 03     STA  $03, X
 A255  60        RTS  
 A256  E0 71     CPX  #$71
 A258  30 03     BMI  $A25D
 A25A  4C 7D CE  JMP  $CE7D
 A25D  CA        DEX  
 A25E  CA        DEX  
 A25F  CA        DEX  
 A260  CA        DEX  
 A261  B5 08     LDA  $08, X
 A263  95 00     STA  $00, X
 A265  B5 09     LDA  $09, X
 A267  95 01     STA  $01, X
 A269  B5 0A     LDA  $0A, X
 A26B  95 02     STA  $02, X
 A26D  B5 0B     LDA  $0B, X
 A26F  95 03     STA  $03, X
 A271  60        RTS  
 A272  CA        DEX  
 A273  CA        DEX  
 A274  CA        DEX  
 A275  CA        DEX  
 A276  8A        TXA  
 A277  BA        TSX  
 A278  DA        PHX  
 A279  7A        PLY  
 A27A  AA        TAX  
 A27B  B9 03 01  LDA  $0103, Y
 A27E  95 00     STA  $00, X
 A280  B9 04 01  LDA  $0104, Y
 A283  95 01     STA  $01, X
 A285  B9 05 01  LDA  $0105, Y
 A288  95 02     STA  $02, X
 A28A  B9 06 01  LDA  $0106, Y
 A28D  95 03     STA  $03, X
 A28F  60        RTS  
 A290  68        PLA  
 A291  85 20     STA  $20
 A293  68        PLA  
 A294  85 21     STA  $21
 A296  CA        DEX  
 A297  CA        DEX  
 A298  CA        DEX  
 A299  CA        DEX  
 A29A  68        PLA  
 A29B  95 00     STA  $00, X
 A29D  68        PLA  
 A29E  95 01     STA  $01, X
 A2A0  68        PLA  
 A2A1  95 02     STA  $02, X
 A2A3  68        PLA  
 A2A4  95 03     STA  $03, X
 A2A6  A5 21     LDA  $21
 A2A8  48        PHA  
 A2A9  A5 20     LDA  $20
 A2AB  48        PHA  
 A2AC  60        RTS  
 A2AD  E0 77     CPX  #$77
 A2AF  30 03     BMI  $A2B4
 A2B1  4C 7D CE  JMP  $CE7D
 A2B4  B5 01     LDA  $01, X
 A2B6  0A        ASL  
 A2B7  76 01     ROR  $01, X
 A2B9  76 00     ROR  $00, X
 A2BB  60        RTS  
 A2BC  E0 77     CPX  #$77
 A2BE  30 03     BMI  $A2C3
 A2C0  4C 7D CE  JMP  $CE7D
 A2C3  16 00     ASL  $00, X
 A2C5  36 01     ROL  $01, X
 A2C7  60        RTS  
 A2C8  E0 73     CPX  #$73
 A2CA  30 03     BMI  $A2CF
 A2CC  4C 7D CE  JMP  $CE7D
 A2CF  B5 00     LDA  $00, X
 A2D1  85 20     STA  $20
 A2D3  B4 01     LDY  $01, X
 A2D5  84 21     STY  $21
 A2D7  E8        INX  
 A2D8  E8        INX  
 A2D9  B5 00     LDA  $00, X
 A2DB  92 20     STA  ($20)
 A2DD  B5 01     LDA  $01, X
 A2DF  A0 01     LDY  #$01
 A2E1  91 20     STA  ($20), Y
 A2E3  B5 02     LDA  $02, X
 A2E5  C8        INY  
 A2E6  91 20     STA  ($20), Y
 A2E8  B5 03     LDA  $03, X
 A2EA  C8        INY  
 A2EB  91 20     STA  ($20), Y
 A2ED  E8        INX  
 A2EE  E8        INX  
 A2EF  E8        INX  
 A2F0  E8        INX  
 A2F1  60        RTS  
 A2F2  E0 71     CPX  #$71
 A2F4  30 03     BMI  $A2F9
 A2F6  4C 7D CE  JMP  $CE7D
 A2F9  B5 00     LDA  $00, X
 A2FB  B4 04     LDY  $04, X
 A2FD  95 04     STA  $04, X
 A2FF  94 00     STY  $00, X
 A301  B5 01     LDA  $01, X
 A303  B4 05     LDY  $05, X
 A305  95 05     STA  $05, X
 A307  94 01     STY  $01, X
 A309  B5 02     LDA  $02, X
 A30B  B4 06     LDY  $06, X
 A30D  95 06     STA  $06, X
 A30F  94 02     STY  $02, X
 A311  B5 03     LDA  $03, X
 A313  B4 07     LDY  $07, X
 A315  95 07     STA  $07, X
 A317  94 03     STY  $03, X
 A319  60        RTS  
 A31A  68        PLA  
 A31B  85 20     STA  $20
 A31D  68        PLA  
 A31E  85 21     STA  $21
 A320  E0 75     CPX  #$75
 A322  30 03     BMI  $A327
 A324  4C 7D CE  JMP  $CE7D
 A327  B5 03     LDA  $03, X
 A329  48        PHA  
 A32A  B5 02     LDA  $02, X
 A32C  48        PHA  
 A32D  B5 01     LDA  $01, X
 A32F  48        PHA  
 A330  B5 00     LDA  $00, X
 A332  48        PHA  
 A333  E8        INX  
 A334  E8        INX  
 A335  E8        INX  
 A336  E8        INX  
 A337  A5 21     LDA  $21
 A339  48        PHA  
 A33A  A5 20     LDA  $20
 A33C  48        PHA  
 A33D  60        RTS  
 A33E  20 FD 89  JSR  $89FD
 A341  CA        DEX  
 A342  CA        DEX  
 A343  A9 04     LDA  #$04
 A345  95 00     STA  $00, X
 A347  74 01     STZ  $01, X
 A349  20 F0 82  JSR  $82F0
 A34C  60        RTS  
 A34D  E0 75     CPX  #$75
 A34F  30 03     BMI  $A354
 A351  4C 7D CE  JMP  $CE7D
 A354  B5 02     LDA  $02, X
 A356  85 20     STA  $20
 A358  B5 03     LDA  $03, X
 A35A  85 21     STA  $21
 A35C  B5 00     LDA  $00, X
 A35E  15 01     ORA  $01, X
 A360  F0 15     BEQ  $A377
 A362  B2 20     LDA  ($20)
 A364  20 D6 8D  JSR  $8DD6
 A367  E6 20     INC  $20
 A369  D0 02     BNE  $A36D
 A36B  E6 21     INC  $21
 A36D  B5 00     LDA  $00, X
 A36F  D0 02     BNE  $A373
 A371  D6 01     DEC  $01, X
 A373  D6 00     DEC  $00, X
 A375  80 E5     BRA  $A35C
 A377  E8        INX  
 A378  E8        INX  
 A379  E8        INX  
 A37A  E8        INX  
 A37B  60        RTS  
 A37C  E0 77     CPX  #$77
 A37E  30 03     BMI  $A383
 A380  4C 7D CE  JMP  $CE7D
 A383  20 B5 CE  JSR  $CEB5
 A386  A9 20     LDA  #$20
 A388  20 D6 8D  JSR  $8DD6
 A38B  60        RTS  
 A38C  E0 75     CPX  #$75
 A38E  30 03     BMI  $A393
 A390  4C 7D CE  JMP  $CE7D
 A393  20 C0 A1  JSR  $A1C0
 A396  20 D8 A5  JSR  $A5D8
 A399  20 9C 92  JSR  $929C
 A39C  20 FD 96  JSR  $96FD
 A39F  20 C7 96  JSR  $96C7
 A3A2  20 50 99  JSR  $9950
 A3A5  20 5A 97  JSR  $975A
 A3A8  20 B2 94  JSR  $94B2
 A3AB  20 82 9F  JSR  $9F82
 A3AE  20 4D A3  JSR  $A34D
 A3B1  60        RTS  
 A3B2  E0 75     CPX  #$75
 A3B4  30 03     BMI  $A3B9
 A3B6  4C 7D CE  JMP  $CE7D
 A3B9  B5 00     LDA  $00, X
 A3BB  D5 02     CMP  $02, X
 A3BD  B5 01     LDA  $01, X
 A3BF  F5 03     SBC  $03, X
 A3C1  E8        INX  
 A3C2  E8        INX  
 A3C3  A9 00     LDA  #$00
 A3C5  69 FF     ADC  #$FF
 A3C7  95 00     STA  $00, X
 A3C9  95 01     STA  $01, X
 A3CB  60        RTS  
 A3CC  E0 75     CPX  #$75
 A3CE  30 03     BMI  $A3D3
 A3D0  4C 7D CE  JMP  $CE7D
 A3D3  B5 02     LDA  $02, X
 A3D5  D5 00     CMP  $00, X
 A3D7  B5 03     LDA  $03, X
 A3D9  F5 01     SBC  $01, X
 A3DB  E8        INX  
 A3DC  E8        INX  
 A3DD  A9 00     LDA  #$00
 A3DF  69 FF     ADC  #$FF
 A3E1  95 00     STA  $00, X
 A3E3  95 01     STA  $01, X
 A3E5  60        RTS  
 A3E6  CA        DEX  
 A3E7  CA        DEX  
 A3E8  A9 1C     LDA  #$1C
 A3EA  95 00     STA  $00, X
 A3EC  A9 00     LDA  #$00
 A3EE  95 01     STA  $01, X
 A3F0  60        RTS  
 A3F1  E0 73     CPX  #$73
 A3F3  30 03     BMI  $A3F8
 A3F5  4C 7D CE  JMP  $CE7D
 A3F8  B5 00     LDA  $00, X
 A3FA  15 01     ORA  $01, X
 A3FC  D0 05     BNE  $A403
 A3FE  A9 04     LDA  #$04
 A400  4C 7F CE  JMP  $CE7F
 A403  A9 11     LDA  #$11
 A405  85 28     STA  $28
 A407  36 04     ROL  $04, X
 A409  36 05     ROL  $05, X
 A40B  C6 28     DEC  $28
 A40D  F0 22     BEQ  $A431
 A40F  36 02     ROL  $02, X
 A411  36 03     ROL  $03, X
 A413  64 20     STZ  $20
 A415  26 20     ROL  $20
 A417  38        SEC  
 A418  B5 02     LDA  $02, X
 A41A  F5 00     SBC  $00, X
 A41C  85 21     STA  $21
 A41E  B5 03     LDA  $03, X
 A420  F5 01     SBC  $01, X
 A422  A8        TAY  
 A423  A5 20     LDA  $20
 A425  E9 00     SBC  #$00
 A427  90 DE     BCC  $A407
 A429  A5 21     LDA  $21
 A42B  95 02     STA  $02, X
 A42D  94 03     STY  $03, X
 A42F  80 D6     BRA  $A407
 A431  E8        INX  
 A432  E8        INX  
 A433  20 07 A0  JSR  $A007
 A436  60        RTS  
 A437  E0 75     CPX  #$75
 A439  30 03     BMI  $A43E
 A43B  4C 7D CE  JMP  $CE7D
 A43E  18        CLC  
 A43F  B5 00     LDA  $00, X
 A441  E9 00     SBC  #$00
 A443  85 22     STA  $22
 A445  B5 01     LDA  $01, X
 A447  E9 00     SBC  #$00
 A449  90 31     BCC  $A47C
 A44B  85 23     STA  $23
 A44D  A9 00     LDA  #$00
 A44F  85 20     STA  $20
 A451  86 24     STX  $24
 A453  CA        DEX  
 A454  CA        DEX  
 A455  A0 08     LDY  #$08
 A457  56 04     LSR  $04, X
 A459  90 0C     BCC  $A467
 A45B  85 21     STA  $21
 A45D  A5 20     LDA  $20
 A45F  65 22     ADC  $22
 A461  85 20     STA  $20
 A463  A5 21     LDA  $21
 A465  65 23     ADC  $23
 A467  6A        ROR  
 A468  66 20     ROR  $20
 A46A  76 04     ROR  $04, X
 A46C  88        DEY  
 A46D  D0 EA     BNE  $A459
 A46F  E8        INX  
 A470  E4 24     CPX  $24
 A472  D0 E1     BNE  $A455
 A474  95 01     STA  $01, X
 A476  A5 20     LDA  $20
 A478  95 00     STA  $00, X
 A47A  80 04     BRA  $A480
 A47C  74 02     STZ  $02, X
 A47E  74 03     STZ  $03, X
 A480  60        RTS  
 A481  68        PLA  
 A482  68        PLA  
 A483  68        PLA  
 A484  68        PLA  
 A485  68        PLA  
 A486  68        PLA  
 A487  60        RTS  
 A488  CA        DEX  
 A489  CA        DEX  
 A48A  A9 00     LDA  #$00
 A48C  38        SEC  
 A48D  E5 00     SBC  $00
 A48F  95 00     STA  $00, X
 A491  A9 7C     LDA  #$7C
 A493  E5 01     SBC  $01
 A495  95 01     STA  $01, X
 A497  60        RTS  
 A498  A0 34     LDY  #$34
 A49A  B1 3C     LDA  ($3C), Y
 A49C  09 02     ORA  #$02
 A49E  91 3C     STA  ($3C), Y
 A4A0  60        RTS  
 A4A1  CA        DEX  
 A4A2  CA        DEX  
 A4A3  A9 3C     LDA  #$3C
 A4A5  95 00     STA  $00, X
 A4A7  A9 00     LDA  #$00
 A4A9  95 01     STA  $01, X
 A4AB  60        RTS  
 A4AC  20 FD 89  JSR  $89FD
 A4AF  A9 00     LDA  #$00
 A4B1  92 00     STA  ($00)
 A4B3  E6 00     INC  $00
 A4B5  D0 02     BNE  $A4B9
 A4B7  E6 01     INC  $01
 A4B9  92 00     STA  ($00)
 A4BB  E6 00     INC  $00
 A4BD  D0 02     BNE  $A4C1
 A4BF  E6 01     INC  $01
 A4C1  20 C1 89  JSR  $89C1
 A4C4  60        RTS  
 A4C5  E0 73     CPX  #$73
 A4C7  30 03     BMI  $A4CC
 A4C9  4C 7D CE  JMP  $CE7D
 A4CC  20 5A 97  JSR  $975A
 A4CF  20 B2 94  JSR  $94B2
 A4D2  20 C0 A1  JSR  $A1C0
 A4D5  20 B2 94  JSR  $94B2
 A4D8  20 50 99  JSR  $9950
 A4DB  20 CC A3  JSR  $A3CC
 A4DE  60        RTS  
 A4DF  E0 77     CPX  #$77
 A4E1  30 03     BMI  $A4E6
 A4E3  4C 7D CE  JMP  $CE7D
 A4E6  A4 0C     LDY  $0C
 A4E8  C4 0A     CPY  $0A
 A4EA  F0 09     BEQ  $A4F5
 A4EC  B1 08     LDA  ($08), Y
 A4EE  D5 00     CMP  $00, X
 A4F0  D0 03     BNE  $A4F5
 A4F2  C8        INY  
 A4F3  80 F3     BRA  $A4E8
 A4F5  84 0C     STY  $0C
 A4F7  20 F5 97  JSR  $97F5
 A4FA  B5 00     LDA  $00, X
 A4FC  92 00     STA  ($00)
 A4FE  48        PHA  
 A4FF  20 AC 8D  JSR  $8DAC
 A502  A5 00     LDA  $00
 A504  18        CLC  
 A505  69 01     ADC  #$01
 A507  95 02     STA  $02, X
 A509  A5 01     LDA  $01
 A50B  69 00     ADC  #$00
 A50D  95 03     STA  $03, X
 A50F  20 17 95  JSR  $9517
 A512  CA        DEX  
 A513  CA        DEX  
 A514  A5 00     LDA  $00
 A516  95 00     STA  $00, X
 A518  A5 01     LDA  $01
 A51A  95 01     STA  $01, X
 A51C  68        PLA  
 A51D  18        CLC  
 A51E  65 00     ADC  $00
 A520  85 00     STA  $00
 A522  A5 01     LDA  $01
 A524  69 00     ADC  #$00
 A526  85 01     STA  $01
 A528  60        RTS  
 A529  A0 06     LDY  #$06
 A52B  B1 3C     LDA  ($3C), Y
 A52D  C9 0B     CMP  #$0B
 A52F  D0 05     BNE  $A536
 A531  A9 0B     LDA  #$0B
 A533  4C 7F CE  JMP  $CE7F
 A536  1A        INC  
 A537  91 3C     STA  ($3C), Y
 A539  CA        DEX  
 A53A  CA        DEX  
 A53B  95 00     STA  $00, X
 A53D  74 01     STZ  $01, X
 A53F  60        RTS  
 A540  20 F7 89  JSR  $89F7
 A543  A9 00     LDA  #$00
 A545  48        PHA  
 A546  CA        DEX  
 A547  CA        DEX  
 A548  64 24     STZ  $24
 A54A  A0 1E     LDY  #$1E
 A54C  A5 24     LDA  $24
 A54E  D1 3C     CMP  ($3C), Y
 A550  D0 02     BNE  $A554
 A552  80 45     BRA  $A599
 A554  0A        ASL  
 A555  18        CLC  
 A556  69 20     ADC  #$20
 A558  A8        TAY  
 A559  B1 3C     LDA  ($3C), Y
 A55B  0A        ASL  
 A55C  18        CLC  
 A55D  69 08     ADC  #$08
 A55F  A8        TAY  
 A560  B1 3C     LDA  ($3C), Y
 A562  95 00     STA  $00, X
 A564  C8        INY  
 A565  B1 3C     LDA  ($3C), Y
 A567  95 01     STA  $01, X
 A569  20 AC 8D  JSR  $8DAC
 A56C  20 57 95  JSR  $9557
 A56F  68        PLA  
 A570  18        CLC  
 A571  75 00     ADC  $00, X
 A573  1A        INC  
 A574  C9 4F     CMP  #$4F
 A576  90 05     BCC  $A57D
 A578  20 F7 89  JSR  $89F7
 A57B  A9 00     LDA  #$00
 A57D  48        PHA  
 A57E  20 4D A3  JSR  $A34D
 A581  A9 20     LDA  #$20
 A583  20 D6 8D  JSR  $8DD6
 A586  20 2B 97  JSR  $972B
 A589  20 2B 97  JSR  $972B
 A58C  20 CD 8F  JSR  $8FCD
 A58F  B5 00     LDA  $00, X
 A591  15 01     ORA  $01, X
 A593  D0 D4     BNE  $A569
 A595  E6 24     INC  $24
 A597  80 B1     BRA  $A54A
 A599  68        PLA  
 A59A  E8        INX  
 A59B  E8        INX  
 A59C  60        RTS  
 A59D  E0 77     CPX  #$77
 A59F  30 03     BMI  $A5A4
 A5A1  4C 7D CE  JMP  $CE7D
 A5A4  B5 00     LDA  $00, X
 A5A6  85 20     STA  $20
 A5A8  B5 01     LDA  $01, X
 A5AA  85 21     STA  $21
 A5AC  A0 06     LDY  #$06
 A5AE  B1 20     LDA  ($20), Y
 A5B0  88        DEY  
 A5B1  88        DEY  
 A5B2  38        SEC  
 A5B3  F1 20     SBC  ($20), Y
 A5B5  95 00     STA  $00, X
 A5B7  A0 07     LDY  #$07
 A5B9  B1 20     LDA  ($20), Y
 A5BB  88        DEY  
 A5BC  88        DEY  
 A5BD  F1 20     SBC  ($20), Y
 A5BF  95 01     STA  $01, X
 A5C1  60        RTS  
 A5C2  E0 75     CPX  #$75
 A5C4  30 03     BMI  $A5C9
 A5C6  4C 7D CE  JMP  $CE7D
 A5C9  B5 00     LDA  $00, X
 A5CB  55 02     EOR  $02, X
 A5CD  95 02     STA  $02, X
 A5CF  B5 01     LDA  $01, X
 A5D1  55 03     EOR  $03, X
 A5D3  95 03     STA  $03, X
 A5D5  E8        INX  
 A5D6  E8        INX  
 A5D7  60        RTS  
 A5D8  CA        DEX  
 A5D9  CA        DEX  
 A5DA  74 00     STZ  $00, X
 A5DC  74 01     STZ  $01, X
 A5DE  60        RTS  
 A5DF  A0 A5     LDY  #$A5
 A5E1  A9 E7     LDA  #$E7
 A5E3  20 45 CD  JSR  $CD45
 A5E6  60        RTS  
 A5E7  68        PLA  
 A5E8  85 1E     STA  $1E
 A5EA  68        PLA  
 A5EB  85 1F     STA  $1F
 A5ED  B5 00     LDA  $00, X
 A5EF  15 01     ORA  $01, X
 A5F1  F0 0F     BEQ  $A602
 A5F3  A5 1E     LDA  $1E
 A5F5  18        CLC  
 A5F6  69 02     ADC  #$02
 A5F8  85 20     STA  $20
 A5FA  A5 1F     LDA  $1F
 A5FC  69 00     ADC  #$00
 A5FE  85 21     STA  $21
 A600  80 13     BRA  $A615
 A602  A0 01     LDY  #$01
 A604  B1 1E     LDA  ($1E), Y
 A606  85 20     STA  $20
 A608  C8        INY  
 A609  B1 1E     LDA  ($1E), Y
 A60B  85 21     STA  $21
 A60D  A5 20     LDA  $20
 A60F  D0 02     BNE  $A613
 A611  C6 21     DEC  $21
 A613  C6 20     DEC  $20
 A615  A5 21     LDA  $21
 A617  48        PHA  
 A618  A5 20     LDA  $20
 A61A  48        PHA  
 A61B  E8        INX  
 A61C  E8        INX  
 A61D  60        RTS  
 A61E  E0 77     CPX  #$77
 A620  30 03     BMI  $A625
 A622  4C 7D CE  JMP  $CE7D
 A625  B5 00     LDA  $00, X
 A627  15 01     ORA  $01, X
 A629  F0 04     BEQ  $A62F
 A62B  A9 00     LDA  #$00
 A62D  80 02     BRA  $A631
 A62F  A9 FF     LDA  #$FF
 A631  95 00     STA  $00, X
 A633  95 01     STA  $01, X
 A635  60        RTS  
 A636  E0 77     CPX  #$77
 A638  30 03     BMI  $A63D
 A63A  4C 7D CE  JMP  $CE7D
 A63D  A0 00     LDY  #$00
 A63F  B5 01     LDA  $01, X
 A641  30 05     BMI  $A648
 A643  15 00     ORA  $00, X
 A645  F0 01     BEQ  $A648
 A647  88        DEY  
 A648  98        TYA  
 A649  95 00     STA  $00, X
 A64B  95 01     STA  $01, X
 A64D  60        RTS  
 A64E  E0 77     CPX  #$77
 A650  30 03     BMI  $A655
 A652  4C 7D CE  JMP  $CE7D
 A655  A0 00     LDY  #$00
 A657  B5 01     LDA  $01, X
 A659  10 01     BPL  $A65C
 A65B  88        DEY  
 A65C  98        TYA  
 A65D  95 00     STA  $00, X
 A65F  95 01     STA  $01, X
 A661  60        RTS  
 A662  E0 77     CPX  #$77
 A664  30 03     BMI  $A669
 A666  4C 7D CE  JMP  $CE7D
 A669  A0 00     LDY  #$00
 A66B  B5 00     LDA  $00, X
 A66D  15 01     ORA  $01, X
 A66F  F0 01     BEQ  $A672
 A671  88        DEY  
 A672  98        TYA  
 A673  95 00     STA  $00, X
 A675  95 01     STA  $01, X
 A677  60        RTS  
 A678  CA        DEX  
 A679  CA        DEX  
 A67A  A0 02     LDY  #$02
 A67C  B1 3C     LDA  ($3C), Y
 A67E  95 00     STA  $00, X
 A680  C8        INY  
 A681  B1 3C     LDA  ($3C), Y
 A683  95 01     STA  $01, X
 A685  20 FD 83  JSR  $83FD
 A688  20 F7 89  JSR  $89F7
 A68B  80 08     BRA  $A695
 A68D  53 63 72 65 65 6E 20 23                          |Screen #        |
 A695  20 03 9F  JSR  $9F03
 A698  8D A6 08 00                                      |....            |
 A69C  20 4D A3  JSR  $A34D
 A69F  20 FB 9C  JSR  $9CFB
 A6A2  20 CD 8F  JSR  $8FCD
 A6A5  CA        DEX  
 A6A6  CA        DEX  
 A6A7  A9 04     LDA  #$04
 A6A9  95 00     STA  $00, X
 A6AB  74 01     STZ  $01, X
 A6AD  20 8C A3  JSR  $A38C
 A6B0  64 24     STZ  $24
 A6B2  20 F7 89  JSR  $89F7
 A6B5  CA        DEX  
 A6B6  CA        DEX  
 A6B7  CA        DEX  
 A6B8  CA        DEX  
 A6B9  74 03     STZ  $03, X
 A6BB  A5 24     LDA  $24
 A6BD  95 02     STA  $02, X
 A6BF  74 01     STZ  $01, X
 A6C1  A9 02     LDA  #$02
 A6C3  95 00     STA  $00, X
 A6C5  20 8C A3  JSR  $A38C
 A6C8  20 7C 9F  JSR  $9F7C
 A6CB  20 AC 8D  JSR  $8DAC
 A6CE  CA        DEX  
 A6CF  CA        DEX  
 A6D0  A9 40     LDA  #$40
 A6D2  95 00     STA  $00, X
 A6D4  74 01     STZ  $01, X
 A6D6  20 4D A3  JSR  $A34D
 A6D9  18        CLC  
 A6DA  A9 40     LDA  #$40
 A6DC  75 00     ADC  $00, X
 A6DE  95 00     STA  $00, X
 A6E0  B5 01     LDA  $01, X
 A6E2  69 00     ADC  #$00
 A6E4  95 01     STA  $01, X
 A6E6  E6 24     INC  $24
 A6E8  A5 24     LDA  $24
 A6EA  C9 10     CMP  #$10
 A6EC  D0 C4     BNE  $A6B2
 A6EE  20 F7 89  JSR  $89F7
 A6F1  E8        INX  
 A6F2  E8        INX  
 A6F3  60        RTS  
 A6F4  A9 EA     LDA  #$EA
 A6F6  20 55 CD  JSR  $CD55
 A6F9  60        RTS  
 A6FA  A5 18     LDA  $18
 A6FC  48        PHA  
 A6FD  20 7D 91  JSR  $917D
 A700  20 F7 89  JSR  $89F7
 A703  20 5A 97  JSR  $975A
 A706  20 7C A3  JSR  $A37C
 A709  20 7C 9F  JSR  $9F7C
 A70C  A9 A9     LDA  #$A9
 A70E  85 22     STA  $22
 A710  A9 A7     LDA  #$A7
 A712  85 23     STA  $23
 A714  A1 02     LDA  ($02, X)
 A716  0A        ASL  
 A717  90 02     BCC  $A71B
 A719  E6 23     INC  $23
 A71B  A8        TAY  
 A71C  B1 22     LDA  ($22), Y
 A71E  85 24     STA  $24
 A720  C8        INY  
 A721  B1 22     LDA  ($22), Y
 A723  85 25     STA  $25
 A725  B2 24     LDA  ($24)
 A727  48        PHA  
 A728  E6 24     INC  $24
 A72A  D0 02     BNE  $A72E
 A72C  E6 25     INC  $25
 A72E  20 A8 CE  JSR  $CEA8
 A731  F6 02     INC  $02, X
 A733  D0 02     BNE  $A737
 A735  F6 03     INC  $03, X
 A737  20 1B 97  JSR  $971B
 A73A  7A        PLY  
 A73B  F0 58     BEQ  $A795
 A73D  88        DEY  
 A73E  5A        PHY  
 A73F  20 7C 9F  JSR  $9F7C
 A742  20 AC 8D  JSR  $8DAC
 A745  A1 04     LDA  ($04, X)
 A747  95 00     STA  $00, X
 A749  74 01     STZ  $01, X
 A74B  F6 04     INC  $04, X
 A74D  D0 02     BNE  $A751
 A74F  F6 05     INC  $05, X
 A751  B5 02     LDA  $02, X
 A753  D0 02     BNE  $A757
 A755  D6 03     DEC  $03, X
 A757  D6 02     DEC  $02, X
 A759  68        PLA  
 A75A  D0 14     BNE  $A770
 A75C  20 D8 A5  JSR  $A5D8
 A75F  20 9C 92  JSR  $929C
 A762  20 8E 96  JSR  $968E
 A765  20 FD 96  JSR  $96FD
 A768  20 C7 96  JSR  $96C7
 A76B  20 4D A3  JSR  $A34D
 A76E  80 25     BRA  $A795
 A770  A1 04     LDA  ($04, X)
 A772  95 01     STA  $01, X
 A774  20 D8 A5  JSR  $A5D8
 A777  20 9C 92  JSR  $929C
 A77A  20 8E 96  JSR  $968E
 A77D  20 8E 96  JSR  $968E
 A780  20 8E 96  JSR  $968E
 A783  20 FD 96  JSR  $96FD
 A786  20 C7 96  JSR  $96C7
 A789  20 4D A3  JSR  $A34D
 A78C  F6 02     INC  $02, X
 A78E  D0 02     BNE  $A792
 A790  F6 03     INC  $03, X
 A792  20 1B 97  JSR  $971B
 A795  B5 00     LDA  $00, X
 A797  15 01     ORA  $01, X
 A799  F0 05     BEQ  $A7A0
 A79B  30 03     BMI  $A7A0
 A79D  4C 00 A7  JMP  $A700
 A7A0  68        PLA  
 A7A1  85 18     STA  $18
 A7A3  20 F7 89  JSR  $89F7
 A7A6  4C 08 A2  JMP  $A208
 A7A9  AC A9 B1 A9 A9 A9 A9 A9 A9 A9 BA A9 C1 A9 A9 A9  |................|
 A7B9  C8 A9 CD A9 D4 A9 A9 A9 DB A9 E0 A9 E5 A9 EA A9  |................|
 A7C9  F0 A9 F5 A9 FE A9 A9 A9 06 AA 0D AA 15 AA 1D AA  |................|
 A7D9  25 AA 2A AA 31 AA A9 A9 38 AA 3D AA A9 A9 44 AA  |%.*.1...8.=...D.|
 A7E9  4B AA 50 AA A9 A9 A9 A9 59 AA 60 AA 67 AA 6E AA  |K.P.....Y.`.g.n.|
 A7F9  76 AA 7B AA 82 AA A9 A9 89 AA 8E AA 94 AA 99 AA  |v.{.............|
 A809  9F AA A4 AA AD AA A9 A9 B5 AA BE AA C6 AA CE AA  |................|
 A819  D6 AA DB AA E2 AA A9 A9 E9 AA F0 AA F7 AA EA A9  |................|
 A829  04 AB 09 AB A9 A9 A9 A9 A9 A9 12 AB 19 AB 20 AB  |.............. .|
 A839  28 AB 2D AB 34 AB A9 A9 3B AB 40 AB 45 AB 4A AB  |(.-.4...;.@.E.J.|
 A849  50 AB 55 AB 5E AB A9 A9 A9 A9 66 AB 6E AB 76 AB  |P.U.^.....f.n.v.|
 A859  7E AB 83 AB 8A AB A9 A9 A9 A9 A9 A9 96 AB 9D AB  |~...............|
 A869  A3 AB A8 AB A9 A9 A9 A9 BF AB B8 AB BF AB C6 AB  |................|
 A879  CE AB D3 AB DA AB A9 A9 E1 AB E8 AB ED AB F2 AB  |................|
 A889  F8 AB FD AB 06 AC A9 A9 0E AC 16 AC 1E AC 26 AC  |..............&.|
 A899  2E AC 33 AC 3A AC A9 A9 3F AC 47 AC 4E AC 55 AC  |..3.:...?.G.N.U.|
 A8A9  5B AC 60 AC A9 A9 A9 A9 69 AC 70 AC 77 AC A9 A9  |[.`.....i.p.w...|
 A8B9  7E AC 83 AC 8A AC A9 A9 8F AC 94 AC 99 AC 9E AC  |~...............|
 A8C9  A4 AC A9 AC B2 AC A9 A9 BA AC C2 AC CA AC D2 AC  |................|
 A8D9  DA AC DF AC E6 AC A9 A9 EB AC F0 AC F7 AC FE AC  |................|
 A8E9  04 AD 0B AD 14 AD A9 A9 1B AD 22 AD 29 AD 30 AD  |..........".).0.|
 A8F9  38 AD 3D AD 44 AD A9 A9 49 AD 4E AD 53 AD 58 AD  |8.=.D...I.N.S.X.|
 A909  5E AD 63 AD 6C AD A9 A9 74 AD 7C AD 84 AD 8C AD  |^.c.l...t.|.....|
 A919  94 AD 99 AD A0 AD A9 A9 A5 AD AC AD B3 AD BA AD  |................|
 A929  C0 AD C7 AD A9 A9 A9 A9 D0 AD D7 AD DE AD E5 AD  |................|
 A939  ED AD F2 AD F9 AD FE AD 03 AE 08 AE 0D AE 12 AE  |................|
 A949  18 AE 1D AE 26 AE A9 A9 A9 A9 2E AE 36 AE 3E AE  |....&.......6.>.|
 A959  46 AE 4B AE 52 AE 57 AE A9 A9 5C AE 63 AE 6A AE  |F.K.R.W...\.c.j.|
 A969  70 AE 77 AE A9 A9 A9 A9 80 AE 87 AE 8E AE 95 AE  |p.w.............|
 A979  9D AE A2 AE A9 AE A9 A9 AE AE B3 AE B8 AE BD AE  |................|
 A989  C3 AE C8 AE D1 AE A9 A9 A9 A9 D9 AE E1 AE E9 AE  |................|
 A999  F1 AE F6 AE FD AE A9 A9 A9 A9 02 AF 09 AF 10 AF  |................|
 A9A9  00 3F 00 00 62 72 6B 00 01 6F 72 61 2E 64 78 69  |.?..brk..ora.dxi|
 A9B9  00 01 6F 72 64 2E 64 00 01 61 73 6C 2E 64 00 00  |..ord.d..asl.d..|
 A9C9  70 68 70 00 01 6F 72 61 2E 23 00 00 61 73 6C 2E  |php..ora.#..asl.|
 A9D9  61 00 02 74 73 62 00 02 6F 72 61 00 02 61 73 6C  |a..tsb..ora..asl|
 A9E9  00 02 62 62 72 30 00 01 62 70 6C 00 01 6F 72 61  |..bbr0..bpl..ora|
 A9F9  2E 7A 69 79 00 01 6F 72 61 2E 7A 69 00 01 74 72  |.ziy..ora.zi..tr|
 AA09  62 2E 7A 00 01 6F 72 61 2E 7A 78 00 01 61 73 6C  |b.z..ora.zx..asl|
 AA19  2E 7A 78 00 01 72 6D 62 31 2E 7A 00 00 63 6C 63  |.zx..rmb1.z..clc|
 AA29  00 02 6F 72 61 2E 79 00 00 69 6E 63 2E 61 00 02  |..ora.y..inc.a..|
 AA39  74 72 62 00 02 6F 72 61 2E 78 00 02 61 73 6C 2E  |trb..ora.x..asl.|
 AA49  78 00 02 6A 73 72 00 01 61 6E 64 2E 7A 78 69 00  |x..jsr..and.zxi.|
 AA59  01 62 69 74 2E 7A 00 01 61 6E 64 2E 7A 00 01 72  |.bit.z..and.z..r|
 AA69  6F 6C 2E 7A 00 01 72 6D 62 32 2E 7A 00 00 70 6C  |ol.z..rmb2.z..pl|
 AA79  70 00 01 61 6E 64 2E 23 00 00 72 6F 6C 2E 61 00  |p..and.#..rol.a.|
 AA89  02 62 69 74 00 02 61 6E 64 2E 00 02 72 6F 6C 00  |.bit..and...rol.|
 AA99  02 62 62 72 32 00 01 62 6D 69 00 01 61 6E 64 2E  |.bbr2..bmi..and.|
 AAA9  7A 69 79 00 01 61 6E 64 2E 7A 69 00 01 62 69 74  |ziy..and.zi..bit|
 AAB9  2E 7A 78 69 00 01 61 6E 64 2E 7A 78 00 01 72 6F  |.zxi..and.zx..ro|
 AAC9  6C 2E 7A 78 00 01 72 6D 62 33 2E 7A 00 00 73 65  |l.zx..rmb3.z..se|
 AAD9  63 00 02 61 6E 64 2E 79 00 00 64 65 63 2E 61 00  |c..and.y..dec.a.|
 AAE9  02 62 69 74 2E 78 00 02 61 6E 64 2E 78 00 02 72  |.bit.x..and.x..r|
 AAF9  6F 6C 2E 78 00 02 62 62 72 33 00 00 72 74 69 00  |ol.x..bbr3..rti.|
 AB09  01 65 6F 72 2E 7A 78 69 00 01 65 6F 72 2E 7A 00  |.eor.zxi..eor.z.|
 AB19  01 6C 73 72 2E 7A 00 01 72 62 6D 34 2E 7A 00 00  |.lsr.z..rbm4.z..|
 AB29  70 68 61 00 01 65 6F 72 2E 23 00 00 6C 73 72 2E  |pha..eor.#..lsr.|
 AB39  61 00 02 6A 6D 70 00 02 65 6F 72 00 02 6C 73 72  |a..jmp..eor..lsr|
 AB49  00 02 62 62 72 34 00 01 62 76 63 00 01 65 6F 72  |..bbr4..bvc..eor|
 AB59  2E 7A 69 79 00 01 65 6F 72 2E 7A 69 00 01 65 6F  |.ziy..eor.zi..eo|
 AB69  72 2E 7A 78 00 01 6C 73 72 2E 7A 78 00 01 72 62  |r.zx..lsr.zx..rb|
 AB79  6D 35 2E 7A 00 00 63 6C 69 00 02 65 6F 72 2E 79  |m5.z..cli..eor.y|
 AB89  00 00 70 68 79 00 02 65 6F 72 2E 78 00 02 6C 73  |..phy..eor.x..ls|
 AB99  72 2E 78 00 02 62 62 72 35 00 00 72 74 73 00 01  |r.x..bbr5..rts..|
 ABA9  61 64 63 2E 7A 78 69 00 01 73 74 7A 2E 7A 00 01  |adc.zxi..stz.z..|
 ABB9  61 64 63 2E 7A 00 01 72 6F 72 2E 7A 00 01 72 6D  |adc.z..ror.z..rm|
 ABC9  62 36 2E 7A 00 00 70 6C 61 00 01 61 64 63 2E 23  |b6.z..pla..adc.#|
 ABD9  00 00 72 6F 72 2E 61 00 02 6A 6D 70 2E 69 00 02  |..ror.a..jmp.i..|
 ABE9  61 64 63 00 02 72 6F 72 00 02 62 62 72 36 00 01  |adc..ror..bbr6..|
 ABF9  62 76 73 00 01 61 64 63 2E 7A 69 79 00 01 61 64  |bvs..adc.ziy..ad|
 AC09  63 2E 7A 69 00 01 73 74 7A 2E 7A 78 00 01 61 64  |c.zi..stz.zx..ad|
 AC19  63 2E 7A 78 00 01 72 6F 72 2E 7A 78 00 01 72 6D  |c.zx..ror.zx..rm|
 AC29  62 37 2E 7A 00 00 73 65 69 00 02 61 64 63 2E 79  |b7.z..sei..adc.y|
 AC39  00 00 70 6C 79 00 02 6A 6D 70 2E 78 69 00 02 61  |..ply..jmp.xi..a|
 AC49  64 63 2E 78 00 02 72 6F 72 2E 78 00 02 62 62 72  |dc.x..ror.x..bbr|
 AC59  37 00 01 62 72 61 00 01 73 74 61 2E 7A 78 69 00  |7..bra..sta.zxi.|
 AC69  01 73 74 79 2E 7A 00 01 73 74 61 2E 7A 00 01 73  |.sty.z..sta.z..s|
 AC79  74 78 2E 7A 00 00 64 65 79 00 01 62 69 74 2E 23  |tx.z..dey..bit.#|
 AC89  00 00 74 78 61 00 02 73 74 79 00 02 73 74 61 00  |..txa..sty..sta.|
 AC99  02 73 74 78 00 02 62 62 73 30 00 01 62 63 63 00  |.stx..bbs0..bcc.|
 ACA9  01 73 74 61 2E 7A 69 79 00 01 73 74 61 2E 7A 69  |.sta.ziy..sta.zi|
 ACB9  00 01 73 74 79 2E 7A 78 00 01 73 74 61 2E 7A 78  |..sty.zx..sta.zx|
 ACC9  00 01 73 74 78 2E 7A 79 00 01 73 6D 62 31 2E 7A  |..stx.zy..smb1.z|
 ACD9  00 00 74 79 61 00 02 73 74 61 2E 79 00 00 74 78  |..tya..sta.y..tx|
 ACE9  73 00 02 73 74 7A 00 02 73 74 61 2E 78 00 02 73  |s..stz..sta.x..s|
 ACF9  74 7A 2E 78 00 02 62 62 73 31 00 01 6C 64 79 2E  |tz.x..bbs1..ldy.|
 AD09  23 00 01 6C 64 61 2E 7A 78 69 00 01 6C 64 78 2E  |#..lda.zxi..ldx.|
 AD19  23 00 01 6C 64 79 2E 7A 00 01 6C 64 61 2E 7A 00  |#..ldy.z..lda.z.|
 AD29  01 6C 64 78 2E 7A 00 01 73 6D 62 32 2E 7A 00 00  |.ldx.z..smb2.z..|
 AD39  74 61 79 00 01 6C 64 61 2E 23 00 00 74 61 78 00  |tay..lda.#..tax.|
 AD49  02 6C 64 79 00 02 6C 64 61 00 02 6C 64 78 00 02  |.ldy..lda..ldx..|
 AD59  62 62 73 32 00 01 62 63 73 00 01 6C 64 61 2E 7A  |bbs2..bcs..lda.z|
 AD69  69 79 00 01 6C 64 61 2E 7A 69 00 01 6C 64 79 2E  |iy..lda.zi..ldy.|
 AD79  7A 78 00 01 6C 64 61 2E 7A 78 00 01 6C 64 78 2E  |zx..lda.zx..ldx.|
 AD89  7A 79 00 01 73 6D 62 33 2E 7A 00 00 63 6C 76 00  |zy..smb3.z..clv.|
 AD99  02 6C 64 61 2E 79 00 00 74 73 78 00 02 6C 64 79  |.lda.y..tsx..ldy|
 ADA9  2E 78 00 02 6C 64 61 2E 78 00 02 6C 64 78 2E 79  |.x..lda.x..ldx.y|
 ADB9  00 02 62 62 73 34 00 01 63 70 79 2E 23 00 01 63  |..bbs4..cpy.#..c|
 ADC9  6D 70 2E 7A 78 69 00 01 63 70 79 2E 7A 00 01 63  |mp.zxi..cpy.z..c|
 ADD9  6D 70 2E 7A 00 01 64 65 63 2E 7A 00 01 73 6D 62  |mp.z..dec.z..smb|
 ADE9  34 2E 7A 00 00 69 6E 79 00 01 63 6D 70 2E 23 00  |4.z..iny..cmp.#.|
 ADF9  00 64 65 78 00 00 73 74 70 00 02 63 70 79 00 02  |.dex..stp..cpy..|
 AE09  63 6D 70 00 02 64 65 63 00 02 62 62 73 34 00 01  |cmp..dec..bbs4..|
 AE19  62 6E 65 00 01 63 6D 70 2E 7A 69 79 00 01 63 6D  |bne..cmp.ziy..cm|
 AE29  70 2E 7A 69 00 01 63 6D 70 2E 7A 78 00 01 64 65  |p.zi..cmp.zx..de|
 AE39  63 2E 7A 78 00 01 73 6D 62 35 2E 7A 00 00 63 6C  |c.zx..smb5.z..cl|
 AE49  64 00 02 63 6D 70 2E 79 00 00 70 68 78 00 00 77  |d..cmp.y..phx..w|
 AE59  61 69 00 02 63 6D 70 2E 78 00 02 64 65 63 2E 78  |ai..cmp.x..dec.x|
 AE69  00 02 62 62 73 35 00 01 63 70 78 2E 23 00 01 73  |..bbs5..cpx.#..s|
 AE79  62 63 2E 7A 78 69 00 01 63 70 78 2E 7A 00 01 73  |bc.zxi..cpx.z..s|
 AE89  62 63 2E 7A 00 01 69 6E 63 2E 7A 00 01 73 6D 62  |bc.z..inc.z..smb|
 AE99  36 2E 7A 00 00 69 6E 78 00 01 73 62 63 2E 23 00  |6.z..inx..sbc.#.|
 AEA9  00 6E 6F 70 00 02 63 70 78 00 02 73 62 63 00 02  |.nop..cpx..sbc..|
 AEB9  69 6E 63 00 02 62 62 73 36 00 01 62 65 71 00 01  |inc..bbs6..beq..|
 AEC9  73 62 63 2E 7A 69 79 00 01 73 62 63 2E 7A 69 00  |sbc.ziy..sbc.zi.|
 AED9  01 73 62 63 2E 7A 78 00 01 69 6E 63 2E 7A 78 00  |.sbc.zx..inc.zx.|
 AEE9  01 73 6D 62 37 2E 7A 00 00 73 65 64 00 02 73 62  |.smb7.z..sed..sb|
 AEF9  63 2E 79 00 00 70 6C 78 00 02 73 62 63 2E 78 00  |c.y..plx..sbc.x.|
 AF09  02 69 6E 63 2E 78 00 02 62 62 73 37 00           |.inc.x..bbs7.   |
 AF16  64 2A     STZ  $2A
 AF18  64 2B     STZ  $2B
 AF1A  64 2C     STZ  $2C
 AF1C  64 2D     STZ  $2D
 AF1E  64 2E     STZ  $2E
 AF20  20 D8 A5  JSR  $A5D8
 AF23  20 D8 A5  JSR  $A5D8
 AF26  20 F7 89  JSR  $89F7
 AF29  A9 81     LDA  #$81
 AF2B  14 2E     TRB  $2E
 AF2D  20 27 B4  JSR  $B427
 AF30  A5 0A     LDA  $0A
 AF32  D0 1F     BNE  $AF53
 AF34  CA        DEX  
 AF35  CA        DEX  
 AF36  A5 2C     LDA  $2C
 AF38  95 00     STA  $00, X
 AF3A  A5 2D     LDA  $2D
 AF3C  95 01     STA  $01, X
 AF3E  A9 80     LDA  #$80
 AF40  04 2E     TSB  $2E
 AF42  20 2B 97  JSR  $972B
 AF45  20 43 B4  JSR  $B443
 AF48  B0 03     BCS  $AF4D
 AF4A  4C 17 B4  JMP  $B417
 AF4D  20 D8 A5  JSR  $A5D8
 AF50  4C 1E B0  JMP  $B01E
 AF53  20 D8 A5  JSR  $A5D8
 AF56  20 D8 A5  JSR  $A5D8
 AF59  B2 08     LDA  ($08)
 AF5B  C9 2E     CMP  #$2E
 AF5D  D0 3A     BNE  $AF99
 AF5F  20 38 B4  JSR  $B438
 AF62  A5 2C     LDA  $2C
 AF64  95 02     STA  $02, X
 AF66  A5 2D     LDA  $2D
 AF68  95 03     STA  $03, X
 AF6A  A9 80     LDA  #$80
 AF6C  04 2E     TSB  $2E
 AF6E  A5 0A     LDA  $0A
 AF70  3A        DEC  
 AF71  D0 03     BNE  $AF76
 AF73  4C 1E B0  JMP  $B01E
 AF76  CA        DEX  
 AF77  CA        DEX  
 AF78  CA        DEX  
 AF79  CA        DEX  
 AF7A  A5 08     LDA  $08
 AF7C  95 02     STA  $02, X
 AF7E  A5 09     LDA  $09
 AF80  95 03     STA  $03, X
 AF82  A5 0A     LDA  $0A
 AF84  95 00     STA  $00, X
 AF86  A5 0B     LDA  $0B
 AF88  95 01     STA  $01, X
 AF8A  20 1B 97  JSR  $971B
 AF8D  20 07 A0  JSR  $A007
 AF90  20 2B 97  JSR  $972B
 AF93  20 07 A0  JSR  $A007
 AF96  4C 76 B0  JMP  $B076
 AF99  B2 08     LDA  ($08)
 AF9B  C9 24     CMP  #$24
 AF9D  D0 1C     BNE  $AFBB
 AF9F  20 38 B4  JSR  $B438
 AFA2  E8        INX  
 AFA3  E8        INX  
 AFA4  20 65 B4  JSR  $B465
 AFA7  20 07 A0  JSR  $A007
 AFAA  A9 80     LDA  #$80
 AFAC  04 2E     TSB  $2E
 AFAE  A5 0A     LDA  $0A
 AFB0  3A        DEC  
 AFB1  D0 03     BNE  $AFB6
 AFB3  4C 1E B0  JMP  $B01E
 AFB6  A0 01     LDY  #$01
 AFB8  4C F2 B0  JMP  $B0F2
 AFBB  B2 08     LDA  ($08)
 AFBD  C9 25     CMP  #$25
 AFBF  F0 04     BEQ  $AFC5
 AFC1  C9 2C     CMP  #$2C
 AFC3  D0 17     BNE  $AFDC
 AFC5  20 38 B4  JSR  $B438
 AFC8  A9 01     LDA  #$01
 AFCA  95 02     STA  $02, X
 AFCC  74 03     STZ  $03, X
 AFCE  E8        INX  
 AFCF  E8        INX  
 AFD0  20 65 B4  JSR  $B465
 AFD3  A9 80     LDA  #$80
 AFD5  04 2E     TSB  $2E
 AFD7  A0 01     LDY  #$01
 AFD9  4C F2 B0  JMP  $B0F2
 AFDC  B2 08     LDA  ($08)
 AFDE  C9 3B     CMP  #$3B
 AFE0  D0 0D     BNE  $AFEF
 AFE2  20 38 B4  JSR  $B438
 AFE5  A5 2C     LDA  $2C
 AFE7  95 02     STA  $02, X
 AFE9  A5 2D     LDA  $2D
 AFEB  95 03     STA  $03, X
 AFED  80 DF     BRA  $AFCE
 AFEF  20 D8 A5  JSR  $A5D8
 AFF2  20 D8 A5  JSR  $A5D8
 AFF5  CA        DEX  
 AFF6  CA        DEX  
 AFF7  CA        DEX  
 AFF8  CA        DEX  
 AFF9  A5 08     LDA  $08
 AFFB  95 02     STA  $02, X
 AFFD  A5 09     LDA  $09
 AFFF  95 03     STA  $03, X
 B001  A5 0A     LDA  $0A
 B003  95 00     STA  $00, X
 B005  A5 0B     LDA  $0B
 B007  95 01     STA  $01, X
 B009  20 1C A1  JSR  $A11C
 B00C  B5 00     LDA  $00, X
 B00E  15 01     ORA  $01, X
 B010  D0 24     BNE  $B036
 B012  E8        INX  
 B013  E8        INX  
 B014  E8        INX  
 B015  E8        INX  
 B016  20 EA 8A  JSR  $8AEA
 B019  20 D7 95  JSR  $95D7
 B01C  E8        INX  
 B01D  E8        INX  
 B01E  20 07 A0  JSR  $A007
 B021  20 43 B4  JSR  $B443
 B024  B0 03     BCS  $B029
 B026  4C 15 B4  JMP  $B415
 B029  20 07 A0  JSR  $A007
 B02C  20 D2 B4  JSR  $B4D2
 B02F  A9 80     LDA  #$80
 B031  04 2E     TSB  $2E
 B033  4C 00 B3  JMP  $B300
 B036  20 AC 8D  JSR  $8DAC
 B039  CA        DEX  
 B03A  CA        DEX  
 B03B  A5 0A     LDA  $0A
 B03D  95 00     STA  $00, X
 B03F  A5 0B     LDA  $0B
 B041  95 01     STA  $01, X
 B043  20 9D 8E  JSR  $8E9D
 B046  B5 00     LDA  $00, X
 B048  15 01     ORA  $01, X
 B04A  F0 0E     BEQ  $B05A
 B04C  8A        TXA  
 B04D  18        CLC  
 B04E  69 0A     ADC  #$0A
 B050  AA        TAX  
 B051  A9 80     LDA  #$80
 B053  14 2E     TRB  $2E
 B055  A0 00     LDY  #$00
 B057  4C F2 B0  JMP  $B0F2
 B05A  E8        INX  
 B05B  E8        INX  
 B05C  20 C0 A1  JSR  $A1C0
 B05F  20 D7 95  JSR  $95D7
 B062  20 EA 8A  JSR  $8AEA
 B065  B5 00     LDA  $00, X
 B067  95 06     STA  $06, X
 B069  B5 01     LDA  $01, X
 B06B  95 07     STA  $07, X
 B06D  E8        INX  
 B06E  E8        INX  
 B06F  20 50 99  JSR  $9950
 B072  A9 80     LDA  #$80
 B074  04 2E     TSB  $2E
 B076  A1 02     LDA  ($02, X)
 B078  C9 2C     CMP  #$2C
 B07A  F0 0D     BEQ  $B089
 B07C  38        SEC  
 B07D  A5 0A     LDA  $0A
 B07F  F5 00     SBC  $00, X
 B081  A8        TAY  
 B082  E8        INX  
 B083  E8        INX  
 B084  E8        INX  
 B085  E8        INX  
 B086  4C F2 B0  JMP  $B0F2
 B089  F6 02     INC  $02, X
 B08B  D0 02     BNE  $B08F
 B08D  F6 03     INC  $03, X
 B08F  B5 01     LDA  $01, X
 B091  F0 02     BEQ  $B095
 B093  D6 01     DEC  $01, X
 B095  D6 00     DEC  $00, X
 B097  A1 02     LDA  ($02, X)
 B099  C9 24     CMP  #$24
 B09B  D0 14     BNE  $B0B1
 B09D  38        SEC  
 B09E  A5 0A     LDA  $0A
 B0A0  F5 02     SBC  $02, X
 B0A2  A8        TAY  
 B0A3  C8        INY  
 B0A4  5A        PHY  
 B0A5  8A        TXA  
 B0A6  18        CLC  
 B0A7  69 06     ADC  #$06
 B0A9  AA        TAX  
 B0AA  20 65 B4  JSR  $B465
 B0AD  7A        PLY  
 B0AE  4C F2 B0  JMP  $B0F2
 B0B1  20 C0 A1  JSR  $A1C0
 B0B4  20 D8 A5  JSR  $A5D8
 B0B7  20 D8 A5  JSR  $A5D8
 B0BA  20 E7 99  JSR  $99E7
 B0BD  20 50 99  JSR  $9950
 B0C0  20 AC 8D  JSR  $8DAC
 B0C3  20 C0 A1  JSR  $A1C0
 B0C6  20 1C A1  JSR  $A11C
 B0C9  20 AC 8D  JSR  $8DAC
 B0CC  20 50 99  JSR  $9950
 B0CF  20 9D 8E  JSR  $8E9D
 B0D2  B5 00     LDA  $00, X
 B0D4  15 01     ORA  $01, X
 B0D6  F0 08     BEQ  $B0E0
 B0D8  8A        TXA  
 B0D9  18        CLC  
 B0DA  69 0C     ADC  #$0C
 B0DC  AA        TAX  
 B0DD  4C 19 B4  JMP  $B419
 B0E0  E8        INX  
 B0E1  E8        INX  
 B0E2  38        SEC  
 B0E3  A5 0A     LDA  $0A
 B0E5  F5 00     SBC  $00, X
 B0E7  48        PHA  
 B0E8  20 08 A2  JSR  $A208
 B0EB  20 EA 8A  JSR  $8AEA
 B0EE  20 A3 95  JSR  $95A3
 B0F1  7A        PLY  
 B0F2  80 35     BRA  $B129
 B0F4  5A        PHY  
 B0F5  A9 28     LDA  #$28
 B0F7  20 D6 8D  JSR  $8DD6
 B0FA  20 07 A0  JSR  $A007
 B0FD  20 AC 8D  JSR  $8DAC
 B100  20 7C A3  JSR  $A37C
 B103  20 07 A0  JSR  $A007
 B106  20 AC 8D  JSR  $8DAC
 B109  20 7C A3  JSR  $A37C
 B10C  A9 79     LDA  #$79
 B10E  20 D6 8D  JSR  $8DD6
 B111  68        PLA  
 B112  48        PHA  
 B113  20 B3 CD  JSR  $CDB3
 B116  20 7C 9F  JSR  $9F7C
 B119  A9 63     LDA  #$63
 B11B  20 D6 8D  JSR  $8DD6
 B11E  A5 2C     LDA  $2C
 B120  20 B3 CD  JSR  $CDB3
 B123  A9 29     LDA  #$29
 B125  20 D6 8D  JSR  $8DD6
 B128  7A        PLY  
 B129  B1 08     LDA  ($08), Y
 B12B  85 20     STA  $20
 B12D  DA        PHX  
 B12E  A2 00     LDX  #$00
 B130  BD FD B4  LDA  $B4FD, X
 B133  F0 07     BEQ  $B13C
 B135  C5 20     CMP  $20
 B137  F0 07     BEQ  $B140
 B139  E8        INX  
 B13A  80 F4     BRA  $B130
 B13C  FA        PLX  
 B13D  4C 15 B4  JMP  $B415
 B140  8A        TXA  
 B141  0A        ASL  
 B142  AA        TAX  
 B143  7C 09 B5  JMP  ($B509, X)
 B146  E8        INX  
 B147  E8        INX  
 B148  E8        INX  
 B149  E8        INX  
 B14A  4C 29 AF  JMP  $AF29
 B14D  64 0A     STZ  $0A
 B14F  64 0B     STZ  $0B
 B151  20 08 A2  JSR  $A208
 B154  60        RTS  
 B155  FA        PLX  
 B156  E8        INX  
 B157  E8        INX  
 B158  24 2E     BIT  $2E
 B15A  30 08     BMI  $B164
 B15C  A5 2C     LDA  $2C
 B15E  95 00     STA  $00, X
 B160  A5 2D     LDA  $2D
 B162  95 01     STA  $01, X
 B164  20 9B B4  JSR  $B49B
 B167  20 F7 89  JSR  $89F7
 B16A  20 27 B4  JSR  $B427
 B16D  B2 08     LDA  ($08)
 B16F  C9 2E     CMP  #$2E
 B171  D0 16     BNE  $B189
 B173  A4 0A     LDY  $0A
 B175  C0 01     CPY  #$01
 B177  D0 10     BNE  $B189
 B179  A4 0B     LDY  $0B
 B17B  D0 0C     BNE  $B189
 B17D  E8        INX  
 B17E  E8        INX  
 B17F  A9 40     LDA  #$40
 B181  04 2E     TSB  $2E
 B183  20 F7 89  JSR  $89F7
 B186  4C 29 AF  JMP  $AF29
 B189  20 AC 8D  JSR  $8DAC
 B18C  20 72 91  JSR  $9172
 B18F  20 07 A0  JSR  $A007
 B192  20 CD 8F  JSR  $8FCD
 B195  20 EE 87  JSR  $87EE
 B198  20 E1 A1  JSR  $A1E1
 B19B  20 07 A0  JSR  $A007
 B19E  20 ED 9F  JSR  $9FED
 B1A1  20 72 91  JSR  $9172
 B1A4  A5 00     LDA  $00
 B1A6  18        CLC  
 B1A7  69 04     ADC  #$04
 B1A9  85 00     STA  $00
 B1AB  90 02     BCC  $B1AF
 B1AD  E6 01     INC  $01
 B1AF  E6 2C     INC  $2C
 B1B1  D0 02     BNE  $B1B5
 B1B3  E6 2D     INC  $2D
 B1B5  20 72 91  JSR  $9172
 B1B8  20 AC 8D  JSR  $8DAC
 B1BB  CA        DEX  
 B1BC  CA        DEX  
 B1BD  A5 08     LDA  $08
 B1BF  95 00     STA  $00, X
 B1C1  A5 09     LDA  $09
 B1C3  95 01     STA  $01, X
 B1C5  20 07 A0  JSR  $A007
 B1C8  CA        DEX  
 B1C9  CA        DEX  
 B1CA  A5 0A     LDA  $0A
 B1CC  95 00     STA  $00, X
 B1CE  A5 0B     LDA  $0B
 B1D0  95 01     STA  $01, X
 B1D2  20 17 95  JSR  $9517
 B1D5  18        CLC  
 B1D6  A5 00     LDA  $00
 B1D8  65 0A     ADC  $0A
 B1DA  85 00     STA  $00
 B1DC  90 06     BCC  $B1E4
 B1DE  A5 01     LDA  $01
 B1E0  65 0B     ADC  $0B
 B1E2  85 01     STA  $01
 B1E4  20 5A 97  JSR  $975A
 B1E7  20 ED 9F  JSR  $9FED
 B1EA  20 2B 97  JSR  $972B
 B1ED  20 2B 97  JSR  $972B
 B1F0  20 AC 8D  JSR  $8DAC
 B1F3  A5 0A     LDA  $0A
 B1F5  95 02     STA  $02, X
 B1F7  A5 0B     LDA  $0B
 B1F9  95 03     STA  $03, X
 B1FB  20 ED 9F  JSR  $9FED
 B1FE  20 F7 89  JSR  $89F7
 B201  4C 6A B1  JMP  $B16A
 B204  FA        PLX  
 B205  20 38 B4  JSR  $B438
 B208  20 8D B4  JSR  $B48D
 B20B  B5 00     LDA  $00, X
 B20D  15 01     ORA  $01, X
 B20F  D0 08     BNE  $B219
 B211  20 5A 97  JSR  $975A
 B214  20 56 B2  JSR  $B256
 B217  80 33     BRA  $B24C
 B219  20 43 B4  JSR  $B443
 B21C  B0 03     BCS  $B221
 B21E  4C 15 B4  JMP  $B415
 B221  20 14 A2  JSR  $A214
 B224  20 59 91  JSR  $9159
 B227  B5 00     LDA  $00, X
 B229  15 01     ORA  $01, X
 B22B  D0 0D     BNE  $B23A
 B22D  E8        INX  
 B22E  E8        INX  
 B22F  20 AC 8D  JSR  $8DAC
 B232  20 56 B2  JSR  $B256
 B235  20 1B 97  JSR  $971B
 B238  80 E7     BRA  $B221
 B23A  E8        INX  
 B23B  E8        INX  
 B23C  B5 02     LDA  $02, X
 B23E  D0 02     BNE  $B242
 B240  D6 03     DEC  $03, X
 B242  D6 02     DEC  $02, X
 B244  B5 02     LDA  $02, X
 B246  85 2C     STA  $2C
 B248  B5 03     LDA  $03, X
 B24A  85 2D     STA  $2D
 B24C  A9 40     LDA  #$40
 B24E  04 2E     TSB  $2E
 B250  20 F7 89  JSR  $89F7
 B253  4C 46 B1  JMP  $B146
 B256  20 AC 8D  JSR  $8DAC
 B259  20 9B B4  JSR  $B49B
 B25C  20 CD 8F  JSR  $8FCD
 B25F  20 07 A0  JSR  $A007
 B262  20 1B 97  JSR  $971B
 B265  20 9B B4  JSR  $B49B
 B268  20 ED 9F  JSR  $9FED
 B26B  60        RTS  
 B26C  FA        PLX  
 B26D  20 8D B4  JSR  $B48D
 B270  A9 65     LDA  #$65
 B272  20 D6 8D  JSR  $8DD6
 B275  A9 40     LDA  #$40
 B277  04 2E     TSB  $2E
 B279  4C 46 B1  JMP  $B146
 B27C  FA        PLX  
 B27D  20 38 B4  JSR  $B438
 B280  20 8D B4  JSR  $B48D
 B283  24 2E     BIT  $2E
 B285  30 0C     BMI  $B293
 B287  CA        DEX  
 B288  CA        DEX  
 B289  A5 2C     LDA  $2C
 B28B  95 00     STA  $00, X
 B28D  A5 2D     LDA  $2D
 B28F  95 01     STA  $01, X
 B291  80 0E     BRA  $B2A1
 B293  B5 00     LDA  $00, X
 B295  15 01     ORA  $01, X
 B297  D0 05     BNE  $B29E
 B299  20 5A 97  JSR  $975A
 B29C  80 03     BRA  $B2A1
 B29E  20 AC 8D  JSR  $8DAC
 B2A1  20 7C A3  JSR  $A37C
 B2A4  20 F7 89  JSR  $89F7
 B2A7  4C 46 B1  JMP  $B146
 B2AA  FA        PLX  
 B2AB  24 2E     BIT  $2E
 B2AD  30 17     BMI  $B2C6
 B2AF  20 F7 89  JSR  $89F7
 B2B2  20 C0 A1  JSR  $A1C0
 B2B5  20 E7 99  JSR  $99E7
 B2B8  20 AC 8D  JSR  $8DAC
 B2BB  20 7C A3  JSR  $A37C
 B2BE  20 D7 95  JSR  $95D7
 B2C1  20 50 99  JSR  $9950
 B2C4  80 11     BRA  $B2D7
 B2C6  20 5A 97  JSR  $975A
 B2C9  20 F7 89  JSR  $89F7
 B2CC  20 7C A3  JSR  $A37C
 B2CF  B5 02     LDA  $02, X
 B2D1  95 06     STA  $06, X
 B2D3  B5 03     LDA  $03, X
 B2D5  95 07     STA  $07, X
 B2D7  20 F7 89  JSR  $89F7
 B2DA  4C 46 B1  JMP  $B146
 B2DD  FA        PLX  
 B2DE  20 07 A0  JSR  $A007
 B2E1  20 43 B4  JSR  $B443
 B2E4  B0 03     BCS  $B2E9
 B2E6  4C 15 B4  JMP  $B415
 B2E9  20 1B 97  JSR  $971B
 B2EC  20 D8 A5  JSR  $A5D8
 B2EF  20 72 94  JSR  $9472
 B2F2  20 07 A0  JSR  $A007
 B2F5  4C 56 B1  JMP  $B156
 B2F8  FA        PLX  
 B2F9  A9 01     LDA  #$01
 B2FB  04 2E     TSB  $2E
 B2FD  80 05     BRA  $B304
 B2FF  FA        PLX  
 B300  A9 01     LDA  #$01
 B302  14 2E     TRB  $2E
 B304  20 38 B4  JSR  $B438
 B307  20 8D B4  JSR  $B48D
 B30A  20 F7 89  JSR  $89F7
 B30D  B5 00     LDA  $00, X
 B30F  15 01     ORA  $01, X
 B311  D0 08     BNE  $B31B
 B313  20 5A 97  JSR  $975A
 B316  20 3C B3  JSR  $B33C
 B319  80 1E     BRA  $B339
 B31B  20 14 A2  JSR  $A214
 B31E  20 59 91  JSR  $9159
 B321  B5 00     LDA  $00, X
 B323  15 01     ORA  $01, X
 B325  D0 10     BNE  $B337
 B327  E8        INX  
 B328  E8        INX  
 B329  20 5A 97  JSR  $975A
 B32C  20 3C B3  JSR  $B33C
 B32F  F6 02     INC  $02, X
 B331  D0 02     BNE  $B335
 B333  F6 03     INC  $03, X
 B335  80 E4     BRA  $B31B
 B337  E8        INX  
 B338  E8        INX  
 B339  4C 46 B1  JMP  $B146
 B33C  A5 2E     LDA  $2E
 B33E  4A        LSR  
 B33F  90 0B     BCC  $B34C
 B341  20 AC 8D  JSR  $8DAC
 B344  20 7C A3  JSR  $A37C
 B347  A9 09     LDA  #$09
 B349  20 D6 8D  JSR  $8DD6
 B34C  20 9B B4  JSR  $B49B
 B34F  20 DB B4  JSR  $B4DB
 B352  60        RTS  
 B353  FA        PLX  
 B354  24 2E     BIT  $2E
 B356  50 03     BVC  $B35B
 B358  4C 15 B4  JMP  $B415
 B35B  4C 4D B1  JMP  $B14D
 B35E  FA        PLX  
 B35F  4C 4D B1  JMP  $B14D
 B362  FA        PLX  
 B363  20 38 B4  JSR  $B438
 B366  24 2E     BIT  $2E
 B368  30 13     BMI  $B37D
 B36A  B5 06     LDA  $06, X
 B36C  15 07     ORA  $07, X
 B36E  D0 03     BNE  $B373
 B370  4C 15 B4  JMP  $B415
 B373  B5 06     LDA  $06, X
 B375  95 02     STA  $02, X
 B377  B5 07     LDA  $07, X
 B379  95 03     STA  $03, X
 B37B  80 08     BRA  $B385
 B37D  B5 02     LDA  $02, X
 B37F  95 06     STA  $06, X
 B381  B5 03     LDA  $03, X
 B383  95 07     STA  $07, X
 B385  A9 2A     LDA  #$2A
 B387  95 00     STA  $00, X
 B389  A9 00     LDA  #$00
 B38B  95 01     STA  $01, X
 B38D  20 5A 97  JSR  $975A
 B390  20 C0 A1  JSR  $A1C0
 B393  20 CD 8F  JSR  $8FCD
 B396  B5 00     LDA  $00, X
 B398  15 01     ORA  $01, X
 B39A  F0 55     BEQ  $B3F1
 B39C  20 14 A2  JSR  $A214
 B39F  20 1A A3  JSR  $A31A
 B3A2  20 2B 97  JSR  $972B
 B3A5  20 2B 97  JSR  $972B
 B3A8  20 AC 8D  JSR  $8DAC
 B3AB  20 CD 8F  JSR  $8FCD
 B3AE  20 07 A0  JSR  $A007
 B3B1  20 2B 97  JSR  $972B
 B3B4  20 2B 97  JSR  $972B
 B3B7  20 CD 8F  JSR  $8FCD
 B3BA  20 D7 95  JSR  $95D7
 B3BD  20 07 A0  JSR  $A007
 B3C0  20 E7 99  JSR  $99E7
 B3C3  20 AC 8D  JSR  $8DAC
 B3C6  20 C0 A1  JSR  $A1C0
 B3C9  20 17 95  JSR  $9517
 B3CC  20 50 99  JSR  $9950
 B3CF  20 90 A2  JSR  $A290
 B3D2  20 D7 95  JSR  $95D7
 B3D5  20 A2 98  JSR  $98A2
 B3D8  20 AC 8D  JSR  $8DAC
 B3DB  CA        DEX  
 B3DC  CA        DEX  
 B3DD  A9 0A     LDA  #$0A
 B3DF  95 00     STA  $00, X
 B3E1  74 01     STZ  $01, X
 B3E3  20 07 A0  JSR  $A007
 B3E6  20 ED 9F  JSR  $9FED
 B3E9  20 2B 97  JSR  $972B
 B3EC  20 07 A0  JSR  $A007
 B3EF  80 A2     BRA  $B393
 B3F1  20 07 A0  JSR  $A007
 B3F4  20 50 99  JSR  $9950
 B3F7  20 B2 94  JSR  $94B2
 B3FA  B5 00     LDA  $00, X
 B3FC  95 04     STA  $04, X
 B3FE  B5 01     LDA  $01, X
 B400  95 05     STA  $05, X
 B402  20 F7 89  JSR  $89F7
 B405  20 AC 8D  JSR  $8DAC
 B408  20 7C A3  JSR  $A37C
 B40B  20 F7 89  JSR  $89F7
 B40E  A9 40     LDA  #$40
 B410  14 2E     TRB  $2E
 B412  4C 46 B1  JMP  $B146
 B415  E8        INX  
 B416  E8        INX  
 B417  E8        INX  
 B418  E8        INX  
 B419  20 F7 89  JSR  $89F7
 B41C  A9 3F     LDA  #$3F
 B41E  20 D6 8D  JSR  $8DD6
 B421  20 F7 89  JSR  $89F7
 B424  4C 29 AF  JMP  $AF29
 B427  20 9E 99  JSR  $999E
 B42A  B5 00     LDA  $00, X
 B42C  15 01     ORA  $01, X
 B42E  D0 05     BNE  $B435
 B430  7A        PLY  
 B431  7A        PLY  
 B432  4C 17 B4  JMP  $B417
 B435  E8        INX  
 B436  E8        INX  
 B437  60        RTS  
 B438  A5 2A     LDA  $2A
 B43A  05 2B     ORA  $2B
 B43C  D0 04     BNE  $B442
 B43E  7A        PLY  
 B43F  7A        PLY  
 B440  80 D7     BRA  $B419
 B442  60        RTS  
 B443  38        SEC  
 B444  B5 00     LDA  $00, X
 B446  15 01     ORA  $01, X
 B448  F0 19     BEQ  $B463
 B44A  20 AC 8D  JSR  $8DAC
 B44D  20 65 B4  JSR  $B465
 B450  20 07 A0  JSR  $A007
 B453  20 AA 92  JSR  $92AA
 B456  B5 00     LDA  $00, X
 B458  15 01     ORA  $01, X
 B45A  D0 05     BNE  $B461
 B45C  E8        INX  
 B45D  E8        INX  
 B45E  38        SEC  
 B45F  80 03     BRA  $B464
 B461  E8        INX  
 B462  E8        INX  
 B463  18        CLC  
 B464  60        RTS  
 B465  64 20     STZ  $20
 B467  64 21     STZ  $21
 B469  CA        DEX  
 B46A  CA        DEX  
 B46B  A9 2A     LDA  #$2A
 B46D  95 00     STA  $00, X
 B46F  A9 00     LDA  #$00
 B471  95 01     STA  $01, X
 B473  20 CD 8F  JSR  $8FCD
 B476  B5 00     LDA  $00, X
 B478  15 01     ORA  $01, X
 B47A  F0 08     BEQ  $B484
 B47C  E6 20     INC  $20
 B47E  D0 02     BNE  $B482
 B480  E6 21     INC  $21
 B482  80 EF     BRA  $B473
 B484  A5 20     LDA  $20
 B486  95 00     STA  $00, X
 B488  A5 21     LDA  $21
 B48A  95 01     STA  $01, X
 B48C  60        RTS  
 B48D  B5 02     LDA  $02, X
 B48F  15 03     ORA  $03, X
 B491  D0 07     BNE  $B49A
 B493  24 2E     BIT  $2E
 B495  10 03     BPL  $B49A
 B497  4C 15 B4  JMP  $B415
 B49A  60        RTS  
 B49B  CA        DEX  
 B49C  CA        DEX  
 B49D  A9 2A     LDA  #$2A
 B49F  95 00     STA  $00, X
 B4A1  A9 00     LDA  #$00
 B4A3  95 01     STA  $01, X
 B4A5  B5 02     LDA  $02, X
 B4A7  15 03     ORA  $03, X
 B4A9  D0 05     BNE  $B4B0
 B4AB  20 A3 95  JSR  $95A3
 B4AE  80 21     BRA  $B4D1
 B4B0  20 CD 8F  JSR  $8FCD
 B4B3  B5 00     LDA  $00, X
 B4B5  15 01     ORA  $01, X
 B4B7  D0 05     BNE  $B4BE
 B4B9  20 A3 95  JSR  $95A3
 B4BC  80 13     BRA  $B4D1
 B4BE  20 07 A0  JSR  $A007
 B4C1  20 1B 97  JSR  $971B
 B4C4  B5 00     LDA  $00, X
 B4C6  15 01     ORA  $01, X
 B4C8  F0 05     BEQ  $B4CF
 B4CA  20 07 A0  JSR  $A007
 B4CD  80 E1     BRA  $B4B0
 B4CF  E8        INX  
 B4D0  E8        INX  
 B4D1  60        RTS  
 B4D2  B5 02     LDA  $02, X
 B4D4  85 2C     STA  $2C
 B4D6  B5 03     LDA  $03, X
 B4D8  85 2D     STA  $2D
 B4DA  60        RTS  
 B4DB  20 2B 97  JSR  $972B
 B4DE  20 2B 97  JSR  $972B
 B4E1  20 AC 8D  JSR  $8DAC
 B4E4  20 2B 97  JSR  $972B
 B4E7  20 2B 97  JSR  $972B
 B4EA  20 CD 8F  JSR  $8FCD
 B4ED  20 07 A0  JSR  $A007
 B4F0  20 CD 8F  JSR  $8FCD
 B4F3  20 07 A0  JSR  $A007
 B4F6  20 4D A3  JSR  $A34D
 B4F9  20 F7 89  JSR  $89F7
 B4FC  60        RTS  
 B4FD  61 65 66 69 64 70 6E 3D 77 71 51 00 55 B1 6C B2  |aefidpn=wqQ.U.l.|
 B50D  AA B2 DD B2 04 B2 FF B2 F8 B2 7C B2 62 B3 53 B3  |..........|.b.S.|
 B51D  5E B3 20 3A 20 28 20 5B 63 68 61 72 5D 20 29 20  |^. : ( [char] ) |
 B52D  70 61 72 73 65 20 32 64 72 6F 70 20 3B 20 69 6D  |parse 2drop ; im|
 B53D  6D 65 64 69 61 74 65 20 3A 20 2E 28 20 5B 63 68  |mediate : .( [ch|
 B54D  61 72 5D 20 29 20 70 61 72 73 65 20 74 79 70 65  |ar] ) parse type|
 B55D  20 3B 20 69 6D 6D 65 64 69 61 74 65 20 3A 20 69  | ; immediate : i|
 B56D  66 20 70 6F 73 74 70 6F 6E 65 20 30 62 72 61 6E  |f postpone 0bran|
 B57D  63 68 20 68 65 72 65 20 30 20 2C 20 3B 20 69 6D  |ch here 0 , ; im|
 B58D  6D 65 64 69 61 74 65 20 63 6F 6D 70 69 6C 65 2D  |mediate compile-|
 B59D  6F 6E 6C 79 20 3A 20 74 68 65 6E 20 68 65 72 65  |only : then here|
 B5AD  20 73 77 61 70 20 21 20 3B 20 69 6D 6D 65 64 69  | swap ! ; immedi|
 B5BD  61 74 65 20 63 6F 6D 70 69 6C 65 2D 6F 6E 6C 79  |ate compile-only|
 B5CD  20 3A 20 65 6C 73 65 20 70 6F 73 74 70 6F 6E 65  | : else postpone|
 B5DD  20 62 72 61 6E 63 68 20 68 65 72 65 20 30 20 2C  | branch here 0 ,|
 B5ED  20 68 65 72 65 20 72 6F 74 20 21 20 3B 20 69 6D  | here rot ! ; im|
 B5FD  6D 65 64 69 61 74 65 20 63 6F 6D 70 69 6C 65 2D  |mediate compile-|
 B60D  6F 6E 6C 79 20 3A 20 72 65 70 65 61 74 20 70 6F  |only : repeat po|
 B61D  73 74 70 6F 6E 65 20 61 67 61 69 6E 20 68 65 72  |stpone again her|
 B62D  65 20 73 77 61 70 20 21 20 3B 20 69 6D 6D 65 64  |e swap ! ; immed|
 B63D  69 61 74 65 20 63 6F 6D 70 69 6C 65 2D 6F 6E 6C  |iate compile-onl|
 B64D  79 20 3A 20 75 6E 74 69 6C 20 70 6F 73 74 70 6F  |y : until postpo|
 B65D  6E 65 20 30 62 72 61 6E 63 68 20 2C 20 3B 20 69  |ne 0branch , ; i|
 B66D  6D 6D 65 64 69 61 74 65 20 63 6F 6D 70 69 6C 65  |mmediate compile|
 B67D  2D 6F 6E 6C 79 20 3A 20 77 68 69 6C 65 20 70 6F  |-only : while po|
 B68D  73 74 70 6F 6E 65 20 30 62 72 61 6E 63 68 20 68  |stpone 0branch h|
 B69D  65 72 65 20 30 20 2C 20 73 77 61 70 20 3B 20 69  |ere 0 , swap ; i|
 B6AD  6D 6D 65 64 69 61 74 65 20 63 6F 6D 70 69 6C 65  |mmediate compile|
 B6BD  2D 6F 6E 6C 79 20 3A 20 63 61 73 65 20 30 20 3B  |-only : case 0 ;|
 B6CD  20 69 6D 6D 65 64 69 61 74 65 20 63 6F 6D 70 69  | immediate compi|
 B6DD  6C 65 2D 6F 6E 6C 79 20 3A 20 6F 66 20 70 6F 73  |le-only : of pos|
 B6ED  74 70 6F 6E 65 20 6F 76 65 72 20 70 6F 73 74 70  |tpone over postp|
 B6FD  6F 6E 65 20 3D 20 70 6F 73 74 70 6F 6E 65 20 69  |one = postpone i|
 B70D  66 20 70 6F 73 74 70 6F 6E 65 20 64 72 6F 70 20  |f postpone drop |
 B71D  3B 20 69 6D 6D 65 64 69 61 74 65 20 63 6F 6D 70  |; immediate comp|
 B72D  69 6C 65 2D 6F 6E 6C 79 20 3A 20 65 6E 64 6F 66  |ile-only : endof|
 B73D  20 70 6F 73 74 70 6F 6E 65 20 65 6C 73 65 20 3B  | postpone else ;|
 B74D  20 69 6D 6D 65 64 69 61 74 65 20 63 6F 6D 70 69  | immediate compi|
 B75D  6C 65 2D 6F 6E 6C 79 20 3A 20 65 6E 64 63 61 73  |le-only : endcas|
 B76D  65 20 70 6F 73 74 70 6F 6E 65 20 64 72 6F 70 20  |e postpone drop |
 B77D  62 65 67 69 6E 20 3F 64 75 70 20 77 68 69 6C 65  |begin ?dup while|
 B78D  20 70 6F 73 74 70 6F 6E 65 20 74 68 65 6E 20 72  | postpone then r|
 B79D  65 70 65 61 74 20 3B 20 69 6D 6D 65 64 69 61 74  |epeat ; immediat|
 B7AD  65 20 63 6F 6D 70 69 6C 65 2D 6F 6E 6C 79 20 3A  |e compile-only :|
 B7BD  20 64 65 66 65 72 21 20 3E 62 6F 64 79 20 21 20  | defer! >body ! |
 B7CD  3B 20 3A 20 64 65 66 65 72 40 20 3E 62 6F 64 79  |; : defer@ >body|
 B7DD  20 40 20 3B 20 3A 20 69 73 20 73 74 61 74 65 20  | @ ; : is state |
 B7ED  40 20 69 66 20 70 6F 73 74 70 6F 6E 65 20 5B 27  |@ if postpone ['|
 B7FD  5D 20 70 6F 73 74 70 6F 6E 65 20 64 65 66 65 72  |] postpone defer|
 B80D  21 20 65 6C 73 65 20 27 20 64 65 66 65 72 21 20  |! else ' defer! |
 B81D  74 68 65 6E 20 3B 20 69 6D 6D 65 64 69 61 74 65  |then ; immediate|
 B82D  20 3A 20 61 63 74 69 6F 6E 2D 6F 66 20 73 74 61  | : action-of sta|
 B83D  74 65 20 40 20 69 66 20 70 6F 73 74 70 6F 6E 65  |te @ if postpone|
 B84D  20 5B 27 5D 20 70 6F 73 74 70 6F 6E 65 20 64 65  | ['] postpone de|
 B85D  66 65 72 40 20 65 6C 73 65 20 27 20 64 65 66 65  |fer@ else ' defe|
 B86D  72 40 20 74 68 65 6E 20 3B 20 69 6D 6D 65 64 69  |r@ then ; immedi|
 B87D  61 74 65 20 3A 20 2E 72 20 3E 72 20 64 75 70 20  |ate : .r >r dup |
 B88D  61 62 73 20 30 20 3C 23 20 23 73 20 72 6F 74 20  |abs 0 <# #s rot |
 B89D  73 69 67 6E 20 23 3E 20 72 3E 20 6F 76 65 72 20  |sign #> r> over |
 B8AD  2D 20 73 70 61 63 65 73 20 74 79 70 65 20 3B 20  |- spaces type ; |
 B8BD  3A 20 75 64 2E 20 3C 23 20 23 73 20 23 3E 20 74  |: ud. <# #s #> t|
 B8CD  79 70 65 20 73 70 61 63 65 20 3B 20 3A 20 75 64  |ype space ; : ud|
 B8DD  2E 72 20 3E 72 20 3C 23 20 23 73 20 23 3E 20 72  |.r >r <# #s #> r|
 B8ED  3E 20 6F 76 65 72 20 2D 20 73 70 61 63 65 73 20  |> over - spaces |
 B8FD  74 79 70 65 20 3B 20 3A 20 64 2E 20 74 75 63 6B  |type ; : d. tuck|
 B90D  20 64 61 62 73 20 3C 23 20 23 73 20 72 6F 74 20  | dabs <# #s rot |
 B91D  73 69 67 6E 20 23 3E 20 74 79 70 65 20 73 70 61  |sign #> type spa|
 B92D  63 65 20 3B 20 3A 20 64 2E 72 20 3E 72 20 74 75  |ce ; : d.r >r tu|
 B93D  63 6B 20 64 61 62 73 20 3C 23 20 23 73 20 72 6F  |ck dabs <# #s ro|
 B94D  74 20 73 69 67 6E 20 23 3E 20 72 3E 20 6F 76 65  |t sign #> r> ove|
 B95D  72 20 2D 20 73 70 61 63 65 73 20 74 79 70 65 20  |r - spaces type |
 B96D  3B 20 3A 20 32 63 6F 6E 73 74 61 6E 74 20 63 72  |; : 2constant cr|
 B97D  65 61 74 65 20 73 77 61 70 20 2C 20 2C 20 64 6F  |eate swap , , do|
 B98D  65 73 3E 20 64 75 70 20 40 20 73 77 61 70 20 63  |es> dup @ swap c|
 B99D  65 6C 6C 2B 20 40 20 3B 20 3A 20 32 6C 69 74 65  |ell+ @ ; : 2lite|
 B9AD  72 61 6C 20 73 77 61 70 20 70 6F 73 74 70 6F 6E  |ral swap postpon|
 B9BD  65 20 6C 69 74 65 72 61 6C 20 70 6F 73 74 70 6F  |e literal postpo|
 B9CD  6E 65 20 6C 69 74 65 72 61 6C 20 3B 20 69 6D 6D  |ne literal ; imm|
 B9DD  65 64 69 61 74 65 20 3A 20 68 65 78 73 74 6F 72  |ediate : hexstor|
 B9ED  65 20 64 75 70 20 32 3E 72 20 62 65 67 69 6E 20  |e dup 2>r begin |
 B9FD  64 75 70 20 30 3C 3E 20 77 68 69 6C 65 20 62 6C  |dup 0<> while bl|
 BA0D  20 63 6C 65 61 76 65 20 32 3E 72 20 30 2E 20 32  | cleave 2>r 0. 2|
 BA1D  72 3E 20 3E 6E 75 6D 62 65 72 20 64 75 70 20 30  |r> >number dup 0|
 BA2D  3D 20 69 66 20 32 64 72 6F 70 20 64 3E 73 20 72  |= if 2drop d>s r|
 BA3D  40 20 63 21 20 72 3E 20 31 2B 20 3E 72 20 65 6C  |@ c! r> 1+ >r el|
 BA4D  73 65 20 32 64 72 6F 70 20 32 64 72 6F 70 20 74  |se 2drop 2drop t|
 BA5D  68 65 6E 20 72 65 70 65 61 74 20 32 64 72 6F 70  |hen repeat 2drop|
 BA6D  20 32 72 3E 20 73 77 61 70 20 2D 20 3B 20 3A 20  | 2r> swap - ; : |
 BA7D  4F 4E 4C 59 20 66 6F 72 74 68 2D 77 6F 72 64 6C  |ONLY forth-wordl|
 BA8D  69 73 74 20 31 20 73 65 74 2D 6F 72 64 65 72 20  |ist 1 set-order |
 BA9D  3B 20 3A 20 28 77 6F 72 64 6C 69 73 74 29 20 43  |; : (wordlist) C|
 BAAD  52 45 41 54 45 20 2C 20 44 4F 45 53 3E 20 40 20  |REATE , DOES> @ |
 BABD  3E 52 20 47 45 54 2D 4F 52 44 45 52 20 4E 49 50  |>R GET-ORDER NIP|
 BACD  20 52 3E 20 53 57 41 50 20 53 45 54 2D 4F 52 44  | R> SWAP SET-ORD|
 BADD  45 52 20 3B 20 46 4F 52 54 48 2D 57 4F 52 44 4C  |ER ; FORTH-WORDL|
 BAED  49 53 54 20 28 77 6F 72 64 6C 69 73 74 29 20 46  |IST (wordlist) F|
 BAFD  4F 52 54 48 20 3A 20 41 4C 53 4F 20 47 45 54 2D  |ORTH : ALSO GET-|
 BB0D  4F 52 44 45 52 20 4F 56 45 52 20 53 57 41 50 20  |ORDER OVER SWAP |
 BB1D  31 2B 20 53 45 54 2D 4F 52 44 45 52 20 3B 20 3A  |1+ SET-ORDER ; :|
 BB2D  20 50 52 45 56 49 4F 55 53 20 47 45 54 2D 4F 52  | PREVIOUS GET-OR|
 BB3D  44 45 52 20 4E 49 50 20 31 2D 20 53 45 54 2D 4F  |DER NIP 1- SET-O|
 BB4D  52 44 45 52 20 3B 20 3A 20 4F 52 44 45 52 20 63  |RDER ; : ORDER c|
 BB5D  72 20 67 65 74 2D 6F 72 64 65 72 20 30 20 3F 64  |r get-order 0 ?d|
 BB6D  6F 20 64 75 70 20 30 3D 20 69 66 20 2E 22 20 46  |o dup 0= if ." F|
 BB7D  4F 52 54 48 2D 57 4F 52 44 4C 49 53 54 20 22 20  |ORTH-WORDLIST " |
 BB8D  64 72 6F 70 20 65 6C 73 65 20 64 75 70 20 31 20  |drop else dup 1 |
 BB9D  3D 20 69 66 20 2E 22 20 45 44 49 54 4F 52 2D 57  |= if ." EDITOR-W|
 BBAD  4F 52 44 4C 49 53 54 20 22 20 64 72 6F 70 20 65  |ORDLIST " drop e|
 BBBD  6C 73 65 20 64 75 70 20 32 20 3D 20 69 66 20 2E  |lse dup 2 = if .|
 BBCD  22 20 41 53 53 45 4D 42 4C 45 52 2D 57 4F 52 44  |" ASSEMBLER-WORD|
 BBDD  4C 49 53 54 20 22 20 64 72 6F 70 20 65 6C 73 65  |LIST " drop else|
 BBED  20 2E 20 74 68 65 6E 20 74 68 65 6E 20 74 68 65  | . then then the|
 BBFD  6E 20 6C 6F 6F 70 20 3B 20 63 72 20 2E 28 20 54  |n loop ; cr .( T|
 BC0D  61 6C 69 20 46 6F 72 74 68 20 32 20 66 6F 72 20  |ali Forth 2 for |
 BC1D  74 68 65 20 36 35 63 30 32 29 20 63 72 20 2E 28  |the 65c02) cr .(|
 BC2D  20 56 65 72 73 69 6F 6E 20 42 45 54 41 20 31 35  | Version BETA 15|
 BC3D  2E 20 4E 6F 76 20 32 30 31 38 20 29 20 63 72 20  |. Nov 2018 ) cr |
 BC4D  2E 28 20 43 6F 70 79 72 69 67 68 74 20 32 30 31  |.( Copyright 201|
 BC5D  34 2D 32 30 31 38 20 53 63 6F 74 20 57 2E 20 53  |4-2018 Scot W. S|
 BC6D  74 65 76 65 6E 73 6F 6E 29 20 63 72 20 2E 28 20  |tevenson) cr .( |
 BC7D  54 61 6C 69 20 46 6F 72 74 68 20 32 20 63 6F 6D  |Tali Forth 2 com|
 BC8D  65 73 20 77 69 74 68 20 61 62 73 6F 6C 75 74 65  |es with absolute|
 BC9D  6C 79 20 4E 4F 20 57 41 52 52 41 4E 54 59 29 20  |ly NO WARRANTY) |
 BCAD  63 72 20 2E 28 20 54 79 70 65 20 27 62 79 65 27  |cr .( Type 'bye'|
 BCBD  20 74 6F 20 65 78 69 74 29 20 63 72 20 20 3A 20  | to exit) cr  : |
 BCCD  73 65 65 20 70 61 72 73 65 2D 6E 61 6D 65 20 66  |see parse-name f|
 BCDD  69 6E 64 2D 6E 61 6D 65 20 64 75 70 20 30 3D 20  |ind-name dup 0= |
 BCED  61 62 6F 72 74 22 20 4E 6F 20 73 75 63 68 20 6E  |abort" No such n|
 BCFD  61 6D 65 22 20 62 61 73 65 20 40 20 3E 72 20 68  |ame" base @ >r h|
 BD0D  65 78 20 64 75 70 20 63 72 20 73 70 61 63 65 20  |ex dup cr space |
 BD1D  2E 22 20 6E 74 3A 20 22 20 75 2E 20 64 75 70 20  |." nt: " u. dup |
 BD2D  34 20 2B 20 40 20 73 70 61 63 65 20 2E 22 20 78  |4 + @ space ." x|
 BD3D  74 3A 20 22 20 75 2E 20 64 75 70 20 31 2B 20 63  |t: " u. dup 1+ c|
 BD4D  40 20 31 20 61 6E 64 20 69 66 20 73 70 61 63 65  |@ 1 and if space|
 BD5D  20 2E 22 20 43 4F 20 22 20 74 68 65 6E 20 64 75  | ." CO " then du|
 BD6D  70 20 31 2B 20 63 40 20 32 20 61 6E 64 20 69 66  |p 1+ c@ 2 and if|
 BD7D  20 73 70 61 63 65 20 2E 22 20 41 4E 20 22 20 74  | space ." AN " t|
 BD8D  68 65 6E 20 64 75 70 20 31 2B 20 63 40 20 34 20  |hen dup 1+ c@ 4 |
 BD9D  61 6E 64 20 69 66 20 73 70 61 63 65 20 2E 22 20  |and if space ." |
 BDAD  49 4D 20 22 20 74 68 65 6E 20 64 75 70 20 31 2B  |IM " then dup 1+|
 BDBD  20 63 40 20 38 20 61 6E 64 20 69 66 20 73 70 61  | c@ 8 and if spa|
 BDCD  63 65 20 2E 22 20 4E 4E 20 22 20 74 68 65 6E 20  |ce ." NN " then |
 BDDD  64 75 70 20 31 2B 20 63 40 20 31 36 20 61 6E 64  |dup 1+ c@ 16 and|
 BDED  20 69 66 20 73 70 61 63 65 20 2E 22 20 55 46 20  | if space ." UF |
 BDFD  22 20 74 68 65 6E 20 64 75 70 20 31 2B 20 63 40  |" then dup 1+ c@|
 BE0D  20 33 32 20 61 6E 64 20 69 66 20 73 70 61 63 65  | 32 and if space|
 BE1D  20 2E 22 20 48 43 20 22 20 74 68 65 6E 20 64 75  | ." HC " then du|
 BE2D  70 20 63 72 20 73 70 61 63 65 20 2E 22 20 73 69  |p cr space ." si|
 BE3D  7A 65 20 28 64 65 63 69 6D 61 6C 29 3A 20 22 20  |ze (decimal): " |
 BE4D  64 65 63 69 6D 61 6C 20 77 6F 72 64 73 69 7A 65  |decimal wordsize|
 BE5D  20 64 75 70 20 2E 20 73 77 61 70 20 6E 61 6D 65  | dup . swap name|
 BE6D  3E 69 6E 74 20 73 77 61 70 20 68 65 78 20 63 72  |>int swap hex cr|
 BE7D  20 73 70 61 63 65 20 32 64 75 70 20 64 75 6D 70  | space 2dup dump|
 BE8D  20 63 72 20 64 69 73 61 73 6D 20 72 3E 20 62 61  | cr disasm r> ba|
 BE9D  73 65 20 21 20 3B 20 03 00 00 00 21 86 22 86 62  |se ! ; ....!.".b|
 BEAD  79 65 04 00 A4 BE 00 80 4F 81 63 6F 6C 64 02 08  |ye......O.cold..|
 BEBD  AF BE BE 8D C1 8D 65 64 0E 00 BB BE 1E 8F 24 8F  |......ed......$.|
 BECD  66 6F 72 74 68 2D 77 6F 72 64 6C 69 73 74 0F 00  |forth-wordlist..|
 BEDD  C5 BE C2 8D CA 8D 65 64 69 74 6F 72 2D 77 6F 72  |......editor-wor|
 BEED  64 6C 69 73 74 12 00 DB BE 8D 83 95 83 61 73 73  |dlist........ass|
 BEFD  65 6D 62 6C 65 72 2D 77 6F 72 64 6C 69 73 74 06  |embler-wordlist.|
 BF0D  00 F2 BE ED 96 FC 96 23 6F 72 64 65 72 09 00 0C  |.......#order...|
 BF1D  BF 2A 91 58 91 67 65 74 2D 6F 72 64 65 72 09 00  |.*.X.get-order..|
 BF2D  1A BF 31 9B 6C 9B 73 65 74 2D 6F 72 64 65 72 0B  |..1.l.set-order.|
 BF3D  00 2B BF 1C 91 29 91 67 65 74 2D 63 75 72 72 65  |.+...).get-curre|
 BF4D  6E 74 0B 10 3C BF 1C 9B 30 9B 73 65 74 2D 63 75  |nt..<...0.set-cu|
 BF5D  72 72 65 6E 74 0F 10 4F BF 37 9A 1B 9B 73 65 61  |rrent..O.7...sea|
 BF6D  72 63 68 2D 77 6F 72 64 6C 69 73 74 08 00 62 BF  |rch-wordlist..b.|
 BF7D  29 A5 3F A5 77 6F 72 64 6C 69 73 74 0B 00 79 BF  |).?.wordlist..y.|
 BF8D  51 8B 61 8B 64 65 66 69 6E 69 74 69 6F 6E 73 13  |Q.a.definitions.|
 BF9D  10 89 BF 50 84 70 85 62 6C 6F 63 6B 2D 72 61 6D  |...P.p.block-ram|
 BFAD  64 72 69 76 65 2D 69 6E 69 74 04 10 9C BF C3 92  |drive-init......|
 BFBD  D3 92 6C 69 73 74 04 10 B7 BF 1F A0 67 A0 74 68  |..list......g.th|
 BFCD  72 75 04 10 C3 BF 05 93 4C 93 6C 6F 61 64 05 00  |ru......L.load..|
 BFDD  CF BF 14 8F 1D 8F 66 6C 75 73 68 0D 00 DB BF D9  |......flush.....|
 BFED  8D DF 8D 65 6D 70 74 79 2D 62 75 66 66 65 72 73  |...empty-buffers|
 BFFD  06 00 E8 BF D9 85 09 86 62 75 66 66 65 72 06 00  |........buffer..|
 C00D  FD BF 98 A4 A0 A4 75 70 64 61 74 65 05 00 0B C0  |......update....|
 C01D  FD 83 4F 84 62 6C 6F 63 6B 0C 00 19 C0 E0 9C FA  |..O.block.......|
 C02D  9C 73 61 76 65 2D 62 75 66 66 65 72 73 0A 28 26  |.save-buffers.(&|
 C03D  C0 71 85 76 85 62 6C 6F 63 6B 2D 72 65 61 64 0B  |.q.v.block-read.|
 C04D  28 3A C0 7C 85 81 85 62 6C 6F 63 6B 2D 77 72 69  |(:.|...block-wri|
 C05D  74 65 03 00 4C C0 DF 83 EE 83 62 6C 6B 03 00 5F  |te..L.....blk.._|
 C06D  C0 FB 9C 0A 9D 73 63 72 09 00 6A C0 EF 83 FC 83  |.....scr..j.....|
 C07D  62 6C 6B 62 75 66 66 65 72 0C 00 75 C0 C9 85 D8  |blkbuffer..u....|
 C08D  85 62 75 66 66 62 6C 6F 63 6B 6E 75 6D 0A 00 86  |.buffblocknum...|
 C09D  C0 11 86 20 86 62 75 66 66 73 74 61 74 75 73 07  |... .buffstatus.|
 C0AD  00 9A C0 0A 86 10 86 62 75 66 66 65 72 3A 08 00  |.......buffer:..|
 C0BD  AC C0 A1 A4 AB A4 75 73 65 72 61 64 64 72 04 10  |......useraddr..|
 C0CD  BB C0 DF A4 28 A5 77 6F 72 64 04 10 CB C0 E4 8F  |....(.word......|
 C0DD  2F 90 66 69 6E 64 0C 10 D7 C0 E0 8D 60 8E 65 6E  |/.find......`.en|
 C0ED  76 69 72 6F 6E 6D 65 6E 74 3F 06 18 E3 C0 0B 9D  |vironment?......|
 C0FD  AD 9D 73 65 61 72 63 68 07 10 F7 C0 0C 88 74 88  |..search......t.|
 C10D  63 6F 6D 70 61 72 65 06 10 05 C1 AA 8B B4 8B 64  |compare........d|
 C11D  69 73 61 73 6D 02 00 14 C1 DF 8C 22 8D 2E 73 04  |isasm......"..s.|
 C12D  10 22 C1 2D 8D 97 8D 64 75 6D 70 04 00 2C C1 D0  |.".-...dump..,..|
 C13D  83 D5 83 62 65 6C 6C 05 00 38 C1 EF 82 EF 82 61  |...bell..8.....a|
 C14D  6C 69 67 6E 07 00 44 C1 EF 82 EF 82 61 6C 69 67  |lign..D.....alig|
 C15D  6E 65 64 08 10 51 C1 9D A5 C1 A5 77 6F 72 64 73  |ned..Q.....words|
 C16D  69 7A 65 05 00 60 C1 40 A5 9C A5 77 6F 72 64 73  |ize..`.@...words|
 C17D  06 04 70 C1 03 94 40 94 6D 61 72 6B 65 72 05 10  |..p...@.marker..|
 C18D  7D C1 96 83 B7 83 61 74 2D 78 79 04 00 8B C1 7C  |}.....at-xy....||
 C19D  97 99 97 70 61 67 65 02 00 98 C1 F7 89 FC 89 63  |...page........c|
 C1AD  72 05 00 A4 C1 C0 91 CA 91 69 6E 70 75 74 06 00  |r........input..|
 C1BD  AE C1 4F 97 59 97 6F 75 74 70 75 74 04 10 BB C1  |..O.Y.output....|
 C1CD  35 9E 4D 9E 73 69 67 6E 04 10 C9 C1 84 91 99 91  |5.M.sign........|
 C1DD  68 6F 6C 64 02 10 D5 C1 C7 96 EC 96 23 3E 02 10  |hold........#>..|
 C1ED  E1 C1 FD 96 11 97 23 73 01 10 EB C1 8E 96 C6 96  |......#s........|
 C1FD  23 02 00 F5 C1 9C 92 A9 92 3C 23 03 00 FE C1 11  |#........<#.....|
 C20D  A1 1B A1 3E 69 6E 06 10 08 C2 C5 A4 DE A4 77 69  |...>in........wi|
 C21D  74 68 69 6E 06 10 13 C2 83 86 11 87 63 6C 65 61  |thin........clea|
 C22D  76 65 03 00 21 C2 6C 97 7B 97 70 61 64 05 10 2F  |ve..!.l.{.pad../|
 C23D  C2 11 87 4F 87 63 6D 6F 76 65 06 10 3A C2 50 87  |...O.cmove..:.P.|
 C24D  8E 87 63 6D 6F 76 65 3E 04 18 47 C2 17 95 35 95  |..cmove>..G...5.|
 C25D  6D 6F 76 65 01 04 55 C2 B8 83 C0 83 5C 02 10 61  |move..U.....\..a|
 C26D  C2 C5 9F CD 9F 2A 2F 05 10 6A C2 CE 9F E1 9F 2A  |.....*/..j.....*|
 C27D  2F 6D 6F 64 03 10 74 C2 0A 95 16 95 6D 6F 64 04  |/mod..t.....mod.|
 C28D  10 81 C2 53 9E 6A 9E 2F 6D 6F 64 01 10 8C C2 4E  |...S.j./mod....N|
 C29D  9E 6A 9E 2F 06 10 98 C2 E1 90 1B 91 66 6D 2F 6D  |.j./........fm/m|
 C2AD  6F 64 06 10 A1 C2 2F 9F 5B 9F 73 6D 2F 72 65 6D  |od..../.[.sm/rem|
 C2BD  06 10 AF C2 F1 A3 36 A4 75 6D 2F 6D 6F 64 01 10  |......6.um/mod..|
 C2CD  BD C2 B8 9F C4 9F 2A 03 10 CB C2 37 A4 80 A4 75  |......*....7...u|
 C2DD  6D 2A 02 10 D4 C2 E4 93 02 94 6D 2A 05 10 DF C2  |m*........m*....|
 C2ED  DF 89 F6 89 63 6F 75 6E 74 07 00 E9 C2 17 8B 1D  |....count.......|
 C2FD  8B 64 65 63 69 6D 61 6C 03 00 F6 C2 7D 91 83 91  |.decimal....}...|
 C30D  68 65 78 07 10 05 C3 1C A1 BF A1 3E 6E 75 6D 62  |hex........>numb|
 C31D  65 72 06 10 10 C3 F7 95 8D 96 6E 75 6D 62 65 72  |er........number|
 C32D  06 10 1F C3 71 8B A9 8B 64 69 67 69 74 3F 04 00  |....q...digit?..|
 C33D  2D C3 C1 83 CB 83 62 61 73 65 08 10 3B C3 2B 8F  |-.....base..;.+.|
 C34D  AC 8F 65 76 61 6C 75 61 74 65 05 00 47 C3 E2 9F  |..evaluate..G...|
 C35D  EC 9F 73 74 61 74 65 05 17 57 C3 CA 82 EE 82 61  |..state..W.....a|
 C36D  67 61 69 6E 05 07 64 C3 CC 83 CF 83 62 65 67 69  |gain..d.....begi|
 C37D  6E 04 00 71 C3 0D 81 4F 81 71 75 69 74 07 0D 7E  |n..q...O.quit..~|
 C38D  C3 61 99 9D 99 72 65 63 75 72 73 65 05 03 8A C3  |.a...recurse....|
 C39D  92 92 97 92 6C 65 61 76 65 06 03 99 C3 81 A4 87  |....leave.......|
 C3AD  A4 75 6E 6C 6F 6F 70 04 03 A6 C3 C5 8F C6 8F 65  |.unloop........e|
 C3BD  78 69 74 05 05 B4 C3 54 93 BA 93 2B 6C 6F 6F 70  |xit....T...+loop|
 C3CD  04 05 C0 C3 4D 93 BA 93 6C 6F 6F 70 01 03 CD C3  |....M...loop....|
 C3DD  56 92 6F 92 6A 01 03 D9 C3 9A 91 B3 91 69 03 0D  |V.o.j........i..|
 C3ED  E2 C3 D4 8B 34 8C 3F 64 6F 02 0D EB C3 DA 8B 34  |....4.?do......4|
 C3FD  8C 64 6F 06 0D F6 C3 4F 81 59 81 61 62 6F 72 74  |.do....O.Y.abort|
 C40D  22 05 00 00 C4 0B 81 4F 81 61 62 6F 72 74 08 00  |"......O.abort..|
 C41D  0E C4 E6 A3 F0 A3 75 66 2D 73 74 72 69 70 08 00  |......uf-strip..|
 C42D  1B C4 75 95 7F 95 6E 63 2D 6C 69 6D 69 74 0C 00  |..u...nc-limit..|
 C43D  2B C4 5D 83 68 83 61 6C 6C 6F 77 2D 6E 61 74 69  |+.].h.allow-nati|
 C44D  76 65 0D 00 3B C4 69 83 76 83 61 6C 77 61 79 73  |ve..;.i.v.always|
 C45D  2D 6E 61 74 69 76 65 0C 00 4F C4 95 95 A2 95 6E  |-native..O.....n|
 C46D  65 76 65 72 2D 6E 61 74 69 76 65 0C 00 64 C4 91  |ever-native..d..|
 C47D  89 9C 89 63 6F 6D 70 69 6C 65 2D 6F 6E 6C 79 09  |...compile-only.|
 C48D  00 78 C4 B4 91 BF 91 69 6D 6D 65 64 69 61 74 65  |.x.....immediate|
 C49D  08 05 8C C4 DD 98 1B 99 70 6F 73 74 70 6F 6E 65  |........postpone|
 C4AD  03 04 9D C4 1F 9A 28 9A 73 5C 22 02 0C AD C4 6D  |......(.s\"....m|
 C4BD  9B C9 9C 73 22 02 05 B8 C4 D4 8C DE 8C 2E 22 08  |...s".........".|
 C4CD  15 C2 C4 8F 9E 02 9F 73 6C 69 74 65 72 61 6C 07  |.......sliteral.|
 C4DD  15 CC C4 D4 92 E5 92 6C 69 74 65 72 61 6C 06 0D  |.......literal..|
 C4ED  DC C4 AD 85 B4 85 62 72 61 6E 63 68 07 0D EB C4  |......branch....|
 C4FD  DF A5 E6 A5 30 62 72 61 6E 63 68 01 04 F9 C4 E0  |....0branch.....|
 C50D  99 E6 99 5D 01 05 08 C5 97 92 9B 92 5B 08 18 11  |...]........[...|
 C51D  C5 75 88 90 89 63 6F 6D 70 69 6C 65 2C 07 00 1A  |.u...compile,...|
 C52D  C5 D0 87 ED 87 3A 6E 6F 6E 61 6D 65 01 05 2A C5  |.....:noname..*.|
 C53D  AE 9D 34 9E 3B 01 00 39 C5 8F 87 CF 87 3A 09 00  |..4.;..9.....:..|
 C54D  42 C5 71 9F 7B 9F 73 6F 75 72 63 65 2D 69 64 06  |B.q.{.source-id.|
 C55D  00 4B C5 5C 9F 70 9F 73 6F 75 72 63 65 05 10 5C  |.K.\.p.source..\|
 C56D  C5 F5 97 90 98 70 61 72 73 65 0A 08 6A C5 9A 97  |.....parse..j...|
 C57D  90 98 70 61 72 73 65 2D 6E 61 6D 65 08 00 77 C5  |..parse-name..w.|
 C58D  7D 92 8A 92 6C 61 74 65 73 74 6E 74 08 00 89 C5  |}...latestnt....|
 C59D  8B 92 91 92 6C 61 74 65 73 74 78 74 05 00 99 C5  |....latestxt....|
 C5AD  1E 8B 50 8B 64 65 66 65 72 05 10 A9 C5 E8 A0 10  |..P.defer.......|
 C5BD  A1 3E 62 6F 64 79 0B 10 B6 C5 57 95 74 95 6E 61  |.>body....W.t.na|
 C5CD  6D 65 3E 73 74 72 69 6E 67 08 10 C3 C5 CB 91 41  |me>string......A|
 C5DD  92 69 6E 74 3E 6E 61 6D 65 08 10 D6 C5 36 95 56  |.int>name....6.V|
 C5ED  95 6E 61 6D 65 3E 69 6E 74 03 05 E6 C5 A6 85 AC  |.name>int.......|
 C5FD  85 5B 27 5D 01 00 F6 C5 68 A0 87 A0 27 09 10 01  |.[']....h...'...|
 C60D  C6 30 90 E0 90 66 69 6E 64 2D 6E 61 6D 65 04 10  |.0...find-name..|
 C61D  0A C6 CD 8E 13 8F 66 69 6C 6C 05 00 1B C6 BD 8E  |......fill......|
 C62D  13 8F 62 6C 61 6E 6B 05 00 27 C6 C7 8E 13 8F 65  |..blank..'.....e|
 C63D  72 61 73 65 02 10 34 C6 C5 8A E9 8A 64 2B 02 10  |rase..4.....d+..|
 C64D  41 C6 A0 8A C4 8A 64 2D 03 10 4B C6 EA 8A F3 8A  |A.....d-..K.....|
 C65D  64 3E 73 03 10 55 C6 CA 9C DF 9C 73 3E 64 02 0C  |d>s..U.....s>d..|
 C66D  60 C6 88 A0 E7 A0 74 6F 05 10 6B C6 9D 89 DE 89  |`.....to..k.....|
 C67D  76 61 6C 75 65 08 10 75 C6 9D 89 DE 89 63 6F 6E  |value..u.....con|
 C68D  73 74 61 6E 74 08 00 82 C6 AC A4 C4 A4 76 61 72  |stant........var|
 C69D  69 61 62 6C 65 05 05 92 C6 6D 8C 7B 8C 64 6F 65  |iable....m.{.doe|
 C6AD  73 3E 06 00 A2 C6 FD 89 9F 8A 63 72 65 61 74 65  |s>........create|
 C6BD  05 10 AF C6 F0 82 5C 83 61 6C 6C 6F 74 03 00 BD  |......\.allot...|
 C6CD  C6 70 92 79 92 6B 65 79 05 00 CA C6 62 8B 70 8B  |.p.y.key....b.p.|
 C6DD  64 65 70 74 68 06 00 D5 C6 88 A4 97 A4 75 6E 75  |depth........unu|
 C6ED  73 65 64 06 18 E2 C6 88 81 C9 82 61 63 63 65 70  |sed........accep|
 C6FD  74 06 00 F0 C6 9E 99 DF 99 72 65 66 69 6C 6C 07  |t........refill.|
 C70D  10 FE C6 6B 9E 8E 9E 2F 73 74 72 69 6E 67 09 10  |...k.../string..|
 C71D  0C C7 C9 94 09 95 2D 74 72 61 69 6C 69 6E 67 02  |......-trailing.|
 C72D  00 1B C7 D6 83 DE 83 62 6C 06 10 2C C7 82 9F B7  |.......bl..,....|
 C73D  9F 73 70 61 63 65 73 06 10 36 C7 82 85 9E 85 62  |.spaces..6.....b|
 C74D  6F 75 6E 64 73 02 10 44 C7 23 86 31 86 63 2C 07  |ounds..D.#.1.c,.|
 C75D  10 52 C7 B5 8B D3 8B 64 6E 65 67 61 74 65 06 10  |.R.....dnegate..|
 C76D  5C C7 80 95 94 95 6E 65 67 61 74 65 06 10 6B C7  |\.....negate..k.|
 C77D  42 92 55 92 69 6E 76 65 72 74 03 11 79 C7 1A A3  |B.U.invert..y...|
 C78D  3D A3 32 3E 72 03 01 87 C7 90 A2 AC A2 32 72 3E  |=.2>r........2r>|
 C79D  03 09 92 C7 72 A2 8F A2 32 72 40 09 00 9D C7 3E  |....r...2r@....>|
 C7AD  A3 4C A3 32 76 61 72 69 61 62 6C 65 02 10 A8 C7  |.L.2variable....|
 C7BD  30 A2 55 A2 32 40 02 10 B9 C7 C8 A2 F1 A2 32 21  |0.U.2@........2!|
 C7CD  05 10 C3 C7 56 A2 71 A2 32 6F 76 65 72 05 10 CD  |....V.q.2over...|
 C7DD  C7 F2 A2 19 A3 32 73 77 61 70 05 10 DA C7 08 A2  |.....2swap......|
 C7ED  13 A2 32 64 72 6F 70 03 10 E7 C7 72 94 91 94 6D  |..2drop....r...m|
 C7FD  61 78 03 10 F4 C7 92 94 B1 94 6D 69 6E 02 10 FF  |ax........min...|
 C80D  C7 4E A6 61 A6 30 3C 02 10 0A C8 36 A6 4D A6 30  |.N.a.0<....6.M.0|
 C81D  3E 03 10 14 C8 62 A6 77 A6 30 3C 3E 02 10 1E C8  |>....b.w.0<>....|
 C82D  1E A6 35 A6 30 3D 01 10 29 C8 59 91 71 91 3E 02  |..5.0=..).Y.q.>.|
 C83D  10 33 C8 B2 A3 CB A3 75 3E 02 10 3C C8 CC A3 E5  |.3.....u>..<....|
 C84D  A3 75 3C 01 10 46 C8 AA 92 C2 92 3C 02 10 50 C8  |.u<..F.....<..P.|
 C85D  B5 95 D6 95 3C 3E 01 10 59 C8 9D 8E BC 8E 3D 02  |....<>..Y.....=.|
 C86D  10 63 C8 AD A2 BB A2 32 2F 02 10 6C C8 BC A2 C7  |.c.....2/..l....|
 C87D  A2 32 2A 02 10 76 C8 2B 97 38 97 31 2B 02 10 80  |.2*..v.+.8.1+...|
 C88D  C8 1B 97 2A 97 31 2D 04 00 8A C8 72 91 7C 91 68  |...*.1-....r.|.h|
 C89D  65 72 65 05 10 94 C8 50 86 63 86 63 65 6C 6C 2B  |ere....P.c.cell+|
 C8AD  05 00 A0 C8 BC A2 C7 A2 63 65 6C 6C 73 05 12 AD  |........cells...|
 C8BD  C8 7B 86 82 86 63 68 61 72 73 05 00 BA C8 2B 97  |.{...chars....+.|
 C8CD  38 97 63 68 61 72 2B 06 05 C7 C8 9F 85 A5 85 5B  |8.char+........[|
 C8DD  63 68 61 72 5D 04 00 D4 C8 64 86 7A 86 63 68 61  |char]....d.z.cha|
 C8ED  72 04 00 E2 C8 91 98 A1 98 70 69 63 6B 06 10 EE  |r........pick...|
 C8FD  C8 CC 93 E3 93 6C 73 68 69 66 74 06 10 FA C8 07  |.....lshift.....|
 C90D  9A 1E 9A 72 73 68 69 66 74 03 10 08 C9 C2 A5 D7  |...rshift.......|
 C91D  A5 78 6F 72 02 10 16 C9 39 97 4E 97 6F 72 03 10  |.xor....9.N.or..|
 C92D  21 C9 77 83 8C 83 61 6E 64 04 10 2B C9 F4 8A 16  |!.w...and..+....|
 C93D  8B 64 61 62 73 03 10 36 C9 6F 81 87 81 61 62 73  |.dabs..6.o...abs|
 C94D  01 10 42 C9 B2 94 C8 94 2D 01 10 4D C9 A2 98 B8  |..B.....-..M....|
 C95D  98 2B 04 10 56 C9 23 99 3A 99 3F 64 75 70 04 10  |.+..V.#.:.?dup..|
 C96D  5F C9 14 A2 2F A2 32 64 75 70 01 00 6B C9 FF A1  |_.../.2dup..k...|
 C97D  07 A2 32 01 00 77 C9 12 97 1A 97 31 01 00 80 C9  |..2..w.....1....|
 C98D  D8 A5 DE A5 30 05 00 89 C9 7C 9F 81 9F 73 70 61  |....0....|...spa|
 C99D  63 65 04 00 92 C9 D8 A1 E0 A1 74 72 75 65 05 00  |ce........true..|
 C9AD  9F C9 C6 8F CC 8F 66 61 6C 73 65 01 00 AB C9 1C  |......false.....|
 C9BD  99 22 99 3F 03 10 B8 C9 8C A3 B1 A3 75 2E 72 02  |.".?........u.r.|
 C9CD  10 C1 C9 7C A3 8B A3 75 2E 01 10 CC C9 AE 8C D3  |...|...u........|
 C9DD  8C 2E 04 10 D6 C9 4D A3 7B A3 74 79 70 65 04 18  |......M.{.type..|
 C9ED  DF C9 CB 8D D9 8D 65 6D 69 74 07 10 EB C9 AD 8F  |......emit......|
 C9FD  B7 8F 65 78 65 63 75 74 65 02 10 F7 C9 B9 98 DC  |..execute.......|
 CA0D  98 2B 21 02 10 06 CA 40 86 4F 86 63 21 02 10 10  |.+!....@.O.c!...|
 CA1D  CA 32 86 3F 86 63 40 01 10 1A CA EE 87 0B 88 2C  |.2.?.c@........,|
 CA2D  04 10 24 CA E1 A1 FE A1 74 75 63 6B 04 10 2D CA  |..$.....tuck..-.|
 CA3D  D7 95 F6 95 2D 72 6F 74 03 10 39 CA E7 99 06 9A  |....-rot..9.....|
 CA4D  72 6F 74 03 10 45 CA A3 95 B4 95 6E 69 70 02 01  |rot..E.....nip..|
 CA5D  50 CA 3B 99 4F 99 72 40 02 01 5B CA 50 99 60 99  |P.;.O.r@..[.P.`.|
 CA6D  72 3E 02 11 65 CA C0 A1 D7 A1 3E 72 04 10 6F CA  |r>..e.....>r..o.|
 CA7D  5A 97 6B 97 6F 76 65 72 01 10 79 CA CD 8F E3 8F  |Z.k.over..y.....|
 CA8D  40 01 10 85 CA ED 9F 06 A0 21 04 10 8E CA 07 A0  |@........!......|
 CA9D  1E A0 73 77 61 70 03 10 97 CA AC 8D BD 8D 64 75  |..swap........du|
 CAAD  70 04 10 A3 CA 23 8D 2C 8D 64 72 6F 70 01 00 00  |p....#.,.drop...|
 CABD  00 78 A6 F3 A6 6C 03 04 00 00 F4 A6 F9 A6 6E 6F  |.x...l........no|
 CACD  70 DA CA DE CA E8 CA 00 00 F3 CA 17 CB 20 6F 6B  |p............ ok|
 CADD  00 20 63 6F 6D 70 69 6C 65 64 00 72 65 64 65 66  |. compiled.redef|
 CAED  69 6E 65 64 20 00 30 31 32 33 34 35 36 37 38 39  |ined .0123456789|
 CAFD  61 62 63 64 65 66 67 68 69 6A 6B 6C 6D 6E 6F 70  |abcdefghijklmnop|
 CB0D  71 72 73 74 75 76 77 78 79 7A 30 31 32 33 34 35  |qrstuvwxyz012345|
 CB1D  36 37 38 39 41 42 43 44 45 46 47 48 49 4A 4B 4C  |6789ABCDEFGHIJKL|
 CB2D  4D 4E 4F 50 51 52 53 54 55 56 57 58 59 5A 55 CB  |MNOPQRSTUVWXYZU.|
 CB3D  76 CB 96 CB B7 CB D4 CB E5 CB F5 CB 23 CC 3B CC  |v...........#.;.|
 CB4D  4A CC 5A CC 76 CC 8D CC 41 4C 4C 4F 54 20 75 73  |J.Z.v...ALLOT us|
 CB5D  69 6E 67 20 61 6C 6C 20 61 76 61 69 6C 61 62 6C  |ing all availabl|
 CB6D  65 20 6D 65 6D 6F 72 79 00 49 6C 6C 65 67 61 6C  |e memory.Illegal|
 CB7D  20 53 4F 55 52 43 45 2D 49 44 20 64 75 72 69 6E  | SOURCE-ID durin|
 CB8D  67 20 52 45 46 49 4C 4C 00 49 6E 74 65 72 70 72  |g REFILL.Interpr|
 CB9D  65 74 69 6E 67 20 61 20 63 6F 6D 70 69 6C 65 2D  |eting a compile-|
 CBAD  6F 6E 6C 79 20 77 6F 72 64 00 44 45 46 45 52 65  |only word.DEFERe|
 CBBD  64 20 77 6F 72 64 20 6E 6F 74 20 64 65 66 69 6E  |d word not defin|
 CBCD  65 64 20 79 65 74 00 44 69 76 69 73 69 6F 6E 20  |ed yet.Division |
 CBDD  62 79 20 7A 65 72 6F 00 50 61 72 73 69 6E 67 20  |by zero.Parsing |
 CBED  66 61 69 6C 75 72 65 00 51 55 49 54 20 63 6F 75  |failure.QUIT cou|
 CBFD  6C 64 20 6E 6F 74 20 67 65 74 20 69 6E 70 75 74  |ld not get input|
 CC0D  20 28 52 45 46 49 4C 4C 20 72 65 74 75 72 6E 65  | (REFILL returne|
 CC1D  64 20 2D 31 29 00 41 6C 72 65 61 64 79 20 69 6E  |d -1).Already in|
 CC2D  20 63 6F 6D 70 69 6C 65 20 6D 6F 64 65 00 55 6E  | compile mode.Un|
 CC3D  64 65 66 69 6E 65 64 20 77 6F 72 64 00 53 74 61  |defined word.Sta|
 CC4D  63 6B 20 75 6E 64 65 72 66 6C 6F 77 00 4D 61 78  |ck underflow.Max|
 CC5D  20 6D 65 6D 6F 72 79 20 66 72 65 65 64 20 77 69  | memory freed wi|
 CC6D  74 68 20 41 4C 4C 4F 54 00 4E 6F 20 77 6F 72 64  |th ALLOT.No word|
 CC7D  6C 69 73 74 73 20 61 76 61 69 6C 61 62 6C 65 00  |lists available.|
 CC8D  50 6C 65 61 73 65 20 61 73 73 69 67 6E 20 64 65  |Please assign de|
 CC9D  66 65 72 72 65 64 20 77 6F 72 64 73 20 42 4C 4F  |ferred words BLO|
 CCAD  43 4B 2D 52 45 41 44 20 61 6E 64 20 42 4C 4F 43  |CK-READ and BLOC|
 CCBD  4B 2D 57 52 49 54 45 00 0F 2F 43 4F 55 4E 54 45  |K-WRITE../COUNTE|
 CCCD  44 2D 53 54 52 49 4E 47 05 2F 48 4F 4C 44 04 2F  |D-STRING./HOLD./|
 CCDD  50 41 44 11 41 44 44 52 45 53 53 2D 55 4E 49 54  |PAD.ADDRESS-UNIT|
 CCED  2D 42 49 54 53 07 46 4C 4F 4F 52 45 44 08 4D 41  |-BITS.FLOORED.MA|
 CCFD  58 2D 43 48 41 52 05 4D 41 58 2D 4E 05 4D 41 58  |X-CHAR.MAX-N.MAX|
 CD0D  2D 55 12 52 45 54 55 52 4E 2D 53 54 41 43 4B 2D  |-U.RETURN-STACK-|
 CD1D  43 45 4C 4C 53 0B 53 54 41 43 4B 2D 43 45 4C 4C  |CELLS.STACK-CELL|
 CD2D  53 09 57 4F 52 44 4C 49 53 54 53 05 4D 41 58 2D  |S.WORDLISTS.MAX-|
 CD3D  44 06 4D 41 58 2D 55 44                          |D.MAX-UD        |
 CD45  48        PHA  
 CD46  A9 20     LDA  #$20
 CD48  80 03     BRA  $CD4D
 CD4A  48        PHA  
 CD4B  A9 4C     LDA  #$4C
 CD4D  20 55 CD  JSR  $CD55
 CD50  68        PLA  
 CD51  20 55 CD  JSR  $CD55
 CD54  98        TYA  
 CD55  92 00     STA  ($00)
 CD57  E6 00     INC  $00
 CD59  D0 02     BNE  $CD5D
 CD5B  E6 01     INC  $01
 CD5D  60        RTS  
 CD5E  CA        DEX  
 CD5F  CA        DEX  
 CD60  68        PLA  
 CD61  85 20     STA  $20
 CD63  68        PLA  
 CD64  85 21     STA  $21
 CD66  A0 01     LDY  #$01
 CD68  B1 20     LDA  ($20), Y
 CD6A  95 00     STA  $00, X
 CD6C  C8        INY  
 CD6D  B1 20     LDA  ($20), Y
 CD6F  95 01     STA  $01, X
 CD71  60        RTS  
 CD72  68        PLA  
 CD73  85 20     STA  $20
 CD75  68        PLA  
 CD76  85 21     STA  $21
 CD78  A0 01     LDY  #$01
 CD7A  B1 20     LDA  ($20), Y
 CD7C  85 22     STA  $22
 CD7E  C8        INY  
 CD7F  B1 20     LDA  ($20), Y
 CD81  85 23     STA  $23
 CD83  6C 22 00  JMP  ($0022)
 CD86  A9 03     LDA  #$03
 CD88  4C 7F CE  JMP  $CE7F
 CD8B  7A        PLY  
 CD8C  68        PLA  
 CD8D  C8        INY  
 CD8E  D0 01     BNE  $CD91
 CD90  1A        INC  
 CD91  84 22     STY  $22
 CD93  85 23     STA  $23
 CD95  CA        DEX  
 CD96  CA        DEX  
 CD97  7A        PLY  
 CD98  68        PLA  
 CD99  C8        INY  
 CD9A  18        CLC  
 CD9B  D0 01     BNE  $CD9E
 CD9D  1A        INC  
 CD9E  94 00     STY  $00, X
 CDA0  95 01     STA  $01, X
 CDA2  6C 22 00  JMP  ($0022)
 CDA5  7A        PLY  
 CDA6  68        PLA  
 CDA7  C8        INY  
 CDA8  D0 01     BNE  $CDAB
 CDAA  1A        INC  
 CDAB  CA        DEX  
 CDAC  CA        DEX  
 CDAD  95 01     STA  $01, X
 CDAF  98        TYA  
 CDB0  95 00     STA  $00, X
 CDB2  60        RTS  
 CDB3  48        PHA  
 CDB4  4A        LSR  
 CDB5  4A        LSR  
 CDB6  4A        LSR  
 CDB7  4A        LSR  
 CDB8  20 BC CD  JSR  $CDBC
 CDBB  68        PLA  
 CDBC  29 0F     AND  #$0F
 CDBE  09 30     ORA  #$30
 CDC0  C9 3A     CMP  #$3A
 CDC2  90 02     BCC  $CDC6
 CDC4  69 06     ADC  #$06
 CDC6  4C D6 8D  JMP  $8DD6
 CDC9  60        RTS  
 CDCA  B5 00     LDA  $00, X
 CDCC  D5 02     CMP  $02, X
 CDCE  F0 0A     BEQ  $CDDA
 CDD0  B5 01     LDA  $01, X
 CDD2  F5 03     SBC  $03, X
 CDD4  09 01     ORA  #$01
 CDD6  70 08     BVS  $CDE0
 CDD8  80 08     BRA  $CDE2
 CDDA  B5 01     LDA  $01, X
 CDDC  F5 03     SBC  $03, X
 CDDE  50 04     BVC  $CDE4
 CDE0  49 80     EOR  #$80
 CDE2  09 01     ORA  #$01
 CDE4  60        RTS  
 CDE5  20 9A 97  JSR  $979A
 CDE8  B5 00     LDA  $00, X
 CDEA  15 01     ORA  $01, X
 CDEC  F0 70     BEQ  $CE5E
 CDEE  20 14 A2  JSR  $A214
 CDF1  20 30 90  JSR  $9030
 CDF4  B5 00     LDA  $00, X
 CDF6  15 01     ORA  $01, X
 CDF8  D0 28     BNE  $CE22
 CDFA  E8        INX  
 CDFB  E8        INX  
 CDFC  20 F7 95  JSR  $95F7
 CDFF  A5 16     LDA  $16
 CE01  F0 E2     BEQ  $CDE5
 CE03  A9 20     LDA  #$20
 CE05  24 3A     BIT  $3A
 CE07  F0 0D     BEQ  $CE16
 CE09  20 07 A0  JSR  $A007
 CE0C  A0 92     LDY  #$92
 CE0E  A9 E6     LDA  #$E6
 CE10  20 45 CD  JSR  $CD45
 CE13  20 EE 87  JSR  $87EE
 CE16  A0 92     LDY  #$92
 CE18  A9 E6     LDA  #$E6
 CE1A  20 45 CD  JSR  $CD45
 CE1D  20 EE 87  JSR  $87EE
 CE20  80 C3     BRA  $CDE5
 CE22  B5 00     LDA  $00, X
 CE24  95 04     STA  $04, X
 CE26  B5 01     LDA  $01, X
 CE28  95 05     STA  $05, X
 CE2A  E8        INX  
 CE2B  E8        INX  
 CE2C  E8        INX  
 CE2D  E8        INX  
 CE2E  B5 00     LDA  $00, X
 CE30  85 1E     STA  $1E
 CE32  B5 01     LDA  $01, X
 CE34  85 1F     STA  $1F
 CE36  20 36 95  JSR  $9536
 CE39  A5 16     LDA  $16
 CE3B  D0 13     BNE  $CE50
 CE3D  A0 01     LDY  #$01
 CE3F  B1 1E     LDA  ($1E), Y
 CE41  29 01     AND  #$01
 CE43  F0 05     BEQ  $CE4A
 CE45  A9 02     LDA  #$02
 CE47  4C 7F CE  JMP  $CE7F
 CE4A  20 AD 8F  JSR  $8FAD
 CE4D  4C E5 CD  JMP  $CDE5
 CE50  A0 01     LDY  #$01
 CE52  B1 1E     LDA  ($1E), Y
 CE54  29 04     AND  #$04
 CE56  D0 F2     BNE  $CE4A
 CE58  20 75 88  JSR  $8875
 CE5B  4C E5 CD  JMP  $CDE5
 CE5E  E8        INX  
 CE5F  E8        INX  
 CE60  E8        INX  
 CE61  E8        INX  
 CE62  60        RTS  
 CE63  C9 20     CMP  #$20
 CE65  90 08     BCC  $CE6F
 CE67  C9 7F     CMP  #$7F
 CE69  B0 03     BCS  $CE6E
 CE6B  38        SEC  
 CE6C  80 01     BRA  $CE6F
 CE6E  18        CLC  
 CE6F  60        RTS  
 CE70  C9 00     CMP  #$00
 CE72  90 08     BCC  $CE7C
 CE74  C9 21     CMP  #$21
 CE76  B0 03     BCS  $CE7B
 CE78  38        SEC  
 CE79  80 01     BRA  $CE7C
 CE7B  18        CLC  
 CE7C  60        RTS  
 CE7D  A9 09     LDA  #$09
 CE7F  0A        ASL  
 CE80  A8        TAY  
 CE81  B9 3B CB  LDA  $CB3B, Y
 CE84  85 24     STA  $24
 CE86  C8        INY  
 CE87  B9 3B CB  LDA  $CB3B, Y
 CE8A  85 25     STA  $25
 CE8C  20 9F CE  JSR  $CE9F
 CE8F  4C 0B 81  JMP  $810B
 CE92  0A        ASL  
 CE93  A8        TAY  
 CE94  B9 CE CA  LDA  $CACE, Y
 CE97  85 24     STA  $24
 CE99  C8        INY  
 CE9A  B9 CE CA  LDA  $CACE, Y
 CE9D  85 25     STA  $25
 CE9F  20 A8 CE  JSR  $CEA8
 CEA2  A9 0A     LDA  #$0A
 CEA4  20 D6 8D  JSR  $8DD6
 CEA7  60        RTS  
 CEA8  A0 00     LDY  #$00
 CEAA  B1 24     LDA  ($24), Y
 CEAC  F0 06     BEQ  $CEB4
 CEAE  20 D6 8D  JSR  $8DD6
 CEB1  C8        INY  
 CEB2  80 F6     BRA  $CEAA
 CEB4  60        RTS  
 CEB5  CA        DEX  
 CEB6  CA        DEX  
 CEB7  74 00     STZ  $00, X
 CEB9  74 01     STZ  $01, X
 CEBB  20 9C 92  JSR  $929C
 CEBE  20 FD 96  JSR  $96FD
 CEC1  20 C7 96  JSR  $96C7
 CEC4  20 4D A3  JSR  $A34D
 CEC7  60        RTS  
 CEC8  A0 04     LDY  #$04
 CECA  B1 3C     LDA  ($3C), Y
 CECC  0A        ASL  
 CECD  18        CLC  
 CECE  69 08     ADC  #$08
 CED0  A8        TAY  
 CED1  B1 3C     LDA  ($3C), Y
 CED3  85 02     STA  $02
 CED5  C8        INY  
 CED6  B1 3C     LDA  ($3C), Y
 CED8  85 03     STA  $03
 CEDA  60        RTS  
 CEDB  A0 04     LDY  #$04
 CEDD  B1 3C     LDA  ($3C), Y
 CEDF  0A        ASL  
 CEE0  18        CLC  
 CEE1  69 08     ADC  #$08
 CEE3  A8        TAY  
 CEE4  A5 02     LDA  $02
 CEE6  91 3C     STA  ($3C), Y
 CEE8  C8        INY  
 CEE9  A5 03     LDA  $03
 CEEB  91 3C     STA  ($3C), Y
 CEED  60        RTS  
 CEEE  00 00 00 00 00 00 00 00 00 00 00 00 00 00 00 00  |................|
 CEFE  00 00 00 00 00 00 00 00 00 00 00 00 00 00 00 00  |................|
 CF0E  00 00 00 00 00 00 00 00 00 00 00 00 00 00 00 00  |................|
 CF1E  00 00 00 00 00 00 00 00 00 00 00 00 00 00 00 00  |................|
 CF2E  00 00 00 00 00 00 00 00 00 00 00 00 00 00 00 00  |................|
 CF3E  00 00 00 00 00 00 00 00 00 00 00 00 00 00 00 00  |................|
 CF4E  00 00 00 00 00 00 00 00 00 00 00 00 00 00 00 00  |................|
 CF5E  00 00 00 00 00 00 00 00 00 00 00 00 00 00 00 00  |................|
 CF6E  00 00 00 00 00 00 00 00 00 00 00 00 00 00 00 00  |................|
 CF7E  00 00 00 00 00 00 00 00 00 00 00 00 00 00 00 00  |................|
 CF8E  00 00 00 00 00 00 00 00 00 00 00 00 00 00 00 00  |................|
 CF9E  00 00 00 00 00 00 00 00 00 00 00 00 00 00 00 00  |................|
 CFAE  00 00 00 00 00 00 00 00 00 00 00 00 00 00 00 00  |................|
 CFBE  00 00 00 00 00 00 00 00 00 00 00 00 00 00 00 00  |................|
 CFCE  00 00 00 00 00 00 00 00 00 00 00 00 00 00 00 00  |................|
 CFDE  00 00 00 00 00 00 00 00 00 00 00 00 00 00 00 00  |................|
 CFEE  00 00 00 00 00 00 00 00 00 00 00 00 00 00 00 00  |................|
 CFFE  00 00 00 00 00 00 00 00 00 00 00 00 00 00 00 00  |................|
 D00E  00 00 00 00 00 00 00 00 00 00 00 00 00 00 00 00  |................|
 D01E  00 00 00 00 00 00 00 00 00 00 00 00 00 00 00 00  |................|
 D02E  00 00 00 00 00 00 00 00 00 00 00 00 00 00 00 00  |................|
 D03E  00 00 00 00 00 00 00 00 00 00 00 00 00 00 00 00  |................|
 D04E  00 00 00 00 00 00 00 00 00 00 00 00 00 00 00 00  |................|
 D05E  00 00 00 00 00 00 00 00 00 00 00 00 00 00 00 00  |................|
 D06E  00 00 00 00 00 00 00 00 00 00 00 00 00 00 00 00  |................|
 D07E  00 00 00 00 00 00 00 00 00 00 00 00 00 00 00 00  |................|
 D08E  00 00 00 00 00 00 00 00 00 00 00 00 00 00 00 00  |................|
 D09E  00 00 00 00 00 00 00 00 00 00 00 00 00 00 00 00  |................|
 D0AE  00 00 00 00 00 00 00 00 00 00 00 00 00 00 00 00  |................|
 D0BE  00 00 00 00 00 00 00 00 00 00 00 00 00 00 00 00  |................|
 D0CE  00 00 00 00 00 00 00 00 00 00 00 00 00 00 00 00  |................|
 D0DE  00 00 00 00 00 00 00 00 00 00 00 00 00 00 00 00  |................|
 D0EE  00 00 00 00 00 00 00 00 00 00 00 00 00 00 00 00  |................|
 D0FE  00 00 00 00 00 00 00 00 00 00 00 00 00 00 00 00  |................|
 D10E  00 00 00 00 00 00 00 00 00 00 00 00 00 00 00 00  |................|
 D11E  00 00 00 00 00 00 00 00 00 00 00 00 00 00 00 00  |................|
 D12E  00 00 00 00 00 00 00 00 00 00 00 00 00 00 00 00  |................|
 D13E  00 00 00 00 00 00 00 00 00 00 00 00 00 00 00 00  |................|
 D14E  00 00 00 00 00 00 00 00 00 00 00 00 00 00 00 00  |................|
 D15E  00 00 00 00 00 00 00 00 00 00 00 00 00 00 00 00  |................|
 D16E  00 00 00 00 00 00 00 00 00 00 00 00 00 00 00 00  |................|
 D17E  00 00 00 00 00 00 00 00 00 00 00 00 00 00 00 00  |................|
 D18E  00 00 00 00 00 00 00 00 00 00 00 00 00 00 00 00  |................|
 D19E  00 00 00 00 00 00 00 00 00 00 00 00 00 00 00 00  |................|
 D1AE  00 00 00 00 00 00 00 00 00 00 00 00 00 00 00 00  |................|
 D1BE  00 00 00 00 00 00 00 00 00 00 00 00 00 00 00 00  |................|
 D1CE  00 00 00 00 00 00 00 00 00 00 00 00 00 00 00 00  |................|
 D1DE  00 00 00 00 00 00 00 00 00 00 00 00 00 00 00 00  |................|
 D1EE  00 00 00 00 00 00 00 00 00 00 00 00 00 00 00 00  |................|
 D1FE  00 00 00 00 00 00 00 00 00 00 00 00 00 00 00 00  |................|
 D20E  00 00 00 00 00 00 00 00 00 00 00 00 00 00 00 00  |................|
 D21E  00 00 00 00 00 00 00 00 00 00 00 00 00 00 00 00  |................|
 D22E  00 00 00 00 00 00 00 00 00 00 00 00 00 00 00 00  |................|
 D23E  00 00 00 00 00 00 00 00 00 00 00 00 00 00 00 00  |................|
 D24E  00 00 00 00 00 00 00 00 00 00 00 00 00 00 00 00  |................|
 D25E  00 00 00 00 00 00 00 00 00 00 00 00 00 00 00 00  |................|
 D26E  00 00 00 00 00 00 00 00 00 00 00 00 00 00 00 00  |................|
 D27E  00 00 00 00 00 00 00 00 00 00 00 00 00 00 00 00  |................|
 D28E  00 00 00 00 00 00 00 00 00 00 00 00 00 00 00 00  |................|
 D29E  00 00 00 00 00 00 00 00 00 00 00 00 00 00 00 00  |................|
 D2AE  00 00 00 00 00 00 00 00 00 00 00 00 00 00 00 00  |................|
 D2BE  00 00 00 00 00 00 00 00 00 00 00 00 00 00 00 00  |................|
 D2CE  00 00 00 00 00 00 00 00 00 00 00 00 00 00 00 00  |................|
 D2DE  00 00 00 00 00 00 00 00 00 00 00 00 00 00 00 00  |................|
 D2EE  00 00 00 00 00 00 00 00 00 00 00 00 00 00 00 00  |................|
 D2FE  00 00 00 00 00 00 00 00 00 00 00 00 00 00 00 00  |................|
 D30E  00 00 00 00 00 00 00 00 00 00 00 00 00 00 00 00  |................|
 D31E  00 00 00 00 00 00 00 00 00 00 00 00 00 00 00 00  |................|
 D32E  00 00 00 00 00 00 00 00 00 00 00 00 00 00 00 00  |................|
 D33E  00 00 00 00 00 00 00 00 00 00 00 00 00 00 00 00  |................|
 D34E  00 00 00 00 00 00 00 00 00 00 00 00 00 00 00 00  |................|
 D35E  00 00 00 00 00 00 00 00 00 00 00 00 00 00 00 00  |................|
 D36E  00 00 00 00 00 00 00 00 00 00 00 00 00 00 00 00  |................|
 D37E  00 00 00 00 00 00 00 00 00 00 00 00 00 00 00 00  |................|
 D38E  00 00 00 00 00 00 00 00 00 00 00 00 00 00 00 00  |................|
 D39E  00 00 00 00 00 00 00 00 00 00 00 00 00 00 00 00  |................|
 D3AE  00 00 00 00 00 00 00 00 00 00 00 00 00 00 00 00  |................|
 D3BE  00 00 00 00 00 00 00 00 00 00 00 00 00 00 00 00  |................|
 D3CE  00 00 00 00 00 00 00 00 00 00 00 00 00 00 00 00  |................|
 D3DE  00 00 00 00 00 00 00 00 00 00 00 00 00 00 00 00  |................|
 D3EE  00 00 00 00 00 00 00 00 00 00 00 00 00 00 00 00  |................|
 D3FE  00 00 00 00 00 00 00 00 00 00 00 00 00 00 00 00  |................|
 D40E  00 00 00 00 00 00 00 00 00 00 00 00 00 00 00 00  |................|
 D41E  00 00 00 00 00 00 00 00 00 00 00 00 00 00 00 00  |................|
 D42E  00 00 00 00 00 00 00 00 00 00 00 00 00 00 00 00  |................|
 D43E  00 00 00 00 00 00 00 00 00 00 00 00 00 00 00 00  |................|
 D44E  00 00 00 00 00 00 00 00 00 00 00 00 00 00 00 00  |................|
 D45E  00 00 00 00 00 00 00 00 00 00 00 00 00 00 00 00  |................|
 D46E  00 00 00 00 00 00 00 00 00 00 00 00 00 00 00 00  |................|
 D47E  00 00 00 00 00 00 00 00 00 00 00 00 00 00 00 00  |................|
 D48E  00 00 00 00 00 00 00 00 00 00 00 00 00 00 00 00  |................|
 D49E  00 00 00 00 00 00 00 00 00 00 00 00 00 00 00 00  |................|
 D4AE  00 00 00 00 00 00 00 00 00 00 00 00 00 00 00 00  |................|
 D4BE  00 00 00 00 00 00 00 00 00 00 00 00 00 00 00 00  |................|
 D4CE  00 00 00 00 00 00 00 00 00 00 00 00 00 00 00 00  |................|
 D4DE  00 00 00 00 00 00 00 00 00 00 00 00 00 00 00 00  |................|
 D4EE  00 00 00 00 00 00 00 00 00 00 00 00 00 00 00 00  |................|
 D4FE  00 00 00 00 00 00 00 00 00 00 00 00 00 00 00 00  |................|
 D50E  00 00 00 00 00 00 00 00 00 00 00 00 00 00 00 00  |................|
 D51E  00 00 00 00 00 00 00 00 00 00 00 00 00 00 00 00  |................|
 D52E  00 00 00 00 00 00 00 00 00 00 00 00 00 00 00 00  |................|
 D53E  00 00 00 00 00 00 00 00 00 00 00 00 00 00 00 00  |................|
 D54E  00 00 00 00 00 00 00 00 00 00 00 00 00 00 00 00  |................|
 D55E  00 00 00 00 00 00 00 00 00 00 00 00 00 00 00 00  |................|
 D56E  00 00 00 00 00 00 00 00 00 00 00 00 00 00 00 00  |................|
 D57E  00 00 00 00 00 00 00 00 00 00 00 00 00 00 00 00  |................|
 D58E  00 00 00 00 00 00 00 00 00 00 00 00 00 00 00 00  |................|
 D59E  00 00 00 00 00 00 00 00 00 00 00 00 00 00 00 00  |................|
 D5AE  00 00 00 00 00 00 00 00 00 00 00 00 00 00 00 00  |................|
 D5BE  00 00 00 00 00 00 00 00 00 00 00 00 00 00 00 00  |................|
 D5CE  00 00 00 00 00 00 00 00 00 00 00 00 00 00 00 00  |................|
 D5DE  00 00 00 00 00 00 00 00 00 00 00 00 00 00 00 00  |................|
 D5EE  00 00 00 00 00 00 00 00 00 00 00 00 00 00 00 00  |................|
 D5FE  00 00 00 00 00 00 00 00 00 00 00 00 00 00 00 00  |................|
 D60E  00 00 00 00 00 00 00 00 00 00 00 00 00 00 00 00  |................|
 D61E  00 00 00 00 00 00 00 00 00 00 00 00 00 00 00 00  |................|
 D62E  00 00 00 00 00 00 00 00 00 00 00 00 00 00 00 00  |................|
 D63E  00 00 00 00 00 00 00 00 00 00 00 00 00 00 00 00  |................|
 D64E  00 00 00 00 00 00 00 00 00 00 00 00 00 00 00 00  |................|
 D65E  00 00 00 00 00 00 00 00 00 00 00 00 00 00 00 00  |................|
 D66E  00 00 00 00 00 00 00 00 00 00 00 00 00 00 00 00  |................|
 D67E  00 00 00 00 00 00 00 00 00 00 00 00 00 00 00 00  |................|
 D68E  00 00 00 00 00 00 00 00 00 00 00 00 00 00 00 00  |................|
 D69E  00 00 00 00 00 00 00 00 00 00 00 00 00 00 00 00  |................|
 D6AE  00 00 00 00 00 00 00 00 00 00 00 00 00 00 00 00  |................|
 D6BE  00 00 00 00 00 00 00 00 00 00 00 00 00 00 00 00  |................|
 D6CE  00 00 00 00 00 00 00 00 00 00 00 00 00 00 00 00  |................|
 D6DE  00 00 00 00 00 00 00 00 00 00 00 00 00 00 00 00  |................|
 D6EE  00 00 00 00 00 00 00 00 00 00 00 00 00 00 00 00  |................|
 D6FE  00 00 00 00 00 00 00 00 00 00 00 00 00 00 00 00  |................|
 D70E  00 00 00 00 00 00 00 00 00 00 00 00 00 00 00 00  |................|
 D71E  00 00 00 00 00 00 00 00 00 00 00 00 00 00 00 00  |................|
 D72E  00 00 00 00 00 00 00 00 00 00 00 00 00 00 00 00  |................|
 D73E  00 00 00 00 00 00 00 00 00 00 00 00 00 00 00 00  |................|
 D74E  00 00 00 00 00 00 00 00 00 00 00 00 00 00 00 00  |................|
 D75E  00 00 00 00 00 00 00 00 00 00 00 00 00 00 00 00  |................|
 D76E  00 00 00 00 00 00 00 00 00 00 00 00 00 00 00 00  |................|
 D77E  00 00 00 00 00 00 00 00 00 00 00 00 00 00 00 00  |................|
 D78E  00 00 00 00 00 00 00 00 00 00 00 00 00 00 00 00  |................|
 D79E  00 00 00 00 00 00 00 00 00 00 00 00 00 00 00 00  |................|
 D7AE  00 00 00 00 00 00 00 00 00 00 00 00 00 00 00 00  |................|
 D7BE  00 00 00 00 00 00 00 00 00 00 00 00 00 00 00 00  |................|
 D7CE  00 00 00 00 00 00 00 00 00 00 00 00 00 00 00 00  |................|
 D7DE  00 00 00 00 00 00 00 00 00 00 00 00 00 00 00 00  |................|
 D7EE  00 00 00 00 00 00 00 00 00 00 00 00 00 00 00 00  |................|
 D7FE  00 00 00 00 00 00 00 00 00 00 00 00 00 00 00 00  |................|
 D80E  00 00 00 00 00 00 00 00 00 00 00 00 00 00 00 00  |................|
 D81E  00 00 00 00 00 00 00 00 00 00 00 00 00 00 00 00  |................|
 D82E  00 00 00 00 00 00 00 00 00 00 00 00 00 00 00 00  |................|
 D83E  00 00 00 00 00 00 00 00 00 00 00 00 00 00 00 00  |................|
 D84E  00 00 00 00 00 00 00 00 00 00 00 00 00 00 00 00  |................|
 D85E  00 00 00 00 00 00 00 00 00 00 00 00 00 00 00 00  |................|
 D86E  00 00 00 00 00 00 00 00 00 00 00 00 00 00 00 00  |................|
 D87E  00 00 00 00 00 00 00 00 00 00 00 00 00 00 00 00  |................|
 D88E  00 00 00 00 00 00 00 00 00 00 00 00 00 00 00 00  |................|
 D89E  00 00 00 00 00 00 00 00 00 00 00 00 00 00 00 00  |................|
 D8AE  00 00 00 00 00 00 00 00 00 00 00 00 00 00 00 00  |................|
 D8BE  00 00 00 00 00 00 00 00 00 00 00 00 00 00 00 00  |................|
 D8CE  00 00 00 00 00 00 00 00 00 00 00 00 00 00 00 00  |................|
 D8DE  00 00 00 00 00 00 00 00 00 00 00 00 00 00 00 00  |................|
 D8EE  00 00 00 00 00 00 00 00 00 00 00 00 00 00 00 00  |................|
 D8FE  00 00 00 00 00 00 00 00 00 00 00 00 00 00 00 00  |................|
 D90E  00 00 00 00 00 00 00 00 00 00 00 00 00 00 00 00  |................|
 D91E  00 00 00 00 00 00 00 00 00 00 00 00 00 00 00 00  |................|
 D92E  00 00 00 00 00 00 00 00 00 00 00 00 00 00 00 00  |................|
 D93E  00 00 00 00 00 00 00 00 00 00 00 00 00 00 00 00  |................|
 D94E  00 00 00 00 00 00 00 00 00 00 00 00 00 00 00 00  |................|
 D95E  00 00 00 00 00 00 00 00 00 00 00 00 00 00 00 00  |................|
 D96E  00 00 00 00 00 00 00 00 00 00 00 00 00 00 00 00  |................|
 D97E  00 00 00 00 00 00 00 00 00 00 00 00 00 00 00 00  |................|
 D98E  00 00 00 00 00 00 00 00 00 00 00 00 00 00 00 00  |................|
 D99E  00 00 00 00 00 00 00 00 00 00 00 00 00 00 00 00  |................|
 D9AE  00 00 00 00 00 00 00 00 00 00 00 00 00 00 00 00  |................|
 D9BE  00 00 00 00 00 00 00 00 00 00 00 00 00 00 00 00  |................|
 D9CE  00 00 00 00 00 00 00 00 00 00 00 00 00 00 00 00  |................|
 D9DE  00 00 00 00 00 00 00 00 00 00 00 00 00 00 00 00  |................|
 D9EE  00 00 00 00 00 00 00 00 00 00 00 00 00 00 00 00  |................|
 D9FE  00 00 00 00 00 00 00 00 00 00 00 00 00 00 00 00  |................|
 DA0E  00 00 00 00 00 00 00 00 00 00 00 00 00 00 00 00  |................|
 DA1E  00 00 00 00 00 00 00 00 00 00 00 00 00 00 00 00  |................|
 DA2E  00 00 00 00 00 00 00 00 00 00 00 00 00 00 00 00  |................|
 DA3E  00 00 00 00 00 00 00 00 00 00 00 00 00 00 00 00  |................|
 DA4E  00 00 00 00 00 00 00 00 00 00 00 00 00 00 00 00  |................|
 DA5E  00 00 00 00 00 00 00 00 00 00 00 00 00 00 00 00  |................|
 DA6E  00 00 00 00 00 00 00 00 00 00 00 00 00 00 00 00  |................|
 DA7E  00 00 00 00 00 00 00 00 00 00 00 00 00 00 00 00  |................|
 DA8E  00 00 00 00 00 00 00 00 00 00 00 00 00 00 00 00  |................|
 DA9E  00 00 00 00 00 00 00 00 00 00 00 00 00 00 00 00  |................|
 DAAE  00 00 00 00 00 00 00 00 00 00 00 00 00 00 00 00  |................|
 DABE  00 00 00 00 00 00 00 00 00 00 00 00 00 00 00 00  |................|
 DACE  00 00 00 00 00 00 00 00 00 00 00 00 00 00 00 00  |................|
 DADE  00 00 00 00 00 00 00 00 00 00 00 00 00 00 00 00  |................|
 DAEE  00 00 00 00 00 00 00 00 00 00 00 00 00 00 00 00  |................|
 DAFE  00 00 00 00 00 00 00 00 00 00 00 00 00 00 00 00  |................|
 DB0E  00 00 00 00 00 00 00 00 00 00 00 00 00 00 00 00  |................|
 DB1E  00 00 00 00 00 00 00 00 00 00 00 00 00 00 00 00  |................|
 DB2E  00 00 00 00 00 00 00 00 00 00 00 00 00 00 00 00  |................|
 DB3E  00 00 00 00 00 00 00 00 00 00 00 00 00 00 00 00  |................|
 DB4E  00 00 00 00 00 00 00 00 00 00 00 00 00 00 00 00  |................|
 DB5E  00 00 00 00 00 00 00 00 00 00 00 00 00 00 00 00  |................|
 DB6E  00 00 00 00 00 00 00 00 00 00 00 00 00 00 00 00  |................|
 DB7E  00 00 00 00 00 00 00 00 00 00 00 00 00 00 00 00  |................|
 DB8E  00 00 00 00 00 00 00 00 00 00 00 00 00 00 00 00  |................|
 DB9E  00 00 00 00 00 00 00 00 00 00 00 00 00 00 00 00  |................|
 DBAE  00 00 00 00 00 00 00 00 00 00 00 00 00 00 00 00  |................|
 DBBE  00 00 00 00 00 00 00 00 00 00 00 00 00 00 00 00  |................|
 DBCE  00 00 00 00 00 00 00 00 00 00 00 00 00 00 00 00  |................|
 DBDE  00 00 00 00 00 00 00 00 00 00 00 00 00 00 00 00  |................|
 DBEE  00 00 00 00 00 00 00 00 00 00 00 00 00 00 00 00  |................|
 DBFE  00 00 00 00 00 00 00 00 00 00 00 00 00 00 00 00  |................|
 DC0E  00 00 00 00 00 00 00 00 00 00 00 00 00 00 00 00  |................|
 DC1E  00 00 00 00 00 00 00 00 00 00 00 00 00 00 00 00  |................|
 DC2E  00 00 00 00 00 00 00 00 00 00 00 00 00 00 00 00  |................|
 DC3E  00 00 00 00 00 00 00 00 00 00 00 00 00 00 00 00  |................|
 DC4E  00 00 00 00 00 00 00 00 00 00 00 00 00 00 00 00  |................|
 DC5E  00 00 00 00 00 00 00 00 00 00 00 00 00 00 00 00  |................|
 DC6E  00 00 00 00 00 00 00 00 00 00 00 00 00 00 00 00  |................|
 DC7E  00 00 00 00 00 00 00 00 00 00 00 00 00 00 00 00  |................|
 DC8E  00 00 00 00 00 00 00 00 00 00 00 00 00 00 00 00  |................|
 DC9E  00 00 00 00 00 00 00 00 00 00 00 00 00 00 00 00  |................|
 DCAE  00 00 00 00 00 00 00 00 00 00 00 00 00 00 00 00  |................|
 DCBE  00 00 00 00 00 00 00 00 00 00 00 00 00 00 00 00  |................|
 DCCE  00 00 00 00 00 00 00 00 00 00 00 00 00 00 00 00  |................|
 DCDE  00 00 00 00 00 00 00 00 00 00 00 00 00 00 00 00  |................|
 DCEE  00 00 00 00 00 00 00 00 00 00 00 00 00 00 00 00  |................|
 DCFE  00 00 00 00 00 00 00 00 00 00 00 00 00 00 00 00  |................|
 DD0E  00 00 00 00 00 00 00 00 00 00 00 00 00 00 00 00  |................|
 DD1E  00 00 00 00 00 00 00 00 00 00 00 00 00 00 00 00  |................|
 DD2E  00 00 00 00 00 00 00 00 00 00 00 00 00 00 00 00  |................|
 DD3E  00 00 00 00 00 00 00 00 00 00 00 00 00 00 00 00  |................|
 DD4E  00 00 00 00 00 00 00 00 00 00 00 00 00 00 00 00  |................|
 DD5E  00 00 00 00 00 00 00 00 00 00 00 00 00 00 00 00  |................|
 DD6E  00 00 00 00 00 00 00 00 00 00 00 00 00 00 00 00  |................|
 DD7E  00 00 00 00 00 00 00 00 00 00 00 00 00 00 00 00  |................|
 DD8E  00 00 00 00 00 00 00 00 00 00 00 00 00 00 00 00  |................|
 DD9E  00 00 00 00 00 00 00 00 00 00 00 00 00 00 00 00  |................|
 DDAE  00 00 00 00 00 00 00 00 00 00 00 00 00 00 00 00  |................|
 DDBE  00 00 00 00 00 00 00 00 00 00 00 00 00 00 00 00  |................|
 DDCE  00 00 00 00 00 00 00 00 00 00 00 00 00 00 00 00  |................|
 DDDE  00 00 00 00 00 00 00 00 00 00 00 00 00 00 00 00  |................|
 DDEE  00 00 00 00 00 00 00 00 00 00 00 00 00 00 00 00  |................|
 DDFE  00 00 00 00 00 00 00 00 00 00 00 00 00 00 00 00  |................|
 DE0E  00 00 00 00 00 00 00 00 00 00 00 00 00 00 00 00  |................|
 DE1E  00 00 00 00 00 00 00 00 00 00 00 00 00 00 00 00  |................|
 DE2E  00 00 00 00 00 00 00 00 00 00 00 00 00 00 00 00  |................|
 DE3E  00 00 00 00 00 00 00 00 00 00 00 00 00 00 00 00  |................|
 DE4E  00 00 00 00 00 00 00 00 00 00 00 00 00 00 00 00  |................|
 DE5E  00 00 00 00 00 00 00 00 00 00 00 00 00 00 00 00  |................|
 DE6E  00 00 00 00 00 00 00 00 00 00 00 00 00 00 00 00  |................|
 DE7E  00 00 00 00 00 00 00 00 00 00 00 00 00 00 00 00  |................|
 DE8E  00 00 00 00 00 00 00 00 00 00 00 00 00 00 00 00  |................|
 DE9E  00 00 00 00 00 00 00 00 00 00 00 00 00 00 00 00  |................|
 DEAE  00 00 00 00 00 00 00 00 00 00 00 00 00 00 00 00  |................|
 DEBE  00 00 00 00 00 00 00 00 00 00 00 00 00 00 00 00  |................|
 DECE  00 00 00 00 00 00 00 00 00 00 00 00 00 00 00 00  |................|
 DEDE  00 00 00 00 00 00 00 00 00 00 00 00 00 00 00 00  |................|
 DEEE  00 00 00 00 00 00 00 00 00 00 00 00 00 00 00 00  |................|
 DEFE  00 00 00 00 00 00 00 00 00 00 00 00 00 00 00 00  |................|
 DF0E  00 00 00 00 00 00 00 00 00 00 00 00 00 00 00 00  |................|
 DF1E  00 00 00 00 00 00 00 00 00 00 00 00 00 00 00 00  |................|
 DF2E  00 00 00 00 00 00 00 00 00 00 00 00 00 00 00 00  |................|
 DF3E  00 00 00 00 00 00 00 00 00 00 00 00 00 00 00 00  |................|
 DF4E  00 00 00 00 00 00 00 00 00 00 00 00 00 00 00 00  |................|
 DF5E  00 00 00 00 00 00 00 00 00 00 00 00 00 00 00 00  |................|
 DF6E  00 00 00 00 00 00 00 00 00 00 00 00 00 00 00 00  |................|
 DF7E  00 00 00 00 00 00 00 00 00 00 00 00 00 00 00 00  |................|
 DF8E  00 00 00 00 00 00 00 00 00 00 00 00 00 00 00 00  |................|
 DF9E  00 00 00 00 00 00 00 00 00 00 00 00 00 00 00 00  |................|
 DFAE  00 00 00 00 00 00 00 00 00 00 00 00 00 00 00 00  |................|
 DFBE  00 00 00 00 00 00 00 00 00 00 00 00 00 00 00 00  |................|
 DFCE  00 00 00 00 00 00 00 00 00 00 00 00 00 00 00 00  |................|
 DFDE  00 00 00 00 00 00 00 00 00 00 00 00 00 00 00 00  |................|
 DFEE  00 00 00 00 00 00 00 00 00 00 00 00 00 00 00 00  |................|
 DFFE  00 00 00 00 00 00 00 00 00 00 00 00 00 00 00 00  |................|
 E00E  00 00 00 00 00 00 00 00 00 00 00 00 00 00 00 00  |................|
 E01E  00 00 00 00 00 00 00 00 00 00 00 00 00 00 00 00  |................|
 E02E  00 00 00 00 00 00 00 00 00 00 00 00 00 00 00 00  |................|
 E03E  00 00 00 00 00 00 00 00 00 00 00 00 00 00 00 00  |................|
 E04E  00 00 00 00 00 00 00 00 00 00 00 00 00 00 00 00  |................|
 E05E  00 00 00 00 00 00 00 00 00 00 00 00 00 00 00 00  |................|
 E06E  00 00 00 00 00 00 00 00 00 00 00 00 00 00 00 00  |................|
 E07E  00 00 00 00 00 00 00 00 00 00 00 00 00 00 00 00  |................|
 E08E  00 00 00 00 00 00 00 00 00 00 00 00 00 00 00 00  |................|
 E09E  00 00 00 00 00 00 00 00 00 00 00 00 00 00 00 00  |................|
 E0AE  00 00 00 00 00 00 00 00 00 00 00 00 00 00 00 00  |................|
 E0BE  00 00 00 00 00 00 00 00 00 00 00 00 00 00 00 00  |................|
 E0CE  00 00 00 00 00 00 00 00 00 00 00 00 00 00 00 00  |................|
 E0DE  00 00 00 00 00 00 00 00 00 00 00 00 00 00 00 00  |................|
 E0EE  00 00 00 00 00 00 00 00 00 00 00 00 00 00 00 00  |................|
 E0FE  00 00 00 00 00 00 00 00 00 00 00 00 00 00 00 00  |................|
 E10E  00 00 00 00 00 00 00 00 00 00 00 00 00 00 00 00  |................|
 E11E  00 00 00 00 00 00 00 00 00 00 00 00 00 00 00 00  |................|
 E12E  00 00 00 00 00 00 00 00 00 00 00 00 00 00 00 00  |................|
 E13E  00 00 00 00 00 00 00 00 00 00 00 00 00 00 00 00  |................|
 E14E  00 00 00 00 00 00 00 00 00 00 00 00 00 00 00 00  |................|
 E15E  00 00 00 00 00 00 00 00 00 00 00 00 00 00 00 00  |................|
 E16E  00 00 00 00 00 00 00 00 00 00 00 00 00 00 00 00  |................|
 E17E  00 00 00 00 00 00 00 00 00 00 00 00 00 00 00 00  |................|
 E18E  00 00 00 00 00 00 00 00 00 00 00 00 00 00 00 00  |................|
 E19E  00 00 00 00 00 00 00 00 00 00 00 00 00 00 00 00  |................|
 E1AE  00 00 00 00 00 00 00 00 00 00 00 00 00 00 00 00  |................|
 E1BE  00 00 00 00 00 00 00 00 00 00 00 00 00 00 00 00  |................|
 E1CE  00 00 00 00 00 00 00 00 00 00 00 00 00 00 00 00  |................|
 E1DE  00 00 00 00 00 00 00 00 00 00 00 00 00 00 00 00  |................|
 E1EE  00 00 00 00 00 00 00 00 00 00 00 00 00 00 00 00  |................|
 E1FE  00 00 00 00 00 00 00 00 00 00 00 00 00 00 00 00  |................|
 E20E  00 00 00 00 00 00 00 00 00 00 00 00 00 00 00 00  |................|
 E21E  00 00 00 00 00 00 00 00 00 00 00 00 00 00 00 00  |................|
 E22E  00 00 00 00 00 00 00 00 00 00 00 00 00 00 00 00  |................|
 E23E  00 00 00 00 00 00 00 00 00 00 00 00 00 00 00 00  |................|
 E24E  00 00 00 00 00 00 00 00 00 00 00 00 00 00 00 00  |................|
 E25E  00 00 00 00 00 00 00 00 00 00 00 00 00 00 00 00  |................|
 E26E  00 00 00 00 00 00 00 00 00 00 00 00 00 00 00 00  |................|
 E27E  00 00 00 00 00 00 00 00 00 00 00 00 00 00 00 00  |................|
 E28E  00 00 00 00 00 00 00 00 00 00 00 00 00 00 00 00  |................|
 E29E  00 00 00 00 00 00 00 00 00 00 00 00 00 00 00 00  |................|
 E2AE  00 00 00 00 00 00 00 00 00 00 00 00 00 00 00 00  |................|
 E2BE  00 00 00 00 00 00 00 00 00 00 00 00 00 00 00 00  |................|
 E2CE  00 00 00 00 00 00 00 00 00 00 00 00 00 00 00 00  |................|
 E2DE  00 00 00 00 00 00 00 00 00 00 00 00 00 00 00 00  |................|
 E2EE  00 00 00 00 00 00 00 00 00 00 00 00 00 00 00 00  |................|
 E2FE  00 00 00 00 00 00 00 00 00 00 00 00 00 00 00 00  |................|
 E30E  00 00 00 00 00 00 00 00 00 00 00 00 00 00 00 00  |................|
 E31E  00 00 00 00 00 00 00 00 00 00 00 00 00 00 00 00  |................|
 E32E  00 00 00 00 00 00 00 00 00 00 00 00 00 00 00 00  |................|
 E33E  00 00 00 00 00 00 00 00 00 00 00 00 00 00 00 00  |................|
 E34E  00 00 00 00 00 00 00 00 00 00 00 00 00 00 00 00  |................|
 E35E  00 00 00 00 00 00 00 00 00 00 00 00 00 00 00 00  |................|
 E36E  00 00 00 00 00 00 00 00 00 00 00 00 00 00 00 00  |................|
 E37E  00 00 00 00 00 00 00 00 00 00 00 00 00 00 00 00  |................|
 E38E  00 00 00 00 00 00 00 00 00 00 00 00 00 00 00 00  |................|
 E39E  00 00 00 00 00 00 00 00 00 00 00 00 00 00 00 00  |................|
 E3AE  00 00 00 00 00 00 00 00 00 00 00 00 00 00 00 00  |................|
 E3BE  00 00 00 00 00 00 00 00 00 00 00 00 00 00 00 00  |................|
 E3CE  00 00 00 00 00 00 00 00 00 00 00 00 00 00 00 00  |................|
 E3DE  00 00 00 00 00 00 00 00 00 00 00 00 00 00 00 00  |................|
 E3EE  00 00 00 00 00 00 00 00 00 00 00 00 00 00 00 00  |................|
 E3FE  00 00 00 00 00 00 00 00 00 00 00 00 00 00 00 00  |................|
 E40E  00 00 00 00 00 00 00 00 00 00 00 00 00 00 00 00  |................|
 E41E  00 00 00 00 00 00 00 00 00 00 00 00 00 00 00 00  |................|
 E42E  00 00 00 00 00 00 00 00 00 00 00 00 00 00 00 00  |................|
 E43E  00 00 00 00 00 00 00 00 00 00 00 00 00 00 00 00  |................|
 E44E  00 00 00 00 00 00 00 00 00 00 00 00 00 00 00 00  |................|
 E45E  00 00 00 00 00 00 00 00 00 00 00 00 00 00 00 00  |................|
 E46E  00 00 00 00 00 00 00 00 00 00 00 00 00 00 00 00  |................|
 E47E  00 00 00 00 00 00 00 00 00 00 00 00 00 00 00 00  |................|
 E48E  00 00 00 00 00 00 00 00 00 00 00 00 00 00 00 00  |................|
 E49E  00 00 00 00 00 00 00 00 00 00 00 00 00 00 00 00  |................|
 E4AE  00 00 00 00 00 00 00 00 00 00 00 00 00 00 00 00  |................|
 E4BE  00 00 00 00 00 00 00 00 00 00 00 00 00 00 00 00  |................|
 E4CE  00 00 00 00 00 00 00 00 00 00 00 00 00 00 00 00  |................|
 E4DE  00 00 00 00 00 00 00 00 00 00 00 00 00 00 00 00  |................|
 E4EE  00 00 00 00 00 00 00 00 00 00 00 00 00 00 00 00  |................|
 E4FE  00 00 00 00 00 00 00 00 00 00 00 00 00 00 00 00  |................|
 E50E  00 00 00 00 00 00 00 00 00 00 00 00 00 00 00 00  |................|
 E51E  00 00 00 00 00 00 00 00 00 00 00 00 00 00 00 00  |................|
 E52E  00 00 00 00 00 00 00 00 00 00 00 00 00 00 00 00  |................|
 E53E  00 00 00 00 00 00 00 00 00 00 00 00 00 00 00 00  |................|
 E54E  00 00 00 00 00 00 00 00 00 00 00 00 00 00 00 00  |................|
 E55E  00 00 00 00 00 00 00 00 00 00 00 00 00 00 00 00  |................|
 E56E  00 00 00 00 00 00 00 00 00 00 00 00 00 00 00 00  |................|
 E57E  00 00 00 00 00 00 00 00 00 00 00 00 00 00 00 00  |................|
 E58E  00 00 00 00 00 00 00 00 00 00 00 00 00 00 00 00  |................|
 E59E  00 00 00 00 00 00 00 00 00 00 00 00 00 00 00 00  |................|
 E5AE  00 00 00 00 00 00 00 00 00 00 00 00 00 00 00 00  |................|
 E5BE  00 00 00 00 00 00 00 00 00 00 00 00 00 00 00 00  |................|
 E5CE  00 00 00 00 00 00 00 00 00 00 00 00 00 00 00 00  |................|
 E5DE  00 00 00 00 00 00 00 00 00 00 00 00 00 00 00 00  |................|
 E5EE  00 00 00 00 00 00 00 00 00 00 00 00 00 00 00 00  |................|
 E5FE  00 00 00 00 00 00 00 00 00 00 00 00 00 00 00 00  |................|
 E60E  00 00 00 00 00 00 00 00 00 00 00 00 00 00 00 00  |................|
 E61E  00 00 00 00 00 00 00 00 00 00 00 00 00 00 00 00  |................|
 E62E  00 00 00 00 00 00 00 00 00 00 00 00 00 00 00 00  |................|
 E63E  00 00 00 00 00 00 00 00 00 00 00 00 00 00 00 00  |................|
 E64E  00 00 00 00 00 00 00 00 00 00 00 00 00 00 00 00  |................|
 E65E  00 00 00 00 00 00 00 00 00 00 00 00 00 00 00 00  |................|
 E66E  00 00 00 00 00 00 00 00 00 00 00 00 00 00 00 00  |................|
 E67E  00 00 00 00 00 00 00 00 00 00 00 00 00 00 00 00  |................|
 E68E  00 00 00 00 00 00 00 00 00 00 00 00 00 00 00 00  |................|
 E69E  00 00 00 00 00 00 00 00 00 00 00 00 00 00 00 00  |................|
 E6AE  00 00 00 00 00 00 00 00 00 00 00 00 00 00 00 00  |................|
 E6BE  00 00 00 00 00 00 00 00 00 00 00 00 00 00 00 00  |................|
 E6CE  00 00 00 00 00 00 00 00 00 00 00 00 00 00 00 00  |................|
 E6DE  00 00 00 00 00 00 00 00 00 00 00 00 00 00 00 00  |................|
 E6EE  00 00 00 00 00 00 00 00 00 00 00 00 00 00 00 00  |................|
 E6FE  00 00 00 00 00 00 00 00 00 00 00 00 00 00 00 00  |................|
 E70E  00 00 00 00 00 00 00 00 00 00 00 00 00 00 00 00  |................|
 E71E  00 00 00 00 00 00 00 00 00 00 00 00 00 00 00 00  |................|
 E72E  00 00 00 00 00 00 00 00 00 00 00 00 00 00 00 00  |................|
 E73E  00 00 00 00 00 00 00 00 00 00 00 00 00 00 00 00  |................|
 E74E  00 00 00 00 00 00 00 00 00 00 00 00 00 00 00 00  |................|
 E75E  00 00 00 00 00 00 00 00 00 00 00 00 00 00 00 00  |................|
 E76E  00 00 00 00 00 00 00 00 00 00 00 00 00 00 00 00  |................|
 E77E  00 00 00 00 00 00 00 00 00 00 00 00 00 00 00 00  |................|
 E78E  00 00 00 00 00 00 00 00 00 00 00 00 00 00 00 00  |................|
 E79E  00 00 00 00 00 00 00 00 00 00 00 00 00 00 00 00  |................|
 E7AE  00 00 00 00 00 00 00 00 00 00 00 00 00 00 00 00  |................|
 E7BE  00 00 00 00 00 00 00 00 00 00 00 00 00 00 00 00  |................|
 E7CE  00 00 00 00 00 00 00 00 00 00 00 00 00 00 00 00  |................|
 E7DE  00 00 00 00 00 00 00 00 00 00 00 00 00 00 00 00  |................|
 E7EE  00 00 00 00 00 00 00 00 00 00 00 00 00 00 00 00  |................|
 E7FE  00 00 00 00 00 00 00 00 00 00 00 00 00 00 00 00  |................|
 E80E  00 00 00 00 00 00 00 00 00 00 00 00 00 00 00 00  |................|
 E81E  00 00 00 00 00 00 00 00 00 00 00 00 00 00 00 00  |................|
 E82E  00 00 00 00 00 00 00 00 00 00 00 00 00 00 00 00  |................|
 E83E  00 00 00 00 00 00 00 00 00 00 00 00 00 00 00 00  |................|
 E84E  00 00 00 00 00 00 00 00 00 00 00 00 00 00 00 00  |................|
 E85E  00 00 00 00 00 00 00 00 00 00 00 00 00 00 00 00  |................|
 E86E  00 00 00 00 00 00 00 00 00 00 00 00 00 00 00 00  |................|
 E87E  00 00 00 00 00 00 00 00 00 00 00 00 00 00 00 00  |................|
 E88E  00 00 00 00 00 00 00 00 00 00 00 00 00 00 00 00  |................|
 E89E  00 00 00 00 00 00 00 00 00 00 00 00 00 00 00 00  |................|
 E8AE  00 00 00 00 00 00 00 00 00 00 00 00 00 00 00 00  |................|
 E8BE  00 00 00 00 00 00 00 00 00 00 00 00 00 00 00 00  |................|
 E8CE  00 00 00 00 00 00 00 00 00 00 00 00 00 00 00 00  |................|
 E8DE  00 00 00 00 00 00 00 00 00 00 00 00 00 00 00 00  |................|
 E8EE  00 00 00 00 00 00 00 00 00 00 00 00 00 00 00 00  |................|
 E8FE  00 00 00 00 00 00 00 00 00 00 00 00 00 00 00 00  |................|
 E90E  00 00 00 00 00 00 00 00 00 00 00 00 00 00 00 00  |................|
 E91E  00 00 00 00 00 00 00 00 00 00 00 00 00 00 00 00  |................|
 E92E  00 00 00 00 00 00 00 00 00 00 00 00 00 00 00 00  |................|
 E93E  00 00 00 00 00 00 00 00 00 00 00 00 00 00 00 00  |................|
 E94E  00 00 00 00 00 00 00 00 00 00 00 00 00 00 00 00  |................|
 E95E  00 00 00 00 00 00 00 00 00 00 00 00 00 00 00 00  |................|
 E96E  00 00 00 00 00 00 00 00 00 00 00 00 00 00 00 00  |................|
 E97E  00 00 00 00 00 00 00 00 00 00 00 00 00 00 00 00  |................|
 E98E  00 00 00 00 00 00 00 00 00 00 00 00 00 00 00 00  |................|
 E99E  00 00 00 00 00 00 00 00 00 00 00 00 00 00 00 00  |................|
 E9AE  00 00 00 00 00 00 00 00 00 00 00 00 00 00 00 00  |................|
 E9BE  00 00 00 00 00 00 00 00 00 00 00 00 00 00 00 00  |................|
 E9CE  00 00 00 00 00 00 00 00 00 00 00 00 00 00 00 00  |................|
 E9DE  00 00 00 00 00 00 00 00 00 00 00 00 00 00 00 00  |................|
 E9EE  00 00 00 00 00 00 00 00 00 00 00 00 00 00 00 00  |................|
 E9FE  00 00 00 00 00 00 00 00 00 00 00 00 00 00 00 00  |................|
 EA0E  00 00 00 00 00 00 00 00 00 00 00 00 00 00 00 00  |................|
 EA1E  00 00 00 00 00 00 00 00 00 00 00 00 00 00 00 00  |................|
 EA2E  00 00 00 00 00 00 00 00 00 00 00 00 00 00 00 00  |................|
 EA3E  00 00 00 00 00 00 00 00 00 00 00 00 00 00 00 00  |................|
 EA4E  00 00 00 00 00 00 00 00 00 00 00 00 00 00 00 00  |................|
 EA5E  00 00 00 00 00 00 00 00 00 00 00 00 00 00 00 00  |................|
 EA6E  00 00 00 00 00 00 00 00 00 00 00 00 00 00 00 00  |................|
 EA7E  00 00 00 00 00 00 00 00 00 00 00 00 00 00 00 00  |................|
 EA8E  00 00 00 00 00 00 00 00 00 00 00 00 00 00 00 00  |................|
 EA9E  00 00 00 00 00 00 00 00 00 00 00 00 00 00 00 00  |................|
 EAAE  00 00 00 00 00 00 00 00 00 00 00 00 00 00 00 00  |................|
 EABE  00 00 00 00 00 00 00 00 00 00 00 00 00 00 00 00  |................|
 EACE  00 00 00 00 00 00 00 00 00 00 00 00 00 00 00 00  |................|
 EADE  00 00 00 00 00 00 00 00 00 00 00 00 00 00 00 00  |................|
 EAEE  00 00 00 00 00 00 00 00 00 00 00 00 00 00 00 00  |................|
 EAFE  00 00 00 00 00 00 00 00 00 00 00 00 00 00 00 00  |................|
 EB0E  00 00 00 00 00 00 00 00 00 00 00 00 00 00 00 00  |................|
 EB1E  00 00 00 00 00 00 00 00 00 00 00 00 00 00 00 00  |................|
 EB2E  00 00 00 00 00 00 00 00 00 00 00 00 00 00 00 00  |................|
 EB3E  00 00 00 00 00 00 00 00 00 00 00 00 00 00 00 00  |................|
 EB4E  00 00 00 00 00 00 00 00 00 00 00 00 00 00 00 00  |................|
 EB5E  00 00 00 00 00 00 00 00 00 00 00 00 00 00 00 00  |................|
 EB6E  00 00 00 00 00 00 00 00 00 00 00 00 00 00 00 00  |................|
 EB7E  00 00 00 00 00 00 00 00 00 00 00 00 00 00 00 00  |................|
 EB8E  00 00 00 00 00 00 00 00 00 00 00 00 00 00 00 00  |................|
 EB9E  00 00 00 00 00 00 00 00 00 00 00 00 00 00 00 00  |................|
 EBAE  00 00 00 00 00 00 00 00 00 00 00 00 00 00 00 00  |................|
 EBBE  00 00 00 00 00 00 00 00 00 00 00 00 00 00 00 00  |................|
 EBCE  00 00 00 00 00 00 00 00 00 00 00 00 00 00 00 00  |................|
 EBDE  00 00 00 00 00 00 00 00 00 00 00 00 00 00 00 00  |................|
 EBEE  00 00 00 00 00 00 00 00 00 00 00 00 00 00 00 00  |................|
 EBFE  00 00 00 00 00 00 00 00 00 00 00 00 00 00 00 00  |................|
 EC0E  00 00 00 00 00 00 00 00 00 00 00 00 00 00 00 00  |................|
 EC1E  00 00 00 00 00 00 00 00 00 00 00 00 00 00 00 00  |................|
 EC2E  00 00 00 00 00 00 00 00 00 00 00 00 00 00 00 00  |................|
 EC3E  00 00 00 00 00 00 00 00 00 00 00 00 00 00 00 00  |................|
 EC4E  00 00 00 00 00 00 00 00 00 00 00 00 00 00 00 00  |................|
 EC5E  00 00 00 00 00 00 00 00 00 00 00 00 00 00 00 00  |................|
 EC6E  00 00 00 00 00 00 00 00 00 00 00 00 00 00 00 00  |................|
 EC7E  00 00 00 00 00 00 00 00 00 00 00 00 00 00 00 00  |................|
 EC8E  00 00 00 00 00 00 00 00 00 00 00 00 00 00 00 00  |................|
 EC9E  00 00 00 00 00 00 00 00 00 00 00 00 00 00 00 00  |................|
 ECAE  00 00 00 00 00 00 00 00 00 00 00 00 00 00 00 00  |................|
 ECBE  00 00 00 00 00 00 00 00 00 00 00 00 00 00 00 00  |................|
 ECCE  00 00 00 00 00 00 00 00 00 00 00 00 00 00 00 00  |................|
 ECDE  00 00 00 00 00 00 00 00 00 00 00 00 00 00 00 00  |................|
 ECEE  00 00 00 00 00 00 00 00 00 00 00 00 00 00 00 00  |................|
 ECFE  00 00 00 00 00 00 00 00 00 00 00 00 00 00 00 00  |................|
 ED0E  00 00 00 00 00 00 00 00 00 00 00 00 00 00 00 00  |................|
 ED1E  00 00 00 00 00 00 00 00 00 00 00 00 00 00 00 00  |................|
 ED2E  00 00 00 00 00 00 00 00 00 00 00 00 00 00 00 00  |................|
 ED3E  00 00 00 00 00 00 00 00 00 00 00 00 00 00 00 00  |................|
 ED4E  00 00 00 00 00 00 00 00 00 00 00 00 00 00 00 00  |................|
 ED5E  00 00 00 00 00 00 00 00 00 00 00 00 00 00 00 00  |................|
 ED6E  00 00 00 00 00 00 00 00 00 00 00 00 00 00 00 00  |................|
 ED7E  00 00 00 00 00 00 00 00 00 00 00 00 00 00 00 00  |................|
 ED8E  00 00 00 00 00 00 00 00 00 00 00 00 00 00 00 00  |................|
 ED9E  00 00 00 00 00 00 00 00 00 00 00 00 00 00 00 00  |................|
 EDAE  00 00 00 00 00 00 00 00 00 00 00 00 00 00 00 00  |................|
 EDBE  00 00 00 00 00 00 00 00 00 00 00 00 00 00 00 00  |................|
 EDCE  00 00 00 00 00 00 00 00 00 00 00 00 00 00 00 00  |................|
 EDDE  00 00 00 00 00 00 00 00 00 00 00 00 00 00 00 00  |................|
 EDEE  00 00 00 00 00 00 00 00 00 00 00 00 00 00 00 00  |................|
 EDFE  00 00 00 00 00 00 00 00 00 00 00 00 00 00 00 00  |................|
 EE0E  00 00 00 00 00 00 00 00 00 00 00 00 00 00 00 00  |................|
 EE1E  00 00 00 00 00 00 00 00 00 00 00 00 00 00 00 00  |................|
 EE2E  00 00 00 00 00 00 00 00 00 00 00 00 00 00 00 00  |................|
 EE3E  00 00 00 00 00 00 00 00 00 00 00 00 00 00 00 00  |................|
 EE4E  00 00 00 00 00 00 00 00 00 00 00 00 00 00 00 00  |................|
 EE5E  00 00 00 00 00 00 00 00 00 00 00 00 00 00 00 00  |................|
 EE6E  00 00 00 00 00 00 00 00 00 00 00 00 00 00 00 00  |................|
 EE7E  00 00 00 00 00 00 00 00 00 00 00 00 00 00 00 00  |................|
 EE8E  00 00 00 00 00 00 00 00 00 00 00 00 00 00 00 00  |................|
 EE9E  00 00 00 00 00 00 00 00 00 00 00 00 00 00 00 00  |................|
 EEAE  00 00 00 00 00 00 00 00 00 00 00 00 00 00 00 00  |................|
 EEBE  00 00 00 00 00 00 00 00 00 00 00 00 00 00 00 00  |................|
 EECE  00 00 00 00 00 00 00 00 00 00 00 00 00 00 00 00  |................|
 EEDE  00 00 00 00 00 00 00 00 00 00 00 00 00 00 00 00  |................|
 EEEE  00 00 00 00 00 00 00 00 00 00 00 00 00 00 00 00  |................|
 EEFE  00 00 00 00 00 00 00 00 00 00 00 00 00 00 00 00  |................|
 EF0E  00 00 00 00 00 00 00 00 00 00 00 00 00 00 00 00  |................|
 EF1E  00 00 00 00 00 00 00 00 00 00 00 00 00 00 00 00  |................|
 EF2E  00 00 00 00 00 00 00 00 00 00 00 00 00 00 00 00  |................|
 EF3E  00 00 00 00 00 00 00 00 00 00 00 00 00 00 00 00  |................|
 EF4E  00 00 00 00 00 00 00 00 00 00 00 00 00 00 00 00  |................|
 EF5E  00 00 00 00 00 00 00 00 00 00 00 00 00 00 00 00  |................|
 EF6E  00 00 00 00 00 00 00 00 00 00 00 00 00 00 00 00  |................|
 EF7E  00 00 00 00 00 00 00 00 00 00 00 00 00 00 00 00  |................|
 EF8E  00 00 00 00 00 00 00 00 00 00 00 00 00 00 00 00  |................|
 EF9E  00 00 00 00 00 00 00 00 00 00 00 00 00 00 00 00  |................|
 EFAE  00 00 00 00 00 00 00 00 00 00 00 00 00 00 00 00  |................|
 EFBE  00 00 00 00 00 00 00 00 00 00 00 00 00 00 00 00  |................|
 EFCE  00 00 00 00 00 00 00 00 00 00 00 00 00 00 00 00  |................|
 EFDE  00 00 00 00 00 00 00 00 00 00 00 00 00 00 00 00  |................|
 EFEE  00 00 00 00 00 00 00 00 00 00 00 00 00 00 00 00  |................|
 EFFE  00 00 00 00 00 00 00 00 00 00 00 00 00 00 00 00  |................|
 F00E  00 00                                            |..              |
 F010  78        SEI  
 F011  A2 00     LDX  #$00
 F013  BD 2B F0  LDA  $F02B, X
 F016  F0 06     BEQ  $F01E
 F018  20 27 F0  JSR  $F027
 F01B  E8        INX  
 F01C  80 F5     BRA  $F013
 F01E  4C 00 80  JMP  $8000
 F021  AD 04 F0  LDA  $F004
 F024  F0 FB     BEQ  $F021
 F026  60        RTS  
 F027  8D 01 F0  STA  $F001
 F02A  60        RTS  
 F02B  54 61 6C 69 20 46 6F 72 74 68 20 32 20 64 65 66  |Tali Forth 2 def|
 F03B  61 75 6C 74 20 6B 65 72 6E 65 6C 20 66 6F 72 20  |ault kernel for |
 F04B  70 79 36 35 6D 6F 6E 20 28 31 38 2E 20 46 65 62  |py65mon (18. Feb|
 F05B  20 32 30 31 38 29 0A 00 00 00 00 00 00 00 00 00  | 2018)..........|
 F06B  00 00 00 00 00 00 00 00 00 00 00 00 00 00 00 00  |................|
 F07B  00 00 00 00 00 00 00 00 00 00 00 00 00 00 00 00  |................|
 F08B  00 00 00 00 00 00 00 00 00 00 00 00 00 00 00 00  |................|
 F09B  00 00 00 00 00 00 00 00 00 00 00 00 00 00 00 00  |................|
 F0AB  00 00 00 00 00 00 00 00 00 00 00 00 00 00 00 00  |................|
 F0BB  00 00 00 00 00 00 00 00 00 00 00 00 00 00 00 00  |................|
 F0CB  00 00 00 00 00 00 00 00 00 00 00 00 00 00 00 00  |................|
 F0DB  00 00 00 00 00 00 00 00 00 00 00 00 00 00 00 00  |................|
 F0EB  00 00 00 00 00 00 00 00 00 00 00 00 00 00 00 00  |................|
 F0FB  00 00 00 00 00 00 00 00 00 00 00 00 00 00 00 00  |................|
 F10B  00 00 00 00 00 00 00 00 00 00 00 00 00 00 00 00  |................|
 F11B  00 00 00 00 00 00 00 00 00 00 00 00 00 00 00 00  |................|
 F12B  00 00 00 00 00 00 00 00 00 00 00 00 00 00 00 00  |................|
 F13B  00 00 00 00 00 00 00 00 00 00 00 00 00 00 00 00  |................|
 F14B  00 00 00 00 00 00 00 00 00 00 00 00 00 00 00 00  |................|
 F15B  00 00 00 00 00 00 00 00 00 00 00 00 00 00 00 00  |................|
 F16B  00 00 00 00 00 00 00 00 00 00 00 00 00 00 00 00  |................|
 F17B  00 00 00 00 00 00 00 00 00 00 00 00 00 00 00 00  |................|
 F18B  00 00 00 00 00 00 00 00 00 00 00 00 00 00 00 00  |................|
 F19B  00 00 00 00 00 00 00 00 00 00 00 00 00 00 00 00  |................|
 F1AB  00 00 00 00 00 00 00 00 00 00 00 00 00 00 00 00  |................|
 F1BB  00 00 00 00 00 00 00 00 00 00 00 00 00 00 00 00  |................|
 F1CB  00 00 00 00 00 00 00 00 00 00 00 00 00 00 00 00  |................|
 F1DB  00 00 00 00 00 00 00 00 00 00 00 00 00 00 00 00  |................|
 F1EB  00 00 00 00 00 00 00 00 00 00 00 00 00 00 00 00  |................|
 F1FB  00 00 00 00 00 00 00 00 00 00 00 00 00 00 00 00  |................|
 F20B  00 00 00 00 00 00 00 00 00 00 00 00 00 00 00 00  |................|
 F21B  00 00 00 00 00 00 00 00 00 00 00 00 00 00 00 00  |................|
 F22B  00 00 00 00 00 00 00 00 00 00 00 00 00 00 00 00  |................|
 F23B  00 00 00 00 00 00 00 00 00 00 00 00 00 00 00 00  |................|
 F24B  00 00 00 00 00 00 00 00 00 00 00 00 00 00 00 00  |................|
 F25B  00 00 00 00 00 00 00 00 00 00 00 00 00 00 00 00  |................|
 F26B  00 00 00 00 00 00 00 00 00 00 00 00 00 00 00 00  |................|
 F27B  00 00 00 00 00 00 00 00 00 00 00 00 00 00 00 00  |................|
 F28B  00 00 00 00 00 00 00 00 00 00 00 00 00 00 00 00  |................|
 F29B  00 00 00 00 00 00 00 00 00 00 00 00 00 00 00 00  |................|
 F2AB  00 00 00 00 00 00 00 00 00 00 00 00 00 00 00 00  |................|
 F2BB  00 00 00 00 00 00 00 00 00 00 00 00 00 00 00 00  |................|
 F2CB  00 00 00 00 00 00 00 00 00 00 00 00 00 00 00 00  |................|
 F2DB  00 00 00 00 00 00 00 00 00 00 00 00 00 00 00 00  |................|
 F2EB  00 00 00 00 00 00 00 00 00 00 00 00 00 00 00 00  |................|
 F2FB  00 00 00 00 00 00 00 00 00 00 00 00 00 00 00 00  |................|
 F30B  00 00 00 00 00 00 00 00 00 00 00 00 00 00 00 00  |................|
 F31B  00 00 00 00 00 00 00 00 00 00 00 00 00 00 00 00  |................|
 F32B  00 00 00 00 00 00 00 00 00 00 00 00 00 00 00 00  |................|
 F33B  00 00 00 00 00 00 00 00 00 00 00 00 00 00 00 00  |................|
 F34B  00 00 00 00 00 00 00 00 00 00 00 00 00 00 00 00  |................|
 F35B  00 00 00 00 00 00 00 00 00 00 00 00 00 00 00 00  |................|
 F36B  00 00 00 00 00 00 00 00 00 00 00 00 00 00 00 00  |................|
 F37B  00 00 00 00 00 00 00 00 00 00 00 00 00 00 00 00  |................|
 F38B  00 00 00 00 00 00 00 00 00 00 00 00 00 00 00 00  |................|
 F39B  00 00 00 00 00 00 00 00 00 00 00 00 00 00 00 00  |................|
 F3AB  00 00 00 00 00 00 00 00 00 00 00 00 00 00 00 00  |................|
 F3BB  00 00 00 00 00 00 00 00 00 00 00 00 00 00 00 00  |................|
 F3CB  00 00 00 00 00 00 00 00 00 00 00 00 00 00 00 00  |................|
 F3DB  00 00 00 00 00 00 00 00 00 00 00 00 00 00 00 00  |................|
 F3EB  00 00 00 00 00 00 00 00 00 00 00 00 00 00 00 00  |................|
 F3FB  00 00 00 00 00 00 00 00 00 00 00 00 00 00 00 00  |................|
 F40B  00 00 00 00 00 00 00 00 00 00 00 00 00 00 00 00  |................|
 F41B  00 00 00 00 00 00 00 00 00 00 00 00 00 00 00 00  |................|
 F42B  00 00 00 00 00 00 00 00 00 00 00 00 00 00 00 00  |................|
 F43B  00 00 00 00 00 00 00 00 00 00 00 00 00 00 00 00  |................|
 F44B  00 00 00 00 00 00 00 00 00 00 00 00 00 00 00 00  |................|
 F45B  00 00 00 00 00 00 00 00 00 00 00 00 00 00 00 00  |................|
 F46B  00 00 00 00 00 00 00 00 00 00 00 00 00 00 00 00  |................|
 F47B  00 00 00 00 00 00 00 00 00 00 00 00 00 00 00 00  |................|
 F48B  00 00 00 00 00 00 00 00 00 00 00 00 00 00 00 00  |................|
 F49B  00 00 00 00 00 00 00 00 00 00 00 00 00 00 00 00  |................|
 F4AB  00 00 00 00 00 00 00 00 00 00 00 00 00 00 00 00  |................|
 F4BB  00 00 00 00 00 00 00 00 00 00 00 00 00 00 00 00  |................|
 F4CB  00 00 00 00 00 00 00 00 00 00 00 00 00 00 00 00  |................|
 F4DB  00 00 00 00 00 00 00 00 00 00 00 00 00 00 00 00  |................|
 F4EB  00 00 00 00 00 00 00 00 00 00 00 00 00 00 00 00  |................|
 F4FB  00 00 00 00 00 00 00 00 00 00 00 00 00 00 00 00  |................|
 F50B  00 00 00 00 00 00 00 00 00 00 00 00 00 00 00 00  |................|
 F51B  00 00 00 00 00 00 00 00 00 00 00 00 00 00 00 00  |................|
 F52B  00 00 00 00 00 00 00 00 00 00 00 00 00 00 00 00  |................|
 F53B  00 00 00 00 00 00 00 00 00 00 00 00 00 00 00 00  |................|
 F54B  00 00 00 00 00 00 00 00 00 00 00 00 00 00 00 00  |................|
 F55B  00 00 00 00 00 00 00 00 00 00 00 00 00 00 00 00  |................|
 F56B  00 00 00 00 00 00 00 00 00 00 00 00 00 00 00 00  |................|
 F57B  00 00 00 00 00 00 00 00 00 00 00 00 00 00 00 00  |................|
 F58B  00 00 00 00 00 00 00 00 00 00 00 00 00 00 00 00  |................|
 F59B  00 00 00 00 00 00 00 00 00 00 00 00 00 00 00 00  |................|
 F5AB  00 00 00 00 00 00 00 00 00 00 00 00 00 00 00 00  |................|
 F5BB  00 00 00 00 00 00 00 00 00 00 00 00 00 00 00 00  |................|
 F5CB  00 00 00 00 00 00 00 00 00 00 00 00 00 00 00 00  |................|
 F5DB  00 00 00 00 00 00 00 00 00 00 00 00 00 00 00 00  |................|
 F5EB  00 00 00 00 00 00 00 00 00 00 00 00 00 00 00 00  |................|
 F5FB  00 00 00 00 00 00 00 00 00 00 00 00 00 00 00 00  |................|
 F60B  00 00 00 00 00 00 00 00 00 00 00 00 00 00 00 00  |................|
 F61B  00 00 00 00 00 00 00 00 00 00 00 00 00 00 00 00  |................|
 F62B  00 00 00 00 00 00 00 00 00 00 00 00 00 00 00 00  |................|
 F63B  00 00 00 00 00 00 00 00 00 00 00 00 00 00 00 00  |................|
 F64B  00 00 00 00 00 00 00 00 00 00 00 00 00 00 00 00  |................|
 F65B  00 00 00 00 00 00 00 00 00 00 00 00 00 00 00 00  |................|
 F66B  00 00 00 00 00 00 00 00 00 00 00 00 00 00 00 00  |................|
 F67B  00 00 00 00 00 00 00 00 00 00 00 00 00 00 00 00  |................|
 F68B  00 00 00 00 00 00 00 00 00 00 00 00 00 00 00 00  |................|
 F69B  00 00 00 00 00 00 00 00 00 00 00 00 00 00 00 00  |................|
 F6AB  00 00 00 00 00 00 00 00 00 00 00 00 00 00 00 00  |................|
 F6BB  00 00 00 00 00 00 00 00 00 00 00 00 00 00 00 00  |................|
 F6CB  00 00 00 00 00 00 00 00 00 00 00 00 00 00 00 00  |................|
 F6DB  00 00 00 00 00 00 00 00 00 00 00 00 00 00 00 00  |................|
 F6EB  00 00 00 00 00 00 00 00 00 00 00 00 00 00 00 00  |................|
 F6FB  00 00 00 00 00 00 00 00 00 00 00 00 00 00 00 00  |................|
 F70B  00 00 00 00 00 00 00 00 00 00 00 00 00 00 00 00  |................|
 F71B  00 00 00 00 00 00 00 00 00 00 00 00 00 00 00 00  |................|
 F72B  00 00 00 00 00 00 00 00 00 00 00 00 00 00 00 00  |................|
 F73B  00 00 00 00 00 00 00 00 00 00 00 00 00 00 00 00  |................|
 F74B  00 00 00 00 00 00 00 00 00 00 00 00 00 00 00 00  |................|
 F75B  00 00 00 00 00 00 00 00 00 00 00 00 00 00 00 00  |................|
 F76B  00 00 00 00 00 00 00 00 00 00 00 00 00 00 00 00  |................|
 F77B  00 00 00 00 00 00 00 00 00 00 00 00 00 00 00 00  |................|
 F78B  00 00 00 00 00 00 00 00 00 00 00 00 00 00 00 00  |................|
 F79B  00 00 00 00 00 00 00 00 00 00 00 00 00 00 00 00  |................|
 F7AB  00 00 00 00 00 00 00 00 00 00 00 00 00 00 00 00  |................|
 F7BB  00 00 00 00 00 00 00 00 00 00 00 00 00 00 00 00  |................|
 F7CB  00 00 00 00 00 00 00 00 00 00 00 00 00 00 00 00  |................|
 F7DB  00 00 00 00 00 00 00 00 00 00 00 00 00 00 00 00  |................|
 F7EB  00 00 00 00 00 00 00 00 00 00 00 00 00 00 00 00  |................|
 F7FB  00 00 00 00 00 00 00 00 00 00 00 00 00 00 00 00  |................|
 F80B  00 00 00 00 00 00 00 00 00 00 00 00 00 00 00 00  |................|
 F81B  00 00 00 00 00 00 00 00 00 00 00 00 00 00 00 00  |................|
 F82B  00 00 00 00 00 00 00 00 00 00 00 00 00 00 00 00  |................|
 F83B  00 00 00 00 00 00 00 00 00 00 00 00 00 00 00 00  |................|
 F84B  00 00 00 00 00 00 00 00 00 00 00 00 00 00 00 00  |................|
 F85B  00 00 00 00 00 00 00 00 00 00 00 00 00 00 00 00  |................|
 F86B  00 00 00 00 00 00 00 00 00 00 00 00 00 00 00 00  |................|
 F87B  00 00 00 00 00 00 00 00 00 00 00 00 00 00 00 00  |................|
 F88B  00 00 00 00 00 00 00 00 00 00 00 00 00 00 00 00  |................|
 F89B  00 00 00 00 00 00 00 00 00 00 00 00 00 00 00 00  |................|
 F8AB  00 00 00 00 00 00 00 00 00 00 00 00 00 00 00 00  |................|
 F8BB  00 00 00 00 00 00 00 00 00 00 00 00 00 00 00 00  |................|
 F8CB  00 00 00 00 00 00 00 00 00 00 00 00 00 00 00 00  |................|
 F8DB  00 00 00 00 00 00 00 00 00 00 00 00 00 00 00 00  |................|
 F8EB  00 00 00 00 00 00 00 00 00 00 00 00 00 00 00 00  |................|
 F8FB  00 00 00 00 00 00 00 00 00 00 00 00 00 00 00 00  |................|
 F90B  00 00 00 00 00 00 00 00 00 00 00 00 00 00 00 00  |................|
 F91B  00 00 00 00 00 00 00 00 00 00 00 00 00 00 00 00  |................|
 F92B  00 00 00 00 00 00 00 00 00 00 00 00 00 00 00 00  |................|
 F93B  00 00 00 00 00 00 00 00 00 00 00 00 00 00 00 00  |................|
 F94B  00 00 00 00 00 00 00 00 00 00 00 00 00 00 00 00  |................|
 F95B  00 00 00 00 00 00 00 00 00 00 00 00 00 00 00 00  |................|
 F96B  00 00 00 00 00 00 00 00 00 00 00 00 00 00 00 00  |................|
 F97B  00 00 00 00 00 00 00 00 00 00 00 00 00 00 00 00  |................|
 F98B  00 00 00 00 00 00 00 00 00 00 00 00 00 00 00 00  |................|
 F99B  00 00 00 00 00 00 00 00 00 00 00 00 00 00 00 00  |................|
 F9AB  00 00 00 00 00 00 00 00 00 00 00 00 00 00 00 00  |................|
 F9BB  00 00 00 00 00 00 00 00 00 00 00 00 00 00 00 00  |................|
 F9CB  00 00 00 00 00 00 00 00 00 00 00 00 00 00 00 00  |................|
 F9DB  00 00 00 00 00 00 00 00 00 00 00 00 00 00 00 00  |................|
 F9EB  00 00 00 00 00 00 00 00 00 00 00 00 00 00 00 00  |................|
 F9FB  00 00 00 00 00 00 00 00 00 00 00 00 00 00 00 00  |................|
 FA0B  00 00 00 00 00 00 00 00 00 00 00 00 00 00 00 00  |................|
 FA1B  00 00 00 00 00 00 00 00 00 00 00 00 00 00 00 00  |................|
 FA2B  00 00 00 00 00 00 00 00 00 00 00 00 00 00 00 00  |................|
 FA3B  00 00 00 00 00 00 00 00 00 00 00 00 00 00 00 00  |................|
 FA4B  00 00 00 00 00 00 00 00 00 00 00 00 00 00 00 00  |................|
 FA5B  00 00 00 00 00 00 00 00 00 00 00 00 00 00 00 00  |................|
 FA6B  00 00 00 00 00 00 00 00 00 00 00 00 00 00 00 00  |................|
 FA7B  00 00 00 00 00 00 00 00 00 00 00 00 00 00 00 00  |................|
 FA8B  00 00 00 00 00 00 00 00 00 00 00 00 00 00 00 00  |................|
 FA9B  00 00 00 00 00 00 00 00 00 00 00 00 00 00 00 00  |................|
 FAAB  00 00 00 00 00 00 00 00 00 00 00 00 00 00 00 00  |................|
 FABB  00 00 00 00 00 00 00 00 00 00 00 00 00 00 00 00  |................|
 FACB  00 00 00 00 00 00 00 00 00 00 00 00 00 00 00 00  |................|
 FADB  00 00 00 00 00 00 00 00 00 00 00 00 00 00 00 00  |................|
 FAEB  00 00 00 00 00 00 00 00 00 00 00 00 00 00 00 00  |................|
 FAFB  00 00 00 00 00 00 00 00 00 00 00 00 00 00 00 00  |................|
 FB0B  00 00 00 00 00 00 00 00 00 00 00 00 00 00 00 00  |................|
 FB1B  00 00 00 00 00 00 00 00 00 00 00 00 00 00 00 00  |................|
 FB2B  00 00 00 00 00 00 00 00 00 00 00 00 00 00 00 00  |................|
 FB3B  00 00 00 00 00 00 00 00 00 00 00 00 00 00 00 00  |................|
 FB4B  00 00 00 00 00 00 00 00 00 00 00 00 00 00 00 00  |................|
 FB5B  00 00 00 00 00 00 00 00 00 00 00 00 00 00 00 00  |................|
 FB6B  00 00 00 00 00 00 00 00 00 00 00 00 00 00 00 00  |................|
 FB7B  00 00 00 00 00 00 00 00 00 00 00 00 00 00 00 00  |................|
 FB8B  00 00 00 00 00 00 00 00 00 00 00 00 00 00 00 00  |................|
 FB9B  00 00 00 00 00 00 00 00 00 00 00 00 00 00 00 00  |................|
 FBAB  00 00 00 00 00 00 00 00 00 00 00 00 00 00 00 00  |................|
 FBBB  00 00 00 00 00 00 00 00 00 00 00 00 00 00 00 00  |................|
 FBCB  00 00 00 00 00 00 00 00 00 00 00 00 00 00 00 00  |................|
 FBDB  00 00 00 00 00 00 00 00 00 00 00 00 00 00 00 00  |................|
 FBEB  00 00 00 00 00 00 00 00 00 00 00 00 00 00 00 00  |................|
 FBFB  00 00 00 00 00 00 00 00 00 00 00 00 00 00 00 00  |................|
 FC0B  00 00 00 00 00 00 00 00 00 00 00 00 00 00 00 00  |................|
 FC1B  00 00 00 00 00 00 00 00 00 00 00 00 00 00 00 00  |................|
 FC2B  00 00 00 00 00 00 00 00 00 00 00 00 00 00 00 00  |................|
 FC3B  00 00 00 00 00 00 00 00 00 00 00 00 00 00 00 00  |................|
 FC4B  00 00 00 00 00 00 00 00 00 00 00 00 00 00 00 00  |................|
 FC5B  00 00 00 00 00 00 00 00 00 00 00 00 00 00 00 00  |................|
 FC6B  00 00 00 00 00 00 00 00 00 00 00 00 00 00 00 00  |................|
 FC7B  00 00 00 00 00 00 00 00 00 00 00 00 00 00 00 00  |................|
 FC8B  00 00 00 00 00 00 00 00 00 00 00 00 00 00 00 00  |................|
 FC9B  00 00 00 00 00 00 00 00 00 00 00 00 00 00 00 00  |................|
 FCAB  00 00 00 00 00 00 00 00 00 00 00 00 00 00 00 00  |................|
 FCBB  00 00 00 00 00 00 00 00 00 00 00 00 00 00 00 00  |................|
 FCCB  00 00 00 00 00 00 00 00 00 00 00 00 00 00 00 00  |................|
 FCDB  00 00 00 00 00 00 00 00 00 00 00 00 00 00 00 00  |................|
 FCEB  00 00 00 00 00 00 00 00 00 00 00 00 00 00 00 00  |................|
 FCFB  00 00 00 00 00 00 00 00 00 00 00 00 00 00 00 00  |................|
 FD0B  00 00 00 00 00 00 00 00 00 00 00 00 00 00 00 00  |................|
 FD1B  00 00 00 00 00 00 00 00 00 00 00 00 00 00 00 00  |................|
 FD2B  00 00 00 00 00 00 00 00 00 00 00 00 00 00 00 00  |................|
 FD3B  00 00 00 00 00 00 00 00 00 00 00 00 00 00 00 00  |................|
 FD4B  00 00 00 00 00 00 00 00 00 00 00 00 00 00 00 00  |................|
 FD5B  00 00 00 00 00 00 00 00 00 00 00 00 00 00 00 00  |................|
 FD6B  00 00 00 00 00 00 00 00 00 00 00 00 00 00 00 00  |................|
 FD7B  00 00 00 00 00 00 00 00 00 00 00 00 00 00 00 00  |................|
 FD8B  00 00 00 00 00 00 00 00 00 00 00 00 00 00 00 00  |................|
 FD9B  00 00 00 00 00 00 00 00 00 00 00 00 00 00 00 00  |................|
 FDAB  00 00 00 00 00 00 00 00 00 00 00 00 00 00 00 00  |................|
 FDBB  00 00 00 00 00 00 00 00 00 00 00 00 00 00 00 00  |................|
 FDCB  00 00 00 00 00 00 00 00 00 00 00 00 00 00 00 00  |................|
 FDDB  00 00 00 00 00 00 00 00 00 00 00 00 00 00 00 00  |................|
 FDEB  00 00 00 00 00 00 00 00 00 00 00 00 00 00 00 00  |................|
 FDFB  00 00 00 00 00 00 00 00 00 00 00 00 00 00 00 00  |................|
 FE0B  00 00 00 00 00 00 00 00 00 00 00 00 00 00 00 00  |................|
 FE1B  00 00 00 00 00 00 00 00 00 00 00 00 00 00 00 00  |................|
 FE2B  00 00 00 00 00 00 00 00 00 00 00 00 00 00 00 00  |................|
 FE3B  00 00 00 00 00 00 00 00 00 00 00 00 00 00 00 00  |................|
 FE4B  00 00 00 00 00 00 00 00 00 00 00 00 00 00 00 00  |................|
 FE5B  00 00 00 00 00 00 00 00 00 00 00 00 00 00 00 00  |................|
 FE6B  00 00 00 00 00 00 00 00 00 00 00 00 00 00 00 00  |................|
 FE7B  00 00 00 00 00 00 00 00 00 00 00 00 00 00 00 00  |................|
 FE8B  00 00 00 00 00 00 00 00 00 00 00 00 00 00 00 00  |................|
 FE9B  00 00 00 00 00 00 00 00 00 00 00 00 00 00 00 00  |................|
 FEAB  00 00 00 00 00 00 00 00 00 00 00 00 00 00 00 00  |................|
 FEBB  00 00 00 00 00 00 00 00 00 00 00 00 00 00 00 00  |................|
 FECB  00 00 00 00 00 00 00 00 00 00 00 00 00 00 00 00  |................|
 FEDB  00 00 00 00 00 00 00 00 00 00 00 00 00 00 00 00  |................|
 FEEB  00 00 00 00 00 00 00 00 00 00 00 00 00 00 00 00  |................|
 FEFB  00 00 00 00 00 00 00 00 00 00 00 00 00 00 00 00  |................|
 FF0B  00 00 00 00 00 00 00 00 00 00 00 00 00 00 00 00  |................|
 FF1B  00 00 00 00 00 00 00 00 00 00 00 00 00 00 00 00  |................|
 FF2B  00 00 00 00 00 00 00 00 00 00 00 00 00 00 00 00  |................|
 FF3B  00 00 00 00 00 00 00 00 00 00 00 00 00 00 00 00  |................|
 FF4B  00 00 00 00 00 00 00 00 00 00 00 00 00 00 00 00  |................|
 FF5B  00 00 00 00 00 00 00 00 00 00 00 00 00 00 00 00  |................|
 FF6B  00 00 00 00 00 00 00 00 00 00 00 00 00 00 00 00  |................|
 FF7B  00 00 00 00 00 00 00 00 00 00 00 00 00 00 00 00  |................|
 FF8B  00 00 00 00 00 00 00 00 00 00 00 00 00 00 00 00  |................|
 FF9B  00 00 00 00 00 00 00 00 00 00 00 00 00 00 00 00  |................|
 FFAB  00 00 00 00 00 00 00 00 00 00 00 00 00 00 00 00  |................|
 FFBB  00 00 00 00 00 00 00 00 00 00 00 00 00 00 00 00  |................|
 FFCB  00 00 00 00 00 00 00 00 00 00 00 00 00 00 00 00  |................|
 FFDB  00 00 00 00 00 00 00 00 00 00 00 00 00 00 00 00  |................|
 FFEB  00 00 00 00 00 00 00 00 00 00 00 00 00 00 00 10  |................|
 FFFB  F0 10 F0 10 F0                                   |.....           |
